
experiment2.elf:     file format elf32-littlenios2
experiment2.elf
architecture: nios2, flags 0x00000112:
EXEC_P, HAS_SYMS, D_PAGED
start address 0x000801cc

Program Header:
    LOAD off    0x00000094 vaddr 0x00080000 paddr 0x00080000 align 2**0
         filesz 0x0001701c memsz 0x0001701c flags r-x
    LOAD off    0x000170b0 vaddr 0x0009701c paddr 0x00098b00 align 2**0
         filesz 0x00001ae4 memsz 0x00001ae4 flags rw-
    LOAD off    0x00018b94 vaddr 0x0009a5e4 paddr 0x0009a5e4 align 2**0
         filesz 0x00000000 memsz 0x0000b5e8 flags rw-

Sections:
Idx Name          Size      VMA       LMA       File off  Algn
  0 .entry        00000020  00080000  00080000  00000094  2**5
                  CONTENTS, ALLOC, LOAD, READONLY, CODE
  1 .exceptions   000001ac  00080020  00080020  000000b4  2**2
                  CONTENTS, ALLOC, LOAD, READONLY, CODE
  2 .text         00015dcc  000801cc  000801cc  00000260  2**2
                  CONTENTS, ALLOC, LOAD, READONLY, CODE
  3 .rodata       00001084  00095f98  00095f98  0001602c  2**2
                  CONTENTS, ALLOC, LOAD, READONLY, DATA
  4 .rwdata       00001ae4  0009701c  00098b00  000170b0  2**2
                  CONTENTS, ALLOC, LOAD, DATA, SMALL_DATA
  5 .bss          0000b5e8  0009a5e4  0009a5e4  00018b94  2**2
                  ALLOC, SMALL_DATA
  6 .sram_0       00000000  000a5bcc  000a5bcc  00018b94  2**0
                  CONTENTS
  7 .comment      0000138a  00000000  00000000  00018b94  2**0
                  CONTENTS, READONLY
  8 .debug_aranges 00000f38  00000000  00000000  00019f20  2**3
                  CONTENTS, READONLY, DEBUGGING
  9 .debug_pubnames 000023b5  00000000  00000000  0001ae58  2**0
                  CONTENTS, READONLY, DEBUGGING
 10 .debug_info   0003510d  00000000  00000000  0001d20d  2**0
                  CONTENTS, READONLY, DEBUGGING
 11 .debug_abbrev 00009c10  00000000  00000000  0005231a  2**0
                  CONTENTS, READONLY, DEBUGGING
 12 .debug_line   0001c49b  00000000  00000000  0005bf2a  2**0
                  CONTENTS, READONLY, DEBUGGING
 13 .debug_frame  000027a8  00000000  00000000  000783c8  2**2
                  CONTENTS, READONLY, DEBUGGING
 14 .debug_str    0000266d  00000000  00000000  0007ab70  2**0
                  CONTENTS, READONLY, DEBUGGING
 15 .debug_alt_sim_info 00000010  00000000  00000000  0007d1e0  2**2
                  CONTENTS, READONLY, DEBUGGING
 16 .debug_ranges 000005a0  00000010  00000010  0007d1f0  2**0
                  CONTENTS, READONLY, DEBUGGING
 17 .thread_model 00000006  00000000  00000000  0008272c  2**0
                  CONTENTS, READONLY
 18 .cpu          00000005  00000000  00000000  00082732  2**0
                  CONTENTS, READONLY
 19 .qsys         00000001  00000000  00000000  00082737  2**0
                  CONTENTS, READONLY
 20 .simulation_enabled 00000001  00000000  00000000  00082738  2**0
                  CONTENTS, READONLY
 21 .stderr_dev   0000000b  00000000  00000000  00082739  2**0
                  CONTENTS, READONLY
 22 .stdin_dev    0000000b  00000000  00000000  00082744  2**0
                  CONTENTS, READONLY
 23 .stdout_dev   0000000b  00000000  00000000  0008274f  2**0
                  CONTENTS, READONLY
 24 .sopc_system_name 0000000b  00000000  00000000  0008275a  2**0
                  CONTENTS, READONLY
 25 .quartus_project_dir 0000003e  00000000  00000000  00082765  2**0
                  CONTENTS, READONLY
 26 .sopcinfo     0004b6b5  00000000  00000000  000827a3  2**0
                  CONTENTS, READONLY
SYMBOL TABLE:
00080000 l    d  .entry	00000000 
00080020 l    d  .exceptions	00000000 
000801cc l    d  .text	00000000 
00095f98 l    d  .rodata	00000000 
0009701c l    d  .rwdata	00000000 
0009a5e4 l    d  .bss	00000000 
000a5bcc l    d  .sram_0	00000000 
00000000 l    d  .comment	00000000 
00000000 l    d  .debug_aranges	00000000 
00000000 l    d  .debug_pubnames	00000000 
00000000 l    d  .debug_info	00000000 
00000000 l    d  .debug_abbrev	00000000 
00000000 l    d  .debug_line	00000000 
00000000 l    d  .debug_frame	00000000 
00000000 l    d  .debug_str	00000000 
00000000 l    d  .debug_alt_sim_info	00000000 
00000010 l    d  .debug_ranges	00000000 
00000000 l    d  *ABS*	00000000 
00000000 l    d  *ABS*	00000000 
00000000 l    d  *ABS*	00000000 
00000000 l    df *ABS*	00000000 HAL/src/crt0.S
00000000 l    df *ABS*	00000000 ./HAL/inc/sys/alt_log_printf.h
00000000 l    df *ABS*	00000000 ./system.h
00000000 l    df *ABS*	00000000 ./HAL/inc/sys/alt_log_printf.h
00000000 l    df *ABS*	00000000 HAL/src/crt0.S
00000000 l    df *ABS*	00000000 ./HAL/inc/nios2.h
00000000 l    df *ABS*	00000000 HAL/src/crt0.S
00000000 l    df *ABS*	00000000 ./system.h
00000000 l    df *ABS*	00000000 ./linker.h
00000000 l    df *ABS*	00000000 ./system.h
00000000 l    df *ABS*	00000000 HAL/src/crt0.S
00000000 l    df *ABS*	00000000 <command line>
00000000 l    df *ABS*	00000000 <built-in>
00000000 l    df *ABS*	00000000 /cygdrive/c/Users/lim14/coe4ds4_lab6_2020/coe4ds4_lab6_2020/experiment2/software/experiment2_bsp//
00000000 l    df *ABS*	00000000 HAL/src/crt0.S
00080204 l       .text	00000000 alt_after_alt_main
00000000 l    df *ABS*	00000000 HAL/src/alt_irq_entry.S
00000000 l    df *ABS*	00000000 ./system.h
00000000 l    df *ABS*	00000000 ./linker.h
00000000 l    df *ABS*	00000000 ./system.h
00000000 l    df *ABS*	00000000 HAL/src/alt_irq_entry.S
00000000 l    df *ABS*	00000000 <command line>
00000000 l    df *ABS*	00000000 <built-in>
00000000 l    df *ABS*	00000000 /cygdrive/c/Users/lim14/coe4ds4_lab6_2020/coe4ds4_lab6_2020/experiment2/software/experiment2_bsp//
00000000 l    df *ABS*	00000000 HAL/src/alt_irq_entry.S
00000000 l    df *ABS*	00000000 HAL/src/alt_exception_entry.S
00000000 l    df *ABS*	00000000 ./system.h
00000000 l    df *ABS*	00000000 ./linker.h
00000000 l    df *ABS*	00000000 ./system.h
00000000 l    df *ABS*	00000000 HAL/src/alt_exception_entry.S
00000000 l    df *ABS*	00000000 <command line>
00000000 l    df *ABS*	00000000 <built-in>
00000000 l    df *ABS*	00000000 /cygdrive/c/Users/lim14/coe4ds4_lab6_2020/coe4ds4_lab6_2020/experiment2/software/experiment2_bsp//
00000000 l    df *ABS*	00000000 HAL/src/alt_exception_entry.S
00000000 l    df *ABS*	00000000 alt_irq_handler.c
00000000 l    df *ABS*	00000000 PB_button.c
00000000 l    df *ABS*	00000000 alt_ucosii_simple_error_check.c
00000000 l    df *ABS*	00000000 experiment2.c
00000000 l    df *ABS*	00000000 tasks.c
00000000 l    df *ABS*	00000000 lib2-divmod.c
000819d0 l     F .text	00000060 udivmodsi4
00000000 l    df *ABS*	00000000 lib2-mul.c
00000000 l    df *ABS*	00000000 fprintf.c
00000000 l    df *ABS*	00000000 impure.c
0009701c l     O .rwdata	0000037c impure_data
00000000 l    df *ABS*	00000000 printf.c
00000000 l    df *ABS*	00000000 rand.c
00000000 l    df *ABS*	00000000 vfprintf1.c
00081bf0 l     F .text	00000058 __sprint
00096a14 l     O .rodata	00000010 blanks.0
00096a24 l     O .rodata	00000010 zeroes.1
00000000 l    df *ABS*	00000000 wcrtomb.c
00000000 l    df *ABS*	00000000 wcsrtombs.c
00000000 l    df *ABS*	00000000 wctomb_r.c
00000000 l    df *ABS*	00000000 wsetup.c
00000000 l    df *ABS*	00000000 dtoa.c
00084090 l     F .text	0000022c quorem
00000000 l    df *ABS*	00000000 fflush.c
00000000 l    df *ABS*	00000000 findfp.c
00085790 l     F .text	00000058 std
00000000 l    df *ABS*	00000000 mallocr.c
00000000 l    df *ABS*	00000000 fvwrite.c
00000000 l    df *ABS*	00000000 fwalk.c
00000000 l    df *ABS*	00000000 locale.c
00096c44 l     O .rodata	00000030 lconv
00098a2c l     O .rwdata	00000004 charset
00000000 l    df *ABS*	00000000 makebuf.c
00000000 l    df *ABS*	00000000 malloc.c
00000000 l    df *ABS*	00000000 mallocr.c
00000000 l    df *ABS*	00000000 memchr.c
00000000 l    df *ABS*	00000000 memcpy.c
00000000 l    df *ABS*	00000000 memmove.c
00000000 l    df *ABS*	00000000 memset.c
00000000 l    df *ABS*	00000000 mprec.c
00096d8c l     O .rodata	0000000c p05.0
00000000 l    df *ABS*	00000000 mallocr.c
00000000 l    df *ABS*	00000000 s_isinf.c
00000000 l    df *ABS*	00000000 s_isnan.c
00000000 l    df *ABS*	00000000 sbrkr.c
00000000 l    df *ABS*	00000000 stdio.c
00000000 l    df *ABS*	00000000 strcmp.c
00000000 l    df *ABS*	00000000 strlen.c
00000000 l    df *ABS*	00000000 writer.c
00000000 l    df *ABS*	00000000 mallocr.c
00000000 l    df *ABS*	00000000 closer.c
00000000 l    df *ABS*	00000000 fstatr.c
00000000 l    df *ABS*	00000000 int_errno.c
00000000 l    df *ABS*	00000000 lseekr.c
00000000 l    df *ABS*	00000000 readr.c
00000000 l    df *ABS*	00000000 libgcc2.c
00000000 l    df *ABS*	00000000 libgcc2.c
00000000 l    df *ABS*	00000000 libgcc2.c
00000000 l    df *ABS*	00000000 libgcc2.c
00000000 l    df *ABS*	00000000 nios2-dp-bit.c
00089520 l     F .text	0000031c _fpadd_parts
00000000 l    df *ABS*	00000000 nios2-dp-bit.c
00000000 l    df *ABS*	00000000 nios2-dp-bit.c
00000000 l    df *ABS*	00000000 nios2-dp-bit.c
00000000 l    df *ABS*	00000000 nios2-dp-bit.c
00000000 l    df *ABS*	00000000 nios2-dp-bit.c
00000000 l    df *ABS*	00000000 nios2-dp-bit.c
00000000 l    df *ABS*	00000000 nios2-dp-bit.c
00000000 l    df *ABS*	00000000 nios2-dp-bit.c
00000000 l    df *ABS*	00000000 nios2-dp-bit.c
00000000 l    df *ABS*	00000000 nios2-dp-bit.c
00000000 l    df *ABS*	00000000 libgcc2.c
00000000 l    df *ABS*	00000000 libgcc2.c
00000000 l    df *ABS*	00000000 nios2-dp-bit.c
00000000 l    df *ABS*	00000000 nios2-dp-bit.c
00000000 l    df *ABS*	00000000 nios2-dp-bit.c
00000000 l    df *ABS*	00000000 libgcc2.c
00000000 l    df *ABS*	00000000 alt_close.c
0008aa14 l     F .text	00000048 alt_get_errno
00000000 l    df *ABS*	00000000 alt_dev.c
0008aa5c l     F .text	00000028 alt_dev_null_write
00000000 l    df *ABS*	00000000 alt_errno.c
00000000 l    df *ABS*	00000000 alt_fstat.c
0008ab58 l     F .text	00000048 alt_get_errno
00000000 l    df *ABS*	00000000 alt_irq_register.c
00000000 l    df *ABS*	00000000 alt_irq_vars.c
00000000 l    df *ABS*	00000000 alt_isatty.c
0008ae04 l     F .text	00000048 alt_get_errno
00000000 l    df *ABS*	00000000 alt_load.c
0008aec8 l     F .text	00000068 alt_load_section
00000000 l    df *ABS*	00000000 alt_lseek.c
0008b020 l     F .text	00000048 alt_get_errno
00000000 l    df *ABS*	00000000 alt_main.c
00000000 l    df *ABS*	00000000 alt_printf.c
00000000 l    df *ABS*	00000000 alt_putchar.c
00000000 l    df *ABS*	00000000 alt_read.c
0008b4c4 l     F .text	00000048 alt_get_errno
00000000 l    df *ABS*	00000000 alt_release_fd.c
00000000 l    df *ABS*	00000000 alt_sbrk.c
00098a70 l     O .rwdata	00000004 heap_end
00000000 l    df *ABS*	00000000 alt_write.c
0008b760 l     F .text	00000048 alt_get_errno
00000000 l    df *ABS*	00000000 alt_env_lock.c
00098a74 l     O .rwdata	00000004 lockid
0009a5f0 l     O .bss	00000004 locks
00000000 l    df *ABS*	00000000 alt_malloc_lock.c
00098a78 l     O .rwdata	00000004 lockid
0009a5f8 l     O .bss	00000004 locks
00000000 l    df *ABS*	00000000 os_core.c
0008d070 l     F .text	00000040 OS_InitMisc
0008d0b0 l     F .text	0000006c OS_InitRdyList
0008d20c l     F .text	000000dc OS_InitTCBList
0008cf98 l     F .text	000000d8 OS_InitEventList
0008d11c l     F .text	00000078 OS_InitTaskIdle
0008d194 l     F .text	00000078 OS_InitTaskStat
0008d464 l     F .text	00000064 OS_SchedNew
00000000 l    df *ABS*	00000000 os_dbg.c
00000000 l    df *ABS*	00000000 os_flag.c
0008f1b0 l     F .text	000000dc OS_FlagTaskRdy
0008ef90 l     F .text	00000148 OS_FlagBlock
00000000 l    df *ABS*	00000000 os_mem.c
00000000 l    df *ABS*	00000000 os_q.c
00000000 l    df *ABS*	00000000 os_sem.c
00000000 l    df *ABS*	00000000 os_task.c
00000000 l    df *ABS*	00000000 os_time.c
00000000 l    df *ABS*	00000000 alt_sys_init.c
0009797c l     O .rwdata	0000106c jtag_uart_0
000989e8 l     O .rwdata	0000002c character_lcd_0
00093540 l     F .text	00000030 alt_dev_reg
00000000 l    df *ABS*	00000000 altera_avalon_jtag_uart_fd.c
00000000 l    df *ABS*	00000000 altera_avalon_jtag_uart_init.c
0009382c l     F .text	000002bc altera_avalon_jtag_uart_irq
00093ae8 l     F .text	00000114 altera_avalon_jtag_uart_timeout
00000000 l    df *ABS*	00000000 altera_avalon_jtag_uart_ioctl.c
00000000 l    df *ABS*	00000000 altera_avalon_jtag_uart_read.c
00000000 l    df *ABS*	00000000 altera_avalon_jtag_uart_write.c
00000000 l    df *ABS*	00000000 altera_avalon_timer_sc.c
00094318 l     F .text	00000074 alt_avalon_timer_sc_irq
00000000 l    df *ABS*	00000000 altera_up_avalon_character_lcd.c
00000000 l    df *ABS*	00000000 alt_alarm_start.c
00000000 l    df *ABS*	00000000 alt_dcache_flush_all.c
00000000 l    df *ABS*	00000000 alt_dev_llist_insert.c
00094b08 l     F .text	00000048 alt_get_errno
00000000 l    df *ABS*	00000000 alt_do_ctors.c
00000000 l    df *ABS*	00000000 alt_do_dtors.c
00000000 l    df *ABS*	00000000 alt_find_dev.c
00000000 l    df *ABS*	00000000 alt_icache_flush_all.c
00000000 l    df *ABS*	00000000 alt_iic.c
00000000 l    df *ABS*	00000000 alt_iic_isr_register.c
00000000 l    df *ABS*	00000000 alt_io_redirect.c
00094f44 l     F .text	000000dc alt_open_fd
00000000 l    df *ABS*	00000000 alt_open.c
00095094 l     F .text	000000e8 alt_file_locked
00095304 l     F .text	00000048 alt_get_errno
00000000 l    df *ABS*	00000000 alt_tick.c
00000000 l    df *ABS*	00000000 altera_nios2_qsys_irq.c
00000000 l    df *ABS*	00000000 HAL/src/os_cpu_a.S
00000000 l    df *ABS*	00000000 ./UCOSII/inc/os_cfg.h
00000000 l    df *ABS*	00000000 ./system.h
00000000 l    df *ABS*	00000000 ./linker.h
00000000 l    df *ABS*	00000000 ./system.h
00000000 l    df *ABS*	00000000 ./UCOSII/inc/os_cfg.h
00000000 l    df *ABS*	00000000 HAL/src/os_cpu_a.S
00000000 l    df *ABS*	00000000 <command line>
00000000 l    df *ABS*	00000000 <built-in>
00000000 l    df *ABS*	00000000 /cygdrive/c/Users/lim14/coe4ds4_lab6_2020/coe4ds4_lab6_2020/experiment2/software/experiment2_bsp//
00000000 l    df *ABS*	00000000 HAL/src/os_cpu_a.S
00000040 l       *ABS*	00000000 OSCtxSw_SWITCH_PC
00000000 l    df *ABS*	00000000 os_cpu_c.c
00000014 l       *ABS*	00000000 OSTCBNext_OFFSET
00000032 l       *ABS*	00000000 OSTCBPrio_OFFSET
00000000 l       *ABS*	00000000 OSTCBStkPtr_OFFSET
00000000 l    df *ABS*	00000000 alt_find_file.c
00000000 l    df *ABS*	00000000 alt_get_fd.c
00000000 l    df *ABS*	00000000 atexit.c
0009a644 l     O .bss	00000004 lock.0
00000000 l    df *ABS*	00000000 exit.c
00000000 l    df *ABS*	00000000 memcmp.c
00000000 l    df *ABS*	00000000 putc.c
00000000 l    df *ABS*	00000000 wbuf.c
00000000 l    df *ABS*	00000000 alt_exit.c
00095f38 l     F .text	0000003c alt_sim_halt
00087bb4 g     F .text	000000b0 _mprec_log10
00098ac6 g     O .rwdata	00000002 OSTaskNameSize
00096c74 g     O .rodata	00000028 __mprec_tinytens
0008b068 g     F .text	000000d4 alt_main
0008a8c8 g     F .text	00000050 __ashldi3
00086fec g     F .text	00000064 _hi0bits
000a59c0 g     O .bss	00000100 alt_irq
000886ec g     F .text	00000064 _lseek_r
0008fa44 g     F .text	000000d0 OS_MemInit
00098b00 g       *ABS*	00000000 __flash_rwdata_start
00093430 g     F .text	00000060 OSTimeSet
00094488 g     F .text	00000030 alt_up_character_lcd_send_cmd
00089f70 g     F .text	0000008c __eqdf2
0008bcd8 g     F .text	000006b8 OSEventPendMulti
000a5bcc g       *ABS*	00000000 __alt_heap_start
000958f4 g     F .text	0000001c OSTaskCreateHook
0009a648 g     O .bss	00002000 custom_scheduler_stk
00081b38 g     F .text	00000034 printf
00098a9e g     O .rwdata	00000002 OSMboxEn
0008c3e0 g     F .text	00000078 OSIntEnter
0008392c g     F .text	00000064 _wcrtomb_r
00088368 g     F .text	00000078 __sseek
0008580c g     F .text	0000009c __sinit
00098aae g     O .rwdata	00000002 OSQEn
000860dc g     F .text	00000088 _setlocale_r
0008b99c g     F .text	000000c8 __malloc_unlock
00095944 g     F .text	00000018 OSTaskStatHook
0009a616 g     O .bss	00000001 OSLockNesting
000802c8 g     F .text	00000040 KEY3_Pressed
00098aec g     O .rwdata	00000002 OSDataSize
0009a61d g     O .bss	00000001 OSRunning
00086b54 g     F .text	00000108 memmove
00095974 g     F .text	00000018 OSInitHookBegin
00098ae4 g     O .rwdata	00000002 OSTmrSize
000857fc g     F .text	00000010 _cleanup
00086cf8 g     F .text	000000b0 _Balloc
0009a620 g     O .bss	00000004 OSIdleCtr
0008a088 g     F .text	0000008c __gtdf2
000955b4 g       .text	00000000 OSStartTsk
00000000  w      *UND*	00000000 __errno
00094418 g     F .text	00000070 get_DDRAM_addr
0008d77c g     F .text	000002c4 OS_TCBInit
00080000 g     F .entry	0000000c __reset
00098aea g     O .rwdata	00000002 OSTmrWheelTblSize
0008798c g     F .text	0000017c _d2b
00087140 g     F .text	00000254 _multiply
00080020 g       .exceptions	00000000 __flash_exceptions_start
00098a8a g     O .rwdata	00000002 OSEventSize
0009a618 g     O .bss	00000001 OSPrioHighRdy
0008868c g     F .text	00000060 _fstat_r
00095910 g     F .text	0000001c OSTaskDelHook
0009a5e4 g     O .bss	00000004 errno
00095594 g       .text	00000000 OSStartHighRdy
00091e48 g     F .text	000001e8 OSTaskCreateExt
00087b08 g     F .text	000000ac _ratio
00080690 g     F .text	0000003c initialize_task
0008eac0 g     F .text	00000064 OSFlagPendGetFlagsRdy
00098aca g     O .rwdata	00000002 OSTaskStatStkSize
0008dbc8 g     F .text	0000031c OSFlagAccept
000900d0 g     F .text	000000c8 OSQFlush
0008fb14 g     F .text	0000014c OSQAccept
00098a68 g     O .rwdata	00000004 alt_argv
000a0a14 g       *ABS*	00000000 _gp
00086ef0 g     F .text	000000fc _s2b
00087104 g     F .text	0000003c _i2b
00091c8c g     F .text	000001bc OSTaskCreate
000917c4 g     F .text	000004c8 OSTaskChangePrio
0009a5f4 g     O .bss	00000004 alt_heapsem
0008da40 g     F .text	00000188 OSDebugInit
00092030 g     F .text	00000348 OSTaskDel
00080a9c g     F .text	0000088c custom_scheduler
000977fc g     O .rwdata	00000180 alt_fd_list
000a279c g     O .bss	00000370 OSFlagTbl
00081964 g     F .text	0000006c custom_delay
0008cda4 g     F .text	000000a0 OS_EventTaskRemove
00094c00 g     F .text	00000090 alt_find_dev
00086a98 g     F .text	000000bc memcpy
00098ab4 g     O .rwdata	00000002 OSRdyTblSize
000945e0 g     F .text	00000044 alt_up_character_lcd_write_fd
000857e8 g     F .text	00000014 _cleanup_r
0008a22c g     F .text	000000d0 __floatsidf
00095020 g     F .text	00000074 alt_io_redirect
0008a1a0 g     F .text	0000008c __ltdf2
00095f98 g       *ABS*	00000000 __DTOR_END__
0008083c g     F .text	00000078 init_OS_data_structs
0008ba64 g     F .text	00000130 OSEventNameGet
00098a98 g     O .rwdata	00000002 OSFlagMax
0008c458 g     F .text	000000e8 OSIntExit
00098ad2 g     O .rwdata	00000002 OSTCBSize
0009a617 g     O .bss	00000001 OSPrioCur
00093d60 g     F .text	000002cc altera_avalon_jtag_uart_read
000862ec g     F .text	00000014 malloc
00081acc g     F .text	00000010 __udivsi3
0008ad44 g     F .text	000000c0 isatty
0009c648 g     O .bss	00004000 periodic_task_stk
00098ab8 g     O .rwdata	00000002 OSStkWidth
00096cc4 g     O .rodata	000000c8 __mprec_tens
00098aac g     O .rwdata	00000002 OSPtrSize
00086164 g     F .text	00000008 __locale_charset
00098a8c g     O .rwdata	00000002 OSEventTblSize
00095508 g       .text	00000000 OSCtxSw
00098a3c g     O .rwdata	00000004 __malloc_top_pad
0009a630 g     O .bss	00000004 OSTCBList
0009a5e8 g     O .bss	00000004 alt_fd_list_lock
00098a28 g     O .rwdata	00000004 __mb_cur_max
0008616c g     F .text	0000000c _localeconv_r
000a2b0c g     O .bss	00000c30 OSMemTbl
0009a634 g     O .bss	00000001 OSTickStepState
0008822c g     F .text	0000004c _sbrk_r
00098ab0 g     O .rwdata	00000002 OSQMax
000861a4 g     F .text	00000148 __smakebuf
000a373c g     O .bss	00000800 OSTaskStatStk
0008f630 g     F .text	00000104 OSMemNameGet
00098a90 g     O .rwdata	00000002 OSFlagEn
00088750 g     F .text	00000064 _read_r
00098ad6 g     O .rwdata	00000002 OSTimeTickHookEn
000905b0 g     F .text	00000174 OSQPost
0008f28c g     F .text	000000a8 OS_FlagUnlink
00097398 g     O .rwdata	0000000c __lc_ctype
00098a54 g     O .rwdata	00000004 alt_max_fd
0008d338 g     F .text	00000068 OS_MemCopy
0008d3a0 g     F .text	000000c4 OS_Sched
0008a68c g     F .text	00000128 __unpack_d
0008f528 g     F .text	00000108 OSMemGet
0009268c g     F .text	000001b4 OSTaskNameSet
000856a8 g     F .text	000000e8 fflush
00098a34 g     O .rwdata	00000004 __malloc_max_sbrked_mem
0009a5fc g     O .bss	00000004 OSCtxSwCtr
0009595c g     F .text	00000018 OSTimeTickHook
0008aba0 g     F .text	000001a4 alt_irq_register
00098a9a g     O .rwdata	00000002 OSFlagNameSize
0008ce44 g     F .text	000000ec OS_EventTaskRemoveMulti
0008983c g     F .text	0000006c __adddf3
0008cc74 g     F .text	00000130 OS_EventTaskWaitMulti
00098ab2 g     O .rwdata	00000002 OSQSize
00088ed0 g     F .text	00000650 __umoddi3
0008af30 g     F .text	000000f0 lseek
000910ec g     F .text	00000214 OSSemPend
000a0648 g     O .bss	00000010 PBSemaphore
00087c64 g     F .text	00000550 _realloc_r
00098a9c g     O .rwdata	00000002 OSLowestPrio
000a5bcc g       *ABS*	00000000 __bss_end
00094e48 g     F .text	000000fc alt_iic_isr_register
000959bc g     F .text	0000001c OSTCBInitHook
00098ae2 g     O .rwdata	00000002 OSTmrCfgTicksPerSec
000953e8 g     F .text	00000104 alt_tick
00087050 g     F .text	000000b4 _lo0bits
000a0658 g     O .bss	0000006c custom_scheduler_tcb
000888e0 g     F .text	000005f0 __udivdi3
00098a84 g     O .rwdata	00000002 OSEventEn
00096c9c g     O .rodata	00000028 __mprec_bigtens
00098ade g     O .rwdata	00000002 OSTmrCfgNameSize
000875f8 g     F .text	00000064 __mcmp
00094e08 g     F .text	00000040 alt_ic_irq_enabled
0008f0d8 g     F .text	000000d8 OS_FlagInit
0009534c g     F .text	0000009c alt_alarm_stop
00098ac0 g     O .rwdata	00000002 OSTaskIdleStkSize
00098a5c g     O .rwdata	00000004 alt_irq_active
00090cd8 g     F .text	000000bc OSSemAccept
0008f850 g     F .text	000000f4 OSMemPut
0008f334 g     F .text	000001f4 OSMemCreate
0009a60c g     O .bss	00000004 OSIdleCtrMax
000800ec g     F .exceptions	000000e0 alt_irq_handler
000977d4 g     O .rwdata	00000028 alt_dev_null
00098ad4 g     O .rwdata	00000002 OSTicksPerSec
00080288 g     F .text	00000040 KEY2_Pressed
000948bc g     F .text	00000030 alt_up_character_lcd_cursor_blink_on
00095508 g       .text	00000000 OSIntCtxSw
00094a40 g     F .text	00000018 alt_dcache_flush_all
000a06c4 g     O .bss	000000d8 periodic_task_tcb
0008a2fc g     F .text	000000b0 __fixdfsi
0009a628 g     O .bss	00000004 OSTCBFreeList
00098b00 g       *ABS*	00000000 __ram_rwdata_end
000881b4 g     F .text	00000044 isinf
00091300 g     F .text	00000174 OSSemPendAbort
00098a4c g     O .rwdata	00000008 alt_dev_list
0008b640 g     F .text	00000120 write
00098ad8 g     O .rwdata	00000002 OSVersionNbr
0009701c g       *ABS*	00000000 __ram_rodata_end
0008aa84 g     F .text	000000d4 fstat
00081b14 g     F .text	00000024 fprintf
0008a3ac g     F .text	00000050 __lshrdi3
00098a80 g     O .rwdata	00000004 OSEndiannessTest
00098a24 g     O .rwdata	00000004 __nlocale_changed
00081adc g     F .text	00000010 __umodsi3
00098a92 g     O .rwdata	00000002 OSFlagGrpSize
000a5bcc g       *ABS*	00000000 end
00087394 g     F .text	0000012c _pow5mult
000936a8 g     F .text	00000184 altera_avalon_jtag_uart_init
0008d5f4 g     F .text	000000cc OS_TaskStat
00095f98 g       *ABS*	00000000 __CTOR_LIST__
00100000 g       *ABS*	00000000 __alt_stack_pointer
0009438c g     F .text	0000008c alt_avalon_timer_sc_init
0009402c g     F .text	000002ec altera_avalon_jtag_uart_write
000869cc g     F .text	000000cc memchr
0008d2e8 g     F .text	00000050 OS_MemClr
0009451c g     F .text	00000068 alt_up_character_lcd_write
00081c48 g     F .text	00001c78 ___vfprintf_internal_r
000955d8 g     F .text	0000031c OSTaskStkInit
000859cc g     F .text	000002b8 _free_r
0008b13c g     F .text	00000234 alt_printf
000839b4 g     F .text	00000140 _wcsrtombs_r
0008ca14 g     F .text	00000174 OS_EventTaskRdy
0009a608 g     O .bss	00000001 OSCPUUsage
00098a20 g     O .rwdata	00000004 __mlocale_changed
00098a38 g     O .rwdata	00000004 __malloc_sbrk_base
000801cc g     F .text	0000003c _start
00098af0 g     O .rwdata	00000004 _alt_tick_rate
00090198 g     F .text	000002a4 OSQPend
00092f80 g     F .text	000000f8 OSTimeDly
00081b80 g     F .text	00000070 rand
00098af4 g     O .rwdata	00000004 _alt_nticks
0008b3a4 g     F .text	00000120 read
000934c0 g     F .text	00000080 alt_sys_init
0009474c g     F .text	000000b0 alt_up_character_lcd_shift_display
0009a61e g     O .bss	00000001 OSTaskCtr
0008093c g     F .text	000000b0 periodic_task1
00083af4 g     F .text	0000003c wcsrtombs
00093078 g     F .text	00000180 OSTimeDlyHMSM
000947fc g     F .text	00000090 alt_up_character_lcd_erase_pos
00093bfc g     F .text	0000006c altera_avalon_jtag_uart_close
00081aec g     F .text	00000028 __mulsi3
0009701c g       *ABS*	00000000 __ram_rwdata_start
00095f98 g       *ABS*	00000000 __ram_rodata_start
000973a4 g     O .rwdata	00000028 __malloc_current_mallinfo
00098a86 g     O .rwdata	00000002 OSEventMax
00085c84 g     F .text	00000384 __sfvwrite
00091474 g     F .text	0000011c OSSemPost
000888c0 g     F .text	00000020 __negdi2
00080248 g     F .text	00000040 KEY1_Pressed
0008c5c4 g     F .text	000000d8 OSSchedUnlock
00093570 g     F .text	00000054 altera_avalon_jtag_uart_read_fd
00095abc g     F .text	000000e8 alt_get_fd
0009a638 g     O .bss	00000004 OSMemFreeList
0008c6fc g     F .text	000000b8 OSStatInit
0008eebc g     F .text	000000d4 OSFlagQuery
0008a7b4 g     F .text	00000114 __fpcmp_parts_d
00098abc g     O .rwdata	00000002 OSTaskCreateExtEn
00088630 g     F .text	0000005c _close_r
00095d24 g     F .text	00000070 memcmp
0008c9fc g     F .text	00000018 OS_Dummy
00093618 g     F .text	00000044 altera_avalon_jtag_uart_close_fd
000a5bcc g       *ABS*	00000000 __alt_stack_base
0009365c g     F .text	0000004c altera_avalon_jtag_uart_ioctl_fd
000a3f3c g     O .bss	000001e0 OSQTbl
00089d20 g     F .text	00000250 __divdf3
000973cc g     O .rwdata	00000408 __malloc_av_
0009a62c g     O .bss	00000004 OSTCBHighRdy
00089920 g     F .text	00000400 __muldf3
00088278 g     F .text	00000070 __sread
0009a63c g     O .bss	00000004 OSQFreeList
000959d8 g     F .text	000000e4 alt_find_file
00094a58 g     F .text	000000b0 alt_dev_llist_insert
0008b8a0 g     F .text	000000fc __malloc_lock
0008b580 g     F .text	000000c0 sbrk
0008bb94 g     F .text	00000144 OSEventNameSet
0008157c g     F .text	000003e8 custom_task_create
0008856c g     F .text	000000c4 _calloc_r
0009a619 g     O .bss	00000001 OSRdyGrp
0009a5e4 g       *ABS*	00000000 __bss_start
00086c5c g     F .text	0000009c memset
000806cc g     F .text	00000170 main
00098a6c g     O .rwdata	00000004 alt_envp
00098a30 g     O .rwdata	00000004 __malloc_max_total_mem
000935c4 g     F .text	00000054 altera_avalon_jtag_uart_write_fd
00095e20 g     F .text	00000118 __swbuf
00081b6c g     F .text	00000014 srand
00096ecc g     O .rodata	00000100 OSUnMapTbl
000877e0 g     F .text	00000088 _ulp
00098ab6 g     O .rwdata	00000002 OSSemEn
0009469c g     F .text	000000b0 alt_up_character_lcd_shift_cursor
0008eb24 g     F .text	00000398 OSFlagPost
000883e0 g     F .text	00000014 __sclose
0008046c g     F .text	00000224 alt_ucosii_simple_error_handler
00100000 g       *ABS*	00000000 __alt_heap_limit
0008cb88 g     F .text	000000ec OS_EventTaskWait
0008d6c0 g     F .text	000000bc OS_TaskStatStkChk
000a5ac0 g     O .bss	0000010c _atexit0
00092378 g     F .text	00000170 OSTaskDelReq
000842bc g     F .text	000013ec _dtoa_r
00086314 g     F .text	000006b8 _malloc_r
00098a58 g     O .rwdata	00000004 alt_errno
0008c69c g     F .text	00000060 OSStart
0008b848 g     F .text	00000058 __env_unlock
00086008 g     F .text	000000d4 _fwalk
00092840 g     F .text	000001d4 OSTaskResume
0008f944 g     F .text	00000100 OSMemQuery
00098ac8 g     O .rwdata	00000002 OSTaskStatEn
00098aa2 g     O .rwdata	00000002 OSMemMax
00090724 g     F .text	00000178 OSQPostFront
00095d94 g     F .text	0000008c putc
00081a30 g     F .text	00000050 __divsi3
0009a61a g     O .bss	00000003 OSRdyTbl
00098a7c g     O .rwdata	00000002 OSDebugEn
00096d98 g     O .rodata	00000014 __thenan_df
000944e4 g     F .text	00000038 alt_up_character_lcd_open_dev
000858a8 g     F .text	00000124 _malloc_trim_r
00095f98 g       *ABS*	00000000 __CTOR_END__
00098a94 g     O .rwdata	00000002 OSFlagNodeSize
00098adc g     O .rwdata	00000002 OSTmrCfgMax
000944b8 g     F .text	0000002c alt_up_character_lcd_init
000883f4 g     F .text	000000b8 strcmp
0008fc60 g     F .text	000001c0 OSQCreate
000924e8 g     F .text	000001a4 OSTaskNameGet
00095f98 g       .rodata	00000000 __flash_rodata_start
0009089c g     F .text	0000021c OSQPostOpt
0008c7b4 g     F .text	0000022c OSTimeTick
00098ac4 g     O .rwdata	00000002 OSTaskMax
00095f98 g       *ABS*	00000000 __DTOR_LIST__
00090d94 g     F .text	000000e8 OSSemCreate
00098ae8 g     O .rwdata	00000002 OSTmrWheelSize
00089ffc g     F .text	0000008c __nedf2
00098abe g     O .rwdata	00000002 OSTaskDelEn
00080000 g       *ABS*	00000000 __alt_mem_sram_0
00091590 g     F .text	00000134 OSSemQuery
0008fe20 g     F .text	000002b0 OSQDel
0009043c g     F .text	00000174 OSQPendAbort
00093490 g     F .text	00000030 alt_irq_init
0008b50c g     F .text	00000074 alt_release_fd
000803dc g     F .text	00000050 init_button_irq
00083f84 g     F .text	0000010c __swsetup
0009488c g     F .text	00000030 alt_up_character_lcd_cursor_off
00096dac g     O .rodata	00000100 .hidden __clz_tab
00098a1c g     O .rwdata	00000004 _PathLocale
00095ba4 g     F .text	0000009c atexit
00088508 g     F .text	00000064 _write_r
00087868 g     F .text	00000124 _b2d
0008c540 g     F .text	00000084 OSSchedLock
00086178 g     F .text	0000001c setlocale
0008dee4 g     F .text	00000118 OSFlagCreate
000808b4 g     F .text	00000088 init_create_tasks
00098a18 g     O .rwdata	00000004 _impure_ptr
00098a64 g     O .rwdata	00000004 alt_argc
00094ba8 g     F .text	00000058 _do_dtors
00098a8e g     O .rwdata	00000002 OSEventMultiEn
000881f8 g     F .text	00000034 isnan
0008dffc g     F .text	0000027c OSFlagDel
0009a600 g     O .bss	00000004 OSEventFreeList
00080020 g       .exceptions	00000000 alt_irq_entry
0008e4fc g     F .text	000005c4 OSFlagPend
00098ada g     O .rwdata	00000002 OSTmrEn
00081328 g     F .text	00000254 custom_task_del
00098a44 g     O .rwdata	00000008 alt_fs_list
0008042c g     F .text	00000040 alt_ucosii_check_return_code
0008d4c8 g     F .text	00000078 OS_StrCopy
00098aa4 g     O .rwdata	00000002 OSMemNameSize
0009598c g     F .text	00000018 OSInitHookEnd
00080020 g       *ABS*	00000000 __ram_exceptions_start
00098ad0 g     O .rwdata	00000002 OSTCBPrioTblMax
00086194 g     F .text	00000010 localeconv
00086dcc g     F .text	00000124 _multadd
00098acc g     O .rwdata	00000002 OSTaskStatStkChkEn
00094ca8 g     F .text	0000004c alt_ic_isr_register
00098aa0 g     O .rwdata	00000002 OSMemEn
00098aaa g     O .rwdata	00000002 OSMutexEn
00098b00 g       *ABS*	00000000 _edata
00080208 g     F .text	00000040 KEY0_Pressed
000a5bcc g       *ABS*	00000000 _end
0009a615 g     O .bss	00000001 OSIntNesting
000801cc g       *ABS*	00000000 __ram_exceptions_end
00093c68 g     F .text	000000f8 altera_avalon_jtag_uart_ioctl
000931f8 g     F .text	000001d8 OSTimeDlyResume
0008e3b0 g     F .text	0000014c OSFlagNameSet
000809ec g     F .text	000000b0 periodic_task2
00092a14 g     F .text	000001d8 OSTaskStkChk
00094d7c g     F .text	0000008c alt_ic_irq_disable
00098aa6 g     O .rwdata	00000002 OSMemSize
000882e8 g     F .text	00000080 __swrite
00098a40 g     O .rwdata	00000004 __malloc_trim_threshold
000954ec g     F .text	0000001c altera_nios2_qsys_irq_init
0009a624 g     O .bss	00000004 OSTCBCur
00095c40 g     F .text	000000e4 exit
00098aa8 g     O .rwdata	00000002 OSMemTblSize
0008765c g     F .text	00000184 __mdiff
00081a80 g     F .text	0000004c __modsi3
00100000 g       *ABS*	00000000 __alt_data_end
00080020 g     F .exceptions	00000000 alt_exception
0008c390 g     F .text	00000050 OSInit
00092dd0 g     F .text	0000013c OSTaskQuery
00094584 g     F .text	0000005c alt_up_character_lcd_string
00090c38 g     F .text	000000a0 OS_QInit
0008d540 g     F .text	00000050 OS_StrLen
0008f734 g     F .text	0000011c OSMemNameSet
00098a14 g     O .rwdata	00000004 performance_name
00098ac2 g     O .rwdata	00000002 OSTaskProfileEn
0009a640 g     O .bss	00000004 OSTime
000a079c g     O .bss	00002000 initialize_task_stk
000a411c g     O .bss	00000800 OSTaskIdleStk
00095f74 g     F .text	00000024 _exit
000948ec g     F .text	00000154 alt_alarm_start
0008e278 g     F .text	00000138 OSFlagNameGet
000933d0 g     F .text	00000060 OSTimeGet
000887b4 g     F .text	0000010c __muldi3
000884ac g     F .text	0000005c strlen
0009592c g     F .text	00000018 OSTaskSwHook
0009517c g     F .text	00000188 open
000a491c g     O .bss	00000b40 OSEventTbl
0008a114 g     F .text	0000008c __gedf2
0008b370 g     F .text	00000034 alt_putchar
000a545c g     O .bss	00000510 OSTCBTbl
000916c4 g     F .text	00000100 OSSemSet
00094c90 g     F .text	00000018 alt_icache_flush_all
00094624 g     F .text	00000078 alt_up_character_lcd_set_cursor_pos
00098a60 g     O .rwdata	00000004 alt_priority_mask
00090e7c g     F .text	00000270 OSSemDel
0009a604 g     O .bss	00000004 OSFlagFreeList
00094cf4 g     F .text	00000088 alt_ic_irq_enable
00098a88 g     O .rwdata	00000002 OSEventNameSize
000838c0 g     F .text	0000006c __vfprintf_internal
0009a614 g     O .bss	00000001 OSStatRdy
000a596c g     O .bss	00000054 OSTCBPrioTbl
00083b30 g     F .text	00000454 _wctomb_r
0008b7a8 g     F .text	000000a0 __env_lock
00098ace g     O .rwdata	00000002 OSTaskSwHookEn
000898a8 g     F .text	00000078 __subdf3
00098af8 g     O .rwdata	00000008 alt_alarm_list
00098a96 g     O .rwdata	00000002 OSFlagWidth
00094b50 g     F .text	00000058 _do_ctors
00080308 g     F .text	000000d4 handle_button_interrupts
00083990 g     F .text	00000024 wcrtomb
0008a918 g     F .text	000000fc close
0009a5ec g     O .bss	00000004 alt_envsem
0009a610 g     O .bss	00000004 OSIdleCtrRun
0008c9e0 g     F .text	0000001c OSVersion
00098ae0 g     O .rwdata	00000002 OSTmrCfgWheelSize
0008ae4c g     F .text	0000007c alt_load
00092f0c g     F .text	00000074 OS_TaskStkClr
0008a3fc g     F .text	00000290 __pack_d
00098aba g     O .rwdata	00000002 OSTaskCreateEn
0008cf30 g     F .text	00000068 OS_EventWaitListInit
000959a4 g     F .text	00000018 OSTaskIdleHook
000874c0 g     F .text	00000138 _lshift
00086300 g     F .text	00000014 free
00092bec g     F .text	000001e4 OSTaskSuspend
00086da8 g     F .text	00000024 _Bfree
0008d590 g     F .text	00000064 OS_TaskIdle
00098ae6 g     O .rwdata	00000002 OSTmrTblSize
00090ab8 g     F .text	00000180 OSQQuery


Disassembly of section .entry:

00080000 <__reset>:
   80000:	00400234 	movhi	at,8
   80004:	08407314 	ori	at,at,460
   80008:	0800683a 	jmp	at
	...
Disassembly of section .exceptions:

00080020 <alt_exception>:
   80020:	deffed04 	addi	sp,sp,-76
   80024:	dfc00015 	stw	ra,0(sp)
   80028:	d8400215 	stw	at,8(sp)
   8002c:	d8800315 	stw	r2,12(sp)
   80030:	d8c00415 	stw	r3,16(sp)
   80034:	d9000515 	stw	r4,20(sp)
   80038:	d9400615 	stw	r5,24(sp)
   8003c:	d9800715 	stw	r6,28(sp)
   80040:	d9c00815 	stw	r7,32(sp)
   80044:	000b307a 	rdctl	r5,estatus
   80048:	da000915 	stw	r8,36(sp)
   8004c:	da400a15 	stw	r9,40(sp)
   80050:	da800b15 	stw	r10,44(sp)
   80054:	dac00c15 	stw	r11,48(sp)
   80058:	db000d15 	stw	r12,52(sp)
   8005c:	db400e15 	stw	r13,56(sp)
   80060:	db800f15 	stw	r14,60(sp)
   80064:	dbc01015 	stw	r15,64(sp)
   80068:	d9401115 	stw	r5,68(sp)
   8006c:	ebffff04 	addi	r15,ea,-4
   80070:	dbc01215 	stw	r15,72(sp)
   80074:	0009313a 	rdctl	r4,ipending
   80078:	2880004c 	andi	r2,r5,1
   8007c:	10000326 	beq	r2,zero,8008c <__ram_exceptions_start+0x6c>
   80080:	20000226 	beq	r4,zero,8008c <__ram_exceptions_start+0x6c>
   80084:	00800ec0 	call	800ec <alt_irq_handler>
   80088:	00000306 	br	80098 <__ram_exceptions_start+0x78>
   8008c:	df401215 	stw	ea,72(sp)
   80090:	e8bfff17 	ldw	r2,-4(ea)
   80094:	003da03a 	break	0
   80098:	d9401117 	ldw	r5,68(sp)
   8009c:	df401217 	ldw	ea,72(sp)
   800a0:	dfc00017 	ldw	ra,0(sp)
   800a4:	2801707a 	wrctl	estatus,r5
   800a8:	d8400217 	ldw	at,8(sp)
   800ac:	d8800317 	ldw	r2,12(sp)
   800b0:	d8c00417 	ldw	r3,16(sp)
   800b4:	d9000517 	ldw	r4,20(sp)
   800b8:	d9400617 	ldw	r5,24(sp)
   800bc:	d9800717 	ldw	r6,28(sp)
   800c0:	d9c00817 	ldw	r7,32(sp)
   800c4:	da000917 	ldw	r8,36(sp)
   800c8:	da400a17 	ldw	r9,40(sp)
   800cc:	da800b17 	ldw	r10,44(sp)
   800d0:	dac00c17 	ldw	r11,48(sp)
   800d4:	db000d17 	ldw	r12,52(sp)
   800d8:	db400e17 	ldw	r13,56(sp)
   800dc:	db800f17 	ldw	r14,60(sp)
   800e0:	dbc01017 	ldw	r15,64(sp)
   800e4:	dec01304 	addi	sp,sp,76
   800e8:	ef80083a 	eret

000800ec <alt_irq_handler>:
   800ec:	defff904 	addi	sp,sp,-28
   800f0:	dfc00615 	stw	ra,24(sp)
   800f4:	df000515 	stw	fp,20(sp)
   800f8:	df000504 	addi	fp,sp,20
   800fc:	008c3e00 	call	8c3e0 <OSIntEnter>
   80100:	0005313a 	rdctl	r2,ipending
   80104:	e0bfff15 	stw	r2,-4(fp)
   80108:	e0bfff17 	ldw	r2,-4(fp)
   8010c:	e0bffe15 	stw	r2,-8(fp)
   80110:	e0bffe17 	ldw	r2,-8(fp)
   80114:	e0bffb15 	stw	r2,-20(fp)
   80118:	e03ffd15 	stw	zero,-12(fp)
   8011c:	00800044 	movi	r2,1
   80120:	e0bffc15 	stw	r2,-16(fp)
   80124:	e0fffb17 	ldw	r3,-20(fp)
   80128:	e0bffc17 	ldw	r2,-16(fp)
   8012c:	1884703a 	and	r2,r3,r2
   80130:	1005003a 	cmpeq	r2,r2,zero
   80134:	10000f1e 	bne	r2,zero,80174 <alt_irq_handler+0x88>
   80138:	00c002b4 	movhi	r3,10
   8013c:	18d67004 	addi	r3,r3,22976
   80140:	e0bffd17 	ldw	r2,-12(fp)
   80144:	100490fa 	slli	r2,r2,3
   80148:	10c9883a 	add	r4,r2,r3
   8014c:	00c002b4 	movhi	r3,10
   80150:	18d67004 	addi	r3,r3,22976
   80154:	e0bffd17 	ldw	r2,-12(fp)
   80158:	100490fa 	slli	r2,r2,3
   8015c:	10c5883a 	add	r2,r2,r3
   80160:	10800104 	addi	r2,r2,4
   80164:	20c00017 	ldw	r3,0(r4)
   80168:	11000017 	ldw	r4,0(r2)
   8016c:	183ee83a 	callr	r3
   80170:	00000706 	br	80190 <alt_irq_handler+0xa4>
   80174:	e0bffc17 	ldw	r2,-16(fp)
   80178:	1085883a 	add	r2,r2,r2
   8017c:	e0bffc15 	stw	r2,-16(fp)
   80180:	e0bffd17 	ldw	r2,-12(fp)
   80184:	10800044 	addi	r2,r2,1
   80188:	e0bffd15 	stw	r2,-12(fp)
   8018c:	003fe506 	br	80124 <alt_irq_handler+0x38>
   80190:	0005313a 	rdctl	r2,ipending
   80194:	e0bffe15 	stw	r2,-8(fp)
   80198:	e0bffe17 	ldw	r2,-8(fp)
   8019c:	e0bfff15 	stw	r2,-4(fp)
   801a0:	e0bfff17 	ldw	r2,-4(fp)
   801a4:	e0bffb15 	stw	r2,-20(fp)
   801a8:	e0bffb17 	ldw	r2,-20(fp)
   801ac:	1005003a 	cmpeq	r2,r2,zero
   801b0:	1000011e 	bne	r2,zero,801b8 <alt_irq_handler+0xcc>
   801b4:	003fd806 	br	80118 <alt_irq_handler+0x2c>
   801b8:	008c4580 	call	8c458 <OSIntExit>
   801bc:	dfc00617 	ldw	ra,24(sp)
   801c0:	df000517 	ldw	fp,20(sp)
   801c4:	dec00704 	addi	sp,sp,28
   801c8:	f800283a 	ret
Disassembly of section .text:

000801cc <_start>:
   801cc:	06c00434 	movhi	sp,16
   801d0:	dec00014 	ori	sp,sp,0
   801d4:	068002b4 	movhi	gp,10
   801d8:	d6828514 	ori	gp,gp,2580
   801dc:	00800274 	movhi	r2,9
   801e0:	10a97914 	ori	r2,r2,42468
   801e4:	00c002b4 	movhi	r3,10
   801e8:	18d6f314 	ori	r3,r3,23500
   801ec:	10c00326 	beq	r2,r3,801fc <__ram_exceptions_end+0x30>
   801f0:	10000015 	stw	zero,0(r2)
   801f4:	10800104 	addi	r2,r2,4
   801f8:	10fffd36 	bltu	r2,r3,801f0 <__ram_exceptions_end+0x24>
   801fc:	008ae4c0 	call	8ae4c <alt_load>
   80200:	008b0680 	call	8b068 <alt_main>

00080204 <alt_after_alt_main>:
   80204:	003fff06 	br	80204 <alt_after_alt_main>

00080208 <KEY0_Pressed>:
// Semaphore from uCOS
extern OS_EVENT *PBSemaphore[];

// Function for post semaphore when PB0 is pressed
void KEY0_Pressed() {
   80208:	defffd04 	addi	sp,sp,-12
   8020c:	dfc00215 	stw	ra,8(sp)
   80210:	df000115 	stw	fp,4(sp)
   80214:	df000104 	addi	fp,sp,4
	INT8U return_code = OS_NO_ERR;
   80218:	e03fff05 	stb	zero,-4(fp)

	return_code = OSSemPost(PBSemaphore[0]);
   8021c:	008002b4 	movhi	r2,10
   80220:	10819204 	addi	r2,r2,1608
   80224:	11000017 	ldw	r4,0(r2)
   80228:	00914740 	call	91474 <OSSemPost>
   8022c:	e0bfff05 	stb	r2,-4(fp)
  	alt_ucosii_check_return_code(return_code);
   80230:	e13fff03 	ldbu	r4,-4(fp)
   80234:	008042c0 	call	8042c <alt_ucosii_check_return_code>
}
   80238:	dfc00217 	ldw	ra,8(sp)
   8023c:	df000117 	ldw	fp,4(sp)
   80240:	dec00304 	addi	sp,sp,12
   80244:	f800283a 	ret

00080248 <KEY1_Pressed>:

// Function for post semaphore when PB1 is pressed
void KEY1_Pressed() {
   80248:	defffd04 	addi	sp,sp,-12
   8024c:	dfc00215 	stw	ra,8(sp)
   80250:	df000115 	stw	fp,4(sp)
   80254:	df000104 	addi	fp,sp,4
	INT8U return_code = OS_NO_ERR;
   80258:	e03fff05 	stb	zero,-4(fp)

	return_code = OSSemPost(PBSemaphore[1]);
   8025c:	008002b4 	movhi	r2,10
   80260:	10819204 	addi	r2,r2,1608
   80264:	11000117 	ldw	r4,4(r2)
   80268:	00914740 	call	91474 <OSSemPost>
   8026c:	e0bfff05 	stb	r2,-4(fp)
  	alt_ucosii_check_return_code(return_code);
   80270:	e13fff03 	ldbu	r4,-4(fp)
   80274:	008042c0 	call	8042c <alt_ucosii_check_return_code>
}
   80278:	dfc00217 	ldw	ra,8(sp)
   8027c:	df000117 	ldw	fp,4(sp)
   80280:	dec00304 	addi	sp,sp,12
   80284:	f800283a 	ret

00080288 <KEY2_Pressed>:

// Function for post semaphore when PB2 is pressed
void KEY2_Pressed() {
   80288:	defffd04 	addi	sp,sp,-12
   8028c:	dfc00215 	stw	ra,8(sp)
   80290:	df000115 	stw	fp,4(sp)
   80294:	df000104 	addi	fp,sp,4
	INT8U return_code = OS_NO_ERR;
   80298:	e03fff05 	stb	zero,-4(fp)

	return_code = OSSemPost(PBSemaphore[2]);
   8029c:	008002b4 	movhi	r2,10
   802a0:	10819204 	addi	r2,r2,1608
   802a4:	11000217 	ldw	r4,8(r2)
   802a8:	00914740 	call	91474 <OSSemPost>
   802ac:	e0bfff05 	stb	r2,-4(fp)
  	alt_ucosii_check_return_code(return_code);
   802b0:	e13fff03 	ldbu	r4,-4(fp)
   802b4:	008042c0 	call	8042c <alt_ucosii_check_return_code>
}
   802b8:	dfc00217 	ldw	ra,8(sp)
   802bc:	df000117 	ldw	fp,4(sp)
   802c0:	dec00304 	addi	sp,sp,12
   802c4:	f800283a 	ret

000802c8 <KEY3_Pressed>:

// Function for post semaphore when PB3 is pressed
void KEY3_Pressed() {
   802c8:	defffd04 	addi	sp,sp,-12
   802cc:	dfc00215 	stw	ra,8(sp)
   802d0:	df000115 	stw	fp,4(sp)
   802d4:	df000104 	addi	fp,sp,4
	INT8U return_code = OS_NO_ERR;
   802d8:	e03fff05 	stb	zero,-4(fp)

	return_code = OSSemPost(PBSemaphore[3]);
   802dc:	008002b4 	movhi	r2,10
   802e0:	10819204 	addi	r2,r2,1608
   802e4:	11000317 	ldw	r4,12(r2)
   802e8:	00914740 	call	91474 <OSSemPost>
   802ec:	e0bfff05 	stb	r2,-4(fp)
  	alt_ucosii_check_return_code(return_code);
   802f0:	e13fff03 	ldbu	r4,-4(fp)
   802f4:	008042c0 	call	8042c <alt_ucosii_check_return_code>
}
   802f8:	dfc00217 	ldw	ra,8(sp)
   802fc:	df000117 	ldw	fp,4(sp)
   80300:	dec00304 	addi	sp,sp,12
   80304:	f800283a 	ret

00080308 <handle_button_interrupts>:
// ISR when any PB is pressed
void handle_button_interrupts()
{
   80308:	defffc04 	addi	sp,sp,-16
   8030c:	dfc00315 	stw	ra,12(sp)
   80310:	df000215 	stw	fp,8(sp)
   80314:	dc000115 	stw	r16,4(sp)
   80318:	df000204 	addi	fp,sp,8
	OSIntEnter();
   8031c:	008c3e00 	call	8c3e0 <OSIntEnter>

    outport(LED_GREEN_O_BASE,get_pio_edge_cap(PUSH_BUTTON_I_BASE)*get_pio_edge_cap(PUSH_BUTTON_I_BASE));
   80320:	04000434 	movhi	r16,16
   80324:	84042404 	addi	r16,r16,4240
   80328:	00800434 	movhi	r2,16
   8032c:	10841f04 	addi	r2,r2,4220
   80330:	11000037 	ldwio	r4,0(r2)
   80334:	00800434 	movhi	r2,16
   80338:	10841f04 	addi	r2,r2,4220
   8033c:	11400037 	ldwio	r5,0(r2)
   80340:	0081aec0 	call	81aec <__mulsi3>
   80344:	80800035 	stwio	r2,0(r16)
    switch(get_pio_edge_cap(PUSH_BUTTON_I_BASE)) {
   80348:	00800434 	movhi	r2,16
   8034c:	10841f04 	addi	r2,r2,4220
   80350:	10800037 	ldwio	r2,0(r2)
   80354:	e0bffe15 	stw	r2,-8(fp)
   80358:	e0fffe17 	ldw	r3,-8(fp)
   8035c:	188000a0 	cmpeqi	r2,r3,2
   80360:	1000101e 	bne	r2,zero,803a4 <handle_button_interrupts+0x9c>
   80364:	e0fffe17 	ldw	r3,-8(fp)
   80368:	188000c8 	cmpgei	r2,r3,3
   8036c:	1000041e 	bne	r2,zero,80380 <handle_button_interrupts+0x78>
   80370:	e0fffe17 	ldw	r3,-8(fp)
   80374:	18800060 	cmpeqi	r2,r3,1
   80378:	1000081e 	bne	r2,zero,8039c <handle_button_interrupts+0x94>
   8037c:	00000e06 	br	803b8 <handle_button_interrupts+0xb0>
   80380:	e0fffe17 	ldw	r3,-8(fp)
   80384:	18800120 	cmpeqi	r2,r3,4
   80388:	1000081e 	bne	r2,zero,803ac <handle_button_interrupts+0xa4>
   8038c:	e0fffe17 	ldw	r3,-8(fp)
   80390:	18800220 	cmpeqi	r2,r3,8
   80394:	1000071e 	bne	r2,zero,803b4 <handle_button_interrupts+0xac>
   80398:	00000706 	br	803b8 <handle_button_interrupts+0xb0>
    case 1: KEY0_Pressed(); break;
   8039c:	00802080 	call	80208 <KEY0_Pressed>
   803a0:	00000506 	br	803b8 <handle_button_interrupts+0xb0>
    case 2: KEY1_Pressed(); break;
   803a4:	00802480 	call	80248 <KEY1_Pressed>
   803a8:	00000306 	br	803b8 <handle_button_interrupts+0xb0>
    case 4: KEY2_Pressed(); break;
   803ac:	00802880 	call	80288 <KEY2_Pressed>
   803b0:	00000106 	br	803b8 <handle_button_interrupts+0xb0>
    case 8: KEY3_Pressed(); break;
   803b4:	00802c80 	call	802c8 <KEY3_Pressed>
    }
    set_pio_edge_cap(PUSH_BUTTON_I_BASE,0x0);
   803b8:	00800434 	movhi	r2,16
   803bc:	10841f04 	addi	r2,r2,4220
   803c0:	10000035 	stwio	zero,0(r2)

	OSIntExit();
   803c4:	008c4580 	call	8c458 <OSIntExit>
}
   803c8:	dfc00317 	ldw	ra,12(sp)
   803cc:	df000217 	ldw	fp,8(sp)
   803d0:	dc000117 	ldw	r16,4(sp)
   803d4:	dec00404 	addi	sp,sp,16
   803d8:	f800283a 	ret

000803dc <init_button_irq>:

// Function for initializing the ISR of the PBs
// The PBs are setup to generate interrupt on falling edge,
// and the interrupt is captured when the edge comes
void init_button_irq() {
   803dc:	defffe04 	addi	sp,sp,-8
   803e0:	dfc00115 	stw	ra,4(sp)
   803e4:	df000015 	stw	fp,0(sp)
   803e8:	d839883a 	mov	fp,sp
  // Enable all 4 button interrupts
  set_pio_irq_mask(PUSH_BUTTON_I_BASE, BUTTON_INT_MASK);
   803ec:	00800434 	movhi	r2,16
   803f0:	10841e04 	addi	r2,r2,4216
   803f4:	00c003c4 	movi	r3,15
   803f8:	10c00035 	stwio	r3,0(r2)

  // Reset the edge capture register
  set_pio_edge_cap(PUSH_BUTTON_I_BASE, 0x0);
   803fc:	00800434 	movhi	r2,16
   80400:	10841f04 	addi	r2,r2,4220
   80404:	10000035 	stwio	zero,0(r2)

  // Register the interrupt handler
  alt_irq_register( PUSH_BUTTON_I_IRQ, NULL, (void*)handle_button_interrupts );
   80408:	01000084 	movi	r4,2
   8040c:	000b883a 	mov	r5,zero
   80410:	01800234 	movhi	r6,8
   80414:	3180c204 	addi	r6,r6,776
   80418:	008aba00 	call	8aba0 <alt_irq_register>
}
   8041c:	dfc00117 	ldw	ra,4(sp)
   80420:	df000017 	ldw	fp,0(sp)
   80424:	dec00204 	addi	sp,sp,8
   80428:	f800283a 	ret

0008042c <alt_ucosii_check_return_code>:
 

 
void alt_ucosii_check_return_code(INT8U return_code)
{
   8042c:	defffd04 	addi	sp,sp,-12
   80430:	dfc00215 	stw	ra,8(sp)
   80434:	df000115 	stw	fp,4(sp)
   80438:	df000104 	addi	fp,sp,4
   8043c:	e13fff05 	stb	r4,-4(fp)
  if(return_code != OS_NO_ERR)
   80440:	e0bfff03 	ldbu	r2,-4(fp)
   80444:	1005003a 	cmpeq	r2,r2,zero
   80448:	1000041e 	bne	r2,zero,8045c <alt_ucosii_check_return_code+0x30>
  {
    OSSchedLock();  /* Disable Task Switching but still service other IRQs */
   8044c:	008c5400 	call	8c540 <OSSchedLock>
    alt_ucosii_simple_error_handler(return_code);
   80450:	e13fff03 	ldbu	r4,-4(fp)
   80454:	008046c0 	call	8046c <alt_ucosii_simple_error_handler>
    OSSchedUnlock(); /* Enable Task Switching */
   80458:	008c5c40 	call	8c5c4 <OSSchedUnlock>
  }
}
   8045c:	dfc00217 	ldw	ra,8(sp)
   80460:	df000117 	ldw	fp,4(sp)
   80464:	dec00304 	addi	sp,sp,12
   80468:	f800283a 	ret

0008046c <alt_ucosii_simple_error_handler>:
/*The following function is a generic error handler that doesn't actually do
 * proper error handling.  It's purpose is to simply alert the user that 
 * a MicroC/OS-II system call exited with some status other than "OK".  The 
 * current implementation terminates the program.  In a real application, there
 * should be some means to recover from errors from system calls.  This function
 * can be extended with additional inputs to produce a proper error handler that
 * controls the flow that is taken from different errors occurring at different 
 * locations in the application code.
 */

void alt_ucosii_simple_error_handler(INT8U return_code)
{
   8046c:	defffc04 	addi	sp,sp,-16
   80470:	dfc00315 	stw	ra,12(sp)
   80474:	df000215 	stw	fp,8(sp)
   80478:	df000204 	addi	fp,sp,8
   8047c:	e13ffe05 	stb	r4,-8(fp)
  printf("[Program Error]: See STDERR\n");
   80480:	01000274 	movhi	r4,9
   80484:	2117e604 	addi	r4,r4,24472
   80488:	0081b380 	call	81b38 <printf>
  switch (return_code) {
   8048c:	e0bffe03 	ldbu	r2,-8(fp)
   80490:	e0bfff15 	stw	r2,-4(fp)
   80494:	e0ffff17 	ldw	r3,-4(fp)
   80498:	18801968 	cmpgeui	r2,r3,101
   8049c:	1000731e 	bne	r2,zero,8066c <alt_ucosii_simple_error_handler+0x200>
   804a0:	e0bfff17 	ldw	r2,-4(fp)
   804a4:	100690ba 	slli	r3,r2,2
   804a8:	00800274 	movhi	r2,9
   804ac:	1098d604 	addi	r2,r2,25432
   804b0:	1885883a 	add	r2,r3,r2
   804b4:	10800017 	ldw	r2,0(r2)
   804b8:	1000683a 	jmp	r2
    case OS_PRIO_EXIST:
      fprintf(stderr, "Attempted to assign a task priority that is aready in use.\n");
   804bc:	d0a00117 	ldw	r2,-32764(gp)
   804c0:	11000317 	ldw	r4,12(r2)
   804c4:	01400274 	movhi	r5,9
   804c8:	2957ee04 	addi	r5,r5,24504
   804cc:	0081b140 	call	81b14 <fprintf>
      break;
   804d0:	00006b06 	br	80680 <alt_ucosii_simple_error_handler+0x214>
    case OS_PRIO_INVALID:
      fprintf(stderr, "Specified a task priority higher than the allowed maximum.\n");
   804d4:	d0a00117 	ldw	r2,-32764(gp)
   804d8:	11000317 	ldw	r4,12(r2)
   804dc:	01400274 	movhi	r5,9
   804e0:	2957fd04 	addi	r5,r5,24564
   804e4:	0081b140 	call	81b14 <fprintf>
      fprintf(stderr, "Task can not be assigned a priority higher than %d\n",OS_LOWEST_PRIO);
   804e8:	d0a00117 	ldw	r2,-32764(gp)
   804ec:	11000317 	ldw	r4,12(r2)
   804f0:	01400274 	movhi	r5,9
   804f4:	29580c04 	addi	r5,r5,24624
   804f8:	01800504 	movi	r6,20
   804fc:	0081b140 	call	81b14 <fprintf>
      break;
   80500:	00005f06 	br	80680 <alt_ucosii_simple_error_handler+0x214>
    case OS_NO_MORE_TCB:
      fprintf(stderr, "Task Control Blocks have been exhausted\n");
   80504:	d0a00117 	ldw	r2,-32764(gp)
   80508:	11000317 	ldw	r4,12(r2)
   8050c:	01400274 	movhi	r5,9
   80510:	29581904 	addi	r5,r5,24676
   80514:	0081b140 	call	81b14 <fprintf>
      fprintf(stderr, "The current max number of task is %d\n",OS_MAX_TASKS);
   80518:	d0a00117 	ldw	r2,-32764(gp)
   8051c:	11000317 	ldw	r4,12(r2)
   80520:	01400274 	movhi	r5,9
   80524:	29582404 	addi	r5,r5,24720
   80528:	01800284 	movi	r6,10
   8052c:	0081b140 	call	81b14 <fprintf>
      break;
   80530:	00005306 	br	80680 <alt_ucosii_simple_error_handler+0x214>
    case OS_MBOX_FULL:
      fprintf(stderr, "Attempted a Post to a Mailbox that already contains a message\n");
   80534:	d0a00117 	ldw	r2,-32764(gp)
   80538:	11000317 	ldw	r4,12(r2)
   8053c:	01400274 	movhi	r5,9
   80540:	29582e04 	addi	r5,r5,24760
   80544:	0081b140 	call	81b14 <fprintf>
      break;
   80548:	00004d06 	br	80680 <alt_ucosii_simple_error_handler+0x214>
    case OS_ERR_EVENT_TYPE:
      fprintf(stderr, "Attempted to access a resource that doesn't match the required data type\n");
   8054c:	d0a00117 	ldw	r2,-32764(gp)
   80550:	11000317 	ldw	r4,12(r2)
   80554:	01400274 	movhi	r5,9
   80558:	29583e04 	addi	r5,r5,24824
   8055c:	0081b140 	call	81b14 <fprintf>
      break;
   80560:	00004706 	br	80680 <alt_ucosii_simple_error_handler+0x214>
    case OS_ERR_PEVENT_NULL:
      fprintf(stderr, "Attempting access a resource that is pointing to NULL\n");
   80564:	d0a00117 	ldw	r2,-32764(gp)
   80568:	11000317 	ldw	r4,12(r2)
   8056c:	01400274 	movhi	r5,9
   80570:	29585104 	addi	r5,r5,24900
   80574:	0081b140 	call	81b14 <fprintf>
      break;
   80578:	00004106 	br	80680 <alt_ucosii_simple_error_handler+0x214>
    case OS_ERR_POST_NULL_PTR:
      fprintf(stderr, "Attempted to Post a NULL to a resource. \n");
   8057c:	d0a00117 	ldw	r2,-32764(gp)
   80580:	11000317 	ldw	r4,12(r2)
   80584:	01400274 	movhi	r5,9
   80588:	29585f04 	addi	r5,r5,24956
   8058c:	0081b140 	call	81b14 <fprintf>
      break;
   80590:	00003b06 	br	80680 <alt_ucosii_simple_error_handler+0x214>
    case OS_TIMEOUT:
      fprintf(stderr, "Resource not received in specified time\n");
   80594:	d0a00117 	ldw	r2,-32764(gp)
   80598:	11000317 	ldw	r4,12(r2)
   8059c:	01400274 	movhi	r5,9
   805a0:	29586a04 	addi	r5,r5,25000
   805a4:	0081b140 	call	81b14 <fprintf>
      break;
   805a8:	00003506 	br	80680 <alt_ucosii_simple_error_handler+0x214>
    case OS_ERR_PEND_ISR:
      fprintf(stderr, "Attempting to pending for a resource in an ISR\n");
   805ac:	d0a00117 	ldw	r2,-32764(gp)
   805b0:	11000317 	ldw	r4,12(r2)
   805b4:	01400274 	movhi	r5,9
   805b8:	29587504 	addi	r5,r5,25044
   805bc:	0081b140 	call	81b14 <fprintf>
      break;
   805c0:	00002f06 	br	80680 <alt_ucosii_simple_error_handler+0x214>
    case OS_TASK_DEL_IDLE:
      fprintf(stderr, "Attempted to delete the IDLE task\n");
   805c4:	d0a00117 	ldw	r2,-32764(gp)
   805c8:	11000317 	ldw	r4,12(r2)
   805cc:	01400274 	movhi	r5,9
   805d0:	29588104 	addi	r5,r5,25092
   805d4:	0081b140 	call	81b14 <fprintf>
      break;
   805d8:	00002906 	br	80680 <alt_ucosii_simple_error_handler+0x214>
    case OS_TASK_DEL_ERR:
      fprintf(stderr, "Attempted to delete a task that does not exist\n");
   805dc:	d0a00117 	ldw	r2,-32764(gp)
   805e0:	11000317 	ldw	r4,12(r2)
   805e4:	01400274 	movhi	r5,9
   805e8:	29588a04 	addi	r5,r5,25128
   805ec:	0081b140 	call	81b14 <fprintf>
      break;
   805f0:	00002306 	br	80680 <alt_ucosii_simple_error_handler+0x214>
    case OS_TASK_DEL_ISR:
      fprintf(stderr, "Attempted to delete a task from an ISR\n");
   805f4:	d0a00117 	ldw	r2,-32764(gp)
   805f8:	11000317 	ldw	r4,12(r2)
   805fc:	01400274 	movhi	r5,9
   80600:	29589604 	addi	r5,r5,25176
   80604:	0081b140 	call	81b14 <fprintf>
      break;
   80608:	00001d06 	br	80680 <alt_ucosii_simple_error_handler+0x214>
    case OS_Q_FULL:
      fprintf(stderr, "Attempted to post to a full message queue\n");
   8060c:	d0a00117 	ldw	r2,-32764(gp)
   80610:	11000317 	ldw	r4,12(r2)
   80614:	01400274 	movhi	r5,9
   80618:	2958a004 	addi	r5,r5,25216
   8061c:	0081b140 	call	81b14 <fprintf>
      break;
   80620:	00001706 	br	80680 <alt_ucosii_simple_error_handler+0x214>
    case OS_ERR_NOT_MUTEX_OWNER:
      fprintf(stderr, "Attempted to post a mutex that is not owned by the task\n");
   80624:	d0a00117 	ldw	r2,-32764(gp)
   80628:	11000317 	ldw	r4,12(r2)
   8062c:	01400274 	movhi	r5,9
   80630:	2958ab04 	addi	r5,r5,25260
   80634:	0081b140 	call	81b14 <fprintf>
      break;
   80638:	00001106 	br	80680 <alt_ucosii_simple_error_handler+0x214>
    case OS_MEM_NO_FREE_BLKS:
      fprintf(stderr, "the memory partition doesnt contain any more memory blocks to allocate\n");
   8063c:	d0a00117 	ldw	r2,-32764(gp)
   80640:	11000317 	ldw	r4,12(r2)
   80644:	01400274 	movhi	r5,9
   80648:	2958ba04 	addi	r5,r5,25320
   8064c:	0081b140 	call	81b14 <fprintf>
      break;
   80650:	00000b06 	br	80680 <alt_ucosii_simple_error_handler+0x214>
    case OS_MEM_INVALID_PMEM:
      fprintf(stderr, "pmem is a NULL pointer\n");
   80654:	d0a00117 	ldw	r2,-32764(gp)
   80658:	11000317 	ldw	r4,12(r2)
   8065c:	01400274 	movhi	r5,9
   80660:	2958cc04 	addi	r5,r5,25392
   80664:	0081b140 	call	81b14 <fprintf>
      break;
   80668:	00000506 	br	80680 <alt_ucosii_simple_error_handler+0x214>
    default:
      fprintf(stderr, "Unknown Error\n");
   8066c:	d0a00117 	ldw	r2,-32764(gp)
   80670:	11000317 	ldw	r4,12(r2)
   80674:	01400274 	movhi	r5,9
   80678:	2958d204 	addi	r5,r5,25416
   8067c:	0081b140 	call	81b14 <fprintf>
      break;
  }
//  fprintf(stderr, "Program is terminating.\n");
//  exit(0);
}
   80680:	dfc00317 	ldw	ra,12(sp)
   80684:	df000217 	ldw	fp,8(sp)
   80688:	dec00404 	addi	sp,sp,16
   8068c:	f800283a 	ret

00080690 <initialize_task>:
int init_OS_data_structs(void);
int init_create_tasks(void);

// Initialization task for uCOS
void initialize_task(void* pdata) {
   80690:	defffc04 	addi	sp,sp,-16
   80694:	dfc00315 	stw	ra,12(sp)
   80698:	df000215 	stw	fp,8(sp)
   8069c:	df000204 	addi	fp,sp,8
   806a0:	e13ffe15 	stw	r4,-8(fp)
	INT8U return_code = OS_NO_ERR;
   806a4:	e03fff05 	stb	zero,-4(fp)

	// Initialize statistic counters in OS
	OSStatInit();
   806a8:	008c6fc0 	call	8c6fc <OSStatInit>

	// create os data structures
	init_OS_data_structs();
   806ac:	008083c0 	call	8083c <init_OS_data_structs>

	// create the tasks
	init_create_tasks();
   806b0:	00808b40 	call	808b4 <init_create_tasks>

	// This task is deleted because there is no need for it to run again
	return_code = OSTaskDel(OS_PRIO_SELF);
   806b4:	01003fc4 	movi	r4,255
   806b8:	00920300 	call	92030 <OSTaskDel>
   806bc:	e0bfff05 	stb	r2,-4(fp)
	alt_ucosii_check_return_code(return_code);
   806c0:	e13fff03 	ldbu	r4,-4(fp)
   806c4:	008042c0 	call	8042c <alt_ucosii_check_return_code>

	while (1);
   806c8:	003fff06 	br	806c8 <initialize_task+0x38>

000806cc <main>:
}

// The main function, it initializes the hardware, and create the initialization task,
// then it starts uCOS, and never returns
int main(void) {
   806cc:	defff704 	addi	sp,sp,-36
   806d0:	dfc00815 	stw	ra,32(sp)
   806d4:	df000715 	stw	fp,28(sp)
   806d8:	df000704 	addi	fp,sp,28
  	INT8U return_code = OS_NO_ERR;
   806dc:	e03ffe05 	stb	zero,-8(fp)
    alt_up_character_lcd_dev *lcd_0;

	printf("Start main...\n");
   806e0:	01000274 	movhi	r4,9
   806e4:	21193b04 	addi	r4,r4,25836
   806e8:	0081b380 	call	81b38 <printf>

	init_button_irq();
   806ec:	00803dc0 	call	803dc <init_button_irq>
	printf("PB initialized...\n");
   806f0:	01000274 	movhi	r4,9
   806f4:	21193f04 	addi	r4,r4,25852
   806f8:	0081b380 	call	81b38 <printf>

	seg7_show(SEG7_DISPLAY_0_BASE,SEG7_VALUE);
   806fc:	00c00434 	movhi	r3,16
   80700:	18c42a04 	addi	r3,r3,4264
   80704:	00844474 	movhi	r2,4369
   80708:	10844444 	addi	r2,r2,4369
   8070c:	18800035 	stwio	r2,0(r3)
	printf("SEG7 initialized...\n");
   80710:	01000274 	movhi	r4,9
   80714:	21194404 	addi	r4,r4,25872
   80718:	0081b380 	call	81b38 <printf>

   	lcd_0 = alt_up_character_lcd_open_dev(CHARACTER_LCD_0_NAME);
   8071c:	01000274 	movhi	r4,9
   80720:	21194a04 	addi	r4,r4,25896
   80724:	00944e40 	call	944e4 <alt_up_character_lcd_open_dev>
   80728:	e0bfff15 	stw	r2,-4(fp)
    
    if (lcd_0 == NULL) alt_printf("Error opening LCD device\n");
   8072c:	e0bfff17 	ldw	r2,-4(fp)
   80730:	1004c03a 	cmpne	r2,r2,zero
   80734:	1000041e 	bne	r2,zero,80748 <main+0x7c>
   80738:	01000274 	movhi	r4,9
   8073c:	21195004 	addi	r4,r4,25920
   80740:	008b13c0 	call	8b13c <alt_printf>
   80744:	00000306 	br	80754 <main+0x88>
    else alt_printf("LCD device opened.\n");
   80748:	01000274 	movhi	r4,9
   8074c:	21195704 	addi	r4,r4,25948
   80750:	008b13c0 	call	8b13c <alt_printf>
    
    alt_up_character_lcd_init(lcd_0);
   80754:	e13fff17 	ldw	r4,-4(fp)
   80758:	00944b80 	call	944b8 <alt_up_character_lcd_init>
    
    alt_up_character_lcd_string(lcd_0, "COE4DS4 Winter20");
   8075c:	e13fff17 	ldw	r4,-4(fp)
   80760:	01400274 	movhi	r5,9
   80764:	29595c04 	addi	r5,r5,25968
   80768:	00945840 	call	94584 <alt_up_character_lcd_string>
    
    alt_up_character_lcd_set_cursor_pos(lcd_0, 0, 1);
   8076c:	e13fff17 	ldw	r4,-4(fp)
   80770:	000b883a 	mov	r5,zero
   80774:	01800044 	movi	r6,1
   80778:	00946240 	call	94624 <alt_up_character_lcd_set_cursor_pos>
    
    alt_up_character_lcd_string(lcd_0, "Lab6      exp. 2");
   8077c:	e13fff17 	ldw	r4,-4(fp)
   80780:	01400274 	movhi	r5,9
   80784:	29596104 	addi	r5,r5,25988
   80788:	00945840 	call	94584 <alt_up_character_lcd_string>
    
    printf("Character LCD initialized...\n");
   8078c:	01000274 	movhi	r4,9
   80790:	21196604 	addi	r4,r4,26008
   80794:	0081b380 	call	81b38 <printf>


	PERF_RESET(PERFORMANCE_COUNTER_0_BASE);
   80798:	00c00434 	movhi	r3,16
   8079c:	18c40004 	addi	r3,r3,4096
   807a0:	00800044 	movi	r2,1
   807a4:	18800035 	stwio	r2,0(r3)
	printf("Reset performance counter...\n");
   807a8:	01000274 	movhi	r4,9
   807ac:	21196e04 	addi	r4,r4,26040
   807b0:	0081b380 	call	81b38 <printf>

    srand(IORD(SWITCH_I_BASE, 0));
   807b4:	00800434 	movhi	r2,16
   807b8:	10841804 	addi	r2,r2,4192
   807bc:	11000037 	ldwio	r4,0(r2)
   807c0:	0081b6c0 	call	81b6c <srand>

	OSInit();
   807c4:	008c3900 	call	8c390 <OSInit>

	return_code = OSTaskCreateExt(initialize_task,
   807c8:	00800184 	movi	r2,6
   807cc:	d8800015 	stw	r2,0(sp)
   807d0:	008002b4 	movhi	r2,10
   807d4:	1081e704 	addi	r2,r2,1948
   807d8:	d8800115 	stw	r2,4(sp)
   807dc:	00820004 	movi	r2,2048
   807e0:	d8800215 	stw	r2,8(sp)
   807e4:	d8000315 	stw	zero,12(sp)
   807e8:	008000c4 	movi	r2,3
   807ec:	d8800415 	stw	r2,16(sp)
   807f0:	01000234 	movhi	r4,8
   807f4:	2101a404 	addi	r4,r4,1680
   807f8:	000b883a 	mov	r5,zero
   807fc:	018002b4 	movhi	r6,10
   80800:	3189e704 	addi	r6,r6,10140
   80804:	01c00184 	movi	r7,6
   80808:	0091e480 	call	91e48 <OSTaskCreateExt>
   8080c:	e0bffe05 	stb	r2,-8(fp)
					NULL,
					(void *)&initialize_task_stk[TASK_STACKSIZE],
					INITIALIZE_TASK_PRIORITY,
					INITIALIZE_TASK_PRIORITY,
					initialize_task_stk,
					TASK_STACKSIZE,
					NULL,
					OS_TASK_OPT_STK_CHK | OS_TASK_OPT_STK_CLR);
	alt_ucosii_check_return_code(return_code);
   80810:	e13ffe03 	ldbu	r4,-8(fp)
   80814:	008042c0 	call	8042c <alt_ucosii_check_return_code>
	printf("Starting uCOS...\n");
   80818:	01000274 	movhi	r4,9
   8081c:	21197604 	addi	r4,r4,26072
   80820:	0081b380 	call	81b38 <printf>

	OSStart();
   80824:	008c69c0 	call	8c69c <OSStart>
	return 0;
   80828:	0005883a 	mov	r2,zero
}
   8082c:	dfc00817 	ldw	ra,32(sp)
   80830:	df000717 	ldw	fp,28(sp)
   80834:	dec00904 	addi	sp,sp,36
   80838:	f800283a 	ret

0008083c <init_OS_data_structs>:

// This function creates the data structures for uCOS
int init_OS_data_structs(void) {
   8083c:	defffc04 	addi	sp,sp,-16
   80840:	dfc00315 	stw	ra,12(sp)
   80844:	df000215 	stw	fp,8(sp)
   80848:	dc000115 	stw	r16,4(sp)
   8084c:	df000204 	addi	fp,sp,8
	int i;

	printf("Init data structs...\n");
   80850:	01000274 	movhi	r4,9
   80854:	21197b04 	addi	r4,r4,26092
   80858:	0081b380 	call	81b38 <printf>

	for (i = 0; i < NUM_PB_BUTTON; i++)
   8085c:	e03ffe15 	stw	zero,-8(fp)
   80860:	e0bffe17 	ldw	r2,-8(fp)
   80864:	10800108 	cmpgei	r2,r2,4
   80868:	10000c1e 	bne	r2,zero,8089c <init_OS_data_structs+0x60>
		PBSemaphore[i] = OSSemCreate(0);
   8086c:	00c002b4 	movhi	r3,10
   80870:	18c19204 	addi	r3,r3,1608
   80874:	e0bffe17 	ldw	r2,-8(fp)
   80878:	100490ba 	slli	r2,r2,2
   8087c:	10e1883a 	add	r16,r2,r3
   80880:	0009883a 	mov	r4,zero
   80884:	0090d940 	call	90d94 <OSSemCreate>
   80888:	80800015 	stw	r2,0(r16)
   8088c:	e0bffe17 	ldw	r2,-8(fp)
   80890:	10800044 	addi	r2,r2,1
   80894:	e0bffe15 	stw	r2,-8(fp)
   80898:	003ff106 	br	80860 <init_OS_data_structs+0x24>

	return 0;
   8089c:	0005883a 	mov	r2,zero
}
   808a0:	dfc00317 	ldw	ra,12(sp)
   808a4:	df000217 	ldw	fp,8(sp)
   808a8:	dc000117 	ldw	r16,4(sp)
   808ac:	dec00404 	addi	sp,sp,16
   808b0:	f800283a 	ret

000808b4 <init_create_tasks>:

// This function creates the first task in uCOS
int init_create_tasks(void) {
   808b4:	defff804 	addi	sp,sp,-32
   808b8:	dfc00715 	stw	ra,28(sp)
   808bc:	df000615 	stw	fp,24(sp)
   808c0:	df000604 	addi	fp,sp,24
	INT8U return_code = OS_NO_ERR;
   808c4:	e03fff05 	stb	zero,-4(fp)

	printf("Creating custom_scheduler...\n");
   808c8:	01000274 	movhi	r4,9
   808cc:	21198104 	addi	r4,r4,26116
   808d0:	0081b380 	call	81b38 <printf>
	return_code = OSTaskCreateExt(custom_scheduler,
   808d4:	00800244 	movi	r2,9
   808d8:	d8800015 	stw	r2,0(sp)
   808dc:	008002b4 	movhi	r2,10
   808e0:	10a99204 	addi	r2,r2,-22968
   808e4:	d8800115 	stw	r2,4(sp)
   808e8:	00820004 	movi	r2,2048
   808ec:	d8800215 	stw	r2,8(sp)
   808f0:	008002b4 	movhi	r2,10
   808f4:	10819604 	addi	r2,r2,1624
   808f8:	d8800315 	stw	r2,12(sp)
   808fc:	d8000415 	stw	zero,16(sp)
   80900:	01000234 	movhi	r4,8
   80904:	2102a704 	addi	r4,r4,2716
   80908:	000b883a 	mov	r5,zero
   8090c:	018002b4 	movhi	r6,10
   80910:	31b19204 	addi	r6,r6,-14776
   80914:	01c00244 	movi	r7,9
   80918:	0091e480 	call	91e48 <OSTaskCreateExt>
   8091c:	e0bfff05 	stb	r2,-4(fp)
					NULL,
					(void *)&custom_scheduler_stk[TASK_STACKSIZE],
					CUSTOM_SCHEDULER_PRIORITY,
					CUSTOM_SCHEDULER_PRIORITY,
					custom_scheduler_stk,
                    TASK_STACKSIZE,
					&custom_scheduler_tcb,
					0);
	alt_ucosii_check_return_code(return_code);
   80920:	e13fff03 	ldbu	r4,-4(fp)
   80924:	008042c0 	call	8042c <alt_ucosii_check_return_code>

	return 0;
   80928:	0005883a 	mov	r2,zero
}
   8092c:	dfc00717 	ldw	ra,28(sp)
   80930:	df000617 	ldw	fp,24(sp)
   80934:	dec00804 	addi	sp,sp,32
   80938:	f800283a 	ret

0008093c <periodic_task1>:

// Periodic task 1
// It periodically uses a custom delay to occupy the CPU
// Then it suspends itself for a specified period of time
void periodic_task1(void* pdata) {
   8093c:	defffc04 	addi	sp,sp,-16
   80940:	dfc00315 	stw	ra,12(sp)
   80944:	df000215 	stw	fp,8(sp)
   80948:	df000204 	addi	fp,sp,8
   8094c:	e13ffe15 	stw	r4,-8(fp)
	task_info_struct *task_info_ptr;

	task_info_ptr = (task_info_struct *)pdata;
   80950:	e0bffe17 	ldw	r2,-8(fp)
   80954:	e0bfff15 	stw	r2,-4(fp)
	while (1) {

		#if MY_NON_PREEMPTIVE_SCH == 1
			OSSchedLock();
			printf("\n");
			printf("NON-PREEMPTIVE, task 1 OSTick value: %d \n", OSTimeGet());
			printf("Start periodic_task1 (execution_time: %4d ms) (os_delay: %1d s) (%d priority)\n", task_info_ptr->execution_time, task_info_ptr->os_delay, task_info_ptr->priority);
			custom_delay(task_info_ptr->execution_time);
			printf("End   periodic_task1 (execution_time: %4d ms) (os_delay: %1d s) (%d priority)\n", task_info_ptr->execution_time, task_info_ptr->os_delay, task_info_ptr->priority);
			OSSchedUnlock();
			OSTimeDlyHMSM(0, 0, task_info_ptr->os_delay, 0);
		#else
			printf("\n");
   80958:	01000274 	movhi	r4,9
   8095c:	21198904 	addi	r4,r4,26148
   80960:	0081b380 	call	81b38 <printf>
			printf("PREEMPTIVE, task 1 OSTick value: %d \n", OSTimeGet());
   80964:	00933d00 	call	933d0 <OSTimeGet>
   80968:	100b883a 	mov	r5,r2
   8096c:	01000274 	movhi	r4,9
   80970:	21198a04 	addi	r4,r4,26152
   80974:	0081b380 	call	81b38 <printf>
			printf("Start periodic_task1 (execution_time: %4d ms) (os_delay: %1d s) (%d priority)\n", task_info_ptr->execution_time, task_info_ptr->os_delay, task_info_ptr->priority);
   80978:	e0bfff17 	ldw	r2,-4(fp)
   8097c:	e0ffff17 	ldw	r3,-4(fp)
   80980:	e1ffff17 	ldw	r7,-4(fp)
   80984:	01000274 	movhi	r4,9
   80988:	21199404 	addi	r4,r4,26192
   8098c:	11400117 	ldw	r5,4(r2)
   80990:	19800217 	ldw	r6,8(r3)
   80994:	39c00017 	ldw	r7,0(r7)
   80998:	0081b380 	call	81b38 <printf>
			custom_delay(task_info_ptr->execution_time);
   8099c:	e0bfff17 	ldw	r2,-4(fp)
   809a0:	11000117 	ldw	r4,4(r2)
   809a4:	00819640 	call	81964 <custom_delay>
			printf("End   periodic_task1 (execution_time: %4d ms) (os_delay: %1d s) (%d priority)\n", task_info_ptr->execution_time, task_info_ptr->os_delay, task_info_ptr->priority);
   809a8:	e0bfff17 	ldw	r2,-4(fp)
   809ac:	e0ffff17 	ldw	r3,-4(fp)
   809b0:	e1ffff17 	ldw	r7,-4(fp)
   809b4:	01000274 	movhi	r4,9
   809b8:	2119a804 	addi	r4,r4,26272
   809bc:	11400117 	ldw	r5,4(r2)
   809c0:	19800217 	ldw	r6,8(r3)
   809c4:	39c00017 	ldw	r7,0(r7)
   809c8:	0081b380 	call	81b38 <printf>
			OSTimeDlyHMSM(0, 0, task_info_ptr->os_delay, 0);
   809cc:	e0bfff17 	ldw	r2,-4(fp)
   809d0:	10800217 	ldw	r2,8(r2)
   809d4:	11803fcc 	andi	r6,r2,255
   809d8:	0009883a 	mov	r4,zero
   809dc:	000b883a 	mov	r5,zero
   809e0:	000f883a 	mov	r7,zero
   809e4:	00930780 	call	93078 <OSTimeDlyHMSM>
   809e8:	003fdb06 	br	80958 <periodic_task1+0x1c>

000809ec <periodic_task2>:
		#endif
	}
}

// Periodic task 2
// It periodically uses a custom delay to occupy the CPU
// Then it suspends itself for a specified period of time
void periodic_task2(void* pdata) {
   809ec:	defffc04 	addi	sp,sp,-16
   809f0:	dfc00315 	stw	ra,12(sp)
   809f4:	df000215 	stw	fp,8(sp)
   809f8:	df000204 	addi	fp,sp,8
   809fc:	e13ffe15 	stw	r4,-8(fp)
	task_info_struct *task_info_ptr;

	task_info_ptr = (task_info_struct *)pdata;
   80a00:	e0bffe17 	ldw	r2,-8(fp)
   80a04:	e0bfff15 	stw	r2,-4(fp)
	while (1) {

		#if MY_NON_PREEMPTIVE_SCH == 1
			OSSchedLock();
			printf("\n");
			printf("NON-PREEMPTIVE, task 2 OSTick value: %d \n", OSTimeGet());
			printf("Start periodic_task2 (execution_time: %4d ms) (os_delay: %1d s) (%d priority)\n", task_info_ptr->execution_time, task_info_ptr->os_delay, task_info_ptr->priority);
			custom_delay(task_info_ptr->execution_time);
			printf("End   periodic_task2 (execution_time: %4d ms) (os_delay: %1d s) (%d priority)\n", task_info_ptr->execution_time, task_info_ptr->os_delay, task_info_ptr->priority);
			OSSchedUnlock();
			OSTimeDlyHMSM(0, 0, task_info_ptr->os_delay, 0);
		#else
			printf("\n");
   80a08:	01000274 	movhi	r4,9
   80a0c:	21198904 	addi	r4,r4,26148
   80a10:	0081b380 	call	81b38 <printf>
			printf("PREEMPTIVE, task 2 OSTick value: %d \n", OSTimeGet());
   80a14:	00933d00 	call	933d0 <OSTimeGet>
   80a18:	100b883a 	mov	r5,r2
   80a1c:	01000274 	movhi	r4,9
   80a20:	2119bc04 	addi	r4,r4,26352
   80a24:	0081b380 	call	81b38 <printf>
			printf("Start periodic_task2 (execution_time: %4d ms) (os_delay: %1d s) (%d priority)\n", task_info_ptr->execution_time, task_info_ptr->os_delay, task_info_ptr->priority);
   80a28:	e0bfff17 	ldw	r2,-4(fp)
   80a2c:	e0ffff17 	ldw	r3,-4(fp)
   80a30:	e1ffff17 	ldw	r7,-4(fp)
   80a34:	01000274 	movhi	r4,9
   80a38:	2119c604 	addi	r4,r4,26392
   80a3c:	11400117 	ldw	r5,4(r2)
   80a40:	19800217 	ldw	r6,8(r3)
   80a44:	39c00017 	ldw	r7,0(r7)
   80a48:	0081b380 	call	81b38 <printf>
			custom_delay(task_info_ptr->execution_time);
   80a4c:	e0bfff17 	ldw	r2,-4(fp)
   80a50:	11000117 	ldw	r4,4(r2)
   80a54:	00819640 	call	81964 <custom_delay>
			printf("End   periodic_task2 (execution_time: %4d ms) (os_delay: %1d s) (%d priority)\n", task_info_ptr->execution_time, task_info_ptr->os_delay, task_info_ptr->priority);
   80a58:	e0bfff17 	ldw	r2,-4(fp)
   80a5c:	e0ffff17 	ldw	r3,-4(fp)
   80a60:	e1ffff17 	ldw	r7,-4(fp)
   80a64:	01000274 	movhi	r4,9
   80a68:	2119da04 	addi	r4,r4,26472
   80a6c:	11400117 	ldw	r5,4(r2)
   80a70:	19800217 	ldw	r6,8(r3)
   80a74:	39c00017 	ldw	r7,0(r7)
   80a78:	0081b380 	call	81b38 <printf>
			OSTimeDlyHMSM(0, 0, task_info_ptr->os_delay, 0);
   80a7c:	e0bfff17 	ldw	r2,-4(fp)
   80a80:	10800217 	ldw	r2,8(r2)
   80a84:	11803fcc 	andi	r6,r2,255
   80a88:	0009883a 	mov	r4,zero
   80a8c:	000b883a 	mov	r5,zero
   80a90:	000f883a 	mov	r7,zero
   80a94:	00930780 	call	93078 <OSTimeDlyHMSM>
   80a98:	003fdb06 	br	80a08 <periodic_task2+0x1c>

00080a9c <custom_scheduler>:
		#endif
	}
}

// The custom_scheduler
// It has the highest priority
// It checks the PBs every 500ms
// It a button has been pressed, it creates/deletes the corresponding task in the OS
// When creating a task, it will assign the new task with the lowest priority among the running tasks
void custom_scheduler(void *pdata) {
   80a9c:	deffde04 	addi	sp,sp,-136
   80aa0:	dfc02115 	stw	ra,132(sp)
   80aa4:	df002015 	stw	fp,128(sp)
   80aa8:	dc001f15 	stw	r16,124(sp)
   80aac:	dc401e15 	stw	r17,120(sp)
   80ab0:	dc801d15 	stw	r18,116(sp)
   80ab4:	df002004 	addi	fp,sp,128
   80ab8:	e13fe515 	stw	r4,-108(fp)
	INT8U return_code = OS_NO_ERR;
   80abc:	e03fe605 	stb	zero,-104(fp)
	int i;
	int PB_pressed[NUM_PB_BUTTON];
	int sem_value;
	int new_pressed;
	
	int num_active_task;	
	// Array of task_info
	task_info_struct task_info[NUM_TASK];
	scheduler_info_struct scheduler_info[NUM_TASK];

	printf("Starting custom scheduler...\n");
   80ac0:	01000274 	movhi	r4,9
   80ac4:	2119ee04 	addi	r4,r4,26552
   80ac8:	0081b380 	call	81b38 <printf>

	#if MY_NON_PREEMPTIVE_SCH == 0
		printf("Exercise 1 for preemptive scheduling...\n");
   80acc:	01000274 	movhi	r4,9
   80ad0:	2119f604 	addi	r4,r4,26584
   80ad4:	0081b380 	call	81b38 <printf>
	#else
		printf("Exercise 1 for non-preemptive scheduling...\n");
	#endif

	num_active_task = 0;
   80ad8:	e03fee15 	stw	zero,-72(fp)
	int os_delay = 0;
   80adc:	e03ffb15 	stw	zero,-20(fp)

	for (i = 0; i < NUM_TASK; i++) {
   80ae0:	e03fe715 	stw	zero,-100(fp)
   80ae4:	e0bfe717 	ldw	r2,-100(fp)
   80ae8:	10800088 	cmpgei	r2,r2,2
   80aec:	1000d21e 	bne	r2,zero,80e38 <custom_scheduler+0x39c>
		// Creating periodic task 0 with random execution time and delay time for periodic arrival

		if (i == 0) {
   80af0:	e0bfe717 	ldw	r2,-100(fp)
   80af4:	1004c03a 	cmpne	r2,r2,zero
   80af8:	1000151e 	bne	r2,zero,80b50 <custom_scheduler+0xb4>
			//Mengjia: 7 char
			task_info[i].execution_time = 7 * 200;
   80afc:	e13fe717 	ldw	r4,-100(fp)
   80b00:	01400304 	movi	r5,12
   80b04:	0081aec0 	call	81aec <__mulsi3>
   80b08:	1007883a 	mov	r3,r2
   80b0c:	e0bfe504 	addi	r2,fp,-108
   80b10:	1885883a 	add	r2,r3,r2
   80b14:	10c00b04 	addi	r3,r2,44
   80b18:	00815e04 	movi	r2,1400
   80b1c:	18800015 	stw	r2,0(r3)
			//Nicole: 6 char
			os_delay = 6 * 700;
   80b20:	00841a04 	movi	r2,4200
   80b24:	e0bffb15 	stw	r2,-20(fp)
			task_info[i].os_delay = (6 * 700)/1000;
   80b28:	e13fe717 	ldw	r4,-100(fp)
   80b2c:	01400304 	movi	r5,12
   80b30:	0081aec0 	call	81aec <__mulsi3>
   80b34:	1007883a 	mov	r3,r2
   80b38:	e0bfe504 	addi	r2,fp,-108
   80b3c:	1885883a 	add	r2,r3,r2
   80b40:	10c00c04 	addi	r3,r2,48
   80b44:	00800104 	movi	r2,4
   80b48:	18800015 	stw	r2,0(r3)
   80b4c:	00001406 	br	80ba0 <custom_scheduler+0x104>
		}
		else {
			//Wu: 2 char
			task_info[i].execution_time = 2 * 200;
   80b50:	e13fe717 	ldw	r4,-100(fp)
   80b54:	01400304 	movi	r5,12
   80b58:	0081aec0 	call	81aec <__mulsi3>
   80b5c:	1007883a 	mov	r3,r2
   80b60:	e0bfe504 	addi	r2,fp,-108
   80b64:	1885883a 	add	r2,r3,r2
   80b68:	10c00b04 	addi	r3,r2,44
   80b6c:	00806404 	movi	r2,400
   80b70:	18800015 	stw	r2,0(r3)
			//Li: 2 char, os_delay in seconds
			os_delay = 2 * 700;
   80b74:	00815e04 	movi	r2,1400
   80b78:	e0bffb15 	stw	r2,-20(fp)
			task_info[i].os_delay = (2 * 700)/1000;
   80b7c:	e13fe717 	ldw	r4,-100(fp)
   80b80:	01400304 	movi	r5,12
   80b84:	0081aec0 	call	81aec <__mulsi3>
   80b88:	1007883a 	mov	r3,r2
   80b8c:	e0bfe504 	addi	r2,fp,-108
   80b90:	1885883a 	add	r2,r3,r2
   80b94:	10c00c04 	addi	r3,r2,48
   80b98:	00800044 	movi	r2,1
   80b9c:	18800015 	stw	r2,0(r3)
		}
		task_info[i].priority = num_active_task;
   80ba0:	e13fe717 	ldw	r4,-100(fp)
   80ba4:	01400304 	movi	r5,12
   80ba8:	0081aec0 	call	81aec <__mulsi3>
   80bac:	1007883a 	mov	r3,r2
   80bb0:	e0bfe504 	addi	r2,fp,-108
   80bb4:	1885883a 	add	r2,r3,r2
   80bb8:	10c00a04 	addi	r3,r2,40
   80bbc:	e0bfee17 	ldw	r2,-72(fp)
   80bc0:	18800015 	stw	r2,0(r3)

		scheduler_info[num_active_task].valid = 1;
   80bc4:	e13fee17 	ldw	r4,-72(fp)
   80bc8:	01400304 	movi	r5,12
   80bcc:	0081aec0 	call	81aec <__mulsi3>
   80bd0:	1007883a 	mov	r3,r2
   80bd4:	e0bfe504 	addi	r2,fp,-108
   80bd8:	1885883a 	add	r2,r3,r2
   80bdc:	10c01004 	addi	r3,r2,64
   80be0:	00800044 	movi	r2,1
   80be4:	18800015 	stw	r2,0(r3)
		scheduler_info[num_active_task].id = i;
   80be8:	e13fee17 	ldw	r4,-72(fp)
   80bec:	01400304 	movi	r5,12
   80bf0:	0081aec0 	call	81aec <__mulsi3>
   80bf4:	1007883a 	mov	r3,r2
   80bf8:	e0bfe504 	addi	r2,fp,-108
   80bfc:	1885883a 	add	r2,r3,r2
   80c00:	10c01104 	addi	r3,r2,68
   80c04:	e0bfe717 	ldw	r2,-100(fp)
   80c08:	18800015 	stw	r2,0(r3)
		scheduler_info[num_active_task].period = task_info[i].execution_time + os_delay;
   80c0c:	e13fee17 	ldw	r4,-72(fp)
   80c10:	01400304 	movi	r5,12
   80c14:	0081aec0 	call	81aec <__mulsi3>
   80c18:	1007883a 	mov	r3,r2
   80c1c:	e0bfe504 	addi	r2,fp,-108
   80c20:	1885883a 	add	r2,r3,r2
   80c24:	14001204 	addi	r16,r2,72
   80c28:	e13fe717 	ldw	r4,-100(fp)
   80c2c:	01400304 	movi	r5,12
   80c30:	0081aec0 	call	81aec <__mulsi3>
   80c34:	1007883a 	mov	r3,r2
   80c38:	e0bfe504 	addi	r2,fp,-108
   80c3c:	1885883a 	add	r2,r3,r2
   80c40:	10800b04 	addi	r2,r2,44
   80c44:	10c00017 	ldw	r3,0(r2)
   80c48:	e0bffb17 	ldw	r2,-20(fp)
   80c4c:	1885883a 	add	r2,r3,r2
   80c50:	80800015 	stw	r2,0(r16)

		printf("-Creating periodic_task%d: execution_time_tick = %d, os_delay_time = %d\n",
   80c54:	e0bfe717 	ldw	r2,-100(fp)
   80c58:	14000044 	addi	r16,r2,1
   80c5c:	e13fe717 	ldw	r4,-100(fp)
   80c60:	01400304 	movi	r5,12
   80c64:	0081aec0 	call	81aec <__mulsi3>
   80c68:	1007883a 	mov	r3,r2
   80c6c:	e0bfe504 	addi	r2,fp,-108
   80c70:	1885883a 	add	r2,r3,r2
   80c74:	14400b04 	addi	r17,r2,44
   80c78:	e13fe717 	ldw	r4,-100(fp)
   80c7c:	01400304 	movi	r5,12
   80c80:	0081aec0 	call	81aec <__mulsi3>
   80c84:	1007883a 	mov	r3,r2
   80c88:	e0bfe504 	addi	r2,fp,-108
   80c8c:	1885883a 	add	r2,r3,r2
   80c90:	10800c04 	addi	r2,r2,48
   80c94:	01000274 	movhi	r4,9
   80c98:	211a0104 	addi	r4,r4,26628
   80c9c:	800b883a 	mov	r5,r16
   80ca0:	89800017 	ldw	r6,0(r17)
   80ca4:	11c00017 	ldw	r7,0(r2)
   80ca8:	0081b380 	call	81b38 <printf>
			i+1,
			task_info[i].execution_time,
			task_info[i].os_delay);

		switch (i) {
   80cac:	e0bfe717 	ldw	r2,-100(fp)
   80cb0:	e0bffc15 	stw	r2,-16(fp)
   80cb4:	e0fffc17 	ldw	r3,-16(fp)
   80cb8:	1805003a 	cmpeq	r2,r3,zero
   80cbc:	1000041e 	bne	r2,zero,80cd0 <custom_scheduler+0x234>
   80cc0:	e0fffc17 	ldw	r3,-16(fp)
   80cc4:	18800060 	cmpeqi	r2,r3,1
   80cc8:	10002a1e 	bne	r2,zero,80d74 <custom_scheduler+0x2d8>
   80ccc:	00005106 	br	80e14 <custom_scheduler+0x378>
			case 0:
				return_code = OSTaskCreateExt(periodic_task1,
   80cd0:	e43fef04 	addi	r16,fp,-68
   80cd4:	e13fe717 	ldw	r4,-100(fp)
   80cd8:	01400304 	movi	r5,12
   80cdc:	0081aec0 	call	81aec <__mulsi3>
   80ce0:	80a1883a 	add	r16,r16,r2
   80ce4:	e0bfee17 	ldw	r2,-72(fp)
   80ce8:	1006937a 	slli	r3,r2,13
   80cec:	008002b4 	movhi	r2,10
   80cf0:	10b99104 	addi	r2,r2,-6588
   80cf4:	18a3883a 	add	r17,r3,r2
   80cf8:	e0bfee17 	ldw	r2,-72(fp)
   80cfc:	10800284 	addi	r2,r2,10
   80d00:	14803fcc 	andi	r18,r2,255
   80d04:	e0bfee17 	ldw	r2,-72(fp)
   80d08:	10bfffcc 	andi	r2,r2,65535
   80d0c:	d8800015 	stw	r2,0(sp)
   80d10:	e0bfee17 	ldw	r2,-72(fp)
   80d14:	1006937a 	slli	r3,r2,13
   80d18:	008002b4 	movhi	r2,10
   80d1c:	10b19204 	addi	r2,r2,-14776
   80d20:	1885883a 	add	r2,r3,r2
   80d24:	d8800115 	stw	r2,4(sp)
   80d28:	00820004 	movi	r2,2048
   80d2c:	d8800215 	stw	r2,8(sp)
   80d30:	e13fee17 	ldw	r4,-72(fp)
   80d34:	01401b04 	movi	r5,108
   80d38:	0081aec0 	call	81aec <__mulsi3>
   80d3c:	1007883a 	mov	r3,r2
   80d40:	008002b4 	movhi	r2,10
   80d44:	1081b104 	addi	r2,r2,1732
   80d48:	1885883a 	add	r2,r3,r2
   80d4c:	d8800315 	stw	r2,12(sp)
   80d50:	d8000415 	stw	zero,16(sp)
   80d54:	01000234 	movhi	r4,8
   80d58:	21024f04 	addi	r4,r4,2364
   80d5c:	800b883a 	mov	r5,r16
   80d60:	880d883a 	mov	r6,r17
   80d64:	900f883a 	mov	r7,r18
   80d68:	0091e480 	call	91e48 <OSTaskCreateExt>
   80d6c:	e0bfe605 	stb	r2,-104(fp)
								 &task_info[i],
								 (void *)&periodic_task_stk[num_active_task][TASK_STACKSIZE-1],
								 TASK_START_PRIORITY+num_active_task,
								 num_active_task,
								 &periodic_task_stk[num_active_task][0],
								 TASK_STACKSIZE,
								 &periodic_task_tcb[num_active_task],
								 0);
			break;
   80d70:	00002806 	br	80e14 <custom_scheduler+0x378>
			case 1:
				return_code = OSTaskCreateExt(periodic_task2,
   80d74:	e43fef04 	addi	r16,fp,-68
   80d78:	e13fe717 	ldw	r4,-100(fp)
   80d7c:	01400304 	movi	r5,12
   80d80:	0081aec0 	call	81aec <__mulsi3>
   80d84:	80a1883a 	add	r16,r16,r2
   80d88:	e0bfee17 	ldw	r2,-72(fp)
   80d8c:	1006937a 	slli	r3,r2,13
   80d90:	008002b4 	movhi	r2,10
   80d94:	10b99104 	addi	r2,r2,-6588
   80d98:	18a3883a 	add	r17,r3,r2
   80d9c:	e0bfee17 	ldw	r2,-72(fp)
   80da0:	10800284 	addi	r2,r2,10
   80da4:	14803fcc 	andi	r18,r2,255
   80da8:	e0bfee17 	ldw	r2,-72(fp)
   80dac:	10bfffcc 	andi	r2,r2,65535
   80db0:	d8800015 	stw	r2,0(sp)
   80db4:	e0bfee17 	ldw	r2,-72(fp)
   80db8:	1006937a 	slli	r3,r2,13
   80dbc:	008002b4 	movhi	r2,10
   80dc0:	10b19204 	addi	r2,r2,-14776
   80dc4:	1885883a 	add	r2,r3,r2
   80dc8:	d8800115 	stw	r2,4(sp)
   80dcc:	00820004 	movi	r2,2048
   80dd0:	d8800215 	stw	r2,8(sp)
   80dd4:	e13fee17 	ldw	r4,-72(fp)
   80dd8:	01401b04 	movi	r5,108
   80ddc:	0081aec0 	call	81aec <__mulsi3>
   80de0:	1007883a 	mov	r3,r2
   80de4:	008002b4 	movhi	r2,10
   80de8:	1081b104 	addi	r2,r2,1732
   80dec:	1885883a 	add	r2,r3,r2
   80df0:	d8800315 	stw	r2,12(sp)
   80df4:	d8000415 	stw	zero,16(sp)
   80df8:	01000234 	movhi	r4,8
   80dfc:	21027b04 	addi	r4,r4,2540
   80e00:	800b883a 	mov	r5,r16
   80e04:	880d883a 	mov	r6,r17
   80e08:	900f883a 	mov	r7,r18
   80e0c:	0091e480 	call	91e48 <OSTaskCreateExt>
   80e10:	e0bfe605 	stb	r2,-104(fp)
								 &task_info[i],
								 (void *)&periodic_task_stk[num_active_task][TASK_STACKSIZE-1],
								 TASK_START_PRIORITY+num_active_task,
								 num_active_task,
								 &periodic_task_stk[num_active_task][0],
								 TASK_STACKSIZE,
								 &periodic_task_tcb[num_active_task],
								 0);
			break;
		}
		alt_ucosii_check_return_code(return_code);
   80e14:	e13fe603 	ldbu	r4,-104(fp)
   80e18:	008042c0 	call	8042c <alt_ucosii_check_return_code>

		num_active_task++;
   80e1c:	e0bfee17 	ldw	r2,-72(fp)
   80e20:	10800044 	addi	r2,r2,1
   80e24:	e0bfee15 	stw	r2,-72(fp)
   80e28:	e0bfe717 	ldw	r2,-100(fp)
   80e2c:	10800044 	addi	r2,r2,1
   80e30:	e0bfe715 	stw	r2,-100(fp)
   80e34:	003f2b06 	br	80ae4 <custom_scheduler+0x48>
	}
	printf("Finish creating initial tasks...\n");
   80e38:	01000274 	movhi	r4,9
   80e3c:	211a1404 	addi	r4,r4,26704
   80e40:	0081b380 	call	81b38 <printf>

	printf("Printing task info:\n");
   80e44:	01000274 	movhi	r4,9
   80e48:	211a1d04 	addi	r4,r4,26740
   80e4c:	0081b380 	call	81b38 <printf>
	for (i = 0; i < num_active_task; i++) {
   80e50:	e03fe715 	stw	zero,-100(fp)
   80e54:	e0ffe717 	ldw	r3,-100(fp)
   80e58:	e0bfee17 	ldw	r2,-72(fp)
   80e5c:	1880510e 	bge	r3,r2,80fa4 <custom_scheduler+0x508>
		printf("Priority %d: valid=%d, task_id=%d, period=%d, exec_time=%d, os_delay=%d, pri=%d\n",
   80e60:	e13fe717 	ldw	r4,-100(fp)
   80e64:	01400304 	movi	r5,12
   80e68:	0081aec0 	call	81aec <__mulsi3>
   80e6c:	1007883a 	mov	r3,r2
   80e70:	e0bfe504 	addi	r2,fp,-108
   80e74:	1885883a 	add	r2,r3,r2
   80e78:	14001004 	addi	r16,r2,64
   80e7c:	e13fe717 	ldw	r4,-100(fp)
   80e80:	01400304 	movi	r5,12
   80e84:	0081aec0 	call	81aec <__mulsi3>
   80e88:	1007883a 	mov	r3,r2
   80e8c:	e0bfe504 	addi	r2,fp,-108
   80e90:	1885883a 	add	r2,r3,r2
   80e94:	14401104 	addi	r17,r2,68
   80e98:	e13fe717 	ldw	r4,-100(fp)
   80e9c:	01400304 	movi	r5,12
   80ea0:	0081aec0 	call	81aec <__mulsi3>
   80ea4:	1007883a 	mov	r3,r2
   80ea8:	e0bfe504 	addi	r2,fp,-108
   80eac:	1885883a 	add	r2,r3,r2
   80eb0:	10801204 	addi	r2,r2,72
   80eb4:	10800017 	ldw	r2,0(r2)
   80eb8:	d8800015 	stw	r2,0(sp)
   80ebc:	e13fe717 	ldw	r4,-100(fp)
   80ec0:	01400304 	movi	r5,12
   80ec4:	0081aec0 	call	81aec <__mulsi3>
   80ec8:	1007883a 	mov	r3,r2
   80ecc:	e0bfe504 	addi	r2,fp,-108
   80ed0:	1885883a 	add	r2,r3,r2
   80ed4:	10801104 	addi	r2,r2,68
   80ed8:	11000017 	ldw	r4,0(r2)
   80edc:	01400304 	movi	r5,12
   80ee0:	0081aec0 	call	81aec <__mulsi3>
   80ee4:	1007883a 	mov	r3,r2
   80ee8:	e0bfe504 	addi	r2,fp,-108
   80eec:	1885883a 	add	r2,r3,r2
   80ef0:	10800b04 	addi	r2,r2,44
   80ef4:	10800017 	ldw	r2,0(r2)
   80ef8:	d8800115 	stw	r2,4(sp)
   80efc:	e13fe717 	ldw	r4,-100(fp)
   80f00:	01400304 	movi	r5,12
   80f04:	0081aec0 	call	81aec <__mulsi3>
   80f08:	1007883a 	mov	r3,r2
   80f0c:	e0bfe504 	addi	r2,fp,-108
   80f10:	1885883a 	add	r2,r3,r2
   80f14:	10801104 	addi	r2,r2,68
   80f18:	11000017 	ldw	r4,0(r2)
   80f1c:	01400304 	movi	r5,12
   80f20:	0081aec0 	call	81aec <__mulsi3>
   80f24:	1007883a 	mov	r3,r2
   80f28:	e0bfe504 	addi	r2,fp,-108
   80f2c:	1885883a 	add	r2,r3,r2
   80f30:	10800c04 	addi	r2,r2,48
   80f34:	10800017 	ldw	r2,0(r2)
   80f38:	d8800215 	stw	r2,8(sp)
   80f3c:	e13fe717 	ldw	r4,-100(fp)
   80f40:	01400304 	movi	r5,12
   80f44:	0081aec0 	call	81aec <__mulsi3>
   80f48:	1007883a 	mov	r3,r2
   80f4c:	e0bfe504 	addi	r2,fp,-108
   80f50:	1885883a 	add	r2,r3,r2
   80f54:	10801104 	addi	r2,r2,68
   80f58:	11000017 	ldw	r4,0(r2)
   80f5c:	01400304 	movi	r5,12
   80f60:	0081aec0 	call	81aec <__mulsi3>
   80f64:	1007883a 	mov	r3,r2
   80f68:	e0bfe504 	addi	r2,fp,-108
   80f6c:	1885883a 	add	r2,r3,r2
   80f70:	10800a04 	addi	r2,r2,40
   80f74:	10800017 	ldw	r2,0(r2)
   80f78:	d8800315 	stw	r2,12(sp)
   80f7c:	01000274 	movhi	r4,9
   80f80:	211a2304 	addi	r4,r4,26764
   80f84:	e17fe717 	ldw	r5,-100(fp)
   80f88:	81800017 	ldw	r6,0(r16)
   80f8c:	89c00017 	ldw	r7,0(r17)
   80f90:	0081b380 	call	81b38 <printf>
   80f94:	e0bfe717 	ldw	r2,-100(fp)
   80f98:	10800044 	addi	r2,r2,1
   80f9c:	e0bfe715 	stw	r2,-100(fp)
   80fa0:	003fac06 	br	80e54 <custom_scheduler+0x3b8>
			i,
			scheduler_info[i].valid,
			scheduler_info[i].id,
			scheduler_info[i].period,
			task_info[scheduler_info[i].id].execution_time,
			task_info[scheduler_info[i].id].os_delay,
			task_info[scheduler_info[i].id].priority);
	}

	// Scheduler never returns
	while (1) {
		new_pressed = 0;
   80fa4:	e03fed15 	stw	zero,-76(fp)
		// Check for PBs
		for (i = 0; i < NUM_PB_BUTTON; i++) {
   80fa8:	e03fe715 	stw	zero,-100(fp)
   80fac:	e0bfe717 	ldw	r2,-100(fp)
   80fb0:	10800108 	cmpgei	r2,r2,4
   80fb4:	10001f1e 	bne	r2,zero,81034 <custom_scheduler+0x598>
			PB_pressed[i] = 0;
   80fb8:	e0bfe717 	ldw	r2,-100(fp)
   80fbc:	100690ba 	slli	r3,r2,2
   80fc0:	e0bfe504 	addi	r2,fp,-108
   80fc4:	1885883a 	add	r2,r3,r2
   80fc8:	10800304 	addi	r2,r2,12
   80fcc:	10000015 	stw	zero,0(r2)
			sem_value = OSSemAccept(PBSemaphore[i]);
   80fd0:	00c002b4 	movhi	r3,10
   80fd4:	18c19204 	addi	r3,r3,1608
   80fd8:	e0bfe717 	ldw	r2,-100(fp)
   80fdc:	100490ba 	slli	r2,r2,2
   80fe0:	10c5883a 	add	r2,r2,r3
   80fe4:	11000017 	ldw	r4,0(r2)
   80fe8:	0090cd80 	call	90cd8 <OSSemAccept>
   80fec:	10bfffcc 	andi	r2,r2,65535
   80ff0:	e0bfec15 	stw	r2,-80(fp)
			if (sem_value != 0) {
   80ff4:	e0bfec17 	ldw	r2,-80(fp)
   80ff8:	1005003a 	cmpeq	r2,r2,zero
   80ffc:	1000091e 	bne	r2,zero,81024 <custom_scheduler+0x588>
				PB_pressed[i] = 1;
   81000:	e0bfe717 	ldw	r2,-100(fp)
   81004:	100690ba 	slli	r3,r2,2
   81008:	e0bfe504 	addi	r2,fp,-108
   8100c:	1885883a 	add	r2,r3,r2
   81010:	10c00304 	addi	r3,r2,12
   81014:	00800044 	movi	r2,1
   81018:	18800015 	stw	r2,0(r3)
				new_pressed = 1;
   8101c:	00800044 	movi	r2,1
   81020:	e0bfed15 	stw	r2,-76(fp)
   81024:	e0bfe717 	ldw	r2,-100(fp)
   81028:	10800044 	addi	r2,r2,1
   8102c:	e0bfe715 	stw	r2,-100(fp)
   81030:	003fde06 	br	80fac <custom_scheduler+0x510>
			}
		}

		if (new_pressed != 0) {
   81034:	e0bfed17 	ldw	r2,-76(fp)
   81038:	1005003a 	cmpeq	r2,r2,zero
   8103c:	1000b41e 	bne	r2,zero,81310 <custom_scheduler+0x874>
			printf("Locking OS scheduler for new scheduling\n");
   81040:	01000274 	movhi	r4,9
   81044:	211a3804 	addi	r4,r4,26848
   81048:	0081b380 	call	81b38 <printf>
			OSSchedLock();
   8104c:	008c5400 	call	8c540 <OSSchedLock>

			for (i = 0; i < num_active_task; i++) {
   81050:	e03fe715 	stw	zero,-100(fp)
   81054:	e0ffe717 	ldw	r3,-100(fp)
   81058:	e0bfee17 	ldw	r2,-72(fp)
   8105c:	18803f0e 	bge	r3,r2,8115c <custom_scheduler+0x6c0>
				// check for task to delete if PB is pressed
				if (scheduler_info[i].valid == 1 && PB_pressed[scheduler_info[i].id] == 1) {
   81060:	e13fe717 	ldw	r4,-100(fp)
   81064:	01400304 	movi	r5,12
   81068:	0081aec0 	call	81aec <__mulsi3>
   8106c:	1007883a 	mov	r3,r2
   81070:	e0bfe504 	addi	r2,fp,-108
   81074:	1885883a 	add	r2,r3,r2
   81078:	10801004 	addi	r2,r2,64
   8107c:	10800017 	ldw	r2,0(r2)
   81080:	10800058 	cmpnei	r2,r2,1
   81084:	1000311e 	bne	r2,zero,8114c <custom_scheduler+0x6b0>
   81088:	e13fe717 	ldw	r4,-100(fp)
   8108c:	01400304 	movi	r5,12
   81090:	0081aec0 	call	81aec <__mulsi3>
   81094:	1007883a 	mov	r3,r2
   81098:	e0bfe504 	addi	r2,fp,-108
   8109c:	1885883a 	add	r2,r3,r2
   810a0:	10801104 	addi	r2,r2,68
   810a4:	10800017 	ldw	r2,0(r2)
   810a8:	100690ba 	slli	r3,r2,2
   810ac:	e0bfe504 	addi	r2,fp,-108
   810b0:	1885883a 	add	r2,r3,r2
   810b4:	10800304 	addi	r2,r2,12
   810b8:	10800017 	ldw	r2,0(r2)
   810bc:	10800058 	cmpnei	r2,r2,1
   810c0:	1000221e 	bne	r2,zero,8114c <custom_scheduler+0x6b0>
					// task is valid, mark it for deletion
					printf("-Marking task with id (%d) and priority (%d) for deletion\n", scheduler_info[i].id, i);
   810c4:	e13fe717 	ldw	r4,-100(fp)
   810c8:	01400304 	movi	r5,12
   810cc:	0081aec0 	call	81aec <__mulsi3>
   810d0:	1007883a 	mov	r3,r2
   810d4:	e0bfe504 	addi	r2,fp,-108
   810d8:	1885883a 	add	r2,r3,r2
   810dc:	10801104 	addi	r2,r2,68
   810e0:	01000274 	movhi	r4,9
   810e4:	211a4304 	addi	r4,r4,26892
   810e8:	11400017 	ldw	r5,0(r2)
   810ec:	e1bfe717 	ldw	r6,-100(fp)
   810f0:	0081b380 	call	81b38 <printf>
					scheduler_info[i].valid = -1;
   810f4:	e13fe717 	ldw	r4,-100(fp)
   810f8:	01400304 	movi	r5,12
   810fc:	0081aec0 	call	81aec <__mulsi3>
   81100:	1007883a 	mov	r3,r2
   81104:	e0bfe504 	addi	r2,fp,-108
   81108:	1885883a 	add	r2,r3,r2
   8110c:	10c01004 	addi	r3,r2,64
   81110:	00bfffc4 	movi	r2,-1
   81114:	18800015 	stw	r2,0(r3)

					PB_pressed[scheduler_info[i].id] = 0;
   81118:	e13fe717 	ldw	r4,-100(fp)
   8111c:	01400304 	movi	r5,12
   81120:	0081aec0 	call	81aec <__mulsi3>
   81124:	1007883a 	mov	r3,r2
   81128:	e0bfe504 	addi	r2,fp,-108
   8112c:	1885883a 	add	r2,r3,r2
   81130:	10801104 	addi	r2,r2,68
   81134:	10800017 	ldw	r2,0(r2)
   81138:	100690ba 	slli	r3,r2,2
   8113c:	e0bfe504 	addi	r2,fp,-108
   81140:	1885883a 	add	r2,r3,r2
   81144:	10800304 	addi	r2,r2,12
   81148:	10000015 	stw	zero,0(r2)
   8114c:	e0bfe717 	ldw	r2,-100(fp)
   81150:	10800044 	addi	r2,r2,1
   81154:	e0bfe715 	stw	r2,-100(fp)
   81158:	003fbe06 	br	81054 <custom_scheduler+0x5b8>
				}
			}

			// Delete the corresponding task first
			num_active_task -= custom_task_del(num_active_task, scheduler_info, task_info);
   8115c:	e17ff504 	addi	r5,fp,-44
   81160:	e1bfef04 	addi	r6,fp,-68
   81164:	e13fee17 	ldw	r4,-72(fp)
   81168:	00813280 	call	81328 <custom_task_del>
   8116c:	1007883a 	mov	r3,r2
   81170:	e0bfee17 	ldw	r2,-72(fp)
   81174:	10c5c83a 	sub	r2,r2,r3
   81178:	e0bfee15 	stw	r2,-72(fp)

			// Create the new task if available
			num_active_task += custom_task_create(PB_pressed, num_active_task, scheduler_info, task_info);
   8117c:	e13fe804 	addi	r4,fp,-96
   81180:	e1bff504 	addi	r6,fp,-44
   81184:	e1ffef04 	addi	r7,fp,-68
   81188:	e17fee17 	ldw	r5,-72(fp)
   8118c:	008157c0 	call	8157c <custom_task_create>
   81190:	1007883a 	mov	r3,r2
   81194:	e0bfee17 	ldw	r2,-72(fp)
   81198:	10c5883a 	add	r2,r2,r3
   8119c:	e0bfee15 	stw	r2,-72(fp)

			printf("Printing task info:\n");
   811a0:	01000274 	movhi	r4,9
   811a4:	211a1d04 	addi	r4,r4,26740
   811a8:	0081b380 	call	81b38 <printf>
			for (i = 0; i < num_active_task; i++) {
   811ac:	e03fe715 	stw	zero,-100(fp)
   811b0:	e0ffe717 	ldw	r3,-100(fp)
   811b4:	e0bfee17 	ldw	r2,-72(fp)
   811b8:	1880510e 	bge	r3,r2,81300 <custom_scheduler+0x864>
				printf("Priority %d: valid=%d, task_id=%d, period=%d, exec_time=%d, os_delay=%d, pri=%d\n",
   811bc:	e13fe717 	ldw	r4,-100(fp)
   811c0:	01400304 	movi	r5,12
   811c4:	0081aec0 	call	81aec <__mulsi3>
   811c8:	1007883a 	mov	r3,r2
   811cc:	e0bfe504 	addi	r2,fp,-108
   811d0:	1885883a 	add	r2,r3,r2
   811d4:	14001004 	addi	r16,r2,64
   811d8:	e13fe717 	ldw	r4,-100(fp)
   811dc:	01400304 	movi	r5,12
   811e0:	0081aec0 	call	81aec <__mulsi3>
   811e4:	1007883a 	mov	r3,r2
   811e8:	e0bfe504 	addi	r2,fp,-108
   811ec:	1885883a 	add	r2,r3,r2
   811f0:	14401104 	addi	r17,r2,68
   811f4:	e13fe717 	ldw	r4,-100(fp)
   811f8:	01400304 	movi	r5,12
   811fc:	0081aec0 	call	81aec <__mulsi3>
   81200:	1007883a 	mov	r3,r2
   81204:	e0bfe504 	addi	r2,fp,-108
   81208:	1885883a 	add	r2,r3,r2
   8120c:	10801204 	addi	r2,r2,72
   81210:	10800017 	ldw	r2,0(r2)
   81214:	d8800015 	stw	r2,0(sp)
   81218:	e13fe717 	ldw	r4,-100(fp)
   8121c:	01400304 	movi	r5,12
   81220:	0081aec0 	call	81aec <__mulsi3>
   81224:	1007883a 	mov	r3,r2
   81228:	e0bfe504 	addi	r2,fp,-108
   8122c:	1885883a 	add	r2,r3,r2
   81230:	10801104 	addi	r2,r2,68
   81234:	11000017 	ldw	r4,0(r2)
   81238:	01400304 	movi	r5,12
   8123c:	0081aec0 	call	81aec <__mulsi3>
   81240:	1007883a 	mov	r3,r2
   81244:	e0bfe504 	addi	r2,fp,-108
   81248:	1885883a 	add	r2,r3,r2
   8124c:	10800b04 	addi	r2,r2,44
   81250:	10800017 	ldw	r2,0(r2)
   81254:	d8800115 	stw	r2,4(sp)
   81258:	e13fe717 	ldw	r4,-100(fp)
   8125c:	01400304 	movi	r5,12
   81260:	0081aec0 	call	81aec <__mulsi3>
   81264:	1007883a 	mov	r3,r2
   81268:	e0bfe504 	addi	r2,fp,-108
   8126c:	1885883a 	add	r2,r3,r2
   81270:	10801104 	addi	r2,r2,68
   81274:	11000017 	ldw	r4,0(r2)
   81278:	01400304 	movi	r5,12
   8127c:	0081aec0 	call	81aec <__mulsi3>
   81280:	1007883a 	mov	r3,r2
   81284:	e0bfe504 	addi	r2,fp,-108
   81288:	1885883a 	add	r2,r3,r2
   8128c:	10800c04 	addi	r2,r2,48
   81290:	10800017 	ldw	r2,0(r2)
   81294:	d8800215 	stw	r2,8(sp)
   81298:	e13fe717 	ldw	r4,-100(fp)
   8129c:	01400304 	movi	r5,12
   812a0:	0081aec0 	call	81aec <__mulsi3>
   812a4:	1007883a 	mov	r3,r2
   812a8:	e0bfe504 	addi	r2,fp,-108
   812ac:	1885883a 	add	r2,r3,r2
   812b0:	10801104 	addi	r2,r2,68
   812b4:	11000017 	ldw	r4,0(r2)
   812b8:	01400304 	movi	r5,12
   812bc:	0081aec0 	call	81aec <__mulsi3>
   812c0:	1007883a 	mov	r3,r2
   812c4:	e0bfe504 	addi	r2,fp,-108
   812c8:	1885883a 	add	r2,r3,r2
   812cc:	10800a04 	addi	r2,r2,40
   812d0:	10800017 	ldw	r2,0(r2)
   812d4:	d8800315 	stw	r2,12(sp)
   812d8:	01000274 	movhi	r4,9
   812dc:	211a2304 	addi	r4,r4,26764
   812e0:	e17fe717 	ldw	r5,-100(fp)
   812e4:	81800017 	ldw	r6,0(r16)
   812e8:	89c00017 	ldw	r7,0(r17)
   812ec:	0081b380 	call	81b38 <printf>
   812f0:	e0bfe717 	ldw	r2,-100(fp)
   812f4:	10800044 	addi	r2,r2,1
   812f8:	e0bfe715 	stw	r2,-100(fp)
   812fc:	003fac06 	br	811b0 <custom_scheduler+0x714>
					i,
					scheduler_info[i].valid,
					scheduler_info[i].id,
					scheduler_info[i].period,
					task_info[scheduler_info[i].id].execution_time,
					task_info[scheduler_info[i].id].os_delay,
					task_info[scheduler_info[i].id].priority);
			}

			printf("Unlocking OS scheduler\n");
   81300:	01000274 	movhi	r4,9
   81304:	211a5204 	addi	r4,r4,26952
   81308:	0081b380 	call	81b38 <printf>
			OSSchedUnlock();
   8130c:	008c5c40 	call	8c5c4 <OSSchedUnlock>
		}

		OSTimeDlyHMSM(0, 0, 0, 500);
   81310:	0009883a 	mov	r4,zero
   81314:	000b883a 	mov	r5,zero
   81318:	000d883a 	mov	r6,zero
   8131c:	01c07d04 	movi	r7,500
   81320:	00930780 	call	93078 <OSTimeDlyHMSM>
   81324:	003f1f06 	br	80fa4 <custom_scheduler+0x508>

00081328 <custom_task_del>:
	}
}

// Function for deleting a task from the OS, and from the data structure task_info
int custom_task_del(int num_active_task, scheduler_info_struct scheduler_info[], task_info_struct task_info[]) {
   81328:	defff704 	addi	sp,sp,-36
   8132c:	dfc00815 	stw	ra,32(sp)
   81330:	df000715 	stw	fp,28(sp)
   81334:	dc000615 	stw	r16,24(sp)
   81338:	df000704 	addi	fp,sp,28
   8133c:	e13ff915 	stw	r4,-28(fp)
   81340:	e17ffa15 	stw	r5,-24(fp)
   81344:	e1bffb15 	stw	r6,-20(fp)

	int i, total_task_del = 0;
   81348:	e03ffd15 	stw	zero,-12(fp)
	INT8U return_code = OS_NO_ERR;
   8134c:	e03ffe05 	stb	zero,-8(fp)

	printf("Deleting task(s) from the OS ...\n");
   81350:	01000274 	movhi	r4,9
   81354:	211a5804 	addi	r4,r4,26976
   81358:	0081b380 	call	81b38 <printf>
	for (i = 0; i < num_active_task; i++) {
   8135c:	e03ffc15 	stw	zero,-16(fp)
   81360:	e0fffc17 	ldw	r3,-16(fp)
   81364:	e0bff917 	ldw	r2,-28(fp)
   81368:	18806c0e 	bge	r3,r2,8151c <custom_task_del+0x1f4>
		if (scheduler_info[i].valid == -1) {
   8136c:	e13ffc17 	ldw	r4,-16(fp)
   81370:	01400304 	movi	r5,12
   81374:	0081aec0 	call	81aec <__mulsi3>
   81378:	1007883a 	mov	r3,r2
   8137c:	e0bffa17 	ldw	r2,-24(fp)
   81380:	1885883a 	add	r2,r3,r2
   81384:	10800017 	ldw	r2,0(r2)
   81388:	10bfffd8 	cmpnei	r2,r2,-1
   8138c:	10000b1e 	bne	r2,zero,813bc <custom_task_del+0x94>
			// delete tasks that were marked for deletion
			return_code = OSTaskDel(TASK_START_PRIORITY+i);
   81390:	e0bffc17 	ldw	r2,-16(fp)
   81394:	10800284 	addi	r2,r2,10
   81398:	11003fcc 	andi	r4,r2,255
   8139c:	00920300 	call	92030 <OSTaskDel>
   813a0:	e0bffe05 	stb	r2,-8(fp)
			alt_ucosii_check_return_code(return_code);
   813a4:	e13ffe03 	ldbu	r4,-8(fp)
   813a8:	008042c0 	call	8042c <alt_ucosii_check_return_code>
			total_task_del++;
   813ac:	e0bffd17 	ldw	r2,-12(fp)
   813b0:	10800044 	addi	r2,r2,1
   813b4:	e0bffd15 	stw	r2,-12(fp)
   813b8:	00005406 	br	8150c <custom_task_del+0x1e4>
		}
		else {
			// active tasks will upgrade their priority
			if (total_task_del != 0) {
   813bc:	e0bffd17 	ldw	r2,-12(fp)
   813c0:	1005003a 	cmpeq	r2,r2,zero
   813c4:	1000511e 	bne	r2,zero,8150c <custom_task_del+0x1e4>
				return_code = OSTaskChangePrio(TASK_START_PRIORITY+i, TASK_START_PRIORITY+i-total_task_del);
   813c8:	e0bffc17 	ldw	r2,-16(fp)
   813cc:	10800284 	addi	r2,r2,10
   813d0:	11803fcc 	andi	r6,r2,255
   813d4:	e0bffc17 	ldw	r2,-16(fp)
   813d8:	e0fffd17 	ldw	r3,-12(fp)
   813dc:	1009883a 	mov	r4,r2
   813e0:	1805883a 	mov	r2,r3
   813e4:	2085c83a 	sub	r2,r4,r2
   813e8:	10800284 	addi	r2,r2,10
   813ec:	11403fcc 	andi	r5,r2,255
   813f0:	3009883a 	mov	r4,r6
   813f4:	00917c40 	call	917c4 <OSTaskChangePrio>
   813f8:	e0bffe05 	stb	r2,-8(fp)
				alt_ucosii_check_return_code(return_code);
   813fc:	e13ffe03 	ldbu	r4,-8(fp)
   81400:	008042c0 	call	8042c <alt_ucosii_check_return_code>
				scheduler_info[i-total_task_del].valid = scheduler_info[i].valid;
   81404:	e0fffc17 	ldw	r3,-16(fp)
   81408:	e0bffd17 	ldw	r2,-12(fp)
   8140c:	1889c83a 	sub	r4,r3,r2
   81410:	01400304 	movi	r5,12
   81414:	0081aec0 	call	81aec <__mulsi3>
   81418:	1007883a 	mov	r3,r2
   8141c:	e0bffa17 	ldw	r2,-24(fp)
   81420:	18a1883a 	add	r16,r3,r2
   81424:	e13ffc17 	ldw	r4,-16(fp)
   81428:	01400304 	movi	r5,12
   8142c:	0081aec0 	call	81aec <__mulsi3>
   81430:	1007883a 	mov	r3,r2
   81434:	e0bffa17 	ldw	r2,-24(fp)
   81438:	1885883a 	add	r2,r3,r2
   8143c:	10800017 	ldw	r2,0(r2)
   81440:	80800015 	stw	r2,0(r16)
				scheduler_info[i-total_task_del].id = scheduler_info[i].id;
   81444:	e0fffc17 	ldw	r3,-16(fp)
   81448:	e0bffd17 	ldw	r2,-12(fp)
   8144c:	1889c83a 	sub	r4,r3,r2
   81450:	01400304 	movi	r5,12
   81454:	0081aec0 	call	81aec <__mulsi3>
   81458:	1007883a 	mov	r3,r2
   8145c:	e0bffa17 	ldw	r2,-24(fp)
   81460:	18a1883a 	add	r16,r3,r2
   81464:	e13ffc17 	ldw	r4,-16(fp)
   81468:	01400304 	movi	r5,12
   8146c:	0081aec0 	call	81aec <__mulsi3>
   81470:	1007883a 	mov	r3,r2
   81474:	e0bffa17 	ldw	r2,-24(fp)
   81478:	1885883a 	add	r2,r3,r2
   8147c:	10800117 	ldw	r2,4(r2)
   81480:	80800115 	stw	r2,4(r16)
				scheduler_info[i-total_task_del].period = scheduler_info[i].period;
   81484:	e0fffc17 	ldw	r3,-16(fp)
   81488:	e0bffd17 	ldw	r2,-12(fp)
   8148c:	1889c83a 	sub	r4,r3,r2
   81490:	01400304 	movi	r5,12
   81494:	0081aec0 	call	81aec <__mulsi3>
   81498:	1007883a 	mov	r3,r2
   8149c:	e0bffa17 	ldw	r2,-24(fp)
   814a0:	18a1883a 	add	r16,r3,r2
   814a4:	e13ffc17 	ldw	r4,-16(fp)
   814a8:	01400304 	movi	r5,12
   814ac:	0081aec0 	call	81aec <__mulsi3>
   814b0:	1007883a 	mov	r3,r2
   814b4:	e0bffa17 	ldw	r2,-24(fp)
   814b8:	1885883a 	add	r2,r3,r2
   814bc:	10800217 	ldw	r2,8(r2)
   814c0:	80800215 	stw	r2,8(r16)
				task_info[scheduler_info[i-total_task_del].id].priority = i-total_task_del;
   814c4:	e0fffc17 	ldw	r3,-16(fp)
   814c8:	e0bffd17 	ldw	r2,-12(fp)
   814cc:	1889c83a 	sub	r4,r3,r2
   814d0:	01400304 	movi	r5,12
   814d4:	0081aec0 	call	81aec <__mulsi3>
   814d8:	1007883a 	mov	r3,r2
   814dc:	e0bffa17 	ldw	r2,-24(fp)
   814e0:	1885883a 	add	r2,r3,r2
   814e4:	11000117 	ldw	r4,4(r2)
   814e8:	01400304 	movi	r5,12
   814ec:	0081aec0 	call	81aec <__mulsi3>
   814f0:	1007883a 	mov	r3,r2
   814f4:	e0bffb17 	ldw	r2,-20(fp)
   814f8:	1889883a 	add	r4,r3,r2
   814fc:	e0fffc17 	ldw	r3,-16(fp)
   81500:	e0bffd17 	ldw	r2,-12(fp)
   81504:	1885c83a 	sub	r2,r3,r2
   81508:	20800015 	stw	r2,0(r4)
   8150c:	e0bffc17 	ldw	r2,-16(fp)
   81510:	10800044 	addi	r2,r2,1
   81514:	e0bffc15 	stw	r2,-16(fp)
   81518:	003f9106 	br	81360 <custom_task_del+0x38>
			}
		}
	}

	// clear the valid flag for all the inactive tasks
	for (i = num_active_task - total_task_del; i < num_active_task; i++)
   8151c:	e0bff917 	ldw	r2,-28(fp)
   81520:	e0fffd17 	ldw	r3,-12(fp)
   81524:	10c5c83a 	sub	r2,r2,r3
   81528:	e0bffc15 	stw	r2,-16(fp)
   8152c:	e0fffc17 	ldw	r3,-16(fp)
   81530:	e0bff917 	ldw	r2,-28(fp)
   81534:	18800b0e 	bge	r3,r2,81564 <custom_task_del+0x23c>
			scheduler_info[i].valid = 0;
   81538:	e13ffc17 	ldw	r4,-16(fp)
   8153c:	01400304 	movi	r5,12
   81540:	0081aec0 	call	81aec <__mulsi3>
   81544:	1007883a 	mov	r3,r2
   81548:	e0bffa17 	ldw	r2,-24(fp)
   8154c:	1885883a 	add	r2,r3,r2
   81550:	10000015 	stw	zero,0(r2)
   81554:	e0bffc17 	ldw	r2,-16(fp)
   81558:	10800044 	addi	r2,r2,1
   8155c:	e0bffc15 	stw	r2,-16(fp)
   81560:	003ff206 	br	8152c <custom_task_del+0x204>

	return total_task_del;
   81564:	e0bffd17 	ldw	r2,-12(fp)
}
   81568:	dfc00817 	ldw	ra,32(sp)
   8156c:	df000717 	ldw	fp,28(sp)
   81570:	dc000617 	ldw	r16,24(sp)
   81574:	dec00904 	addi	sp,sp,36
   81578:	f800283a 	ret

0008157c <custom_task_create>:

// Function for creating a task in the OS, and update the data structure task_info
// The new task has the lowest priority among the existing tasks
int custom_task_create(int PB_pressed[], int num_active_task, scheduler_info_struct scheduler_info[], task_info_struct task_info[]) {
   8157c:	deffee04 	addi	sp,sp,-72
   81580:	dfc01115 	stw	ra,68(sp)
   81584:	df001015 	stw	fp,64(sp)
   81588:	dc000f15 	stw	r16,60(sp)
   8158c:	dc400e15 	stw	r17,56(sp)
   81590:	dc800d15 	stw	r18,52(sp)
   81594:	df001004 	addi	fp,sp,64
   81598:	e13ff515 	stw	r4,-44(fp)
   8159c:	e17ff615 	stw	r5,-40(fp)
   815a0:	e1bff715 	stw	r6,-36(fp)
   815a4:	e1fff815 	stw	r7,-32(fp)
	int i;
	int num_task_created;
	INT8U return_code = OS_NO_ERR;
   815a8:	e03ffb05 	stb	zero,-20(fp)

	num_task_created = 0;
   815ac:	e03ffa15 	stw	zero,-24(fp)
	printf("Creating task(s) in the OS ...\n");
   815b0:	01000274 	movhi	r4,9
   815b4:	211a6104 	addi	r4,r4,27012
   815b8:	0081b380 	call	81b38 <printf>

	for (i = 0; i < NUM_PB_BUTTON; i++) {
   815bc:	e03ff915 	stw	zero,-28(fp)
   815c0:	e0bff917 	ldw	r2,-28(fp)
   815c4:	10800108 	cmpgei	r2,r2,4
   815c8:	1000da1e 	bne	r2,zero,81934 <custom_task_create+0x3b8>
		if (PB_pressed[i] == 1) {
   815cc:	e0bff917 	ldw	r2,-28(fp)
   815d0:	100690ba 	slli	r3,r2,2
   815d4:	e0bff517 	ldw	r2,-44(fp)
   815d8:	1885883a 	add	r2,r3,r2
   815dc:	10800017 	ldw	r2,0(r2)
   815e0:	10800058 	cmpnei	r2,r2,1
   815e4:	1000cf1e 	bne	r2,zero,81924 <custom_task_create+0x3a8>
			task_info[i].execution_time = rand() % EXECUTION_TIME_LIMIT + 1;
   815e8:	e13ff917 	ldw	r4,-28(fp)
   815ec:	01400304 	movi	r5,12
   815f0:	0081aec0 	call	81aec <__mulsi3>
   815f4:	1007883a 	mov	r3,r2
   815f8:	e0bff817 	ldw	r2,-32(fp)
   815fc:	18a1883a 	add	r16,r3,r2
   81600:	0081b800 	call	81b80 <rand>
   81604:	1009883a 	mov	r4,r2
   81608:	0144e204 	movi	r5,5000
   8160c:	0081a800 	call	81a80 <__modsi3>
   81610:	10800044 	addi	r2,r2,1
   81614:	80800115 	stw	r2,4(r16)
			task_info[i].os_delay = rand() % OS_DELAY_LIMIT + 1;
   81618:	e13ff917 	ldw	r4,-28(fp)
   8161c:	01400304 	movi	r5,12
   81620:	0081aec0 	call	81aec <__mulsi3>
   81624:	1007883a 	mov	r3,r2
   81628:	e0bff817 	ldw	r2,-32(fp)
   8162c:	18a1883a 	add	r16,r3,r2
   81630:	0081b800 	call	81b80 <rand>
   81634:	1009883a 	mov	r4,r2
   81638:	01400144 	movi	r5,5
   8163c:	0081a800 	call	81a80 <__modsi3>
   81640:	10800044 	addi	r2,r2,1
   81644:	80800215 	stw	r2,8(r16)
			task_info[i].priority = num_active_task + num_task_created;
   81648:	e13ff917 	ldw	r4,-28(fp)
   8164c:	01400304 	movi	r5,12
   81650:	0081aec0 	call	81aec <__mulsi3>
   81654:	1007883a 	mov	r3,r2
   81658:	e0bff817 	ldw	r2,-32(fp)
   8165c:	1889883a 	add	r4,r3,r2
   81660:	e0fff617 	ldw	r3,-40(fp)
   81664:	e0bffa17 	ldw	r2,-24(fp)
   81668:	1885883a 	add	r2,r3,r2
   8166c:	20800015 	stw	r2,0(r4)
			
            scheduler_info[num_active_task + num_task_created].valid = 1;
   81670:	e0fff617 	ldw	r3,-40(fp)
   81674:	e0bffa17 	ldw	r2,-24(fp)
   81678:	1889883a 	add	r4,r3,r2
   8167c:	01400304 	movi	r5,12
   81680:	0081aec0 	call	81aec <__mulsi3>
   81684:	1007883a 	mov	r3,r2
   81688:	e0bff717 	ldw	r2,-36(fp)
   8168c:	1887883a 	add	r3,r3,r2
   81690:	00800044 	movi	r2,1
   81694:	18800015 	stw	r2,0(r3)
            scheduler_info[num_active_task + num_task_created].period = task_info[i].execution_time + task_info[i].os_delay;// * 1000;
   81698:	e0fff617 	ldw	r3,-40(fp)
   8169c:	e0bffa17 	ldw	r2,-24(fp)
   816a0:	1889883a 	add	r4,r3,r2
   816a4:	01400304 	movi	r5,12
   816a8:	0081aec0 	call	81aec <__mulsi3>
   816ac:	1007883a 	mov	r3,r2
   816b0:	e0bff717 	ldw	r2,-36(fp)
   816b4:	18a3883a 	add	r17,r3,r2
   816b8:	e13ff917 	ldw	r4,-28(fp)
   816bc:	01400304 	movi	r5,12
   816c0:	0081aec0 	call	81aec <__mulsi3>
   816c4:	1007883a 	mov	r3,r2
   816c8:	e0bff817 	ldw	r2,-32(fp)
   816cc:	18a1883a 	add	r16,r3,r2
   816d0:	e13ff917 	ldw	r4,-28(fp)
   816d4:	01400304 	movi	r5,12
   816d8:	0081aec0 	call	81aec <__mulsi3>
   816dc:	1007883a 	mov	r3,r2
   816e0:	e0bff817 	ldw	r2,-32(fp)
   816e4:	1885883a 	add	r2,r3,r2
   816e8:	80c00117 	ldw	r3,4(r16)
   816ec:	10800217 	ldw	r2,8(r2)
   816f0:	1885883a 	add	r2,r3,r2
   816f4:	88800215 	stw	r2,8(r17)
            scheduler_info[num_active_task + num_task_created].id = i;
   816f8:	e0fff617 	ldw	r3,-40(fp)
   816fc:	e0bffa17 	ldw	r2,-24(fp)
   81700:	1889883a 	add	r4,r3,r2
   81704:	01400304 	movi	r5,12
   81708:	0081aec0 	call	81aec <__mulsi3>
   8170c:	1007883a 	mov	r3,r2
   81710:	e0bff717 	ldw	r2,-36(fp)
   81714:	1887883a 	add	r3,r3,r2
   81718:	e0bff917 	ldw	r2,-28(fp)
   8171c:	18800115 	stw	r2,4(r3)
            
			printf("-Creating periodic_task%d: execution_time_tick = %d, os_delay_time = %d: priority (%d)\n",
   81720:	e13ff917 	ldw	r4,-28(fp)
   81724:	01400304 	movi	r5,12
   81728:	0081aec0 	call	81aec <__mulsi3>
   8172c:	1007883a 	mov	r3,r2
   81730:	e0bff817 	ldw	r2,-32(fp)
   81734:	18a1883a 	add	r16,r3,r2
   81738:	e13ff917 	ldw	r4,-28(fp)
   8173c:	01400304 	movi	r5,12
   81740:	0081aec0 	call	81aec <__mulsi3>
   81744:	1007883a 	mov	r3,r2
   81748:	e0bff817 	ldw	r2,-32(fp)
   8174c:	188f883a 	add	r7,r3,r2
   81750:	e0fff617 	ldw	r3,-40(fp)
   81754:	e0bffa17 	ldw	r2,-24(fp)
   81758:	1885883a 	add	r2,r3,r2
   8175c:	d8800015 	stw	r2,0(sp)
   81760:	01000274 	movhi	r4,9
   81764:	211a6904 	addi	r4,r4,27044
   81768:	e17ff917 	ldw	r5,-28(fp)
   8176c:	81800117 	ldw	r6,4(r16)
   81770:	39c00217 	ldw	r7,8(r7)
   81774:	0081b380 	call	81b38 <printf>
				i,
				task_info[i].execution_time,
				task_info[i].os_delay,
                num_active_task + num_task_created
                );

			// Create the task in the OS
			switch(i) {
   81778:	e0bff917 	ldw	r2,-28(fp)
   8177c:	e0bffc15 	stw	r2,-16(fp)
   81780:	e0fffc17 	ldw	r3,-16(fp)
   81784:	18800060 	cmpeqi	r2,r3,1
   81788:	1000041e 	bne	r2,zero,8179c <custom_task_create+0x220>
   8178c:	e0fffc17 	ldw	r3,-16(fp)
   81790:	188000a0 	cmpeqi	r2,r3,2
   81794:	1000311e 	bne	r2,zero,8185c <custom_task_create+0x2e0>
   81798:	00005f06 	br	81918 <custom_task_create+0x39c>
				case 1:
					return_code = OSTaskCreateExt(periodic_task1,
   8179c:	e13ff917 	ldw	r4,-28(fp)
   817a0:	01400304 	movi	r5,12
   817a4:	0081aec0 	call	81aec <__mulsi3>
   817a8:	1007883a 	mov	r3,r2
   817ac:	e0bff817 	ldw	r2,-32(fp)
   817b0:	18a1883a 	add	r16,r3,r2
   817b4:	e0bff917 	ldw	r2,-28(fp)
   817b8:	1006937a 	slli	r3,r2,13
   817bc:	008002b4 	movhi	r2,10
   817c0:	10b99104 	addi	r2,r2,-6588
   817c4:	18a3883a 	add	r17,r3,r2
   817c8:	e0bff617 	ldw	r2,-40(fp)
   817cc:	e0fffa17 	ldw	r3,-24(fp)
   817d0:	1009883a 	mov	r4,r2
   817d4:	1805883a 	mov	r2,r3
   817d8:	2085883a 	add	r2,r4,r2
   817dc:	10800284 	addi	r2,r2,10
   817e0:	14803fcc 	andi	r18,r2,255
   817e4:	e0bff917 	ldw	r2,-28(fp)
   817e8:	10bfffcc 	andi	r2,r2,65535
   817ec:	d8800015 	stw	r2,0(sp)
   817f0:	e0bff917 	ldw	r2,-28(fp)
   817f4:	1006937a 	slli	r3,r2,13
   817f8:	008002b4 	movhi	r2,10
   817fc:	10b19204 	addi	r2,r2,-14776
   81800:	1885883a 	add	r2,r3,r2
   81804:	d8800115 	stw	r2,4(sp)
   81808:	00820004 	movi	r2,2048
   8180c:	d8800215 	stw	r2,8(sp)
   81810:	e13ff917 	ldw	r4,-28(fp)
   81814:	01401b04 	movi	r5,108
   81818:	0081aec0 	call	81aec <__mulsi3>
   8181c:	1007883a 	mov	r3,r2
   81820:	008002b4 	movhi	r2,10
   81824:	1081b104 	addi	r2,r2,1732
   81828:	1885883a 	add	r2,r3,r2
   8182c:	d8800315 	stw	r2,12(sp)
   81830:	d8000415 	stw	zero,16(sp)
   81834:	01000234 	movhi	r4,8
   81838:	21024f04 	addi	r4,r4,2364
   8183c:	800b883a 	mov	r5,r16
   81840:	880d883a 	mov	r6,r17
   81844:	900f883a 	mov	r7,r18
   81848:	0091e480 	call	91e48 <OSTaskCreateExt>
   8184c:	e0bffb05 	stb	r2,-20(fp)
						 					&task_info[i],
											 (void *)&periodic_task_stk[i][TASK_STACKSIZE-1],
											 TASK_START_PRIORITY+num_active_task + num_task_created,
											 i,
											 &periodic_task_stk[i][0],
											 TASK_STACKSIZE,
											 &periodic_task_tcb[i],
											 0);
					alt_ucosii_check_return_code(return_code);
   81850:	e13ffb03 	ldbu	r4,-20(fp)
   81854:	008042c0 	call	8042c <alt_ucosii_check_return_code>
				break;
   81858:	00002f06 	br	81918 <custom_task_create+0x39c>
				case 2:
					return_code = OSTaskCreateExt(periodic_task2,
   8185c:	e13ff917 	ldw	r4,-28(fp)
   81860:	01400304 	movi	r5,12
   81864:	0081aec0 	call	81aec <__mulsi3>
   81868:	1007883a 	mov	r3,r2
   8186c:	e0bff817 	ldw	r2,-32(fp)
   81870:	18a1883a 	add	r16,r3,r2
   81874:	e0bff917 	ldw	r2,-28(fp)
   81878:	1006937a 	slli	r3,r2,13
   8187c:	008002b4 	movhi	r2,10
   81880:	10b99104 	addi	r2,r2,-6588
   81884:	18a3883a 	add	r17,r3,r2
   81888:	e0bff617 	ldw	r2,-40(fp)
   8188c:	e0fffa17 	ldw	r3,-24(fp)
   81890:	1009883a 	mov	r4,r2
   81894:	1805883a 	mov	r2,r3
   81898:	2085883a 	add	r2,r4,r2
   8189c:	10800284 	addi	r2,r2,10
   818a0:	14803fcc 	andi	r18,r2,255
   818a4:	e0bff917 	ldw	r2,-28(fp)
   818a8:	10bfffcc 	andi	r2,r2,65535
   818ac:	d8800015 	stw	r2,0(sp)
   818b0:	e0bff917 	ldw	r2,-28(fp)
   818b4:	1006937a 	slli	r3,r2,13
   818b8:	008002b4 	movhi	r2,10
   818bc:	10b19204 	addi	r2,r2,-14776
   818c0:	1885883a 	add	r2,r3,r2
   818c4:	d8800115 	stw	r2,4(sp)
   818c8:	00820004 	movi	r2,2048
   818cc:	d8800215 	stw	r2,8(sp)
   818d0:	e13ff917 	ldw	r4,-28(fp)
   818d4:	01401b04 	movi	r5,108
   818d8:	0081aec0 	call	81aec <__mulsi3>
   818dc:	1007883a 	mov	r3,r2
   818e0:	008002b4 	movhi	r2,10
   818e4:	1081b104 	addi	r2,r2,1732
   818e8:	1885883a 	add	r2,r3,r2
   818ec:	d8800315 	stw	r2,12(sp)
   818f0:	d8000415 	stw	zero,16(sp)
   818f4:	01000234 	movhi	r4,8
   818f8:	21027b04 	addi	r4,r4,2540
   818fc:	800b883a 	mov	r5,r16
   81900:	880d883a 	mov	r6,r17
   81904:	900f883a 	mov	r7,r18
   81908:	0091e480 	call	91e48 <OSTaskCreateExt>
   8190c:	e0bffb05 	stb	r2,-20(fp)
						 					&task_info[i],
											 (void *)&periodic_task_stk[i][TASK_STACKSIZE-1],
											 TASK_START_PRIORITY+num_active_task + num_task_created,
											 i,
											 &periodic_task_stk[i][0],
											 TASK_STACKSIZE,
											 &periodic_task_tcb[i],
											 0);
					alt_ucosii_check_return_code(return_code);
   81910:	e13ffb03 	ldbu	r4,-20(fp)
   81914:	008042c0 	call	8042c <alt_ucosii_check_return_code>
				break;
			}

			num_task_created++;
   81918:	e0bffa17 	ldw	r2,-24(fp)
   8191c:	10800044 	addi	r2,r2,1
   81920:	e0bffa15 	stw	r2,-24(fp)
   81924:	e0bff917 	ldw	r2,-28(fp)
   81928:	10800044 	addi	r2,r2,1
   8192c:	e0bff915 	stw	r2,-28(fp)
   81930:	003f2306 	br	815c0 <custom_task_create+0x44>
		}
	}

	printf("%d task created...\n", num_task_created);
   81934:	01000274 	movhi	r4,9
   81938:	211a7f04 	addi	r4,r4,27132
   8193c:	e17ffa17 	ldw	r5,-24(fp)
   81940:	0081b380 	call	81b38 <printf>

	return num_task_created;
   81944:	e0bffa17 	ldw	r2,-24(fp)
}
   81948:	dfc01117 	ldw	ra,68(sp)
   8194c:	df001017 	ldw	fp,64(sp)
   81950:	dc000f17 	ldw	r16,60(sp)
   81954:	dc400e17 	ldw	r17,56(sp)
   81958:	dc800d17 	ldw	r18,52(sp)
   8195c:	dec01204 	addi	sp,sp,72
   81960:	f800283a 	ret

00081964 <custom_delay>:

// Function for occupying the processor for the specified number of clock ticks
// to simulate custom delay while keeping the task in the processor
void custom_delay(int ticks) {
   81964:	defffc04 	addi	sp,sp,-16
   81968:	dfc00315 	stw	ra,12(sp)
   8196c:	df000215 	stw	fp,8(sp)
   81970:	df000204 	addi	fp,sp,8
   81974:	e13ffe15 	stw	r4,-8(fp)
    INT32U cur_tick;
    ticks--;
   81978:	e0bffe17 	ldw	r2,-8(fp)
   8197c:	10bfffc4 	addi	r2,r2,-1
   81980:	e0bffe15 	stw	r2,-8(fp)
    cur_tick = OSTimeGet();
   81984:	00933d00 	call	933d0 <OSTimeGet>
   81988:	e0bfff15 	stw	r2,-4(fp)
    while (ticks > 0) {
   8198c:	e0bffe17 	ldw	r2,-8(fp)
   81990:	10800050 	cmplti	r2,r2,1
   81994:	10000a1e 	bne	r2,zero,819c0 <custom_delay+0x5c>
         if (OSTimeGet() > cur_tick) {
   81998:	00933d00 	call	933d0 <OSTimeGet>
   8199c:	1007883a 	mov	r3,r2
   819a0:	e0bfff17 	ldw	r2,-4(fp)
   819a4:	10fff92e 	bgeu	r2,r3,8198c <custom_delay+0x28>
            ticks--;
   819a8:	e0bffe17 	ldw	r2,-8(fp)
   819ac:	10bfffc4 	addi	r2,r2,-1
   819b0:	e0bffe15 	stw	r2,-8(fp)
            cur_tick = OSTimeGet();
   819b4:	00933d00 	call	933d0 <OSTimeGet>
   819b8:	e0bfff15 	stw	r2,-4(fp)
   819bc:	003ff306 	br	8198c <custom_delay+0x28>
         }  
    }
}
   819c0:	dfc00317 	ldw	ra,12(sp)
   819c4:	df000217 	ldw	fp,8(sp)
   819c8:	dec00404 	addi	sp,sp,16
   819cc:	f800283a 	ret

000819d0 <udivmodsi4>:
   819d0:	00800044 	movi	r2,1
   819d4:	000f883a 	mov	r7,zero
   819d8:	2900082e 	bgeu	r5,r4,819fc <udivmodsi4+0x2c>
   819dc:	28000716 	blt	r5,zero,819fc <udivmodsi4+0x2c>
   819e0:	294b883a 	add	r5,r5,r5
   819e4:	1085883a 	add	r2,r2,r2
   819e8:	29000e2e 	bgeu	r5,r4,81a24 <udivmodsi4+0x54>
   819ec:	1007003a 	cmpeq	r3,r2,zero
   819f0:	1800081e 	bne	r3,zero,81a14 <udivmodsi4+0x44>
   819f4:	283ffa0e 	bge	r5,zero,819e0 <udivmodsi4+0x10>
   819f8:	1800061e 	bne	r3,zero,81a14 <udivmodsi4+0x44>
   819fc:	21400236 	bltu	r4,r5,81a08 <udivmodsi4+0x38>
   81a00:	2149c83a 	sub	r4,r4,r5
   81a04:	388eb03a 	or	r7,r7,r2
   81a08:	1004d07a 	srli	r2,r2,1
   81a0c:	280ad07a 	srli	r5,r5,1
   81a10:	103ffa1e 	bne	r2,zero,819fc <udivmodsi4+0x2c>
   81a14:	3000011e 	bne	r6,zero,81a1c <udivmodsi4+0x4c>
   81a18:	3809883a 	mov	r4,r7
   81a1c:	2005883a 	mov	r2,r4
   81a20:	f800283a 	ret
   81a24:	1007003a 	cmpeq	r3,r2,zero
   81a28:	183ff426 	beq	r3,zero,819fc <udivmodsi4+0x2c>
   81a2c:	003ff906 	br	81a14 <udivmodsi4+0x44>

00081a30 <__divsi3>:
   81a30:	defffe04 	addi	sp,sp,-8
   81a34:	dc000015 	stw	r16,0(sp)
   81a38:	dfc00115 	stw	ra,4(sp)
   81a3c:	000d883a 	mov	r6,zero
   81a40:	0021883a 	mov	r16,zero
   81a44:	20000816 	blt	r4,zero,81a68 <__divsi3+0x38>
   81a48:	28000a16 	blt	r5,zero,81a74 <__divsi3+0x44>
   81a4c:	00819d00 	call	819d0 <udivmodsi4>
   81a50:	80000126 	beq	r16,zero,81a58 <__divsi3+0x28>
   81a54:	0085c83a 	sub	r2,zero,r2
   81a58:	dfc00117 	ldw	ra,4(sp)
   81a5c:	dc000017 	ldw	r16,0(sp)
   81a60:	dec00204 	addi	sp,sp,8
   81a64:	f800283a 	ret
   81a68:	0109c83a 	sub	r4,zero,r4
   81a6c:	0021003a 	cmpeq	r16,zero,zero
   81a70:	283ff60e 	bge	r5,zero,81a4c <__divsi3+0x1c>
   81a74:	014bc83a 	sub	r5,zero,r5
   81a78:	8021003a 	cmpeq	r16,r16,zero
   81a7c:	003ff306 	br	81a4c <__divsi3+0x1c>

00081a80 <__modsi3>:
   81a80:	defffe04 	addi	sp,sp,-8
   81a84:	dc000015 	stw	r16,0(sp)
   81a88:	dfc00115 	stw	ra,4(sp)
   81a8c:	01800044 	movi	r6,1
   81a90:	0021883a 	mov	r16,zero
   81a94:	20000816 	blt	r4,zero,81ab8 <__modsi3+0x38>
   81a98:	28000a16 	blt	r5,zero,81ac4 <__modsi3+0x44>
   81a9c:	00819d00 	call	819d0 <udivmodsi4>
   81aa0:	80000126 	beq	r16,zero,81aa8 <__modsi3+0x28>
   81aa4:	0085c83a 	sub	r2,zero,r2
   81aa8:	dfc00117 	ldw	ra,4(sp)
   81aac:	dc000017 	ldw	r16,0(sp)
   81ab0:	dec00204 	addi	sp,sp,8
   81ab4:	f800283a 	ret
   81ab8:	0109c83a 	sub	r4,zero,r4
   81abc:	3021883a 	mov	r16,r6
   81ac0:	283ff60e 	bge	r5,zero,81a9c <__modsi3+0x1c>
   81ac4:	014bc83a 	sub	r5,zero,r5
   81ac8:	003ff406 	br	81a9c <__modsi3+0x1c>

00081acc <__udivsi3>:
   81acc:	000d883a 	mov	r6,zero
   81ad0:	02000234 	movhi	r8,8
   81ad4:	42067404 	addi	r8,r8,6608
   81ad8:	4000683a 	jmp	r8

00081adc <__umodsi3>:
   81adc:	01800044 	movi	r6,1
   81ae0:	02000234 	movhi	r8,8
   81ae4:	42067404 	addi	r8,r8,6608
   81ae8:	4000683a 	jmp	r8

00081aec <__mulsi3>:
   81aec:	0007883a 	mov	r3,zero
   81af0:	20000626 	beq	r4,zero,81b0c <__mulsi3+0x20>
   81af4:	2080004c 	andi	r2,r4,1
   81af8:	2008d07a 	srli	r4,r4,1
   81afc:	10000126 	beq	r2,zero,81b04 <__mulsi3+0x18>
   81b00:	1947883a 	add	r3,r3,r5
   81b04:	294b883a 	add	r5,r5,r5
   81b08:	203ffa1e 	bne	r4,zero,81af4 <__mulsi3+0x8>
   81b0c:	1805883a 	mov	r2,r3
   81b10:	f800283a 	ret

00081b14 <fprintf>:
   81b14:	defffd04 	addi	sp,sp,-12
   81b18:	dfc00015 	stw	ra,0(sp)
   81b1c:	d9800115 	stw	r6,4(sp)
   81b20:	d9c00215 	stw	r7,8(sp)
   81b24:	d9800104 	addi	r6,sp,4
   81b28:	00838c00 	call	838c0 <__vfprintf_internal>
   81b2c:	dfc00017 	ldw	ra,0(sp)
   81b30:	dec00304 	addi	sp,sp,12
   81b34:	f800283a 	ret

00081b38 <printf>:
   81b38:	defffc04 	addi	sp,sp,-16
   81b3c:	dfc00015 	stw	ra,0(sp)
   81b40:	d9400115 	stw	r5,4(sp)
   81b44:	d9800215 	stw	r6,8(sp)
   81b48:	d9c00315 	stw	r7,12(sp)
   81b4c:	d0a00117 	ldw	r2,-32764(gp)
   81b50:	200b883a 	mov	r5,r4
   81b54:	d9800104 	addi	r6,sp,4
   81b58:	11000217 	ldw	r4,8(r2)
   81b5c:	00838c00 	call	838c0 <__vfprintf_internal>
   81b60:	dfc00017 	ldw	ra,0(sp)
   81b64:	dec00404 	addi	sp,sp,16
   81b68:	f800283a 	ret

00081b6c <srand>:
   81b6c:	d1600117 	ldw	r5,-32764(gp)
   81b70:	0007883a 	mov	r3,zero
   81b74:	28c02a15 	stw	r3,168(r5)
   81b78:	29002915 	stw	r4,164(r5)
   81b7c:	f800283a 	ret

00081b80 <rand>:
   81b80:	defffe04 	addi	sp,sp,-8
   81b84:	dc000015 	stw	r16,0(sp)
   81b88:	d4200117 	ldw	r16,-32764(gp)
   81b8c:	dfc00115 	stw	ra,4(sp)
   81b90:	00932574 	movhi	r2,19605
   81b94:	109fcb44 	addi	r2,r2,32557
   81b98:	82002917 	ldw	r8,164(r16)
   81b9c:	82402a17 	ldw	r9,168(r16)
   81ba0:	00d614b4 	movhi	r3,22610
   81ba4:	18fd0b44 	addi	r3,r3,-3027
   81ba8:	4009883a 	mov	r4,r8
   81bac:	180f883a 	mov	r7,r3
   81bb0:	100d883a 	mov	r6,r2
   81bb4:	480b883a 	mov	r5,r9
   81bb8:	00887b40 	call	887b4 <__muldi3>
   81bbc:	02000044 	movi	r8,1
   81bc0:	1209883a 	add	r4,r2,r8
   81bc4:	2095803a 	cmpltu	r10,r4,r2
   81bc8:	50d5883a 	add	r10,r10,r3
   81bcc:	81002915 	stw	r4,164(r16)
   81bd0:	01200034 	movhi	r4,32768
   81bd4:	213fffc4 	addi	r4,r4,-1
   81bd8:	2284703a 	and	r2,r4,r10
   81bdc:	82802a15 	stw	r10,168(r16)
   81be0:	dfc00117 	ldw	ra,4(sp)
   81be4:	dc000017 	ldw	r16,0(sp)
   81be8:	dec00204 	addi	sp,sp,8
   81bec:	f800283a 	ret

00081bf0 <__sprint>:
   81bf0:	defffe04 	addi	sp,sp,-8
   81bf4:	dc000015 	stw	r16,0(sp)
   81bf8:	dfc00115 	stw	ra,4(sp)
   81bfc:	28800217 	ldw	r2,8(r5)
   81c00:	2821883a 	mov	r16,r5
   81c04:	0007883a 	mov	r3,zero
   81c08:	1000061e 	bne	r2,zero,81c24 <__sprint+0x34>
   81c0c:	1805883a 	mov	r2,r3
   81c10:	28000115 	stw	zero,4(r5)
   81c14:	dfc00117 	ldw	ra,4(sp)
   81c18:	dc000017 	ldw	r16,0(sp)
   81c1c:	dec00204 	addi	sp,sp,8
   81c20:	f800283a 	ret
   81c24:	0085c840 	call	85c84 <__sfvwrite>
   81c28:	1007883a 	mov	r3,r2
   81c2c:	1805883a 	mov	r2,r3
   81c30:	80000115 	stw	zero,4(r16)
   81c34:	80000215 	stw	zero,8(r16)
   81c38:	dfc00117 	ldw	ra,4(sp)
   81c3c:	dc000017 	ldw	r16,0(sp)
   81c40:	dec00204 	addi	sp,sp,8
   81c44:	f800283a 	ret

00081c48 <___vfprintf_internal_r>:
   81c48:	defe4a04 	addi	sp,sp,-1752
   81c4c:	dc01b315 	stw	r16,1740(sp)
   81c50:	d9419e15 	stw	r5,1656(sp)
   81c54:	d9019d15 	stw	r4,1652(sp)
   81c58:	dfc1b515 	stw	ra,1748(sp)
   81c5c:	df01b415 	stw	fp,1744(sp)
   81c60:	dc41b215 	stw	r17,1736(sp)
   81c64:	dc81b115 	stw	r18,1732(sp)
   81c68:	dcc1b015 	stw	r19,1728(sp)
   81c6c:	dd01af15 	stw	r20,1724(sp)
   81c70:	dd41ae15 	stw	r21,1720(sp)
   81c74:	dd81ad15 	stw	r22,1716(sp)
   81c78:	ddc1ac15 	stw	r23,1712(sp)
   81c7c:	3021883a 	mov	r16,r6
   81c80:	d9c19f15 	stw	r7,1660(sp)
   81c84:	00861940 	call	86194 <localeconv>
   81c88:	d8c19e17 	ldw	r3,1656(sp)
   81c8c:	10800017 	ldw	r2,0(r2)
   81c90:	000b883a 	mov	r5,zero
   81c94:	1900030b 	ldhu	r4,12(r3)
   81c98:	d881a315 	stw	r2,1676(sp)
   81c9c:	d941a415 	stw	r5,1680(sp)
   81ca0:	2080020c 	andi	r2,r4,8
   81ca4:	d941a515 	stw	r5,1684(sp)
   81ca8:	d801a615 	stw	zero,1688(sp)
   81cac:	d801a915 	stw	zero,1700(sp)
   81cb0:	d801aa15 	stw	zero,1704(sp)
   81cb4:	10004226 	beq	r2,zero,81dc0 <___vfprintf_internal_r+0x178>
   81cb8:	18800417 	ldw	r2,16(r3)
   81cbc:	10004026 	beq	r2,zero,81dc0 <___vfprintf_internal_r+0x178>
   81cc0:	20c0068c 	andi	r3,r4,26
   81cc4:	00800284 	movi	r2,10
   81cc8:	18804626 	beq	r3,r2,81de4 <___vfprintf_internal_r+0x19c>
   81ccc:	dc800904 	addi	r18,sp,36
   81cd0:	802d883a 	mov	r22,r16
   81cd4:	dc800615 	stw	r18,24(sp)
   81cd8:	d8000815 	stw	zero,32(sp)
   81cdc:	d8000715 	stw	zero,28(sp)
   81ce0:	d801a115 	stw	zero,1668(sp)
   81ce4:	b1000003 	ldbu	r4,0(r22)
   81ce8:	b027883a 	mov	r19,r22
   81cec:	20803fcc 	andi	r2,r4,255
   81cf0:	1080201c 	xori	r2,r2,128
   81cf4:	10bfe004 	addi	r2,r2,-128
   81cf8:	10000826 	beq	r2,zero,81d1c <___vfprintf_internal_r+0xd4>
   81cfc:	00c00944 	movi	r3,37
   81d00:	10c00626 	beq	r2,r3,81d1c <___vfprintf_internal_r+0xd4>
   81d04:	b5800044 	addi	r22,r22,1
   81d08:	b1000003 	ldbu	r4,0(r22)
   81d0c:	20803fcc 	andi	r2,r4,255
   81d10:	1080201c 	xori	r2,r2,128
   81d14:	10bfe004 	addi	r2,r2,-128
   81d18:	103ff91e 	bne	r2,zero,81d00 <___vfprintf_internal_r+0xb8>
   81d1c:	b4e3c83a 	sub	r17,r22,r19
   81d20:	88000f26 	beq	r17,zero,81d60 <___vfprintf_internal_r+0x118>
   81d24:	d8800817 	ldw	r2,32(sp)
   81d28:	d8c00717 	ldw	r3,28(sp)
   81d2c:	94c00015 	stw	r19,0(r18)
   81d30:	1445883a 	add	r2,r2,r17
   81d34:	18c00044 	addi	r3,r3,1
   81d38:	d8800815 	stw	r2,32(sp)
   81d3c:	008001c4 	movi	r2,7
   81d40:	94400115 	stw	r17,4(r18)
   81d44:	d8c00715 	stw	r3,28(sp)
   81d48:	94800204 	addi	r18,r18,8
   81d4c:	10c05a16 	blt	r2,r3,81eb8 <___vfprintf_internal_r+0x270>
   81d50:	d8c1a117 	ldw	r3,1668(sp)
   81d54:	b1000003 	ldbu	r4,0(r22)
   81d58:	1c47883a 	add	r3,r3,r17
   81d5c:	d8c1a115 	stw	r3,1668(sp)
   81d60:	20803fcc 	andi	r2,r4,255
   81d64:	1080201c 	xori	r2,r2,128
   81d68:	10bfe004 	addi	r2,r2,-128
   81d6c:	10036d26 	beq	r2,zero,82b24 <___vfprintf_internal_r+0xedc>
   81d70:	b5800044 	addi	r22,r22,1
   81d74:	b1000003 	ldbu	r4,0(r22)
   81d78:	053fffc4 	movi	r20,-1
   81d7c:	d801a015 	stw	zero,1664(sp)
   81d80:	d801a715 	stw	zero,1692(sp)
   81d84:	d801a215 	stw	zero,1672(sp)
   81d88:	d8019c05 	stb	zero,1648(sp)
   81d8c:	27003fcc 	andi	fp,r4,255
   81d90:	e700201c 	xori	fp,fp,128
   81d94:	e73fe004 	addi	fp,fp,-128
   81d98:	b5800044 	addi	r22,r22,1
   81d9c:	e0fff804 	addi	r3,fp,-32
   81da0:	00801604 	movi	r2,88
   81da4:	10c19c36 	bltu	r2,r3,82418 <___vfprintf_internal_r+0x7d0>
   81da8:	180490ba 	slli	r2,r3,2
   81dac:	00c00274 	movhi	r3,9
   81db0:	18da8d04 	addi	r3,r3,27188
   81db4:	10c5883a 	add	r2,r2,r3
   81db8:	11000017 	ldw	r4,0(r2)
   81dbc:	2000683a 	jmp	r4
   81dc0:	d9019e17 	ldw	r4,1656(sp)
   81dc4:	0083f840 	call	83f84 <__swsetup>
   81dc8:	00ffffc4 	movi	r3,-1
   81dcc:	10002d1e 	bne	r2,zero,81e84 <___vfprintf_internal_r+0x23c>
   81dd0:	d9c19e17 	ldw	r7,1656(sp)
   81dd4:	00800284 	movi	r2,10
   81dd8:	3900030b 	ldhu	r4,12(r7)
   81ddc:	20c0068c 	andi	r3,r4,26
   81de0:	18bfba1e 	bne	r3,r2,81ccc <___vfprintf_internal_r+0x84>
   81de4:	d8819e17 	ldw	r2,1656(sp)
   81de8:	1280038b 	ldhu	r10,14(r2)
   81dec:	50bfffcc 	andi	r2,r10,65535
   81df0:	10a0001c 	xori	r2,r2,32768
   81df4:	10a00004 	addi	r2,r2,-32768
   81df8:	103fb416 	blt	r2,zero,81ccc <___vfprintf_internal_r+0x84>
   81dfc:	d8c19e17 	ldw	r3,1656(sp)
   81e00:	d9819f17 	ldw	r6,1660(sp)
   81e04:	dc407104 	addi	r17,sp,452
   81e08:	1a000717 	ldw	r8,28(r3)
   81e0c:	1a400917 	ldw	r9,36(r3)
   81e10:	20bfff4c 	andi	r2,r4,65533
   81e14:	d8c08804 	addi	r3,sp,544
   81e18:	01c10004 	movi	r7,1024
   81e1c:	800b883a 	mov	r5,r16
   81e20:	8809883a 	mov	r4,r17
   81e24:	d880740d 	sth	r2,464(sp)
   81e28:	da80748d 	sth	r10,466(sp)
   81e2c:	da007815 	stw	r8,480(sp)
   81e30:	da407a15 	stw	r9,488(sp)
   81e34:	d8c07515 	stw	r3,468(sp)
   81e38:	d9c07615 	stw	r7,472(sp)
   81e3c:	d8c07115 	stw	r3,452(sp)
   81e40:	d9c07315 	stw	r7,460(sp)
   81e44:	d8007715 	stw	zero,476(sp)
   81e48:	00838c00 	call	838c0 <__vfprintf_internal>
   81e4c:	1021883a 	mov	r16,r2
   81e50:	10000416 	blt	r2,zero,81e64 <___vfprintf_internal_r+0x21c>
   81e54:	8809883a 	mov	r4,r17
   81e58:	00856a80 	call	856a8 <fflush>
   81e5c:	10000126 	beq	r2,zero,81e64 <___vfprintf_internal_r+0x21c>
   81e60:	043fffc4 	movi	r16,-1
   81e64:	d880740b 	ldhu	r2,464(sp)
   81e68:	1080100c 	andi	r2,r2,64
   81e6c:	10000426 	beq	r2,zero,81e80 <___vfprintf_internal_r+0x238>
   81e70:	d9019e17 	ldw	r4,1656(sp)
   81e74:	2080030b 	ldhu	r2,12(r4)
   81e78:	10801014 	ori	r2,r2,64
   81e7c:	2080030d 	sth	r2,12(r4)
   81e80:	8007883a 	mov	r3,r16
   81e84:	1805883a 	mov	r2,r3
   81e88:	dfc1b517 	ldw	ra,1748(sp)
   81e8c:	df01b417 	ldw	fp,1744(sp)
   81e90:	dc01b317 	ldw	r16,1740(sp)
   81e94:	dc41b217 	ldw	r17,1736(sp)
   81e98:	dc81b117 	ldw	r18,1732(sp)
   81e9c:	dcc1b017 	ldw	r19,1728(sp)
   81ea0:	dd01af17 	ldw	r20,1724(sp)
   81ea4:	dd41ae17 	ldw	r21,1720(sp)
   81ea8:	dd81ad17 	ldw	r22,1716(sp)
   81eac:	ddc1ac17 	ldw	r23,1712(sp)
   81eb0:	dec1b604 	addi	sp,sp,1752
   81eb4:	f800283a 	ret
   81eb8:	d9019e17 	ldw	r4,1656(sp)
   81ebc:	d9c00404 	addi	r7,sp,16
   81ec0:	39400204 	addi	r5,r7,8
   81ec4:	0081bf00 	call	81bf0 <__sprint>
   81ec8:	10031e1e 	bne	r2,zero,82b44 <___vfprintf_internal_r+0xefc>
   81ecc:	d8800404 	addi	r2,sp,16
   81ed0:	14800504 	addi	r18,r2,20
   81ed4:	003f9e06 	br	81d50 <___vfprintf_internal_r+0x108>
   81ed8:	d901a017 	ldw	r4,1664(sp)
   81edc:	21000414 	ori	r4,r4,16
   81ee0:	d901a015 	stw	r4,1664(sp)
   81ee4:	d941a017 	ldw	r5,1664(sp)
   81ee8:	2880080c 	andi	r2,r5,32
   81eec:	10042226 	beq	r2,zero,82f78 <___vfprintf_internal_r+0x1330>
   81ef0:	d8819f17 	ldw	r2,1660(sp)
   81ef4:	00c00044 	movi	r3,1
   81ef8:	14000017 	ldw	r16,0(r2)
   81efc:	14400117 	ldw	r17,4(r2)
   81f00:	11c00204 	addi	r7,r2,8
   81f04:	d9c19f15 	stw	r7,1660(sp)
   81f08:	d8019c05 	stb	zero,1648(sp)
   81f0c:	dd01a715 	stw	r20,1692(sp)
   81f10:	a0000416 	blt	r20,zero,81f24 <___vfprintf_internal_r+0x2dc>
   81f14:	d941a017 	ldw	r5,1664(sp)
   81f18:	00bfdfc4 	movi	r2,-129
   81f1c:	288a703a 	and	r5,r5,r2
   81f20:	d941a015 	stw	r5,1664(sp)
   81f24:	d9c00404 	addi	r7,sp,16
   81f28:	8444b03a 	or	r2,r16,r17
   81f2c:	3cc06c04 	addi	r19,r7,432
   81f30:	1000021e 	bne	r2,zero,81f3c <___vfprintf_internal_r+0x2f4>
   81f34:	d881a717 	ldw	r2,1692(sp)
   81f38:	10036426 	beq	r2,zero,82ccc <___vfprintf_internal_r+0x1084>
   81f3c:	18c03fcc 	andi	r3,r3,255
   81f40:	00800044 	movi	r2,1
   81f44:	1880ec26 	beq	r3,r2,822f8 <___vfprintf_internal_r+0x6b0>
   81f48:	10c34f16 	blt	r2,r3,82c88 <___vfprintf_internal_r+0x1040>
   81f4c:	1800f626 	beq	r3,zero,82328 <___vfprintf_internal_r+0x6e0>
   81f50:	04c00274 	movhi	r19,9
   81f54:	9cdae604 	addi	r19,r19,27544
   81f58:	9809883a 	mov	r4,r19
   81f5c:	00884ac0 	call	884ac <strlen>
   81f60:	102f883a 	mov	r23,r2
   81f64:	d881a717 	ldw	r2,1692(sp)
   81f68:	ddc1a815 	stw	r23,1696(sp)
   81f6c:	b880010e 	bge	r23,r2,81f74 <___vfprintf_internal_r+0x32c>
   81f70:	d881a815 	stw	r2,1696(sp)
   81f74:	d8c19c03 	ldbu	r3,1648(sp)
   81f78:	18023c26 	beq	r3,zero,8286c <___vfprintf_internal_r+0xc24>
   81f7c:	d901a817 	ldw	r4,1696(sp)
   81f80:	21000044 	addi	r4,r4,1
   81f84:	d901a815 	stw	r4,1696(sp)
   81f88:	d881a017 	ldw	r2,1664(sp)
   81f8c:	1080210c 	andi	r2,r2,132
   81f90:	d881ab15 	stw	r2,1708(sp)
   81f94:	10002e1e 	bne	r2,zero,82050 <___vfprintf_internal_r+0x408>
   81f98:	d941a217 	ldw	r5,1672(sp)
   81f9c:	d901a817 	ldw	r4,1696(sp)
   81fa0:	2921c83a 	sub	r16,r5,r4
   81fa4:	04002a0e 	bge	zero,r16,82050 <___vfprintf_internal_r+0x408>
   81fa8:	04400404 	movi	r17,16
   81fac:	8c001a0e 	bge	r17,r16,82018 <___vfprintf_internal_r+0x3d0>
   81fb0:	882b883a 	mov	r21,r17
   81fb4:	050001c4 	movi	r20,7
   81fb8:	00000206 	br	81fc4 <___vfprintf_internal_r+0x37c>
   81fbc:	843ffc04 	addi	r16,r16,-16
   81fc0:	ac00150e 	bge	r21,r16,82018 <___vfprintf_internal_r+0x3d0>
   81fc4:	d8800817 	ldw	r2,32(sp)
   81fc8:	d8c00717 	ldw	r3,28(sp)
   81fcc:	01c00274 	movhi	r7,9
   81fd0:	39da8504 	addi	r7,r7,27156
   81fd4:	10800404 	addi	r2,r2,16
   81fd8:	18c00044 	addi	r3,r3,1
   81fdc:	91c00015 	stw	r7,0(r18)
   81fe0:	94400115 	stw	r17,4(r18)
   81fe4:	d8800815 	stw	r2,32(sp)
   81fe8:	d8c00715 	stw	r3,28(sp)
   81fec:	94800204 	addi	r18,r18,8
   81ff0:	a0fff20e 	bge	r20,r3,81fbc <___vfprintf_internal_r+0x374>
   81ff4:	d9019e17 	ldw	r4,1656(sp)
   81ff8:	d8800404 	addi	r2,sp,16
   81ffc:	11400204 	addi	r5,r2,8
   82000:	0081bf00 	call	81bf0 <__sprint>
   82004:	1002cf1e 	bne	r2,zero,82b44 <___vfprintf_internal_r+0xefc>
   82008:	d8c00404 	addi	r3,sp,16
   8200c:	843ffc04 	addi	r16,r16,-16
   82010:	1c800504 	addi	r18,r3,20
   82014:	ac3feb16 	blt	r21,r16,81fc4 <___vfprintf_internal_r+0x37c>
   82018:	d8800817 	ldw	r2,32(sp)
   8201c:	d8c00717 	ldw	r3,28(sp)
   82020:	01000274 	movhi	r4,9
   82024:	211a8504 	addi	r4,r4,27156
   82028:	1405883a 	add	r2,r2,r16
   8202c:	18c00044 	addi	r3,r3,1
   82030:	d8800815 	stw	r2,32(sp)
   82034:	008001c4 	movi	r2,7
   82038:	91000015 	stw	r4,0(r18)
   8203c:	94000115 	stw	r16,4(r18)
   82040:	d8c00715 	stw	r3,28(sp)
   82044:	94800204 	addi	r18,r18,8
   82048:	10c37c16 	blt	r2,r3,82e3c <___vfprintf_internal_r+0x11f4>
   8204c:	d8c19c03 	ldbu	r3,1648(sp)
   82050:	18803fcc 	andi	r2,r3,255
   82054:	1080201c 	xori	r2,r2,128
   82058:	10bfe004 	addi	r2,r2,-128
   8205c:	10020a26 	beq	r2,zero,82888 <___vfprintf_internal_r+0xc40>
   82060:	d9000817 	ldw	r4,32(sp)
   82064:	d9400717 	ldw	r5,28(sp)
   82068:	d8819c04 	addi	r2,sp,1648
   8206c:	90800015 	stw	r2,0(r18)
   82070:	21000044 	addi	r4,r4,1
   82074:	29400044 	addi	r5,r5,1
   82078:	00c00044 	movi	r3,1
   8207c:	008001c4 	movi	r2,7
   82080:	90c00115 	stw	r3,4(r18)
   82084:	d9000815 	stw	r4,32(sp)
   82088:	94800204 	addi	r18,r18,8
   8208c:	d9400715 	stw	r5,28(sp)
   82090:	11431716 	blt	r2,r5,82cf0 <___vfprintf_internal_r+0x10a8>
   82094:	d8c1ab17 	ldw	r3,1708(sp)
   82098:	00802004 	movi	r2,128
   8209c:	18821726 	beq	r3,r2,828fc <___vfprintf_internal_r+0xcb4>
   820a0:	d8c1a717 	ldw	r3,1692(sp)
   820a4:	1de1c83a 	sub	r16,r3,r23
   820a8:	0400300e 	bge	zero,r16,8216c <___vfprintf_internal_r+0x524>
   820ac:	04400404 	movi	r17,16
   820b0:	8c001a0e 	bge	r17,r16,8211c <___vfprintf_internal_r+0x4d4>
   820b4:	882b883a 	mov	r21,r17
   820b8:	050001c4 	movi	r20,7
   820bc:	00000206 	br	820c8 <___vfprintf_internal_r+0x480>
   820c0:	843ffc04 	addi	r16,r16,-16
   820c4:	ac00150e 	bge	r21,r16,8211c <___vfprintf_internal_r+0x4d4>
   820c8:	d8800817 	ldw	r2,32(sp)
   820cc:	d8c00717 	ldw	r3,28(sp)
   820d0:	01000274 	movhi	r4,9
   820d4:	211a8904 	addi	r4,r4,27172
   820d8:	10800404 	addi	r2,r2,16
   820dc:	18c00044 	addi	r3,r3,1
   820e0:	91000015 	stw	r4,0(r18)
   820e4:	94400115 	stw	r17,4(r18)
   820e8:	d8800815 	stw	r2,32(sp)
   820ec:	d8c00715 	stw	r3,28(sp)
   820f0:	94800204 	addi	r18,r18,8
   820f4:	a0fff20e 	bge	r20,r3,820c0 <___vfprintf_internal_r+0x478>
   820f8:	d9019e17 	ldw	r4,1656(sp)
   820fc:	d9c00404 	addi	r7,sp,16
   82100:	39400204 	addi	r5,r7,8
   82104:	0081bf00 	call	81bf0 <__sprint>
   82108:	10028e1e 	bne	r2,zero,82b44 <___vfprintf_internal_r+0xefc>
   8210c:	d8800404 	addi	r2,sp,16
   82110:	843ffc04 	addi	r16,r16,-16
   82114:	14800504 	addi	r18,r2,20
   82118:	ac3feb16 	blt	r21,r16,820c8 <___vfprintf_internal_r+0x480>
   8211c:	d8800817 	ldw	r2,32(sp)
   82120:	d8c00717 	ldw	r3,28(sp)
   82124:	01000274 	movhi	r4,9
   82128:	211a8904 	addi	r4,r4,27172
   8212c:	1405883a 	add	r2,r2,r16
   82130:	18c00044 	addi	r3,r3,1
   82134:	d8800815 	stw	r2,32(sp)
   82138:	008001c4 	movi	r2,7
   8213c:	91000015 	stw	r4,0(r18)
   82140:	94000115 	stw	r16,4(r18)
   82144:	d8c00715 	stw	r3,28(sp)
   82148:	94800204 	addi	r18,r18,8
   8214c:	10c0070e 	bge	r2,r3,8216c <___vfprintf_internal_r+0x524>
   82150:	d9019e17 	ldw	r4,1656(sp)
   82154:	d9c00404 	addi	r7,sp,16
   82158:	39400204 	addi	r5,r7,8
   8215c:	0081bf00 	call	81bf0 <__sprint>
   82160:	1002781e 	bne	r2,zero,82b44 <___vfprintf_internal_r+0xefc>
   82164:	d8800404 	addi	r2,sp,16
   82168:	14800504 	addi	r18,r2,20
   8216c:	d8c1a017 	ldw	r3,1664(sp)
   82170:	1880400c 	andi	r2,r3,256
   82174:	1002161e 	bne	r2,zero,829d0 <___vfprintf_internal_r+0xd88>
   82178:	d8800817 	ldw	r2,32(sp)
   8217c:	d8c00717 	ldw	r3,28(sp)
   82180:	94c00015 	stw	r19,0(r18)
   82184:	15c5883a 	add	r2,r2,r23
   82188:	18c00044 	addi	r3,r3,1
   8218c:	d8800815 	stw	r2,32(sp)
   82190:	008001c4 	movi	r2,7
   82194:	95c00115 	stw	r23,4(r18)
   82198:	d8c00715 	stw	r3,28(sp)
   8219c:	94800204 	addi	r18,r18,8
   821a0:	10c25d16 	blt	r2,r3,82b18 <___vfprintf_internal_r+0xed0>
   821a4:	d8c1a017 	ldw	r3,1664(sp)
   821a8:	1880010c 	andi	r2,r3,4
   821ac:	10003126 	beq	r2,zero,82274 <___vfprintf_internal_r+0x62c>
   821b0:	d941a217 	ldw	r5,1672(sp)
   821b4:	d901a817 	ldw	r4,1696(sp)
   821b8:	2921c83a 	sub	r16,r5,r4
   821bc:	04002d0e 	bge	zero,r16,82274 <___vfprintf_internal_r+0x62c>
   821c0:	04400404 	movi	r17,16
   821c4:	8c001a0e 	bge	r17,r16,82230 <___vfprintf_internal_r+0x5e8>
   821c8:	8829883a 	mov	r20,r17
   821cc:	04c001c4 	movi	r19,7
   821d0:	00000206 	br	821dc <___vfprintf_internal_r+0x594>
   821d4:	843ffc04 	addi	r16,r16,-16
   821d8:	a400150e 	bge	r20,r16,82230 <___vfprintf_internal_r+0x5e8>
   821dc:	d8800817 	ldw	r2,32(sp)
   821e0:	d8c00717 	ldw	r3,28(sp)
   821e4:	01c00274 	movhi	r7,9
   821e8:	39da8504 	addi	r7,r7,27156
   821ec:	10800404 	addi	r2,r2,16
   821f0:	18c00044 	addi	r3,r3,1
   821f4:	91c00015 	stw	r7,0(r18)
   821f8:	94400115 	stw	r17,4(r18)
   821fc:	d8800815 	stw	r2,32(sp)
   82200:	d8c00715 	stw	r3,28(sp)
   82204:	94800204 	addi	r18,r18,8
   82208:	98fff20e 	bge	r19,r3,821d4 <___vfprintf_internal_r+0x58c>
   8220c:	d9019e17 	ldw	r4,1656(sp)
   82210:	d8800404 	addi	r2,sp,16
   82214:	11400204 	addi	r5,r2,8
   82218:	0081bf00 	call	81bf0 <__sprint>
   8221c:	1002491e 	bne	r2,zero,82b44 <___vfprintf_internal_r+0xefc>
   82220:	d8c00404 	addi	r3,sp,16
   82224:	843ffc04 	addi	r16,r16,-16
   82228:	1c800504 	addi	r18,r3,20
   8222c:	a43feb16 	blt	r20,r16,821dc <___vfprintf_internal_r+0x594>
   82230:	d8800817 	ldw	r2,32(sp)
   82234:	d8c00717 	ldw	r3,28(sp)
   82238:	01000274 	movhi	r4,9
   8223c:	211a8504 	addi	r4,r4,27156
   82240:	1405883a 	add	r2,r2,r16
   82244:	18c00044 	addi	r3,r3,1
   82248:	d8800815 	stw	r2,32(sp)
   8224c:	008001c4 	movi	r2,7
   82250:	91000015 	stw	r4,0(r18)
   82254:	94000115 	stw	r16,4(r18)
   82258:	d8c00715 	stw	r3,28(sp)
   8225c:	10c0050e 	bge	r2,r3,82274 <___vfprintf_internal_r+0x62c>
   82260:	d9019e17 	ldw	r4,1656(sp)
   82264:	d9c00404 	addi	r7,sp,16
   82268:	39400204 	addi	r5,r7,8
   8226c:	0081bf00 	call	81bf0 <__sprint>
   82270:	1002341e 	bne	r2,zero,82b44 <___vfprintf_internal_r+0xefc>
   82274:	d881a817 	ldw	r2,1696(sp)
   82278:	d8c1a217 	ldw	r3,1672(sp)
   8227c:	10c0010e 	bge	r2,r3,82284 <___vfprintf_internal_r+0x63c>
   82280:	1805883a 	mov	r2,r3
   82284:	d901a117 	ldw	r4,1668(sp)
   82288:	2089883a 	add	r4,r4,r2
   8228c:	d8800817 	ldw	r2,32(sp)
   82290:	d901a115 	stw	r4,1668(sp)
   82294:	1002361e 	bne	r2,zero,82b70 <___vfprintf_internal_r+0xf28>
   82298:	d8c1aa17 	ldw	r3,1704(sp)
   8229c:	d8800404 	addi	r2,sp,16
   822a0:	d8000715 	stw	zero,28(sp)
   822a4:	14800504 	addi	r18,r2,20
   822a8:	183e8e26 	beq	r3,zero,81ce4 <___vfprintf_internal_r+0x9c>
   822ac:	1809883a 	mov	r4,r3
   822b0:	00863000 	call	86300 <free>
   822b4:	d801aa15 	stw	zero,1704(sp)
   822b8:	003e8a06 	br	81ce4 <___vfprintf_internal_r+0x9c>
   822bc:	8009883a 	mov	r4,r16
   822c0:	880b883a 	mov	r5,r17
   822c4:	01800284 	movi	r6,10
   822c8:	000f883a 	mov	r7,zero
   822cc:	0088ed00 	call	88ed0 <__umoddi3>
   822d0:	11000c04 	addi	r4,r2,48
   822d4:	9cffffc4 	addi	r19,r19,-1
   822d8:	99000005 	stb	r4,0(r19)
   822dc:	880b883a 	mov	r5,r17
   822e0:	8009883a 	mov	r4,r16
   822e4:	01800284 	movi	r6,10
   822e8:	000f883a 	mov	r7,zero
   822ec:	00888e00 	call	888e0 <__udivdi3>
   822f0:	1021883a 	mov	r16,r2
   822f4:	1823883a 	mov	r17,r3
   822f8:	88800068 	cmpgeui	r2,r17,1
   822fc:	103fef1e 	bne	r2,zero,822bc <___vfprintf_internal_r+0x674>
   82300:	8800021e 	bne	r17,zero,8230c <___vfprintf_internal_r+0x6c4>
   82304:	00800244 	movi	r2,9
   82308:	143fec36 	bltu	r2,r16,822bc <___vfprintf_internal_r+0x674>
   8230c:	9cffffc4 	addi	r19,r19,-1
   82310:	80800c04 	addi	r2,r16,48
   82314:	98800005 	stb	r2,0(r19)
   82318:	d9400404 	addi	r5,sp,16
   8231c:	2cc5c83a 	sub	r2,r5,r19
   82320:	15c06c04 	addi	r23,r2,432
   82324:	003f0f06 	br	81f64 <___vfprintf_internal_r+0x31c>
   82328:	8008d0fa 	srli	r4,r16,3
   8232c:	880a977a 	slli	r5,r17,29
   82330:	8806d0fa 	srli	r3,r17,3
   82334:	818001cc 	andi	r6,r16,7
   82338:	2904b03a 	or	r2,r5,r4
   8233c:	9cffffc4 	addi	r19,r19,-1
   82340:	31800c04 	addi	r6,r6,48
   82344:	10c8b03a 	or	r4,r2,r3
   82348:	99800005 	stb	r6,0(r19)
   8234c:	1021883a 	mov	r16,r2
   82350:	1823883a 	mov	r17,r3
   82354:	203ff41e 	bne	r4,zero,82328 <___vfprintf_internal_r+0x6e0>
   82358:	d8c1a017 	ldw	r3,1664(sp)
   8235c:	1880004c 	andi	r2,r3,1
   82360:	103fed26 	beq	r2,zero,82318 <___vfprintf_internal_r+0x6d0>
   82364:	00800c04 	movi	r2,48
   82368:	30bfeb26 	beq	r6,r2,82318 <___vfprintf_internal_r+0x6d0>
   8236c:	9cffffc4 	addi	r19,r19,-1
   82370:	003fe806 	br	82314 <___vfprintf_internal_r+0x6cc>
   82374:	d881a017 	ldw	r2,1664(sp)
   82378:	10800414 	ori	r2,r2,16
   8237c:	d881a015 	stw	r2,1664(sp)
   82380:	d8c1a017 	ldw	r3,1664(sp)
   82384:	1880080c 	andi	r2,r3,32
   82388:	1002e626 	beq	r2,zero,82f24 <___vfprintf_internal_r+0x12dc>
   8238c:	d8819f17 	ldw	r2,1660(sp)
   82390:	0007883a 	mov	r3,zero
   82394:	14000017 	ldw	r16,0(r2)
   82398:	14400117 	ldw	r17,4(r2)
   8239c:	11000204 	addi	r4,r2,8
   823a0:	d9019f15 	stw	r4,1660(sp)
   823a4:	003ed806 	br	81f08 <___vfprintf_internal_r+0x2c0>
   823a8:	d9c1a017 	ldw	r7,1664(sp)
   823ac:	39c00414 	ori	r7,r7,16
   823b0:	d9c1a015 	stw	r7,1664(sp)
   823b4:	d8c1a017 	ldw	r3,1664(sp)
   823b8:	1880080c 	andi	r2,r3,32
   823bc:	1002e326 	beq	r2,zero,82f4c <___vfprintf_internal_r+0x1304>
   823c0:	d8819f17 	ldw	r2,1660(sp)
   823c4:	14400117 	ldw	r17,4(r2)
   823c8:	11000204 	addi	r4,r2,8
   823cc:	14000017 	ldw	r16,0(r2)
   823d0:	d9019f15 	stw	r4,1660(sp)
   823d4:	88011716 	blt	r17,zero,82834 <___vfprintf_internal_r+0xbec>
   823d8:	00c00044 	movi	r3,1
   823dc:	003ecb06 	br	81f0c <___vfprintf_internal_r+0x2c4>
   823e0:	d8819f17 	ldw	r2,1660(sp)
   823e4:	d9c19f17 	ldw	r7,1660(sp)
   823e8:	10800017 	ldw	r2,0(r2)
   823ec:	39c00104 	addi	r7,r7,4
   823f0:	d9c19f15 	stw	r7,1660(sp)
   823f4:	d881a215 	stw	r2,1672(sp)
   823f8:	10010c0e 	bge	r2,zero,8282c <___vfprintf_internal_r+0xbe4>
   823fc:	0085c83a 	sub	r2,zero,r2
   82400:	d881a215 	stw	r2,1672(sp)
   82404:	d881a017 	ldw	r2,1664(sp)
   82408:	b1000003 	ldbu	r4,0(r22)
   8240c:	10800114 	ori	r2,r2,4
   82410:	d881a015 	stw	r2,1664(sp)
   82414:	003e5d06 	br	81d8c <___vfprintf_internal_r+0x144>
   82418:	e001c226 	beq	fp,zero,82b24 <___vfprintf_internal_r+0xedc>
   8241c:	d9c00404 	addi	r7,sp,16
   82420:	3cc01504 	addi	r19,r7,84
   82424:	9f000005 	stb	fp,0(r19)
   82428:	05c00044 	movi	r23,1
   8242c:	d8019c05 	stb	zero,1648(sp)
   82430:	003ecc06 	br	81f64 <___vfprintf_internal_r+0x31c>
   82434:	d8819f17 	ldw	r2,1660(sp)
   82438:	14c00017 	ldw	r19,0(r2)
   8243c:	11400104 	addi	r5,r2,4
   82440:	d8019c05 	stb	zero,1648(sp)
   82444:	d9419f15 	stw	r5,1660(sp)
   82448:	9803db26 	beq	r19,zero,833b8 <___vfprintf_internal_r+0x1770>
   8244c:	008014c4 	movi	r2,83
   82450:	e0800326 	beq	fp,r2,82460 <___vfprintf_internal_r+0x818>
   82454:	d9c1a017 	ldw	r7,1664(sp)
   82458:	3880040c 	andi	r2,r7,16
   8245c:	10035826 	beq	r2,zero,831c0 <___vfprintf_internal_r+0x1578>
   82460:	d9019904 	addi	r4,sp,1636
   82464:	000b883a 	mov	r5,zero
   82468:	01800204 	movi	r6,8
   8246c:	dcc19b15 	stw	r19,1644(sp)
   82470:	0023883a 	mov	r17,zero
   82474:	002f883a 	mov	r23,zero
   82478:	0086c5c0 	call	86c5c <memset>
   8247c:	a004c616 	blt	r20,zero,83798 <___vfprintf_internal_r+0x1b50>
   82480:	057fffc4 	movi	r21,-1
   82484:	880490ba 	slli	r2,r17,2
   82488:	d8c19b17 	ldw	r3,1644(sp)
   8248c:	10c5883a 	add	r2,r2,r3
   82490:	11800017 	ldw	r6,0(r2)
   82494:	30000b26 	beq	r6,zero,824c4 <___vfprintf_internal_r+0x87c>
   82498:	d9019d17 	ldw	r4,1652(sp)
   8249c:	d8800404 	addi	r2,sp,16
   824a0:	11401504 	addi	r5,r2,84
   824a4:	d9c19904 	addi	r7,sp,1636
   824a8:	008392c0 	call	8392c <_wcrtomb_r>
   824ac:	1541a526 	beq	r2,r21,82b44 <___vfprintf_internal_r+0xefc>
   824b0:	15c5883a 	add	r2,r2,r23
   824b4:	a0800316 	blt	r20,r2,824c4 <___vfprintf_internal_r+0x87c>
   824b8:	102f883a 	mov	r23,r2
   824bc:	8c400044 	addi	r17,r17,1
   824c0:	153ff01e 	bne	r2,r20,82484 <___vfprintf_internal_r+0x83c>
   824c4:	b83ea726 	beq	r23,zero,81f64 <___vfprintf_internal_r+0x31c>
   824c8:	d9019d17 	ldw	r4,1652(sp)
   824cc:	b9400044 	addi	r5,r23,1
   824d0:	00863140 	call	86314 <_malloc_r>
   824d4:	d881aa15 	stw	r2,1704(sp)
   824d8:	10019a26 	beq	r2,zero,82b44 <___vfprintf_internal_r+0xefc>
   824dc:	d9019904 	addi	r4,sp,1636
   824e0:	000b883a 	mov	r5,zero
   824e4:	01800204 	movi	r6,8
   824e8:	0086c5c0 	call	86c5c <memset>
   824ec:	d9019d17 	ldw	r4,1652(sp)
   824f0:	d941aa17 	ldw	r5,1704(sp)
   824f4:	d8819904 	addi	r2,sp,1636
   824f8:	b80f883a 	mov	r7,r23
   824fc:	d9819b04 	addi	r6,sp,1644
   82500:	d8800015 	stw	r2,0(sp)
   82504:	00839b40 	call	839b4 <_wcsrtombs_r>
   82508:	15c18e1e 	bne	r2,r23,82b44 <___vfprintf_internal_r+0xefc>
   8250c:	d8c1aa17 	ldw	r3,1704(sp)
   82510:	1dc5883a 	add	r2,r3,r23
   82514:	1827883a 	mov	r19,r3
   82518:	10000005 	stb	zero,0(r2)
   8251c:	003e9106 	br	81f64 <___vfprintf_internal_r+0x31c>
   82520:	d8c1a017 	ldw	r3,1664(sp)
   82524:	1880080c 	andi	r2,r3,32
   82528:	10030826 	beq	r2,zero,8314c <___vfprintf_internal_r+0x1504>
   8252c:	d8819f17 	ldw	r2,1660(sp)
   82530:	d8c1a117 	ldw	r3,1668(sp)
   82534:	11400017 	ldw	r5,0(r2)
   82538:	1809d7fa 	srai	r4,r3,31
   8253c:	11c00104 	addi	r7,r2,4
   82540:	d9c19f15 	stw	r7,1660(sp)
   82544:	29000115 	stw	r4,4(r5)
   82548:	28c00015 	stw	r3,0(r5)
   8254c:	003de506 	br	81ce4 <___vfprintf_internal_r+0x9c>
   82550:	b7000007 	ldb	fp,0(r22)
   82554:	00800a84 	movi	r2,42
   82558:	b5800044 	addi	r22,r22,1
   8255c:	e084d026 	beq	fp,r2,838a0 <___vfprintf_internal_r+0x1c58>
   82560:	e0bff404 	addi	r2,fp,-48
   82564:	00c00244 	movi	r3,9
   82568:	0021883a 	mov	r16,zero
   8256c:	18800a36 	bltu	r3,r2,82598 <___vfprintf_internal_r+0x950>
   82570:	1823883a 	mov	r17,r3
   82574:	8009883a 	mov	r4,r16
   82578:	01400284 	movi	r5,10
   8257c:	0081aec0 	call	81aec <__mulsi3>
   82580:	1705883a 	add	r2,r2,fp
   82584:	b7000007 	ldb	fp,0(r22)
   82588:	143ff404 	addi	r16,r2,-48
   8258c:	b5800044 	addi	r22,r22,1
   82590:	e0bff404 	addi	r2,fp,-48
   82594:	88bff72e 	bgeu	r17,r2,82574 <___vfprintf_internal_r+0x92c>
   82598:	00bfffc4 	movi	r2,-1
   8259c:	8029883a 	mov	r20,r16
   825a0:	80bdfe0e 	bge	r16,r2,81d9c <___vfprintf_internal_r+0x154>
   825a4:	1029883a 	mov	r20,r2
   825a8:	003dfc06 	br	81d9c <___vfprintf_internal_r+0x154>
   825ac:	b1000003 	ldbu	r4,0(r22)
   825b0:	00801b04 	movi	r2,108
   825b4:	20c03fcc 	andi	r3,r4,255
   825b8:	18c0201c 	xori	r3,r3,128
   825bc:	18ffe004 	addi	r3,r3,-128
   825c0:	18835426 	beq	r3,r2,83314 <___vfprintf_internal_r+0x16cc>
   825c4:	d941a017 	ldw	r5,1664(sp)
   825c8:	29400414 	ori	r5,r5,16
   825cc:	d941a015 	stw	r5,1664(sp)
   825d0:	003dee06 	br	81d8c <___vfprintf_internal_r+0x144>
   825d4:	b1000003 	ldbu	r4,0(r22)
   825d8:	00800ac4 	movi	r2,43
   825dc:	d8819c05 	stb	r2,1648(sp)
   825e0:	003dea06 	br	81d8c <___vfprintf_internal_r+0x144>
   825e4:	d9c1a017 	ldw	r7,1664(sp)
   825e8:	b1000003 	ldbu	r4,0(r22)
   825ec:	39c00814 	ori	r7,r7,32
   825f0:	d9c1a015 	stw	r7,1664(sp)
   825f4:	003de506 	br	81d8c <___vfprintf_internal_r+0x144>
   825f8:	d8819f17 	ldw	r2,1660(sp)
   825fc:	01000274 	movhi	r4,9
   82600:	211aed04 	addi	r4,r4,27572
   82604:	0023883a 	mov	r17,zero
   82608:	11c00104 	addi	r7,r2,4
   8260c:	14000017 	ldw	r16,0(r2)
   82610:	d881a017 	ldw	r2,1664(sp)
   82614:	00c00084 	movi	r3,2
   82618:	07001e04 	movi	fp,120
   8261c:	10800094 	ori	r2,r2,2
   82620:	d9c19f15 	stw	r7,1660(sp)
   82624:	d881a015 	stw	r2,1664(sp)
   82628:	d901a915 	stw	r4,1700(sp)
   8262c:	003e3606 	br	81f08 <___vfprintf_internal_r+0x2c0>
   82630:	d941a017 	ldw	r5,1664(sp)
   82634:	01000274 	movhi	r4,9
   82638:	211aed04 	addi	r4,r4,27572
   8263c:	d901a915 	stw	r4,1700(sp)
   82640:	2880080c 	andi	r2,r5,32
   82644:	10003326 	beq	r2,zero,82714 <___vfprintf_internal_r+0xacc>
   82648:	d8819f17 	ldw	r2,1660(sp)
   8264c:	14000017 	ldw	r16,0(r2)
   82650:	14400117 	ldw	r17,4(r2)
   82654:	11c00204 	addi	r7,r2,8
   82658:	d9c19f15 	stw	r7,1660(sp)
   8265c:	d8c1a017 	ldw	r3,1664(sp)
   82660:	1880004c 	andi	r2,r3,1
   82664:	00c00084 	movi	r3,2
   82668:	103e2726 	beq	r2,zero,81f08 <___vfprintf_internal_r+0x2c0>
   8266c:	8444b03a 	or	r2,r16,r17
   82670:	103e2526 	beq	r2,zero,81f08 <___vfprintf_internal_r+0x2c0>
   82674:	d901a017 	ldw	r4,1664(sp)
   82678:	21000094 	ori	r4,r4,2
   8267c:	d901a015 	stw	r4,1664(sp)
   82680:	003e2106 	br	81f08 <___vfprintf_internal_r+0x2c0>
   82684:	d941a017 	ldw	r5,1664(sp)
   82688:	b1000003 	ldbu	r4,0(r22)
   8268c:	29400054 	ori	r5,r5,1
   82690:	d941a015 	stw	r5,1664(sp)
   82694:	003dbd06 	br	81d8c <___vfprintf_internal_r+0x144>
   82698:	d8800404 	addi	r2,sp,16
   8269c:	14c01504 	addi	r19,r2,84
   826a0:	008010c4 	movi	r2,67
   826a4:	e0800326 	beq	fp,r2,826b4 <___vfprintf_internal_r+0xa6c>
   826a8:	d8c1a017 	ldw	r3,1664(sp)
   826ac:	1880040c 	andi	r2,r3,16
   826b0:	1002b826 	beq	r2,zero,83194 <___vfprintf_internal_r+0x154c>
   826b4:	d9019204 	addi	r4,sp,1608
   826b8:	000b883a 	mov	r5,zero
   826bc:	01800204 	movi	r6,8
   826c0:	0086c5c0 	call	86c5c <memset>
   826c4:	d8c19f17 	ldw	r3,1660(sp)
   826c8:	d9019d17 	ldw	r4,1652(sp)
   826cc:	980b883a 	mov	r5,r19
   826d0:	19800017 	ldw	r6,0(r3)
   826d4:	d9c19204 	addi	r7,sp,1608
   826d8:	008392c0 	call	8392c <_wcrtomb_r>
   826dc:	d9019f17 	ldw	r4,1660(sp)
   826e0:	102f883a 	mov	r23,r2
   826e4:	00bfffc4 	movi	r2,-1
   826e8:	21000104 	addi	r4,r4,4
   826ec:	d9019f15 	stw	r4,1660(sp)
   826f0:	b8811426 	beq	r23,r2,82b44 <___vfprintf_internal_r+0xefc>
   826f4:	d8019c05 	stb	zero,1648(sp)
   826f8:	003e1a06 	br	81f64 <___vfprintf_internal_r+0x31c>
   826fc:	d941a017 	ldw	r5,1664(sp)
   82700:	00c00274 	movhi	r3,9
   82704:	18daf204 	addi	r3,r3,27592
   82708:	d8c1a915 	stw	r3,1700(sp)
   8270c:	2880080c 	andi	r2,r5,32
   82710:	103fcd1e 	bne	r2,zero,82648 <___vfprintf_internal_r+0xa00>
   82714:	d8c1a017 	ldw	r3,1664(sp)
   82718:	1880040c 	andi	r2,r3,16
   8271c:	10027926 	beq	r2,zero,83104 <___vfprintf_internal_r+0x14bc>
   82720:	d8819f17 	ldw	r2,1660(sp)
   82724:	0023883a 	mov	r17,zero
   82728:	14000017 	ldw	r16,0(r2)
   8272c:	11000104 	addi	r4,r2,4
   82730:	d9019f15 	stw	r4,1660(sp)
   82734:	003fc906 	br	8265c <___vfprintf_internal_r+0xa14>
   82738:	d881a017 	ldw	r2,1664(sp)
   8273c:	b1000003 	ldbu	r4,0(r22)
   82740:	10801014 	ori	r2,r2,64
   82744:	d881a015 	stw	r2,1664(sp)
   82748:	003d9006 	br	81d8c <___vfprintf_internal_r+0x144>
   8274c:	00bfffc4 	movi	r2,-1
   82750:	a082f626 	beq	r20,r2,8332c <___vfprintf_internal_r+0x16e4>
   82754:	008019c4 	movi	r2,103
   82758:	e0829626 	beq	fp,r2,831b4 <___vfprintf_internal_r+0x156c>
   8275c:	008011c4 	movi	r2,71
   82760:	e0829426 	beq	fp,r2,831b4 <___vfprintf_internal_r+0x156c>
   82764:	d9019f17 	ldw	r4,1660(sp)
   82768:	20800017 	ldw	r2,0(r4)
   8276c:	20c00117 	ldw	r3,4(r4)
   82770:	21400204 	addi	r5,r4,8
   82774:	d881a415 	stw	r2,1680(sp)
   82778:	d8c1a515 	stw	r3,1684(sp)
   8277c:	d9419f15 	stw	r5,1660(sp)
   82780:	d901a417 	ldw	r4,1680(sp)
   82784:	d941a517 	ldw	r5,1684(sp)
   82788:	00881b40 	call	881b4 <isinf>
   8278c:	1002d926 	beq	r2,zero,832f4 <___vfprintf_internal_r+0x16ac>
   82790:	d901a417 	ldw	r4,1680(sp)
   82794:	d941a517 	ldw	r5,1684(sp)
   82798:	000d883a 	mov	r6,zero
   8279c:	000f883a 	mov	r7,zero
   827a0:	008a1a00 	call	8a1a0 <__ltdf2>
   827a4:	10002c16 	blt	r2,zero,82858 <___vfprintf_internal_r+0xc10>
   827a8:	04c00274 	movhi	r19,9
   827ac:	9cdaf704 	addi	r19,r19,27612
   827b0:	05c000c4 	movi	r23,3
   827b4:	003deb06 	br	81f64 <___vfprintf_internal_r+0x31c>
   827b8:	d9c1a017 	ldw	r7,1664(sp)
   827bc:	b1000003 	ldbu	r4,0(r22)
   827c0:	39c00214 	ori	r7,r7,8
   827c4:	d9c1a015 	stw	r7,1664(sp)
   827c8:	003d7006 	br	81d8c <___vfprintf_internal_r+0x144>
   827cc:	d8819c07 	ldb	r2,1648(sp)
   827d0:	1000161e 	bne	r2,zero,8282c <___vfprintf_internal_r+0xbe4>
   827d4:	b1000003 	ldbu	r4,0(r22)
   827d8:	00800804 	movi	r2,32
   827dc:	d8819c05 	stb	r2,1648(sp)
   827e0:	003d6a06 	br	81d8c <___vfprintf_internal_r+0x144>
   827e4:	0021883a 	mov	r16,zero
   827e8:	04400244 	movi	r17,9
   827ec:	8009883a 	mov	r4,r16
   827f0:	01400284 	movi	r5,10
   827f4:	0081aec0 	call	81aec <__mulsi3>
   827f8:	1705883a 	add	r2,r2,fp
   827fc:	b7000007 	ldb	fp,0(r22)
   82800:	143ff404 	addi	r16,r2,-48
   82804:	b5800044 	addi	r22,r22,1
   82808:	e0bff404 	addi	r2,fp,-48
   8280c:	88bff72e 	bgeu	r17,r2,827ec <___vfprintf_internal_r+0xba4>
   82810:	dc01a215 	stw	r16,1672(sp)
   82814:	003d6106 	br	81d9c <___vfprintf_internal_r+0x154>
   82818:	d941a017 	ldw	r5,1664(sp)
   8281c:	b1000003 	ldbu	r4,0(r22)
   82820:	29402014 	ori	r5,r5,128
   82824:	d941a015 	stw	r5,1664(sp)
   82828:	003d5806 	br	81d8c <___vfprintf_internal_r+0x144>
   8282c:	b1000003 	ldbu	r4,0(r22)
   82830:	003d5606 	br	81d8c <___vfprintf_internal_r+0x144>
   82834:	880b883a 	mov	r5,r17
   82838:	8009883a 	mov	r4,r16
   8283c:	00888c00 	call	888c0 <__negdi2>
   82840:	1021883a 	mov	r16,r2
   82844:	1823883a 	mov	r17,r3
   82848:	00800b44 	movi	r2,45
   8284c:	00c00044 	movi	r3,1
   82850:	d8819c05 	stb	r2,1648(sp)
   82854:	003dad06 	br	81f0c <___vfprintf_internal_r+0x2c4>
   82858:	00800b44 	movi	r2,45
   8285c:	04c00274 	movhi	r19,9
   82860:	9cdaf704 	addi	r19,r19,27612
   82864:	d8819c05 	stb	r2,1648(sp)
   82868:	003fd106 	br	827b0 <___vfprintf_internal_r+0xb68>
   8286c:	d941a017 	ldw	r5,1664(sp)
   82870:	2880008c 	andi	r2,r5,2
   82874:	103dc426 	beq	r2,zero,81f88 <___vfprintf_internal_r+0x340>
   82878:	d9c1a817 	ldw	r7,1696(sp)
   8287c:	39c00084 	addi	r7,r7,2
   82880:	d9c1a815 	stw	r7,1696(sp)
   82884:	003dc006 	br	81f88 <___vfprintf_internal_r+0x340>
   82888:	d941a017 	ldw	r5,1664(sp)
   8288c:	2880008c 	andi	r2,r5,2
   82890:	103e0026 	beq	r2,zero,82094 <___vfprintf_internal_r+0x44c>
   82894:	d9000817 	ldw	r4,32(sp)
   82898:	d9400717 	ldw	r5,28(sp)
   8289c:	00800c04 	movi	r2,48
   828a0:	d8807005 	stb	r2,448(sp)
   828a4:	df007045 	stb	fp,449(sp)
   828a8:	00800084 	movi	r2,2
   828ac:	d9c00404 	addi	r7,sp,16
   828b0:	90800115 	stw	r2,4(r18)
   828b4:	21000084 	addi	r4,r4,2
   828b8:	29400044 	addi	r5,r5,1
   828bc:	38c06c04 	addi	r3,r7,432
   828c0:	008001c4 	movi	r2,7
   828c4:	90c00015 	stw	r3,0(r18)
   828c8:	d9000815 	stw	r4,32(sp)
   828cc:	94800204 	addi	r18,r18,8
   828d0:	d9400715 	stw	r5,28(sp)
   828d4:	117def0e 	bge	r2,r5,82094 <___vfprintf_internal_r+0x44c>
   828d8:	d9019e17 	ldw	r4,1656(sp)
   828dc:	39400204 	addi	r5,r7,8
   828e0:	0081bf00 	call	81bf0 <__sprint>
   828e4:	1000971e 	bne	r2,zero,82b44 <___vfprintf_internal_r+0xefc>
   828e8:	d8c1ab17 	ldw	r3,1708(sp)
   828ec:	d8800404 	addi	r2,sp,16
   828f0:	14800504 	addi	r18,r2,20
   828f4:	00802004 	movi	r2,128
   828f8:	18bde91e 	bne	r3,r2,820a0 <___vfprintf_internal_r+0x458>
   828fc:	d941a217 	ldw	r5,1672(sp)
   82900:	d901a817 	ldw	r4,1696(sp)
   82904:	2921c83a 	sub	r16,r5,r4
   82908:	043de50e 	bge	zero,r16,820a0 <___vfprintf_internal_r+0x458>
   8290c:	04400404 	movi	r17,16
   82910:	8c001a0e 	bge	r17,r16,8297c <___vfprintf_internal_r+0xd34>
   82914:	882b883a 	mov	r21,r17
   82918:	050001c4 	movi	r20,7
   8291c:	00000206 	br	82928 <___vfprintf_internal_r+0xce0>
   82920:	843ffc04 	addi	r16,r16,-16
   82924:	ac00150e 	bge	r21,r16,8297c <___vfprintf_internal_r+0xd34>
   82928:	d8800817 	ldw	r2,32(sp)
   8292c:	d8c00717 	ldw	r3,28(sp)
   82930:	01c00274 	movhi	r7,9
   82934:	39da8904 	addi	r7,r7,27172
   82938:	10800404 	addi	r2,r2,16
   8293c:	18c00044 	addi	r3,r3,1
   82940:	91c00015 	stw	r7,0(r18)
   82944:	94400115 	stw	r17,4(r18)
   82948:	d8800815 	stw	r2,32(sp)
   8294c:	d8c00715 	stw	r3,28(sp)
   82950:	94800204 	addi	r18,r18,8
   82954:	a0fff20e 	bge	r20,r3,82920 <___vfprintf_internal_r+0xcd8>
   82958:	d9019e17 	ldw	r4,1656(sp)
   8295c:	d8800404 	addi	r2,sp,16
   82960:	11400204 	addi	r5,r2,8
   82964:	0081bf00 	call	81bf0 <__sprint>
   82968:	1000761e 	bne	r2,zero,82b44 <___vfprintf_internal_r+0xefc>
   8296c:	d8c00404 	addi	r3,sp,16
   82970:	843ffc04 	addi	r16,r16,-16
   82974:	1c800504 	addi	r18,r3,20
   82978:	ac3feb16 	blt	r21,r16,82928 <___vfprintf_internal_r+0xce0>
   8297c:	d8800817 	ldw	r2,32(sp)
   82980:	d8c00717 	ldw	r3,28(sp)
   82984:	01000274 	movhi	r4,9
   82988:	211a8904 	addi	r4,r4,27172
   8298c:	1405883a 	add	r2,r2,r16
   82990:	18c00044 	addi	r3,r3,1
   82994:	d8800815 	stw	r2,32(sp)
   82998:	008001c4 	movi	r2,7
   8299c:	91000015 	stw	r4,0(r18)
   829a0:	94000115 	stw	r16,4(r18)
   829a4:	d8c00715 	stw	r3,28(sp)
   829a8:	94800204 	addi	r18,r18,8
   829ac:	10fdbc0e 	bge	r2,r3,820a0 <___vfprintf_internal_r+0x458>
   829b0:	d9019e17 	ldw	r4,1656(sp)
   829b4:	d9c00404 	addi	r7,sp,16
   829b8:	39400204 	addi	r5,r7,8
   829bc:	0081bf00 	call	81bf0 <__sprint>
   829c0:	1000601e 	bne	r2,zero,82b44 <___vfprintf_internal_r+0xefc>
   829c4:	d8800404 	addi	r2,sp,16
   829c8:	14800504 	addi	r18,r2,20
   829cc:	003db406 	br	820a0 <___vfprintf_internal_r+0x458>
   829d0:	00801944 	movi	r2,101
   829d4:	17006c0e 	bge	r2,fp,82b88 <___vfprintf_internal_r+0xf40>
   829d8:	d901a417 	ldw	r4,1680(sp)
   829dc:	d941a517 	ldw	r5,1684(sp)
   829e0:	000d883a 	mov	r6,zero
   829e4:	000f883a 	mov	r7,zero
   829e8:	0089f700 	call	89f70 <__eqdf2>
   829ec:	1000c81e 	bne	r2,zero,82d10 <___vfprintf_internal_r+0x10c8>
   829f0:	d8800817 	ldw	r2,32(sp)
   829f4:	d9000717 	ldw	r4,28(sp)
   829f8:	04400044 	movi	r17,1
   829fc:	10800044 	addi	r2,r2,1
   82a00:	21000044 	addi	r4,r4,1
   82a04:	00c00274 	movhi	r3,9
   82a08:	18daf804 	addi	r3,r3,27616
   82a0c:	04c001c4 	movi	r19,7
   82a10:	90c00015 	stw	r3,0(r18)
   82a14:	94400115 	stw	r17,4(r18)
   82a18:	d8800815 	stw	r2,32(sp)
   82a1c:	d9000715 	stw	r4,28(sp)
   82a20:	94800204 	addi	r18,r18,8
   82a24:	9901d316 	blt	r19,r4,83174 <___vfprintf_internal_r+0x152c>
   82a28:	dc019617 	ldw	r16,1624(sp)
   82a2c:	d8819517 	ldw	r2,1620(sp)
   82a30:	14000316 	blt	r2,r16,82a40 <___vfprintf_internal_r+0xdf8>
   82a34:	d941a017 	ldw	r5,1664(sp)
   82a38:	2880004c 	andi	r2,r5,1
   82a3c:	103dd926 	beq	r2,zero,821a4 <___vfprintf_internal_r+0x55c>
   82a40:	d8800817 	ldw	r2,32(sp)
   82a44:	d8c00717 	ldw	r3,28(sp)
   82a48:	d9c1a317 	ldw	r7,1676(sp)
   82a4c:	10800044 	addi	r2,r2,1
   82a50:	18c00044 	addi	r3,r3,1
   82a54:	94400115 	stw	r17,4(r18)
   82a58:	91c00015 	stw	r7,0(r18)
   82a5c:	d8800815 	stw	r2,32(sp)
   82a60:	d8c00715 	stw	r3,28(sp)
   82a64:	94800204 	addi	r18,r18,8
   82a68:	98c1e016 	blt	r19,r3,831ec <___vfprintf_internal_r+0x15a4>
   82a6c:	843fffc4 	addi	r16,r16,-1
   82a70:	043dcc0e 	bge	zero,r16,821a4 <___vfprintf_internal_r+0x55c>
   82a74:	04400404 	movi	r17,16
   82a78:	8c001a0e 	bge	r17,r16,82ae4 <___vfprintf_internal_r+0xe9c>
   82a7c:	9829883a 	mov	r20,r19
   82a80:	8827883a 	mov	r19,r17
   82a84:	00000206 	br	82a90 <___vfprintf_internal_r+0xe48>
   82a88:	843ffc04 	addi	r16,r16,-16
   82a8c:	9c00150e 	bge	r19,r16,82ae4 <___vfprintf_internal_r+0xe9c>
   82a90:	d8800817 	ldw	r2,32(sp)
   82a94:	d8c00717 	ldw	r3,28(sp)
   82a98:	01000274 	movhi	r4,9
   82a9c:	211a8904 	addi	r4,r4,27172
   82aa0:	10800404 	addi	r2,r2,16
   82aa4:	18c00044 	addi	r3,r3,1
   82aa8:	91000015 	stw	r4,0(r18)
   82aac:	94400115 	stw	r17,4(r18)
   82ab0:	d8800815 	stw	r2,32(sp)
   82ab4:	d8c00715 	stw	r3,28(sp)
   82ab8:	94800204 	addi	r18,r18,8
   82abc:	a0fff20e 	bge	r20,r3,82a88 <___vfprintf_internal_r+0xe40>
   82ac0:	d9019e17 	ldw	r4,1656(sp)
   82ac4:	d9c00404 	addi	r7,sp,16
   82ac8:	39400204 	addi	r5,r7,8
   82acc:	0081bf00 	call	81bf0 <__sprint>
   82ad0:	10001c1e 	bne	r2,zero,82b44 <___vfprintf_internal_r+0xefc>
   82ad4:	d8800404 	addi	r2,sp,16
   82ad8:	843ffc04 	addi	r16,r16,-16
   82adc:	14800504 	addi	r18,r2,20
   82ae0:	9c3feb16 	blt	r19,r16,82a90 <___vfprintf_internal_r+0xe48>
   82ae4:	d8800817 	ldw	r2,32(sp)
   82ae8:	d8c00717 	ldw	r3,28(sp)
   82aec:	01000274 	movhi	r4,9
   82af0:	211a8904 	addi	r4,r4,27172
   82af4:	1405883a 	add	r2,r2,r16
   82af8:	18c00044 	addi	r3,r3,1
   82afc:	d8800815 	stw	r2,32(sp)
   82b00:	008001c4 	movi	r2,7
   82b04:	91000015 	stw	r4,0(r18)
   82b08:	94000115 	stw	r16,4(r18)
   82b0c:	d8c00715 	stw	r3,28(sp)
   82b10:	94800204 	addi	r18,r18,8
   82b14:	10fda30e 	bge	r2,r3,821a4 <___vfprintf_internal_r+0x55c>
   82b18:	d9019e17 	ldw	r4,1656(sp)
   82b1c:	d9c00404 	addi	r7,sp,16
   82b20:	00005306 	br	82c70 <___vfprintf_internal_r+0x1028>
   82b24:	d8800817 	ldw	r2,32(sp)
   82b28:	10000526 	beq	r2,zero,82b40 <___vfprintf_internal_r+0xef8>
   82b2c:	d9000404 	addi	r4,sp,16
   82b30:	21400204 	addi	r5,r4,8
   82b34:	d9019e17 	ldw	r4,1656(sp)
   82b38:	0081bf00 	call	81bf0 <__sprint>
   82b3c:	1000011e 	bne	r2,zero,82b44 <___vfprintf_internal_r+0xefc>
   82b40:	d8000715 	stw	zero,28(sp)
   82b44:	d941aa17 	ldw	r5,1704(sp)
   82b48:	28000226 	beq	r5,zero,82b54 <___vfprintf_internal_r+0xf0c>
   82b4c:	2809883a 	mov	r4,r5
   82b50:	00863000 	call	86300 <free>
   82b54:	d9c19e17 	ldw	r7,1656(sp)
   82b58:	00ffffc4 	movi	r3,-1
   82b5c:	3880030b 	ldhu	r2,12(r7)
   82b60:	1080100c 	andi	r2,r2,64
   82b64:	103cc71e 	bne	r2,zero,81e84 <___vfprintf_internal_r+0x23c>
   82b68:	d8c1a117 	ldw	r3,1668(sp)
   82b6c:	003cc506 	br	81e84 <___vfprintf_internal_r+0x23c>
   82b70:	d9019e17 	ldw	r4,1656(sp)
   82b74:	d9c00404 	addi	r7,sp,16
   82b78:	39400204 	addi	r5,r7,8
   82b7c:	0081bf00 	call	81bf0 <__sprint>
   82b80:	103dc526 	beq	r2,zero,82298 <___vfprintf_internal_r+0x650>
   82b84:	003fef06 	br	82b44 <___vfprintf_internal_r+0xefc>
   82b88:	dc019617 	ldw	r16,1624(sp)
   82b8c:	01000044 	movi	r4,1
   82b90:	24000316 	blt	r4,r16,82ba0 <___vfprintf_internal_r+0xf58>
   82b94:	d941a017 	ldw	r5,1664(sp)
   82b98:	2904703a 	and	r2,r5,r4
   82b9c:	10010026 	beq	r2,zero,82fa0 <___vfprintf_internal_r+0x1358>
   82ba0:	98800003 	ldbu	r2,0(r19)
   82ba4:	d9000817 	ldw	r4,32(sp)
   82ba8:	d9400717 	ldw	r5,28(sp)
   82bac:	00c00b84 	movi	r3,46
   82bb0:	d9c00404 	addi	r7,sp,16
   82bb4:	d8807005 	stb	r2,448(sp)
   82bb8:	d8c07045 	stb	r3,449(sp)
   82bbc:	21000084 	addi	r4,r4,2
   82bc0:	29400044 	addi	r5,r5,1
   82bc4:	38c06c04 	addi	r3,r7,432
   82bc8:	00800084 	movi	r2,2
   82bcc:	050001c4 	movi	r20,7
   82bd0:	90c00015 	stw	r3,0(r18)
   82bd4:	90800115 	stw	r2,4(r18)
   82bd8:	d9000815 	stw	r4,32(sp)
   82bdc:	9cc00044 	addi	r19,r19,1
   82be0:	94800204 	addi	r18,r18,8
   82be4:	d9400715 	stw	r5,28(sp)
   82be8:	04400404 	movi	r17,16
   82bec:	a140ff16 	blt	r20,r5,82fec <___vfprintf_internal_r+0x13a4>
   82bf0:	d901a417 	ldw	r4,1680(sp)
   82bf4:	d941a517 	ldw	r5,1684(sp)
   82bf8:	000d883a 	mov	r6,zero
   82bfc:	000f883a 	mov	r7,zero
   82c00:	0089ffc0 	call	89ffc <__nedf2>
   82c04:	10009626 	beq	r2,zero,82e60 <___vfprintf_internal_r+0x1218>
   82c08:	d8c00817 	ldw	r3,32(sp)
   82c0c:	d9000717 	ldw	r4,28(sp)
   82c10:	80bfffc4 	addi	r2,r16,-1
   82c14:	1c07883a 	add	r3,r3,r16
   82c18:	18ffffc4 	addi	r3,r3,-1
   82c1c:	21000044 	addi	r4,r4,1
   82c20:	94c00015 	stw	r19,0(r18)
   82c24:	90800115 	stw	r2,4(r18)
   82c28:	d8c00815 	stw	r3,32(sp)
   82c2c:	94800204 	addi	r18,r18,8
   82c30:	d9000715 	stw	r4,28(sp)
   82c34:	a100e516 	blt	r20,r4,82fcc <___vfprintf_internal_r+0x1384>
   82c38:	d8800817 	ldw	r2,32(sp)
   82c3c:	d941a617 	ldw	r5,1688(sp)
   82c40:	d8c00717 	ldw	r3,28(sp)
   82c44:	d9c00404 	addi	r7,sp,16
   82c48:	1145883a 	add	r2,r2,r5
   82c4c:	18c00044 	addi	r3,r3,1
   82c50:	d8800815 	stw	r2,32(sp)
   82c54:	008001c4 	movi	r2,7
   82c58:	91c00015 	stw	r7,0(r18)
   82c5c:	91400115 	stw	r5,4(r18)
   82c60:	d8c00715 	stw	r3,28(sp)
   82c64:	94800204 	addi	r18,r18,8
   82c68:	10fd4e0e 	bge	r2,r3,821a4 <___vfprintf_internal_r+0x55c>
   82c6c:	d9019e17 	ldw	r4,1656(sp)
   82c70:	39400204 	addi	r5,r7,8
   82c74:	0081bf00 	call	81bf0 <__sprint>
   82c78:	103fb21e 	bne	r2,zero,82b44 <___vfprintf_internal_r+0xefc>
   82c7c:	d8800404 	addi	r2,sp,16
   82c80:	14800504 	addi	r18,r2,20
   82c84:	003d4706 	br	821a4 <___vfprintf_internal_r+0x55c>
   82c88:	00800084 	movi	r2,2
   82c8c:	18bcb01e 	bne	r3,r2,81f50 <___vfprintf_internal_r+0x308>
   82c90:	d9c1a917 	ldw	r7,1700(sp)
   82c94:	800ad13a 	srli	r5,r16,4
   82c98:	880c973a 	slli	r6,r17,28
   82c9c:	810003cc 	andi	r4,r16,15
   82ca0:	21c9883a 	add	r4,r4,r7
   82ca4:	8806d13a 	srli	r3,r17,4
   82ca8:	3144b03a 	or	r2,r6,r5
   82cac:	21400003 	ldbu	r5,0(r4)
   82cb0:	9cffffc4 	addi	r19,r19,-1
   82cb4:	10c8b03a 	or	r4,r2,r3
   82cb8:	1021883a 	mov	r16,r2
   82cbc:	1823883a 	mov	r17,r3
   82cc0:	99400005 	stb	r5,0(r19)
   82cc4:	203ff21e 	bne	r4,zero,82c90 <___vfprintf_internal_r+0x1048>
   82cc8:	003d9306 	br	82318 <___vfprintf_internal_r+0x6d0>
   82ccc:	18803fcc 	andi	r2,r3,255
   82cd0:	103d911e 	bne	r2,zero,82318 <___vfprintf_internal_r+0x6d0>
   82cd4:	d8c1a017 	ldw	r3,1664(sp)
   82cd8:	1880004c 	andi	r2,r3,1
   82cdc:	103d8e26 	beq	r2,zero,82318 <___vfprintf_internal_r+0x6d0>
   82ce0:	d9000404 	addi	r4,sp,16
   82ce4:	24c06bc4 	addi	r19,r4,431
   82ce8:	00800c04 	movi	r2,48
   82cec:	003d8906 	br	82314 <___vfprintf_internal_r+0x6cc>
   82cf0:	d9019e17 	ldw	r4,1656(sp)
   82cf4:	d8c00404 	addi	r3,sp,16
   82cf8:	19400204 	addi	r5,r3,8
   82cfc:	0081bf00 	call	81bf0 <__sprint>
   82d00:	103f901e 	bne	r2,zero,82b44 <___vfprintf_internal_r+0xefc>
   82d04:	d9000404 	addi	r4,sp,16
   82d08:	24800504 	addi	r18,r4,20
   82d0c:	003ce106 	br	82094 <___vfprintf_internal_r+0x44c>
   82d10:	d9819517 	ldw	r6,1620(sp)
   82d14:	01813e0e 	bge	zero,r6,83210 <___vfprintf_internal_r+0x15c8>
   82d18:	dc019617 	ldw	r16,1624(sp)
   82d1c:	3400bb16 	blt	r6,r16,8300c <___vfprintf_internal_r+0x13c4>
   82d20:	d8800817 	ldw	r2,32(sp)
   82d24:	d8c00717 	ldw	r3,28(sp)
   82d28:	050001c4 	movi	r20,7
   82d2c:	1405883a 	add	r2,r2,r16
   82d30:	18c00044 	addi	r3,r3,1
   82d34:	94c00015 	stw	r19,0(r18)
   82d38:	94000115 	stw	r16,4(r18)
   82d3c:	d8800815 	stw	r2,32(sp)
   82d40:	d8c00715 	stw	r3,28(sp)
   82d44:	94800204 	addi	r18,r18,8
   82d48:	a0c1b116 	blt	r20,r3,83410 <___vfprintf_internal_r+0x17c8>
   82d4c:	3421c83a 	sub	r16,r6,r16
   82d50:	0400280e 	bge	zero,r16,82df4 <___vfprintf_internal_r+0x11ac>
   82d54:	04400404 	movi	r17,16
   82d58:	8c00190e 	bge	r17,r16,82dc0 <___vfprintf_internal_r+0x1178>
   82d5c:	8827883a 	mov	r19,r17
   82d60:	00000206 	br	82d6c <___vfprintf_internal_r+0x1124>
   82d64:	843ffc04 	addi	r16,r16,-16
   82d68:	9c00150e 	bge	r19,r16,82dc0 <___vfprintf_internal_r+0x1178>
   82d6c:	00c00274 	movhi	r3,9
   82d70:	18da8904 	addi	r3,r3,27172
   82d74:	90c00015 	stw	r3,0(r18)
   82d78:	d8800817 	ldw	r2,32(sp)
   82d7c:	d8c00717 	ldw	r3,28(sp)
   82d80:	94400115 	stw	r17,4(r18)
   82d84:	10800404 	addi	r2,r2,16
   82d88:	18c00044 	addi	r3,r3,1
   82d8c:	d8800815 	stw	r2,32(sp)
   82d90:	d8c00715 	stw	r3,28(sp)
   82d94:	94800204 	addi	r18,r18,8
   82d98:	a0fff20e 	bge	r20,r3,82d64 <___vfprintf_internal_r+0x111c>
   82d9c:	d9019e17 	ldw	r4,1656(sp)
   82da0:	d9c00404 	addi	r7,sp,16
   82da4:	39400204 	addi	r5,r7,8
   82da8:	0081bf00 	call	81bf0 <__sprint>
   82dac:	103f651e 	bne	r2,zero,82b44 <___vfprintf_internal_r+0xefc>
   82db0:	d8800404 	addi	r2,sp,16
   82db4:	843ffc04 	addi	r16,r16,-16
   82db8:	14800504 	addi	r18,r2,20
   82dbc:	9c3feb16 	blt	r19,r16,82d6c <___vfprintf_internal_r+0x1124>
   82dc0:	d8800817 	ldw	r2,32(sp)
   82dc4:	d8c00717 	ldw	r3,28(sp)
   82dc8:	01000274 	movhi	r4,9
   82dcc:	211a8904 	addi	r4,r4,27172
   82dd0:	1405883a 	add	r2,r2,r16
   82dd4:	18c00044 	addi	r3,r3,1
   82dd8:	d8800815 	stw	r2,32(sp)
   82ddc:	008001c4 	movi	r2,7
   82de0:	91000015 	stw	r4,0(r18)
   82de4:	94000115 	stw	r16,4(r18)
   82de8:	d8c00715 	stw	r3,28(sp)
   82dec:	94800204 	addi	r18,r18,8
   82df0:	10c1f316 	blt	r2,r3,835c0 <___vfprintf_internal_r+0x1978>
   82df4:	d8c1a017 	ldw	r3,1664(sp)
   82df8:	1880004c 	andi	r2,r3,1
   82dfc:	103ce926 	beq	r2,zero,821a4 <___vfprintf_internal_r+0x55c>
   82e00:	d9000817 	ldw	r4,32(sp)
   82e04:	d9400717 	ldw	r5,28(sp)
   82e08:	00800044 	movi	r2,1
   82e0c:	90800115 	stw	r2,4(r18)
   82e10:	21000044 	addi	r4,r4,1
   82e14:	29400044 	addi	r5,r5,1
   82e18:	00c00274 	movhi	r3,9
   82e1c:	18daf904 	addi	r3,r3,27620
   82e20:	008001c4 	movi	r2,7
   82e24:	90c00015 	stw	r3,0(r18)
   82e28:	d9000815 	stw	r4,32(sp)
   82e2c:	94800204 	addi	r18,r18,8
   82e30:	d9400715 	stw	r5,28(sp)
   82e34:	117cdb0e 	bge	r2,r5,821a4 <___vfprintf_internal_r+0x55c>
   82e38:	003f3706 	br	82b18 <___vfprintf_internal_r+0xed0>
   82e3c:	d9019e17 	ldw	r4,1656(sp)
   82e40:	d9c00404 	addi	r7,sp,16
   82e44:	39400204 	addi	r5,r7,8
   82e48:	0081bf00 	call	81bf0 <__sprint>
   82e4c:	103f3d1e 	bne	r2,zero,82b44 <___vfprintf_internal_r+0xefc>
   82e50:	d8c19c03 	ldbu	r3,1648(sp)
   82e54:	d8800404 	addi	r2,sp,16
   82e58:	14800504 	addi	r18,r2,20
   82e5c:	003c7c06 	br	82050 <___vfprintf_internal_r+0x408>
   82e60:	843fffc4 	addi	r16,r16,-1
   82e64:	043f740e 	bge	zero,r16,82c38 <___vfprintf_internal_r+0xff0>
   82e68:	8c00190e 	bge	r17,r16,82ed0 <___vfprintf_internal_r+0x1288>
   82e6c:	a027883a 	mov	r19,r20
   82e70:	00000206 	br	82e7c <___vfprintf_internal_r+0x1234>
   82e74:	843ffc04 	addi	r16,r16,-16
   82e78:	8c00150e 	bge	r17,r16,82ed0 <___vfprintf_internal_r+0x1288>
   82e7c:	d8800817 	ldw	r2,32(sp)
   82e80:	d8c00717 	ldw	r3,28(sp)
   82e84:	01400274 	movhi	r5,9
   82e88:	295a8904 	addi	r5,r5,27172
   82e8c:	10800404 	addi	r2,r2,16
   82e90:	18c00044 	addi	r3,r3,1
   82e94:	91400015 	stw	r5,0(r18)
   82e98:	94400115 	stw	r17,4(r18)
   82e9c:	d8800815 	stw	r2,32(sp)
   82ea0:	d8c00715 	stw	r3,28(sp)
   82ea4:	94800204 	addi	r18,r18,8
   82ea8:	98fff20e 	bge	r19,r3,82e74 <___vfprintf_internal_r+0x122c>
   82eac:	d9019e17 	ldw	r4,1656(sp)
   82eb0:	d9c00404 	addi	r7,sp,16
   82eb4:	39400204 	addi	r5,r7,8
   82eb8:	0081bf00 	call	81bf0 <__sprint>
   82ebc:	103f211e 	bne	r2,zero,82b44 <___vfprintf_internal_r+0xefc>
   82ec0:	d8800404 	addi	r2,sp,16
   82ec4:	843ffc04 	addi	r16,r16,-16
   82ec8:	14800504 	addi	r18,r2,20
   82ecc:	8c3feb16 	blt	r17,r16,82e7c <___vfprintf_internal_r+0x1234>
   82ed0:	d8800817 	ldw	r2,32(sp)
   82ed4:	d8c00717 	ldw	r3,28(sp)
   82ed8:	01000274 	movhi	r4,9
   82edc:	211a8904 	addi	r4,r4,27172
   82ee0:	1405883a 	add	r2,r2,r16
   82ee4:	18c00044 	addi	r3,r3,1
   82ee8:	d8800815 	stw	r2,32(sp)
   82eec:	008001c4 	movi	r2,7
   82ef0:	91000015 	stw	r4,0(r18)
   82ef4:	94000115 	stw	r16,4(r18)
   82ef8:	d8c00715 	stw	r3,28(sp)
   82efc:	94800204 	addi	r18,r18,8
   82f00:	10ff4d0e 	bge	r2,r3,82c38 <___vfprintf_internal_r+0xff0>
   82f04:	d9019e17 	ldw	r4,1656(sp)
   82f08:	d9c00404 	addi	r7,sp,16
   82f0c:	39400204 	addi	r5,r7,8
   82f10:	0081bf00 	call	81bf0 <__sprint>
   82f14:	103f0b1e 	bne	r2,zero,82b44 <___vfprintf_internal_r+0xefc>
   82f18:	d8800404 	addi	r2,sp,16
   82f1c:	14800504 	addi	r18,r2,20
   82f20:	003f4506 	br	82c38 <___vfprintf_internal_r+0xff0>
   82f24:	d941a017 	ldw	r5,1664(sp)
   82f28:	2880040c 	andi	r2,r5,16
   82f2c:	10006426 	beq	r2,zero,830c0 <___vfprintf_internal_r+0x1478>
   82f30:	d8819f17 	ldw	r2,1660(sp)
   82f34:	0023883a 	mov	r17,zero
   82f38:	14000017 	ldw	r16,0(r2)
   82f3c:	11c00104 	addi	r7,r2,4
   82f40:	d9c19f15 	stw	r7,1660(sp)
   82f44:	0007883a 	mov	r3,zero
   82f48:	003bef06 	br	81f08 <___vfprintf_internal_r+0x2c0>
   82f4c:	d941a017 	ldw	r5,1664(sp)
   82f50:	2880040c 	andi	r2,r5,16
   82f54:	10006326 	beq	r2,zero,830e4 <___vfprintf_internal_r+0x149c>
   82f58:	d8819f17 	ldw	r2,1660(sp)
   82f5c:	10c00017 	ldw	r3,0(r2)
   82f60:	11c00104 	addi	r7,r2,4
   82f64:	d9c19f15 	stw	r7,1660(sp)
   82f68:	1823d7fa 	srai	r17,r3,31
   82f6c:	1821883a 	mov	r16,r3
   82f70:	883d190e 	bge	r17,zero,823d8 <___vfprintf_internal_r+0x790>
   82f74:	003e2f06 	br	82834 <___vfprintf_internal_r+0xbec>
   82f78:	d8c1a017 	ldw	r3,1664(sp)
   82f7c:	1880040c 	andi	r2,r3,16
   82f80:	10006926 	beq	r2,zero,83128 <___vfprintf_internal_r+0x14e0>
   82f84:	d8819f17 	ldw	r2,1660(sp)
   82f88:	0023883a 	mov	r17,zero
   82f8c:	14000017 	ldw	r16,0(r2)
   82f90:	11000104 	addi	r4,r2,4
   82f94:	d9019f15 	stw	r4,1660(sp)
   82f98:	00c00044 	movi	r3,1
   82f9c:	003bda06 	br	81f08 <___vfprintf_internal_r+0x2c0>
   82fa0:	d8800817 	ldw	r2,32(sp)
   82fa4:	d8c00717 	ldw	r3,28(sp)
   82fa8:	94c00015 	stw	r19,0(r18)
   82fac:	10800044 	addi	r2,r2,1
   82fb0:	18c00044 	addi	r3,r3,1
   82fb4:	d8800815 	stw	r2,32(sp)
   82fb8:	008001c4 	movi	r2,7
   82fbc:	91000115 	stw	r4,4(r18)
   82fc0:	d8c00715 	stw	r3,28(sp)
   82fc4:	94800204 	addi	r18,r18,8
   82fc8:	10ff1b0e 	bge	r2,r3,82c38 <___vfprintf_internal_r+0xff0>
   82fcc:	d9019e17 	ldw	r4,1656(sp)
   82fd0:	d8c00404 	addi	r3,sp,16
   82fd4:	19400204 	addi	r5,r3,8
   82fd8:	0081bf00 	call	81bf0 <__sprint>
   82fdc:	103ed91e 	bne	r2,zero,82b44 <___vfprintf_internal_r+0xefc>
   82fe0:	d9000404 	addi	r4,sp,16
   82fe4:	24800504 	addi	r18,r4,20
   82fe8:	003f1306 	br	82c38 <___vfprintf_internal_r+0xff0>
   82fec:	d9019e17 	ldw	r4,1656(sp)
   82ff0:	39400204 	addi	r5,r7,8
   82ff4:	0081bf00 	call	81bf0 <__sprint>
   82ff8:	103ed21e 	bne	r2,zero,82b44 <___vfprintf_internal_r+0xefc>
   82ffc:	dc019617 	ldw	r16,1624(sp)
   83000:	dc45883a 	add	r2,sp,r17
   83004:	14800504 	addi	r18,r2,20
   83008:	003ef906 	br	82bf0 <___vfprintf_internal_r+0xfa8>
   8300c:	d8800817 	ldw	r2,32(sp)
   83010:	d8c00717 	ldw	r3,28(sp)
   83014:	040001c4 	movi	r16,7
   83018:	1185883a 	add	r2,r2,r6
   8301c:	18c00044 	addi	r3,r3,1
   83020:	94c00015 	stw	r19,0(r18)
   83024:	91800115 	stw	r6,4(r18)
   83028:	d8800815 	stw	r2,32(sp)
   8302c:	d8c00715 	stw	r3,28(sp)
   83030:	94800204 	addi	r18,r18,8
   83034:	80c0ed16 	blt	r16,r3,833ec <___vfprintf_internal_r+0x17a4>
   83038:	d9000817 	ldw	r4,32(sp)
   8303c:	d9400717 	ldw	r5,28(sp)
   83040:	00800274 	movhi	r2,9
   83044:	109af904 	addi	r2,r2,27620
   83048:	21000044 	addi	r4,r4,1
   8304c:	29400044 	addi	r5,r5,1
   83050:	00c00044 	movi	r3,1
   83054:	90800015 	stw	r2,0(r18)
   83058:	90c00115 	stw	r3,4(r18)
   8305c:	d9000815 	stw	r4,32(sp)
   83060:	99a7883a 	add	r19,r19,r6
   83064:	94800204 	addi	r18,r18,8
   83068:	d9400715 	stw	r5,28(sp)
   8306c:	8140d616 	blt	r16,r5,833c8 <___vfprintf_internal_r+0x1780>
   83070:	d8819617 	ldw	r2,1624(sp)
   83074:	d8c00817 	ldw	r3,32(sp)
   83078:	d9000717 	ldw	r4,28(sp)
   8307c:	1185c83a 	sub	r2,r2,r6
   83080:	1887883a 	add	r3,r3,r2
   83084:	21000044 	addi	r4,r4,1
   83088:	94c00015 	stw	r19,0(r18)
   8308c:	90800115 	stw	r2,4(r18)
   83090:	d8c00815 	stw	r3,32(sp)
   83094:	d9000715 	stw	r4,28(sp)
   83098:	94800204 	addi	r18,r18,8
   8309c:	813c410e 	bge	r16,r4,821a4 <___vfprintf_internal_r+0x55c>
   830a0:	d9019e17 	ldw	r4,1656(sp)
   830a4:	d8c00404 	addi	r3,sp,16
   830a8:	19400204 	addi	r5,r3,8
   830ac:	0081bf00 	call	81bf0 <__sprint>
   830b0:	103ea41e 	bne	r2,zero,82b44 <___vfprintf_internal_r+0xefc>
   830b4:	d9000404 	addi	r4,sp,16
   830b8:	24800504 	addi	r18,r4,20
   830bc:	003c3906 	br	821a4 <___vfprintf_internal_r+0x55c>
   830c0:	d8c1a017 	ldw	r3,1664(sp)
   830c4:	1880100c 	andi	r2,r3,64
   830c8:	1000af26 	beq	r2,zero,83388 <___vfprintf_internal_r+0x1740>
   830cc:	d8819f17 	ldw	r2,1660(sp)
   830d0:	0023883a 	mov	r17,zero
   830d4:	1400000b 	ldhu	r16,0(r2)
   830d8:	11000104 	addi	r4,r2,4
   830dc:	d9019f15 	stw	r4,1660(sp)
   830e0:	003f9806 	br	82f44 <___vfprintf_internal_r+0x12fc>
   830e4:	d8c1a017 	ldw	r3,1664(sp)
   830e8:	1880100c 	andi	r2,r3,64
   830ec:	10009b26 	beq	r2,zero,8335c <___vfprintf_internal_r+0x1714>
   830f0:	d8819f17 	ldw	r2,1660(sp)
   830f4:	10c0000f 	ldh	r3,0(r2)
   830f8:	11000104 	addi	r4,r2,4
   830fc:	d9019f15 	stw	r4,1660(sp)
   83100:	003f9906 	br	82f68 <___vfprintf_internal_r+0x1320>
   83104:	d941a017 	ldw	r5,1664(sp)
   83108:	2880100c 	andi	r2,r5,64
   8310c:	1000a426 	beq	r2,zero,833a0 <___vfprintf_internal_r+0x1758>
   83110:	d8819f17 	ldw	r2,1660(sp)
   83114:	0023883a 	mov	r17,zero
   83118:	1400000b 	ldhu	r16,0(r2)
   8311c:	11c00104 	addi	r7,r2,4
   83120:	d9c19f15 	stw	r7,1660(sp)
   83124:	003d4d06 	br	8265c <___vfprintf_internal_r+0xa14>
   83128:	d941a017 	ldw	r5,1664(sp)
   8312c:	2880100c 	andi	r2,r5,64
   83130:	10008f26 	beq	r2,zero,83370 <___vfprintf_internal_r+0x1728>
   83134:	d8819f17 	ldw	r2,1660(sp)
   83138:	0023883a 	mov	r17,zero
   8313c:	1400000b 	ldhu	r16,0(r2)
   83140:	11c00104 	addi	r7,r2,4
   83144:	d9c19f15 	stw	r7,1660(sp)
   83148:	003f9306 	br	82f98 <___vfprintf_internal_r+0x1350>
   8314c:	d8c1a017 	ldw	r3,1664(sp)
   83150:	1880040c 	andi	r2,r3,16
   83154:	10007726 	beq	r2,zero,83334 <___vfprintf_internal_r+0x16ec>
   83158:	d8819f17 	ldw	r2,1660(sp)
   8315c:	d941a117 	ldw	r5,1668(sp)
   83160:	10c00017 	ldw	r3,0(r2)
   83164:	11000104 	addi	r4,r2,4
   83168:	d9019f15 	stw	r4,1660(sp)
   8316c:	19400015 	stw	r5,0(r3)
   83170:	003adc06 	br	81ce4 <___vfprintf_internal_r+0x9c>
   83174:	d9019e17 	ldw	r4,1656(sp)
   83178:	d8c00404 	addi	r3,sp,16
   8317c:	19400204 	addi	r5,r3,8
   83180:	0081bf00 	call	81bf0 <__sprint>
   83184:	103e6f1e 	bne	r2,zero,82b44 <___vfprintf_internal_r+0xefc>
   83188:	d9000404 	addi	r4,sp,16
   8318c:	24800504 	addi	r18,r4,20
   83190:	003e2506 	br	82a28 <___vfprintf_internal_r+0xde0>
   83194:	d8819f17 	ldw	r2,1660(sp)
   83198:	05c00044 	movi	r23,1
   8319c:	10c00017 	ldw	r3,0(r2)
   831a0:	11400104 	addi	r5,r2,4
   831a4:	d9419f15 	stw	r5,1660(sp)
   831a8:	98c00005 	stb	r3,0(r19)
   831ac:	d8019c05 	stb	zero,1648(sp)
   831b0:	003b6c06 	br	81f64 <___vfprintf_internal_r+0x31c>
   831b4:	a03d6b1e 	bne	r20,zero,82764 <___vfprintf_internal_r+0xb1c>
   831b8:	05000044 	movi	r20,1
   831bc:	003d6906 	br	82764 <___vfprintf_internal_r+0xb1c>
   831c0:	a03b6516 	blt	r20,zero,81f58 <___vfprintf_internal_r+0x310>
   831c4:	9809883a 	mov	r4,r19
   831c8:	000b883a 	mov	r5,zero
   831cc:	a00d883a 	mov	r6,r20
   831d0:	00869cc0 	call	869cc <memchr>
   831d4:	a02f883a 	mov	r23,r20
   831d8:	103b6226 	beq	r2,zero,81f64 <___vfprintf_internal_r+0x31c>
   831dc:	14efc83a 	sub	r23,r2,r19
   831e0:	a5fb600e 	bge	r20,r23,81f64 <___vfprintf_internal_r+0x31c>
   831e4:	a02f883a 	mov	r23,r20
   831e8:	003b5e06 	br	81f64 <___vfprintf_internal_r+0x31c>
   831ec:	d9019e17 	ldw	r4,1656(sp)
   831f0:	d8800404 	addi	r2,sp,16
   831f4:	11400204 	addi	r5,r2,8
   831f8:	0081bf00 	call	81bf0 <__sprint>
   831fc:	103e511e 	bne	r2,zero,82b44 <___vfprintf_internal_r+0xefc>
   83200:	dc019617 	ldw	r16,1624(sp)
   83204:	d8c00404 	addi	r3,sp,16
   83208:	1c800504 	addi	r18,r3,20
   8320c:	003e1706 	br	82a6c <___vfprintf_internal_r+0xe24>
   83210:	d8800817 	ldw	r2,32(sp)
   83214:	d9000717 	ldw	r4,28(sp)
   83218:	04000044 	movi	r16,1
   8321c:	10800044 	addi	r2,r2,1
   83220:	21000044 	addi	r4,r4,1
   83224:	00c00274 	movhi	r3,9
   83228:	18daf804 	addi	r3,r3,27616
   8322c:	050001c4 	movi	r20,7
   83230:	90c00015 	stw	r3,0(r18)
   83234:	94000115 	stw	r16,4(r18)
   83238:	d8800815 	stw	r2,32(sp)
   8323c:	d9000715 	stw	r4,28(sp)
   83240:	94800204 	addi	r18,r18,8
   83244:	a100ed16 	blt	r20,r4,835fc <___vfprintf_internal_r+0x19b4>
   83248:	3000021e 	bne	r6,zero,83254 <___vfprintf_internal_r+0x160c>
   8324c:	d8819617 	ldw	r2,1624(sp)
   83250:	103bd426 	beq	r2,zero,821a4 <___vfprintf_internal_r+0x55c>
   83254:	d8800817 	ldw	r2,32(sp)
   83258:	d8c00717 	ldw	r3,28(sp)
   8325c:	d941a317 	ldw	r5,1676(sp)
   83260:	10800044 	addi	r2,r2,1
   83264:	18c00044 	addi	r3,r3,1
   83268:	94000115 	stw	r16,4(r18)
   8326c:	91400015 	stw	r5,0(r18)
   83270:	d8800815 	stw	r2,32(sp)
   83274:	d8c00715 	stw	r3,28(sp)
   83278:	94800204 	addi	r18,r18,8
   8327c:	a0c13316 	blt	r20,r3,8374c <___vfprintf_internal_r+0x1b04>
   83280:	01a1c83a 	sub	r16,zero,r6
   83284:	0400f30e 	bge	zero,r16,83654 <___vfprintf_internal_r+0x1a0c>
   83288:	04400404 	movi	r17,16
   8328c:	8c00e40e 	bge	r17,r16,83620 <___vfprintf_internal_r+0x19d8>
   83290:	a02b883a 	mov	r21,r20
   83294:	8829883a 	mov	r20,r17
   83298:	00000206 	br	832a4 <___vfprintf_internal_r+0x165c>
   8329c:	843ffc04 	addi	r16,r16,-16
   832a0:	a400df0e 	bge	r20,r16,83620 <___vfprintf_internal_r+0x19d8>
   832a4:	00c00274 	movhi	r3,9
   832a8:	18da8904 	addi	r3,r3,27172
   832ac:	90c00015 	stw	r3,0(r18)
   832b0:	d8800817 	ldw	r2,32(sp)
   832b4:	d8c00717 	ldw	r3,28(sp)
   832b8:	94400115 	stw	r17,4(r18)
   832bc:	10800404 	addi	r2,r2,16
   832c0:	18c00044 	addi	r3,r3,1
   832c4:	d8800815 	stw	r2,32(sp)
   832c8:	d8c00715 	stw	r3,28(sp)
   832cc:	94800204 	addi	r18,r18,8
   832d0:	a8fff20e 	bge	r21,r3,8329c <___vfprintf_internal_r+0x1654>
   832d4:	d9019e17 	ldw	r4,1656(sp)
   832d8:	d9c00404 	addi	r7,sp,16
   832dc:	39400204 	addi	r5,r7,8
   832e0:	0081bf00 	call	81bf0 <__sprint>
   832e4:	103e171e 	bne	r2,zero,82b44 <___vfprintf_internal_r+0xefc>
   832e8:	d8800404 	addi	r2,sp,16
   832ec:	14800504 	addi	r18,r2,20
   832f0:	003fea06 	br	8329c <___vfprintf_internal_r+0x1654>
   832f4:	d901a417 	ldw	r4,1680(sp)
   832f8:	d941a517 	ldw	r5,1684(sp)
   832fc:	00881f80 	call	881f8 <isnan>
   83300:	10004d26 	beq	r2,zero,83438 <___vfprintf_internal_r+0x17f0>
   83304:	04c00274 	movhi	r19,9
   83308:	9cdafa04 	addi	r19,r19,27624
   8330c:	05c000c4 	movi	r23,3
   83310:	003b1406 	br	81f64 <___vfprintf_internal_r+0x31c>
   83314:	d8c1a017 	ldw	r3,1664(sp)
   83318:	b5800044 	addi	r22,r22,1
   8331c:	b1000003 	ldbu	r4,0(r22)
   83320:	18c00814 	ori	r3,r3,32
   83324:	d8c1a015 	stw	r3,1664(sp)
   83328:	003a9806 	br	81d8c <___vfprintf_internal_r+0x144>
   8332c:	05000184 	movi	r20,6
   83330:	003d0c06 	br	82764 <___vfprintf_internal_r+0xb1c>
   83334:	d9c1a017 	ldw	r7,1664(sp)
   83338:	3880100c 	andi	r2,r7,64
   8333c:	1000a826 	beq	r2,zero,835e0 <___vfprintf_internal_r+0x1998>
   83340:	d8819f17 	ldw	r2,1660(sp)
   83344:	d901a117 	ldw	r4,1668(sp)
   83348:	10c00017 	ldw	r3,0(r2)
   8334c:	10800104 	addi	r2,r2,4
   83350:	d8819f15 	stw	r2,1660(sp)
   83354:	1900000d 	sth	r4,0(r3)
   83358:	003a6206 	br	81ce4 <___vfprintf_internal_r+0x9c>
   8335c:	d8819f17 	ldw	r2,1660(sp)
   83360:	10c00017 	ldw	r3,0(r2)
   83364:	11400104 	addi	r5,r2,4
   83368:	d9419f15 	stw	r5,1660(sp)
   8336c:	003efe06 	br	82f68 <___vfprintf_internal_r+0x1320>
   83370:	d8819f17 	ldw	r2,1660(sp)
   83374:	0023883a 	mov	r17,zero
   83378:	14000017 	ldw	r16,0(r2)
   8337c:	10800104 	addi	r2,r2,4
   83380:	d8819f15 	stw	r2,1660(sp)
   83384:	003f0406 	br	82f98 <___vfprintf_internal_r+0x1350>
   83388:	d8819f17 	ldw	r2,1660(sp)
   8338c:	0023883a 	mov	r17,zero
   83390:	14000017 	ldw	r16,0(r2)
   83394:	11400104 	addi	r5,r2,4
   83398:	d9419f15 	stw	r5,1660(sp)
   8339c:	003ee906 	br	82f44 <___vfprintf_internal_r+0x12fc>
   833a0:	d8819f17 	ldw	r2,1660(sp)
   833a4:	0023883a 	mov	r17,zero
   833a8:	14000017 	ldw	r16,0(r2)
   833ac:	10800104 	addi	r2,r2,4
   833b0:	d8819f15 	stw	r2,1660(sp)
   833b4:	003ca906 	br	8265c <___vfprintf_internal_r+0xa14>
   833b8:	04c00274 	movhi	r19,9
   833bc:	9cdafb04 	addi	r19,r19,27628
   833c0:	05c00184 	movi	r23,6
   833c4:	003ae706 	br	81f64 <___vfprintf_internal_r+0x31c>
   833c8:	d9019e17 	ldw	r4,1656(sp)
   833cc:	d9c00404 	addi	r7,sp,16
   833d0:	39400204 	addi	r5,r7,8
   833d4:	0081bf00 	call	81bf0 <__sprint>
   833d8:	103dda1e 	bne	r2,zero,82b44 <___vfprintf_internal_r+0xefc>
   833dc:	d9819517 	ldw	r6,1620(sp)
   833e0:	d8800404 	addi	r2,sp,16
   833e4:	14800504 	addi	r18,r2,20
   833e8:	003f2106 	br	83070 <___vfprintf_internal_r+0x1428>
   833ec:	d9019e17 	ldw	r4,1656(sp)
   833f0:	d8c00404 	addi	r3,sp,16
   833f4:	19400204 	addi	r5,r3,8
   833f8:	0081bf00 	call	81bf0 <__sprint>
   833fc:	103dd11e 	bne	r2,zero,82b44 <___vfprintf_internal_r+0xefc>
   83400:	d9819517 	ldw	r6,1620(sp)
   83404:	d9000404 	addi	r4,sp,16
   83408:	24800504 	addi	r18,r4,20
   8340c:	003f0a06 	br	83038 <___vfprintf_internal_r+0x13f0>
   83410:	d9019e17 	ldw	r4,1656(sp)
   83414:	d9c00404 	addi	r7,sp,16
   83418:	39400204 	addi	r5,r7,8
   8341c:	0081bf00 	call	81bf0 <__sprint>
   83420:	103dc81e 	bne	r2,zero,82b44 <___vfprintf_internal_r+0xefc>
   83424:	d9819517 	ldw	r6,1620(sp)
   83428:	dc019617 	ldw	r16,1624(sp)
   8342c:	d8800404 	addi	r2,sp,16
   83430:	14800504 	addi	r18,r2,20
   83434:	003e4506 	br	82d4c <___vfprintf_internal_r+0x1104>
   83438:	d881a417 	ldw	r2,1680(sp)
   8343c:	d8c1a017 	ldw	r3,1664(sp)
   83440:	d901a517 	ldw	r4,1684(sp)
   83444:	1021883a 	mov	r16,r2
   83448:	18c04014 	ori	r3,r3,256
   8344c:	00801984 	movi	r2,102
   83450:	d8c1a015 	stw	r3,1664(sp)
   83454:	2023883a 	mov	r17,r4
   83458:	a02f883a 	mov	r23,r20
   8345c:	d9819404 	addi	r6,sp,1616
   83460:	01c000c4 	movi	r7,3
   83464:	e0800526 	beq	fp,r2,8347c <___vfprintf_internal_r+0x1834>
   83468:	00801944 	movi	r2,101
   8346c:	e0808626 	beq	fp,r2,83688 <___vfprintf_internal_r+0x1a40>
   83470:	00801144 	movi	r2,69
   83474:	e0808426 	beq	fp,r2,83688 <___vfprintf_internal_r+0x1a40>
   83478:	01c00084 	movi	r7,2
   8347c:	8800e316 	blt	r17,zero,8380c <___vfprintf_internal_r+0x1bc4>
   83480:	30000005 	stb	zero,0(r6)
   83484:	d9019d17 	ldw	r4,1652(sp)
   83488:	d8819704 	addi	r2,sp,1628
   8348c:	d8800215 	stw	r2,8(sp)
   83490:	d8c19804 	addi	r3,sp,1632
   83494:	d8819504 	addi	r2,sp,1620
   83498:	800b883a 	mov	r5,r16
   8349c:	880d883a 	mov	r6,r17
   834a0:	d8c00315 	stw	r3,12(sp)
   834a4:	ddc00015 	stw	r23,0(sp)
   834a8:	d8800115 	stw	r2,4(sp)
   834ac:	00842bc0 	call	842bc <_dtoa_r>
   834b0:	102b883a 	mov	r21,r2
   834b4:	008019c4 	movi	r2,103
   834b8:	e0808d26 	beq	fp,r2,836f0 <___vfprintf_internal_r+0x1aa8>
   834bc:	008011c4 	movi	r2,71
   834c0:	e0808b26 	beq	fp,r2,836f0 <___vfprintf_internal_r+0x1aa8>
   834c4:	00801984 	movi	r2,102
   834c8:	ade7883a 	add	r19,r21,r23
   834cc:	e080be26 	beq	fp,r2,837c8 <___vfprintf_internal_r+0x1b80>
   834d0:	000d883a 	mov	r6,zero
   834d4:	000f883a 	mov	r7,zero
   834d8:	880b883a 	mov	r5,r17
   834dc:	8009883a 	mov	r4,r16
   834e0:	0089f700 	call	89f70 <__eqdf2>
   834e4:	1000a21e 	bne	r2,zero,83770 <___vfprintf_internal_r+0x1b28>
   834e8:	9805883a 	mov	r2,r19
   834ec:	dcc19815 	stw	r19,1632(sp)
   834f0:	14c0052e 	bgeu	r2,r19,83508 <___vfprintf_internal_r+0x18c0>
   834f4:	00c00c04 	movi	r3,48
   834f8:	10c00005 	stb	r3,0(r2)
   834fc:	10800044 	addi	r2,r2,1
   83500:	d8819815 	stw	r2,1632(sp)
   83504:	14fffc36 	bltu	r2,r19,834f8 <___vfprintf_internal_r+0x18b0>
   83508:	1545c83a 	sub	r2,r2,r21
   8350c:	00c019c4 	movi	r3,103
   83510:	d8819615 	stw	r2,1624(sp)
   83514:	a827883a 	mov	r19,r21
   83518:	e0c06c26 	beq	fp,r3,836cc <___vfprintf_internal_r+0x1a84>
   8351c:	008011c4 	movi	r2,71
   83520:	e0806a26 	beq	fp,r2,836cc <___vfprintf_internal_r+0x1a84>
   83524:	d9819517 	ldw	r6,1620(sp)
   83528:	00801944 	movi	r2,101
   8352c:	17005916 	blt	r2,fp,83694 <___vfprintf_internal_r+0x1a4c>
   83530:	31bfffc4 	addi	r6,r6,-1
   83534:	d9819515 	stw	r6,1620(sp)
   83538:	df000405 	stb	fp,16(sp)
   8353c:	3023883a 	mov	r17,r6
   83540:	dd000444 	addi	r20,sp,17
   83544:	3000cb16 	blt	r6,zero,83874 <___vfprintf_internal_r+0x1c2c>
   83548:	00800ac4 	movi	r2,43
   8354c:	a0800005 	stb	r2,0(r20)
   83550:	d9000404 	addi	r4,sp,16
   83554:	00800244 	movi	r2,9
   83558:	dd000484 	addi	r20,sp,18
   8355c:	24018e04 	addi	r16,r4,1592
   83560:	1440680e 	bge	r2,r17,83704 <___vfprintf_internal_r+0x1abc>
   83564:	102b883a 	mov	r21,r2
   83568:	8809883a 	mov	r4,r17
   8356c:	01400284 	movi	r5,10
   83570:	0081a800 	call	81a80 <__modsi3>
   83574:	10800c04 	addi	r2,r2,48
   83578:	843fffc4 	addi	r16,r16,-1
   8357c:	8809883a 	mov	r4,r17
   83580:	01400284 	movi	r5,10
   83584:	80800005 	stb	r2,0(r16)
   83588:	0081a300 	call	81a30 <__divsi3>
   8358c:	1023883a 	mov	r17,r2
   83590:	a8bff516 	blt	r21,r2,83568 <___vfprintf_internal_r+0x1920>
   83594:	843fffc4 	addi	r16,r16,-1
   83598:	10800c04 	addi	r2,r2,48
   8359c:	d9c00404 	addi	r7,sp,16
   835a0:	39418e04 	addi	r5,r7,1592
   835a4:	80800005 	stb	r2,0(r16)
   835a8:	81405c2e 	bgeu	r16,r5,8371c <___vfprintf_internal_r+0x1ad4>
   835ac:	80800003 	ldbu	r2,0(r16)
   835b0:	84000044 	addi	r16,r16,1
   835b4:	a0800005 	stb	r2,0(r20)
   835b8:	a5000044 	addi	r20,r20,1
   835bc:	003ffa06 	br	835a8 <___vfprintf_internal_r+0x1960>
   835c0:	d9019e17 	ldw	r4,1656(sp)
   835c4:	d9c00404 	addi	r7,sp,16
   835c8:	39400204 	addi	r5,r7,8
   835cc:	0081bf00 	call	81bf0 <__sprint>
   835d0:	103d5c1e 	bne	r2,zero,82b44 <___vfprintf_internal_r+0xefc>
   835d4:	d8800404 	addi	r2,sp,16
   835d8:	14800504 	addi	r18,r2,20
   835dc:	003e0506 	br	82df4 <___vfprintf_internal_r+0x11ac>
   835e0:	d8819f17 	ldw	r2,1660(sp)
   835e4:	d9c1a117 	ldw	r7,1668(sp)
   835e8:	10c00017 	ldw	r3,0(r2)
   835ec:	11400104 	addi	r5,r2,4
   835f0:	d9419f15 	stw	r5,1660(sp)
   835f4:	19c00015 	stw	r7,0(r3)
   835f8:	0039ba06 	br	81ce4 <___vfprintf_internal_r+0x9c>
   835fc:	d9019e17 	ldw	r4,1656(sp)
   83600:	d8c00404 	addi	r3,sp,16
   83604:	19400204 	addi	r5,r3,8
   83608:	0081bf00 	call	81bf0 <__sprint>
   8360c:	103d4d1e 	bne	r2,zero,82b44 <___vfprintf_internal_r+0xefc>
   83610:	d9819517 	ldw	r6,1620(sp)
   83614:	d9000404 	addi	r4,sp,16
   83618:	24800504 	addi	r18,r4,20
   8361c:	003f0a06 	br	83248 <___vfprintf_internal_r+0x1600>
   83620:	d8800817 	ldw	r2,32(sp)
   83624:	d8c00717 	ldw	r3,28(sp)
   83628:	01000274 	movhi	r4,9
   8362c:	211a8904 	addi	r4,r4,27172
   83630:	1405883a 	add	r2,r2,r16
   83634:	18c00044 	addi	r3,r3,1
   83638:	d8800815 	stw	r2,32(sp)
   8363c:	008001c4 	movi	r2,7
   83640:	91000015 	stw	r4,0(r18)
   83644:	94000115 	stw	r16,4(r18)
   83648:	d8c00715 	stw	r3,28(sp)
   8364c:	94800204 	addi	r18,r18,8
   83650:	10c04916 	blt	r2,r3,83778 <___vfprintf_internal_r+0x1b30>
   83654:	d9019617 	ldw	r4,1624(sp)
   83658:	d8800817 	ldw	r2,32(sp)
   8365c:	d8c00717 	ldw	r3,28(sp)
   83660:	94c00015 	stw	r19,0(r18)
   83664:	1105883a 	add	r2,r2,r4
   83668:	18c00044 	addi	r3,r3,1
   8366c:	d8800815 	stw	r2,32(sp)
   83670:	008001c4 	movi	r2,7
   83674:	91000115 	stw	r4,4(r18)
   83678:	d8c00715 	stw	r3,28(sp)
   8367c:	94800204 	addi	r18,r18,8
   83680:	10fac80e 	bge	r2,r3,821a4 <___vfprintf_internal_r+0x55c>
   83684:	003e8606 	br	830a0 <___vfprintf_internal_r+0x1458>
   83688:	a5c00044 	addi	r23,r20,1
   8368c:	01c00084 	movi	r7,2
   83690:	003f7a06 	br	8347c <___vfprintf_internal_r+0x1834>
   83694:	00801984 	movi	r2,102
   83698:	e0806d26 	beq	fp,r2,83850 <___vfprintf_internal_r+0x1c08>
   8369c:	d8819617 	ldw	r2,1624(sp)
   836a0:	30806416 	blt	r6,r2,83834 <___vfprintf_internal_r+0x1bec>
   836a4:	d9c1a017 	ldw	r7,1664(sp)
   836a8:	302f883a 	mov	r23,r6
   836ac:	3880004c 	andi	r2,r7,1
   836b0:	10000126 	beq	r2,zero,836b8 <___vfprintf_internal_r+0x1a70>
   836b4:	35c00044 	addi	r23,r6,1
   836b8:	d8819407 	ldb	r2,1616(sp)
   836bc:	103a2926 	beq	r2,zero,81f64 <___vfprintf_internal_r+0x31c>
   836c0:	00800b44 	movi	r2,45
   836c4:	d8819c05 	stb	r2,1648(sp)
   836c8:	003a2606 	br	81f64 <___vfprintf_internal_r+0x31c>
   836cc:	d9819517 	ldw	r6,1620(sp)
   836d0:	00bfff04 	movi	r2,-4
   836d4:	1180010e 	bge	r2,r6,836dc <___vfprintf_internal_r+0x1a94>
   836d8:	a1805b0e 	bge	r20,r6,83848 <___vfprintf_internal_r+0x1c00>
   836dc:	00801944 	movi	r2,101
   836e0:	e0c00126 	beq	fp,r3,836e8 <___vfprintf_internal_r+0x1aa0>
   836e4:	00801144 	movi	r2,69
   836e8:	1039883a 	mov	fp,r2
   836ec:	003f8e06 	br	83528 <___vfprintf_internal_r+0x18e0>
   836f0:	d8c1a017 	ldw	r3,1664(sp)
   836f4:	1880004c 	andi	r2,r3,1
   836f8:	103f721e 	bne	r2,zero,834c4 <___vfprintf_internal_r+0x187c>
   836fc:	d8819817 	ldw	r2,1632(sp)
   83700:	003f8106 	br	83508 <___vfprintf_internal_r+0x18c0>
   83704:	00800c04 	movi	r2,48
   83708:	a0800005 	stb	r2,0(r20)
   8370c:	88c00c04 	addi	r3,r17,48
   83710:	a5000044 	addi	r20,r20,1
   83714:	a0c00005 	stb	r3,0(r20)
   83718:	a5000044 	addi	r20,r20,1
   8371c:	d8c19617 	ldw	r3,1624(sp)
   83720:	d8800404 	addi	r2,sp,16
   83724:	a085c83a 	sub	r2,r20,r2
   83728:	d881a615 	stw	r2,1688(sp)
   8372c:	10ef883a 	add	r23,r2,r3
   83730:	00800044 	movi	r2,1
   83734:	10c00316 	blt	r2,r3,83744 <___vfprintf_internal_r+0x1afc>
   83738:	d8c1a017 	ldw	r3,1664(sp)
   8373c:	1884703a 	and	r2,r3,r2
   83740:	103fdd26 	beq	r2,zero,836b8 <___vfprintf_internal_r+0x1a70>
   83744:	bdc00044 	addi	r23,r23,1
   83748:	003fdb06 	br	836b8 <___vfprintf_internal_r+0x1a70>
   8374c:	d9019e17 	ldw	r4,1656(sp)
   83750:	d9c00404 	addi	r7,sp,16
   83754:	39400204 	addi	r5,r7,8
   83758:	0081bf00 	call	81bf0 <__sprint>
   8375c:	103cf91e 	bne	r2,zero,82b44 <___vfprintf_internal_r+0xefc>
   83760:	d9819517 	ldw	r6,1620(sp)
   83764:	d8800404 	addi	r2,sp,16
   83768:	14800504 	addi	r18,r2,20
   8376c:	003ec406 	br	83280 <___vfprintf_internal_r+0x1638>
   83770:	d8819817 	ldw	r2,1632(sp)
   83774:	003f5e06 	br	834f0 <___vfprintf_internal_r+0x18a8>
   83778:	d9019e17 	ldw	r4,1656(sp)
   8377c:	d9c00404 	addi	r7,sp,16
   83780:	39400204 	addi	r5,r7,8
   83784:	0081bf00 	call	81bf0 <__sprint>
   83788:	103cee1e 	bne	r2,zero,82b44 <___vfprintf_internal_r+0xefc>
   8378c:	d8800404 	addi	r2,sp,16
   83790:	14800504 	addi	r18,r2,20
   83794:	003faf06 	br	83654 <___vfprintf_internal_r+0x1a0c>
   83798:	d9019d17 	ldw	r4,1652(sp)
   8379c:	d8819904 	addi	r2,sp,1636
   837a0:	000b883a 	mov	r5,zero
   837a4:	d9819b04 	addi	r6,sp,1644
   837a8:	000f883a 	mov	r7,zero
   837ac:	d8800015 	stw	r2,0(sp)
   837b0:	00839b40 	call	839b4 <_wcsrtombs_r>
   837b4:	102f883a 	mov	r23,r2
   837b8:	00bfffc4 	movi	r2,-1
   837bc:	b8bce126 	beq	r23,r2,82b44 <___vfprintf_internal_r+0xefc>
   837c0:	dcc19b15 	stw	r19,1644(sp)
   837c4:	003b3f06 	br	824c4 <___vfprintf_internal_r+0x87c>
   837c8:	a8c00007 	ldb	r3,0(r21)
   837cc:	00800c04 	movi	r2,48
   837d0:	18800326 	beq	r3,r2,837e0 <___vfprintf_internal_r+0x1b98>
   837d4:	d8819517 	ldw	r2,1620(sp)
   837d8:	98a7883a 	add	r19,r19,r2
   837dc:	003f3c06 	br	834d0 <___vfprintf_internal_r+0x1888>
   837e0:	000d883a 	mov	r6,zero
   837e4:	000f883a 	mov	r7,zero
   837e8:	8009883a 	mov	r4,r16
   837ec:	880b883a 	mov	r5,r17
   837f0:	0089ffc0 	call	89ffc <__nedf2>
   837f4:	103ff726 	beq	r2,zero,837d4 <___vfprintf_internal_r+0x1b8c>
   837f8:	00800044 	movi	r2,1
   837fc:	15c5c83a 	sub	r2,r2,r23
   83800:	98a7883a 	add	r19,r19,r2
   83804:	d8819515 	stw	r2,1620(sp)
   83808:	003f3106 	br	834d0 <___vfprintf_internal_r+0x1888>
   8380c:	0005883a 	mov	r2,zero
   83810:	00e00034 	movhi	r3,32768
   83814:	18c00004 	addi	r3,r3,0
   83818:	1408f03a 	xor	r4,r2,r16
   8381c:	88caf03a 	xor	r5,r17,r3
   83820:	00800b44 	movi	r2,45
   83824:	2021883a 	mov	r16,r4
   83828:	2823883a 	mov	r17,r5
   8382c:	30800005 	stb	r2,0(r6)
   83830:	003f1406 	br	83484 <___vfprintf_internal_r+0x183c>
   83834:	15c00044 	addi	r23,r2,1
   83838:	01bf9f16 	blt	zero,r6,836b8 <___vfprintf_internal_r+0x1a70>
   8383c:	1185c83a 	sub	r2,r2,r6
   83840:	15c00084 	addi	r23,r2,2
   83844:	003f9c06 	br	836b8 <___vfprintf_internal_r+0x1a70>
   83848:	1839883a 	mov	fp,r3
   8384c:	003f3606 	br	83528 <___vfprintf_internal_r+0x18e0>
   83850:	01800c0e 	bge	zero,r6,83884 <___vfprintf_internal_r+0x1c3c>
   83854:	302f883a 	mov	r23,r6
   83858:	a000031e 	bne	r20,zero,83868 <___vfprintf_internal_r+0x1c20>
   8385c:	d901a017 	ldw	r4,1664(sp)
   83860:	2080004c 	andi	r2,r4,1
   83864:	103f9426 	beq	r2,zero,836b8 <___vfprintf_internal_r+0x1a70>
   83868:	a185883a 	add	r2,r20,r6
   8386c:	15c00044 	addi	r23,r2,1
   83870:	003f9106 	br	836b8 <___vfprintf_internal_r+0x1a70>
   83874:	00800b44 	movi	r2,45
   83878:	01a3c83a 	sub	r17,zero,r6
   8387c:	a0800005 	stb	r2,0(r20)
   83880:	003f3306 	br	83550 <___vfprintf_internal_r+0x1908>
   83884:	a000041e 	bne	r20,zero,83898 <___vfprintf_internal_r+0x1c50>
   83888:	d941a017 	ldw	r5,1664(sp)
   8388c:	05c00044 	movi	r23,1
   83890:	2880004c 	andi	r2,r5,1
   83894:	103f8826 	beq	r2,zero,836b8 <___vfprintf_internal_r+0x1a70>
   83898:	a5c00084 	addi	r23,r20,2
   8389c:	003f8606 	br	836b8 <___vfprintf_internal_r+0x1a70>
   838a0:	d8819f17 	ldw	r2,1660(sp)
   838a4:	15000017 	ldw	r20,0(r2)
   838a8:	10c00104 	addi	r3,r2,4
   838ac:	d8c19f15 	stw	r3,1660(sp)
   838b0:	a03bde0e 	bge	r20,zero,8282c <___vfprintf_internal_r+0xbe4>
   838b4:	b1000003 	ldbu	r4,0(r22)
   838b8:	053fffc4 	movi	r20,-1
   838bc:	00393306 	br	81d8c <___vfprintf_internal_r+0x144>

000838c0 <__vfprintf_internal>:
   838c0:	d0e00117 	ldw	r3,-32764(gp)
   838c4:	defffc04 	addi	sp,sp,-16
   838c8:	dc000215 	stw	r16,8(sp)
   838cc:	dc400115 	stw	r17,4(sp)
   838d0:	dc800015 	stw	r18,0(sp)
   838d4:	dfc00315 	stw	ra,12(sp)
   838d8:	18800e17 	ldw	r2,56(r3)
   838dc:	2023883a 	mov	r17,r4
   838e0:	2825883a 	mov	r18,r5
   838e4:	1809883a 	mov	r4,r3
   838e8:	3021883a 	mov	r16,r6
   838ec:	10000c26 	beq	r2,zero,83920 <__vfprintf_internal+0x60>
   838f0:	1809883a 	mov	r4,r3
   838f4:	880b883a 	mov	r5,r17
   838f8:	900d883a 	mov	r6,r18
   838fc:	800f883a 	mov	r7,r16
   83900:	02000234 	movhi	r8,8
   83904:	42071204 	addi	r8,r8,7240
   83908:	dfc00317 	ldw	ra,12(sp)
   8390c:	dc000217 	ldw	r16,8(sp)
   83910:	dc400117 	ldw	r17,4(sp)
   83914:	dc800017 	ldw	r18,0(sp)
   83918:	dec00404 	addi	sp,sp,16
   8391c:	4000683a 	jmp	r8
   83920:	008580c0 	call	8580c <__sinit>
   83924:	d0e00117 	ldw	r3,-32764(gp)
   83928:	003ff106 	br	838f0 <__vfprintf_internal+0x30>

0008392c <_wcrtomb_r>:
   8392c:	defffa04 	addi	sp,sp,-24
   83930:	dc000415 	stw	r16,16(sp)
   83934:	dc400315 	stw	r17,12(sp)
   83938:	dfc00515 	stw	ra,20(sp)
   8393c:	2023883a 	mov	r17,r4
   83940:	3821883a 	mov	r16,r7
   83944:	28000b26 	beq	r5,zero,83974 <_wcrtomb_r+0x48>
   83948:	0083b300 	call	83b30 <_wctomb_r>
   8394c:	1007883a 	mov	r3,r2
   83950:	1009883a 	mov	r4,r2
   83954:	00bfffc4 	movi	r2,-1
   83958:	18800926 	beq	r3,r2,83980 <_wcrtomb_r+0x54>
   8395c:	2005883a 	mov	r2,r4
   83960:	dfc00517 	ldw	ra,20(sp)
   83964:	dc000417 	ldw	r16,16(sp)
   83968:	dc400317 	ldw	r17,12(sp)
   8396c:	dec00604 	addi	sp,sp,24
   83970:	f800283a 	ret
   83974:	d80b883a 	mov	r5,sp
   83978:	000d883a 	mov	r6,zero
   8397c:	003ff206 	br	83948 <_wcrtomb_r+0x1c>
   83980:	80000015 	stw	zero,0(r16)
   83984:	00802284 	movi	r2,138
   83988:	88800015 	stw	r2,0(r17)
   8398c:	003ff306 	br	8395c <_wcrtomb_r+0x30>

00083990 <wcrtomb>:
   83990:	2013883a 	mov	r9,r4
   83994:	d1200117 	ldw	r4,-32764(gp)
   83998:	2807883a 	mov	r3,r5
   8399c:	300f883a 	mov	r7,r6
   839a0:	480b883a 	mov	r5,r9
   839a4:	180d883a 	mov	r6,r3
   839a8:	02000234 	movhi	r8,8
   839ac:	420e4b04 	addi	r8,r8,14636
   839b0:	4000683a 	jmp	r8

000839b4 <_wcsrtombs_r>:
   839b4:	defff204 	addi	sp,sp,-56
   839b8:	dc000b15 	stw	r16,44(sp)
   839bc:	dc800915 	stw	r18,36(sp)
   839c0:	dd000715 	stw	r20,28(sp)
   839c4:	ddc00415 	stw	r23,16(sp)
   839c8:	dfc00d15 	stw	ra,52(sp)
   839cc:	df000c15 	stw	fp,48(sp)
   839d0:	dc400a15 	stw	r17,40(sp)
   839d4:	dcc00815 	stw	r19,32(sp)
   839d8:	dd400615 	stw	r21,24(sp)
   839dc:	dd800515 	stw	r22,20(sp)
   839e0:	2821883a 	mov	r16,r5
   839e4:	d9000315 	stw	r4,12(sp)
   839e8:	302f883a 	mov	r23,r6
   839ec:	3825883a 	mov	r18,r7
   839f0:	dd000e17 	ldw	r20,56(sp)
   839f4:	28002f26 	beq	r5,zero,83ab4 <_wcsrtombs_r+0x100>
   839f8:	002b883a 	mov	r21,zero
   839fc:	bc400017 	ldw	r17,0(r23)
   83a00:	04801f2e 	bgeu	zero,r18,83a80 <_wcsrtombs_r+0xcc>
   83a04:	8039003a 	cmpeq	fp,r16,zero
   83a08:	89800017 	ldw	r6,0(r17)
   83a0c:	d9000317 	ldw	r4,12(sp)
   83a10:	d80b883a 	mov	r5,sp
   83a14:	a00f883a 	mov	r7,r20
   83a18:	a5800017 	ldw	r22,0(r20)
   83a1c:	a4c00117 	ldw	r19,4(r20)
   83a20:	008392c0 	call	8392c <_wcrtomb_r>
   83a24:	100b883a 	mov	r5,r2
   83a28:	00bfffc4 	movi	r2,-1
   83a2c:	28802626 	beq	r5,r2,83ac8 <_wcsrtombs_r+0x114>
   83a30:	9145c83a 	sub	r2,r18,r5
   83a34:	15402136 	bltu	r2,r21,83abc <_wcsrtombs_r+0x108>
   83a38:	2c80202e 	bgeu	r5,r18,83abc <_wcsrtombs_r+0x108>
   83a3c:	a96b883a 	add	r21,r21,r5
   83a40:	e0000b1e 	bne	fp,zero,83a70 <_wcsrtombs_r+0xbc>
   83a44:	0009883a 	mov	r4,zero
   83a48:	0140060e 	bge	zero,r5,83a64 <_wcsrtombs_r+0xb0>
   83a4c:	d905883a 	add	r2,sp,r4
   83a50:	10c00003 	ldbu	r3,0(r2)
   83a54:	21000044 	addi	r4,r4,1
   83a58:	80c00005 	stb	r3,0(r16)
   83a5c:	84000044 	addi	r16,r16,1
   83a60:	217ffa16 	blt	r4,r5,83a4c <_wcsrtombs_r+0x98>
   83a64:	b8800017 	ldw	r2,0(r23)
   83a68:	10800104 	addi	r2,r2,4
   83a6c:	b8800015 	stw	r2,0(r23)
   83a70:	88800017 	ldw	r2,0(r17)
   83a74:	8c400104 	addi	r17,r17,4
   83a78:	10001926 	beq	r2,zero,83ae0 <_wcsrtombs_r+0x12c>
   83a7c:	acbfe236 	bltu	r21,r18,83a08 <_wcsrtombs_r+0x54>
   83a80:	a805883a 	mov	r2,r21
   83a84:	dfc00d17 	ldw	ra,52(sp)
   83a88:	df000c17 	ldw	fp,48(sp)
   83a8c:	dc000b17 	ldw	r16,44(sp)
   83a90:	dc400a17 	ldw	r17,40(sp)
   83a94:	dc800917 	ldw	r18,36(sp)
   83a98:	dcc00817 	ldw	r19,32(sp)
   83a9c:	dd000717 	ldw	r20,28(sp)
   83aa0:	dd400617 	ldw	r21,24(sp)
   83aa4:	dd800517 	ldw	r22,20(sp)
   83aa8:	ddc00417 	ldw	r23,16(sp)
   83aac:	dec00e04 	addi	sp,sp,56
   83ab0:	f800283a 	ret
   83ab4:	04bfffc4 	movi	r18,-1
   83ab8:	003fcf06 	br	839f8 <_wcsrtombs_r+0x44>
   83abc:	a4c00115 	stw	r19,4(r20)
   83ac0:	a5800015 	stw	r22,0(r20)
   83ac4:	003fee06 	br	83a80 <_wcsrtombs_r+0xcc>
   83ac8:	d8c00317 	ldw	r3,12(sp)
   83acc:	00802284 	movi	r2,138
   83ad0:	18800015 	stw	r2,0(r3)
   83ad4:	2805883a 	mov	r2,r5
   83ad8:	a0000015 	stw	zero,0(r20)
   83adc:	003fe906 	br	83a84 <_wcsrtombs_r+0xd0>
   83ae0:	e000011e 	bne	fp,zero,83ae8 <_wcsrtombs_r+0x134>
   83ae4:	b8000015 	stw	zero,0(r23)
   83ae8:	a8bfffc4 	addi	r2,r21,-1
   83aec:	a0000015 	stw	zero,0(r20)
   83af0:	003fe406 	br	83a84 <_wcsrtombs_r+0xd0>

00083af4 <wcsrtombs>:
   83af4:	d0e00117 	ldw	r3,-32764(gp)
   83af8:	defffe04 	addi	sp,sp,-8
   83afc:	2013883a 	mov	r9,r4
   83b00:	2817883a 	mov	r11,r5
   83b04:	301b883a 	mov	r13,r6
   83b08:	d9c00015 	stw	r7,0(sp)
   83b0c:	1809883a 	mov	r4,r3
   83b10:	480b883a 	mov	r5,r9
   83b14:	580d883a 	mov	r6,r11
   83b18:	680f883a 	mov	r7,r13
   83b1c:	dfc00115 	stw	ra,4(sp)
   83b20:	00839b40 	call	839b4 <_wcsrtombs_r>
   83b24:	dfc00117 	ldw	ra,4(sp)
   83b28:	dec00204 	addi	sp,sp,8
   83b2c:	f800283a 	ret

00083b30 <_wctomb_r>:
   83b30:	defffb04 	addi	sp,sp,-20
   83b34:	01000274 	movhi	r4,9
   83b38:	211ce604 	addi	r4,r4,29592
   83b3c:	dc000315 	stw	r16,12(sp)
   83b40:	dc400215 	stw	r17,8(sp)
   83b44:	dc800115 	stw	r18,4(sp)
   83b48:	dcc00015 	stw	r19,0(sp)
   83b4c:	2821883a 	mov	r16,r5
   83b50:	dfc00415 	stw	ra,16(sp)
   83b54:	3023883a 	mov	r17,r6
   83b58:	3827883a 	mov	r19,r7
   83b5c:	04800044 	movi	r18,1
   83b60:	00884ac0 	call	884ac <strlen>
   83b64:	8006c03a 	cmpne	r3,r16,zero
   83b68:	90800c36 	bltu	r18,r2,83b9c <_wctomb_r+0x6c>
   83b6c:	0011883a 	mov	r8,zero
   83b70:	18000226 	beq	r3,zero,83b7c <_wctomb_r+0x4c>
   83b74:	84400005 	stb	r17,0(r16)
   83b78:	02000044 	movi	r8,1
   83b7c:	4005883a 	mov	r2,r8
   83b80:	dfc00417 	ldw	ra,16(sp)
   83b84:	dc000317 	ldw	r16,12(sp)
   83b88:	dc400217 	ldw	r17,8(sp)
   83b8c:	dc800117 	ldw	r18,4(sp)
   83b90:	dcc00017 	ldw	r19,0(sp)
   83b94:	dec00504 	addi	sp,sp,20
   83b98:	f800283a 	ret
   83b9c:	01000274 	movhi	r4,9
   83ba0:	211ce604 	addi	r4,r4,29592
   83ba4:	01400274 	movhi	r5,9
   83ba8:	295afd04 	addi	r5,r5,27636
   83bac:	00883f40 	call	883f4 <strcmp>
   83bb0:	10003a1e 	bne	r2,zero,83c9c <_wctomb_r+0x16c>
   83bb4:	0011883a 	mov	r8,zero
   83bb8:	803ff026 	beq	r16,zero,83b7c <_wctomb_r+0x4c>
   83bbc:	00801fc4 	movi	r2,127
   83bc0:	9011883a 	mov	r8,r18
   83bc4:	1440630e 	bge	r2,r17,83d54 <_wctomb_r+0x224>
   83bc8:	88ffe004 	addi	r3,r17,-128
   83bcc:	0081dfc4 	movi	r2,1919
   83bd0:	027fe004 	movi	r9,-128
   83bd4:	10c0b42e 	bgeu	r2,r3,83ea8 <_wctomb_r+0x378>
   83bd8:	88fe0004 	addi	r3,r17,-2048
   83bdc:	00bdffd4 	movui	r2,63487
   83be0:	10c05e2e 	bgeu	r2,r3,83d5c <_wctomb_r+0x22c>
   83be4:	00bffff4 	movhi	r2,65535
   83be8:	10800004 	addi	r2,r2,0
   83bec:	8885883a 	add	r2,r17,r2
   83bf0:	00c007f4 	movhi	r3,31
   83bf4:	18ffffc4 	addi	r3,r3,-1
   83bf8:	1880b52e 	bgeu	r3,r2,83ed0 <_wctomb_r+0x3a0>
   83bfc:	00bff834 	movhi	r2,65504
   83c00:	10800004 	addi	r2,r2,0
   83c04:	8885883a 	add	r2,r17,r2
   83c08:	00c0f834 	movhi	r3,992
   83c0c:	18ffffc4 	addi	r3,r3,-1
   83c10:	1880c32e 	bgeu	r3,r2,83f20 <_wctomb_r+0x3f0>
   83c14:	00810034 	movhi	r2,1024
   83c18:	10bfffc4 	addi	r2,r2,-1
   83c1c:	023fffc4 	movi	r8,-1
   83c20:	147fd60e 	bge	r2,r17,83b7c <_wctomb_r+0x4c>
   83c24:	88d0002c 	andhi	r3,r17,16384
   83c28:	1807d7ba 	srai	r3,r3,30
   83c2c:	890fc02c 	andhi	r4,r17,16128
   83c30:	2009d63a 	srai	r4,r4,24
   83c34:	89403f2c 	andhi	r5,r17,252
   83c38:	00bfff04 	movi	r2,-4
   83c3c:	280bd4ba 	srai	r5,r5,18
   83c40:	880cd33a 	srli	r6,r17,12
   83c44:	1886b03a 	or	r3,r3,r2
   83c48:	89c3f00c 	andi	r7,r17,4032
   83c4c:	80c00005 	stb	r3,0(r16)
   83c50:	2248b03a 	or	r4,r4,r9
   83c54:	84000044 	addi	r16,r16,1
   83c58:	380fd1ba 	srai	r7,r7,6
   83c5c:	81000005 	stb	r4,0(r16)
   83c60:	2a4ab03a 	or	r5,r5,r9
   83c64:	84000044 	addi	r16,r16,1
   83c68:	31800fcc 	andi	r6,r6,63
   83c6c:	81400005 	stb	r5,0(r16)
   83c70:	324cb03a 	or	r6,r6,r9
   83c74:	84000044 	addi	r16,r16,1
   83c78:	88800fcc 	andi	r2,r17,63
   83c7c:	81800005 	stb	r6,0(r16)
   83c80:	1244b03a 	or	r2,r2,r9
   83c84:	84000044 	addi	r16,r16,1
   83c88:	3a4eb03a 	or	r7,r7,r9
   83c8c:	02000184 	movi	r8,6
   83c90:	80800045 	stb	r2,1(r16)
   83c94:	81c00005 	stb	r7,0(r16)
   83c98:	003fb806 	br	83b7c <_wctomb_r+0x4c>
   83c9c:	01000274 	movhi	r4,9
   83ca0:	211ce604 	addi	r4,r4,29592
   83ca4:	01400274 	movhi	r5,9
   83ca8:	295aff04 	addi	r5,r5,27644
   83cac:	00883f40 	call	883f4 <strcmp>
   83cb0:	10003f1e 	bne	r2,zero,83db0 <_wctomb_r+0x280>
   83cb4:	8006c03a 	cmpne	r3,r16,zero
   83cb8:	8809d23a 	srai	r4,r17,8
   83cbc:	0011883a 	mov	r8,zero
   83cc0:	183fae26 	beq	r3,zero,83b7c <_wctomb_r+0x4c>
   83cc4:	20803fcc 	andi	r2,r4,255
   83cc8:	103fa826 	beq	r2,zero,83b6c <_wctomb_r+0x3c>
   83ccc:	20801fc4 	addi	r2,r4,127
   83cd0:	10803fcc 	andi	r2,r2,255
   83cd4:	00c00784 	movi	r3,30
   83cd8:	1880042e 	bgeu	r3,r2,83cec <_wctomb_r+0x1bc>
   83cdc:	20800804 	addi	r2,r4,32
   83ce0:	10803fcc 	andi	r2,r2,255
   83ce4:	00c003c4 	movi	r3,15
   83ce8:	18804436 	bltu	r3,r2,83dfc <_wctomb_r+0x2cc>
   83cec:	88bff004 	addi	r2,r17,-64
   83cf0:	10803fcc 	andi	r2,r2,255
   83cf4:	00c00f84 	movi	r3,62
   83cf8:	1880042e 	bgeu	r3,r2,83d0c <_wctomb_r+0x1dc>
   83cfc:	88bfe004 	addi	r2,r17,-128
   83d00:	10803fcc 	andi	r2,r2,255
   83d04:	00c01f04 	movi	r3,124
   83d08:	18803c36 	bltu	r3,r2,83dfc <_wctomb_r+0x2cc>
   83d0c:	02000084 	movi	r8,2
   83d10:	84400045 	stb	r17,1(r16)
   83d14:	81000005 	stb	r4,0(r16)
   83d18:	003f9806 	br	83b7c <_wctomb_r+0x4c>
   83d1c:	98800017 	ldw	r2,0(r19)
   83d20:	10000b26 	beq	r2,zero,83d50 <_wctomb_r+0x220>
   83d24:	98000015 	stw	zero,0(r19)
   83d28:	008006c4 	movi	r2,27
   83d2c:	80800005 	stb	r2,0(r16)
   83d30:	84000044 	addi	r16,r16,1
   83d34:	00800a04 	movi	r2,40
   83d38:	80800005 	stb	r2,0(r16)
   83d3c:	84000044 	addi	r16,r16,1
   83d40:	00801084 	movi	r2,66
   83d44:	80800005 	stb	r2,0(r16)
   83d48:	010000c4 	movi	r4,3
   83d4c:	84000044 	addi	r16,r16,1
   83d50:	22000044 	addi	r8,r4,1
   83d54:	84400005 	stb	r17,0(r16)
   83d58:	003f8806 	br	83b7c <_wctomb_r+0x4c>
   83d5c:	00bffff4 	movhi	r2,65535
   83d60:	108a0004 	addi	r2,r2,10240
   83d64:	8885883a 	add	r2,r17,r2
   83d68:	00c1ffc4 	movi	r3,2047
   83d6c:	023fffc4 	movi	r8,-1
   83d70:	18bf822e 	bgeu	r3,r2,83b7c <_wctomb_r+0x4c>
   83d74:	88fc000c 	andi	r3,r17,61440
   83d78:	1807d33a 	srai	r3,r3,12
   83d7c:	8943f00c 	andi	r5,r17,4032
   83d80:	280bd1ba 	srai	r5,r5,6
   83d84:	00bff804 	movi	r2,-32
   83d88:	1886b03a 	or	r3,r3,r2
   83d8c:	89000fcc 	andi	r4,r17,63
   83d90:	80c00005 	stb	r3,0(r16)
   83d94:	2248b03a 	or	r4,r4,r9
   83d98:	84000044 	addi	r16,r16,1
   83d9c:	2a4ab03a 	or	r5,r5,r9
   83da0:	020000c4 	movi	r8,3
   83da4:	81000045 	stb	r4,1(r16)
   83da8:	81400005 	stb	r5,0(r16)
   83dac:	003f7306 	br	83b7c <_wctomb_r+0x4c>
   83db0:	01000274 	movhi	r4,9
   83db4:	211ce604 	addi	r4,r4,29592
   83db8:	01400274 	movhi	r5,9
   83dbc:	295b0104 	addi	r5,r5,27652
   83dc0:	00883f40 	call	883f4 <strcmp>
   83dc4:	1000131e 	bne	r2,zero,83e14 <_wctomb_r+0x2e4>
   83dc8:	8006c03a 	cmpne	r3,r16,zero
   83dcc:	880bd23a 	srai	r5,r17,8
   83dd0:	0011883a 	mov	r8,zero
   83dd4:	183f6926 	beq	r3,zero,83b7c <_wctomb_r+0x4c>
   83dd8:	28803fcc 	andi	r2,r5,255
   83ddc:	103f6326 	beq	r2,zero,83b6c <_wctomb_r+0x3c>
   83de0:	01802804 	movi	r6,160
   83de4:	3080052e 	bgeu	r6,r2,83dfc <_wctomb_r+0x2cc>
   83de8:	00c03fc4 	movi	r3,255
   83dec:	10c00326 	beq	r2,r3,83dfc <_wctomb_r+0x2cc>
   83df0:	88803fcc 	andi	r2,r17,255
   83df4:	3080012e 	bgeu	r6,r2,83dfc <_wctomb_r+0x2cc>
   83df8:	10c0021e 	bne	r2,r3,83e04 <_wctomb_r+0x2d4>
   83dfc:	023fffc4 	movi	r8,-1
   83e00:	003f5e06 	br	83b7c <_wctomb_r+0x4c>
   83e04:	02000084 	movi	r8,2
   83e08:	84400045 	stb	r17,1(r16)
   83e0c:	81400005 	stb	r5,0(r16)
   83e10:	003f5a06 	br	83b7c <_wctomb_r+0x4c>
   83e14:	01000274 	movhi	r4,9
   83e18:	211ce604 	addi	r4,r4,29592
   83e1c:	01400274 	movhi	r5,9
   83e20:	295b0304 	addi	r5,r5,27660
   83e24:	00883f40 	call	883f4 <strcmp>
   83e28:	8006c03a 	cmpne	r3,r16,zero
   83e2c:	103f4f1e 	bne	r2,zero,83b6c <_wctomb_r+0x3c>
   83e30:	8807d23a 	srai	r3,r17,8
   83e34:	0009883a 	mov	r4,zero
   83e38:	9011883a 	mov	r8,r18
   83e3c:	803f4f26 	beq	r16,zero,83b7c <_wctomb_r+0x4c>
   83e40:	18803fcc 	andi	r2,r3,255
   83e44:	103fb526 	beq	r2,zero,83d1c <_wctomb_r+0x1ec>
   83e48:	18bff7c4 	addi	r2,r3,-33
   83e4c:	10803fcc 	andi	r2,r2,255
   83e50:	01401744 	movi	r5,93
   83e54:	28bfe936 	bltu	r5,r2,83dfc <_wctomb_r+0x2cc>
   83e58:	88bff7c4 	addi	r2,r17,-33
   83e5c:	10803fcc 	andi	r2,r2,255
   83e60:	28bfe636 	bltu	r5,r2,83dfc <_wctomb_r+0x2cc>
   83e64:	98800017 	ldw	r2,0(r19)
   83e68:	10000b1e 	bne	r2,zero,83e98 <_wctomb_r+0x368>
   83e6c:	9c800015 	stw	r18,0(r19)
   83e70:	008006c4 	movi	r2,27
   83e74:	80800005 	stb	r2,0(r16)
   83e78:	84000044 	addi	r16,r16,1
   83e7c:	00800904 	movi	r2,36
   83e80:	80800005 	stb	r2,0(r16)
   83e84:	84000044 	addi	r16,r16,1
   83e88:	00801084 	movi	r2,66
   83e8c:	80800005 	stb	r2,0(r16)
   83e90:	010000c4 	movi	r4,3
   83e94:	84000044 	addi	r16,r16,1
   83e98:	22000084 	addi	r8,r4,2
   83e9c:	84400045 	stb	r17,1(r16)
   83ea0:	80c00005 	stb	r3,0(r16)
   83ea4:	003f3506 	br	83b7c <_wctomb_r+0x4c>
   83ea8:	8901f00c 	andi	r4,r17,1984
   83eac:	2009d1ba 	srai	r4,r4,6
   83eb0:	88c00fcc 	andi	r3,r17,63
   83eb4:	00bff004 	movi	r2,-64
   83eb8:	2088b03a 	or	r4,r4,r2
   83ebc:	1a46b03a 	or	r3,r3,r9
   83ec0:	02000084 	movi	r8,2
   83ec4:	80c00045 	stb	r3,1(r16)
   83ec8:	81000005 	stb	r4,0(r16)
   83ecc:	003f2b06 	br	83b7c <_wctomb_r+0x4c>
   83ed0:	88c0072c 	andhi	r3,r17,28
   83ed4:	1807d4ba 	srai	r3,r3,18
   83ed8:	8808d33a 	srli	r4,r17,12
   83edc:	8943f00c 	andi	r5,r17,4032
   83ee0:	00bffc04 	movi	r2,-16
   83ee4:	280bd1ba 	srai	r5,r5,6
   83ee8:	1886b03a 	or	r3,r3,r2
   83eec:	21000fcc 	andi	r4,r4,63
   83ef0:	80c00005 	stb	r3,0(r16)
   83ef4:	2248b03a 	or	r4,r4,r9
   83ef8:	84000044 	addi	r16,r16,1
   83efc:	88800fcc 	andi	r2,r17,63
   83f00:	81000005 	stb	r4,0(r16)
   83f04:	1244b03a 	or	r2,r2,r9
   83f08:	84000044 	addi	r16,r16,1
   83f0c:	2a4ab03a 	or	r5,r5,r9
   83f10:	02000104 	movi	r8,4
   83f14:	80800045 	stb	r2,1(r16)
   83f18:	81400005 	stb	r5,0(r16)
   83f1c:	003f1706 	br	83b7c <_wctomb_r+0x4c>
   83f20:	88c0c02c 	andhi	r3,r17,768
   83f24:	1807d63a 	srai	r3,r3,24
   83f28:	89003f2c 	andhi	r4,r17,252
   83f2c:	2009d4ba 	srai	r4,r4,18
   83f30:	880ad33a 	srli	r5,r17,12
   83f34:	00bffe04 	movi	r2,-8
   83f38:	8983f00c 	andi	r6,r17,4032
   83f3c:	1886b03a 	or	r3,r3,r2
   83f40:	300dd1ba 	srai	r6,r6,6
   83f44:	80c00005 	stb	r3,0(r16)
   83f48:	2248b03a 	or	r4,r4,r9
   83f4c:	84000044 	addi	r16,r16,1
   83f50:	29400fcc 	andi	r5,r5,63
   83f54:	81000005 	stb	r4,0(r16)
   83f58:	2a4ab03a 	or	r5,r5,r9
   83f5c:	84000044 	addi	r16,r16,1
   83f60:	88800fcc 	andi	r2,r17,63
   83f64:	81400005 	stb	r5,0(r16)
   83f68:	1244b03a 	or	r2,r2,r9
   83f6c:	84000044 	addi	r16,r16,1
   83f70:	324cb03a 	or	r6,r6,r9
   83f74:	02000144 	movi	r8,5
   83f78:	80800045 	stb	r2,1(r16)
   83f7c:	81800005 	stb	r6,0(r16)
   83f80:	003efe06 	br	83b7c <_wctomb_r+0x4c>

00083f84 <__swsetup>:
   83f84:	d0e00117 	ldw	r3,-32764(gp)
   83f88:	defffe04 	addi	sp,sp,-8
   83f8c:	dc000015 	stw	r16,0(sp)
   83f90:	dfc00115 	stw	ra,4(sp)
   83f94:	18800e17 	ldw	r2,56(r3)
   83f98:	2021883a 	mov	r16,r4
   83f9c:	10003526 	beq	r2,zero,84074 <__swsetup+0xf0>
   83fa0:	8180030b 	ldhu	r6,12(r16)
   83fa4:	30ffffcc 	andi	r3,r6,65535
   83fa8:	1880020c 	andi	r2,r3,8
   83fac:	1000251e 	bne	r2,zero,84044 <__swsetup+0xc0>
   83fb0:	1880040c 	andi	r2,r3,16
   83fb4:	013fffc4 	movi	r4,-1
   83fb8:	10001d26 	beq	r2,zero,84030 <__swsetup+0xac>
   83fbc:	1880010c 	andi	r2,r3,4
   83fc0:	10002f26 	beq	r2,zero,84080 <__swsetup+0xfc>
   83fc4:	81400c17 	ldw	r5,48(r16)
   83fc8:	28000626 	beq	r5,zero,83fe4 <__swsetup+0x60>
   83fcc:	80801004 	addi	r2,r16,64
   83fd0:	28800326 	beq	r5,r2,83fe0 <__swsetup+0x5c>
   83fd4:	d1200117 	ldw	r4,-32764(gp)
   83fd8:	00859cc0 	call	859cc <_free_r>
   83fdc:	8180030b 	ldhu	r6,12(r16)
   83fe0:	80000c15 	stw	zero,48(r16)
   83fe4:	00bff6c4 	movi	r2,-37
   83fe8:	3084703a 	and	r2,r6,r2
   83fec:	80c00417 	ldw	r3,16(r16)
   83ff0:	100d883a 	mov	r6,r2
   83ff4:	8080030d 	sth	r2,12(r16)
   83ff8:	30800214 	ori	r2,r6,8
   83ffc:	80000115 	stw	zero,4(r16)
   84000:	80c00015 	stw	r3,0(r16)
   84004:	8080030d 	sth	r2,12(r16)
   84008:	18001026 	beq	r3,zero,8404c <__swsetup+0xc8>
   8400c:	80c0030b 	ldhu	r3,12(r16)
   84010:	1880004c 	andi	r2,r3,1
   84014:	1000121e 	bne	r2,zero,84060 <__swsetup+0xdc>
   84018:	1880008c 	andi	r2,r3,2
   8401c:	0007883a 	mov	r3,zero
   84020:	1000011e 	bne	r2,zero,84028 <__swsetup+0xa4>
   84024:	80c00517 	ldw	r3,20(r16)
   84028:	80c00215 	stw	r3,8(r16)
   8402c:	0009883a 	mov	r4,zero
   84030:	2005883a 	mov	r2,r4
   84034:	dfc00117 	ldw	ra,4(sp)
   84038:	dc000017 	ldw	r16,0(sp)
   8403c:	dec00204 	addi	sp,sp,8
   84040:	f800283a 	ret
   84044:	80c00417 	ldw	r3,16(r16)
   84048:	183ff01e 	bne	r3,zero,8400c <__swsetup+0x88>
   8404c:	8009883a 	mov	r4,r16
   84050:	00861a40 	call	861a4 <__smakebuf>
   84054:	80c0030b 	ldhu	r3,12(r16)
   84058:	1880004c 	andi	r2,r3,1
   8405c:	103fee26 	beq	r2,zero,84018 <__swsetup+0x94>
   84060:	80800517 	ldw	r2,20(r16)
   84064:	80000215 	stw	zero,8(r16)
   84068:	0085c83a 	sub	r2,zero,r2
   8406c:	80800615 	stw	r2,24(r16)
   84070:	003fee06 	br	8402c <__swsetup+0xa8>
   84074:	1809883a 	mov	r4,r3
   84078:	008580c0 	call	8580c <__sinit>
   8407c:	003fc806 	br	83fa0 <__swsetup+0x1c>
   84080:	80c00417 	ldw	r3,16(r16)
   84084:	30800214 	ori	r2,r6,8
   84088:	8080030d 	sth	r2,12(r16)
   8408c:	003fde06 	br	84008 <__swsetup+0x84>

00084090 <quorem>:
   84090:	defff104 	addi	sp,sp,-60
   84094:	dfc00e15 	stw	ra,56(sp)
   84098:	df000d15 	stw	fp,52(sp)
   8409c:	dc000c15 	stw	r16,48(sp)
   840a0:	dc400b15 	stw	r17,44(sp)
   840a4:	dc800a15 	stw	r18,40(sp)
   840a8:	dcc00915 	stw	r19,36(sp)
   840ac:	dd000815 	stw	r20,32(sp)
   840b0:	dd400715 	stw	r21,28(sp)
   840b4:	dd800615 	stw	r22,24(sp)
   840b8:	ddc00515 	stw	r23,20(sp)
   840bc:	2dc00417 	ldw	r23,16(r5)
   840c0:	20800417 	ldw	r2,16(r4)
   840c4:	d9000015 	stw	r4,0(sp)
   840c8:	d9400115 	stw	r5,4(sp)
   840cc:	0007883a 	mov	r3,zero
   840d0:	15c04216 	blt	r2,r23,841dc <quorem+0x14c>
   840d4:	bdffffc4 	addi	r23,r23,-1
   840d8:	b80490ba 	slli	r2,r23,2
   840dc:	20c00504 	addi	r3,r4,20
   840e0:	2c800504 	addi	r18,r5,20
   840e4:	10eb883a 	add	r21,r2,r3
   840e8:	14ad883a 	add	r22,r2,r18
   840ec:	b1400017 	ldw	r5,0(r22)
   840f0:	a8800017 	ldw	r2,0(r21)
   840f4:	d8c00215 	stw	r3,8(sp)
   840f8:	29400044 	addi	r5,r5,1
   840fc:	1009883a 	mov	r4,r2
   84100:	d8800415 	stw	r2,16(sp)
   84104:	dc800315 	stw	r18,12(sp)
   84108:	0081acc0 	call	81acc <__udivsi3>
   8410c:	1039883a 	mov	fp,r2
   84110:	dc400217 	ldw	r17,8(sp)
   84114:	10003e1e 	bne	r2,zero,84210 <quorem+0x180>
   84118:	d9400117 	ldw	r5,4(sp)
   8411c:	d9000017 	ldw	r4,0(sp)
   84120:	00875f80 	call	875f8 <__mcmp>
   84124:	10002c16 	blt	r2,zero,841d8 <quorem+0x148>
   84128:	dc800317 	ldw	r18,12(sp)
   8412c:	dc400217 	ldw	r17,8(sp)
   84130:	e7000044 	addi	fp,fp,1
   84134:	0027883a 	mov	r19,zero
   84138:	0029883a 	mov	r20,zero
   8413c:	91000017 	ldw	r4,0(r18)
   84140:	88c00017 	ldw	r3,0(r17)
   84144:	94800104 	addi	r18,r18,4
   84148:	20bfffcc 	andi	r2,r4,65535
   8414c:	1521883a 	add	r16,r2,r20
   84150:	817fffcc 	andi	r5,r16,65535
   84154:	18bfffcc 	andi	r2,r3,65535
   84158:	2008d43a 	srli	r4,r4,16
   8415c:	800cd43a 	srli	r6,r16,16
   84160:	1145c83a 	sub	r2,r2,r5
   84164:	14cf883a 	add	r7,r2,r19
   84168:	1806d43a 	srli	r3,r3,16
   8416c:	218b883a 	add	r5,r4,r6
   84170:	3827d43a 	srai	r19,r7,16
   84174:	28bfffcc 	andi	r2,r5,65535
   84178:	1887c83a 	sub	r3,r3,r2
   8417c:	1cc7883a 	add	r3,r3,r19
   84180:	88c0008d 	sth	r3,2(r17)
   84184:	89c0000d 	sth	r7,0(r17)
   84188:	2828d43a 	srli	r20,r5,16
   8418c:	8c400104 	addi	r17,r17,4
   84190:	1827d43a 	srai	r19,r3,16
   84194:	b4bfe92e 	bgeu	r22,r18,8413c <quorem+0xac>
   84198:	d8c00217 	ldw	r3,8(sp)
   8419c:	b80490ba 	slli	r2,r23,2
   841a0:	10eb883a 	add	r21,r2,r3
   841a4:	a8c00017 	ldw	r3,0(r21)
   841a8:	18000b1e 	bne	r3,zero,841d8 <quorem+0x148>
   841ac:	d8800217 	ldw	r2,8(sp)
   841b0:	ad7fff04 	addi	r21,r21,-4
   841b4:	1540062e 	bgeu	r2,r21,841d0 <quorem+0x140>
   841b8:	a8800017 	ldw	r2,0(r21)
   841bc:	1000041e 	bne	r2,zero,841d0 <quorem+0x140>
   841c0:	d8c00217 	ldw	r3,8(sp)
   841c4:	ad7fff04 	addi	r21,r21,-4
   841c8:	bdffffc4 	addi	r23,r23,-1
   841cc:	1d7ffa36 	bltu	r3,r21,841b8 <quorem+0x128>
   841d0:	d8800017 	ldw	r2,0(sp)
   841d4:	15c00415 	stw	r23,16(r2)
   841d8:	e007883a 	mov	r3,fp
   841dc:	1805883a 	mov	r2,r3
   841e0:	dfc00e17 	ldw	ra,56(sp)
   841e4:	df000d17 	ldw	fp,52(sp)
   841e8:	dc000c17 	ldw	r16,48(sp)
   841ec:	dc400b17 	ldw	r17,44(sp)
   841f0:	dc800a17 	ldw	r18,40(sp)
   841f4:	dcc00917 	ldw	r19,36(sp)
   841f8:	dd000817 	ldw	r20,32(sp)
   841fc:	dd400717 	ldw	r21,28(sp)
   84200:	dd800617 	ldw	r22,24(sp)
   84204:	ddc00517 	ldw	r23,20(sp)
   84208:	dec00f04 	addi	sp,sp,60
   8420c:	f800283a 	ret
   84210:	0027883a 	mov	r19,zero
   84214:	0029883a 	mov	r20,zero
   84218:	94000017 	ldw	r16,0(r18)
   8421c:	e00b883a 	mov	r5,fp
   84220:	94800104 	addi	r18,r18,4
   84224:	813fffcc 	andi	r4,r16,65535
   84228:	0081aec0 	call	81aec <__mulsi3>
   8422c:	8008d43a 	srli	r4,r16,16
   84230:	e00b883a 	mov	r5,fp
   84234:	1521883a 	add	r16,r2,r20
   84238:	0081aec0 	call	81aec <__mulsi3>
   8423c:	89000017 	ldw	r4,0(r17)
   84240:	817fffcc 	andi	r5,r16,65535
   84244:	800cd43a 	srli	r6,r16,16
   84248:	20ffffcc 	andi	r3,r4,65535
   8424c:	1947c83a 	sub	r3,r3,r5
   84250:	1ccf883a 	add	r7,r3,r19
   84254:	2008d43a 	srli	r4,r4,16
   84258:	118b883a 	add	r5,r2,r6
   8425c:	3827d43a 	srai	r19,r7,16
   84260:	28bfffcc 	andi	r2,r5,65535
   84264:	2089c83a 	sub	r4,r4,r2
   84268:	24c7883a 	add	r3,r4,r19
   8426c:	88c0008d 	sth	r3,2(r17)
   84270:	89c0000d 	sth	r7,0(r17)
   84274:	2828d43a 	srli	r20,r5,16
   84278:	8c400104 	addi	r17,r17,4
   8427c:	1827d43a 	srai	r19,r3,16
   84280:	b4bfe52e 	bgeu	r22,r18,84218 <quorem+0x188>
   84284:	d8c00417 	ldw	r3,16(sp)
   84288:	183fa31e 	bne	r3,zero,84118 <quorem+0x88>
   8428c:	d8800217 	ldw	r2,8(sp)
   84290:	ad7fff04 	addi	r21,r21,-4
   84294:	1540062e 	bgeu	r2,r21,842b0 <quorem+0x220>
   84298:	a8800017 	ldw	r2,0(r21)
   8429c:	1000041e 	bne	r2,zero,842b0 <quorem+0x220>
   842a0:	d8c00217 	ldw	r3,8(sp)
   842a4:	ad7fff04 	addi	r21,r21,-4
   842a8:	bdffffc4 	addi	r23,r23,-1
   842ac:	1d7ffa36 	bltu	r3,r21,84298 <quorem+0x208>
   842b0:	d8800017 	ldw	r2,0(sp)
   842b4:	15c00415 	stw	r23,16(r2)
   842b8:	003f9706 	br	84118 <quorem+0x88>

000842bc <_dtoa_r>:
   842bc:	deffdd04 	addi	sp,sp,-140
   842c0:	df002115 	stw	fp,132(sp)
   842c4:	dc002015 	stw	r16,128(sp)
   842c8:	dc801e15 	stw	r18,120(sp)
   842cc:	dcc01d15 	stw	r19,116(sp)
   842d0:	dfc02215 	stw	ra,136(sp)
   842d4:	dc401f15 	stw	r17,124(sp)
   842d8:	dd001c15 	stw	r20,112(sp)
   842dc:	dd401b15 	stw	r21,108(sp)
   842e0:	dd801a15 	stw	r22,104(sp)
   842e4:	ddc01915 	stw	r23,100(sp)
   842e8:	22001017 	ldw	r8,64(r4)
   842ec:	2039883a 	mov	fp,r4
   842f0:	2825883a 	mov	r18,r5
   842f4:	d9c00315 	stw	r7,12(sp)
   842f8:	3027883a 	mov	r19,r6
   842fc:	dc002517 	ldw	r16,148(sp)
   84300:	d8001515 	stw	zero,84(sp)
   84304:	4000241e 	bne	r8,zero,84398 <_dtoa_r+0xdc>
   84308:	98002d16 	blt	r19,zero,843c0 <_dtoa_r+0x104>
   8430c:	98dffc2c 	andhi	r3,r19,32752
   84310:	009ffc34 	movhi	r2,32752
   84314:	10800004 	addi	r2,r2,0
   84318:	80000015 	stw	zero,0(r16)
   8431c:	18803126 	beq	r3,r2,843e4 <_dtoa_r+0x128>
   84320:	000d883a 	mov	r6,zero
   84324:	000f883a 	mov	r7,zero
   84328:	9009883a 	mov	r4,r18
   8432c:	980b883a 	mov	r5,r19
   84330:	0089f700 	call	89f70 <__eqdf2>
   84334:	10003c1e 	bne	r2,zero,84428 <_dtoa_r+0x16c>
   84338:	d8c02417 	ldw	r3,144(sp)
   8433c:	00800044 	movi	r2,1
   84340:	01000274 	movhi	r4,9
   84344:	211af804 	addi	r4,r4,27616
   84348:	18800015 	stw	r2,0(r3)
   8434c:	d8802617 	ldw	r2,152(sp)
   84350:	d9001715 	stw	r4,92(sp)
   84354:	10000326 	beq	r2,zero,84364 <_dtoa_r+0xa8>
   84358:	d8c02617 	ldw	r3,152(sp)
   8435c:	20800044 	addi	r2,r4,1
   84360:	18800015 	stw	r2,0(r3)
   84364:	d8801717 	ldw	r2,92(sp)
   84368:	dfc02217 	ldw	ra,136(sp)
   8436c:	df002117 	ldw	fp,132(sp)
   84370:	dc002017 	ldw	r16,128(sp)
   84374:	dc401f17 	ldw	r17,124(sp)
   84378:	dc801e17 	ldw	r18,120(sp)
   8437c:	dcc01d17 	ldw	r19,116(sp)
   84380:	dd001c17 	ldw	r20,112(sp)
   84384:	dd401b17 	ldw	r21,108(sp)
   84388:	dd801a17 	ldw	r22,104(sp)
   8438c:	ddc01917 	ldw	r23,100(sp)
   84390:	dec02304 	addi	sp,sp,140
   84394:	f800283a 	ret
   84398:	20801117 	ldw	r2,68(r4)
   8439c:	400b883a 	mov	r5,r8
   843a0:	40800115 	stw	r2,4(r8)
   843a4:	20c01117 	ldw	r3,68(r4)
   843a8:	00800044 	movi	r2,1
   843ac:	10c4983a 	sll	r2,r2,r3
   843b0:	40800215 	stw	r2,8(r8)
   843b4:	0086da80 	call	86da8 <_Bfree>
   843b8:	e0001015 	stw	zero,64(fp)
   843bc:	983fd30e 	bge	r19,zero,8430c <_dtoa_r+0x50>
   843c0:	00a00034 	movhi	r2,32768
   843c4:	10bfffc4 	addi	r2,r2,-1
   843c8:	14e6703a 	and	r19,r2,r19
   843cc:	00c00044 	movi	r3,1
   843d0:	80c00015 	stw	r3,0(r16)
   843d4:	009ffc34 	movhi	r2,32752
   843d8:	10800004 	addi	r2,r2,0
   843dc:	98dffc2c 	andhi	r3,r19,32752
   843e0:	18bfcf1e 	bne	r3,r2,84320 <_dtoa_r+0x64>
   843e4:	d8c02417 	ldw	r3,144(sp)
   843e8:	0089c3c4 	movi	r2,9999
   843ec:	18800015 	stw	r2,0(r3)
   843f0:	9000a226 	beq	r18,zero,8467c <_dtoa_r+0x3c0>
   843f4:	00800274 	movhi	r2,9
   843f8:	109afa04 	addi	r2,r2,27624
   843fc:	d8801715 	stw	r2,92(sp)
   84400:	d8c02617 	ldw	r3,152(sp)
   84404:	183fd726 	beq	r3,zero,84364 <_dtoa_r+0xa8>
   84408:	d9001717 	ldw	r4,92(sp)
   8440c:	208000c7 	ldb	r2,3(r4)
   84410:	20c00204 	addi	r3,r4,8
   84414:	1000011e 	bne	r2,zero,8441c <_dtoa_r+0x160>
   84418:	20c000c4 	addi	r3,r4,3
   8441c:	d8802617 	ldw	r2,152(sp)
   84420:	10c00015 	stw	r3,0(r2)
   84424:	003fcf06 	br	84364 <_dtoa_r+0xa8>
   84428:	d8800104 	addi	r2,sp,4
   8442c:	e009883a 	mov	r4,fp
   84430:	900b883a 	mov	r5,r18
   84434:	980d883a 	mov	r6,r19
   84438:	d9c00204 	addi	r7,sp,8
   8443c:	d8800015 	stw	r2,0(sp)
   84440:	008798c0 	call	8798c <_d2b>
   84444:	d8801415 	stw	r2,80(sp)
   84448:	9804d53a 	srli	r2,r19,20
   8444c:	1581ffcc 	andi	r22,r2,2047
   84450:	b000921e 	bne	r22,zero,8469c <_dtoa_r+0x3e0>
   84454:	ddc00117 	ldw	r23,4(sp)
   84458:	d8800217 	ldw	r2,8(sp)
   8445c:	00c00804 	movi	r3,32
   84460:	b885883a 	add	r2,r23,r2
   84464:	15810c84 	addi	r22,r2,1074
   84468:	1d81ba0e 	bge	r3,r22,84b54 <_dtoa_r+0x898>
   8446c:	00c01004 	movi	r3,64
   84470:	1d87c83a 	sub	r3,r3,r22
   84474:	10810484 	addi	r2,r2,1042
   84478:	98c6983a 	sll	r3,r19,r3
   8447c:	9084d83a 	srl	r2,r18,r2
   84480:	18a0b03a 	or	r16,r3,r2
   84484:	8009883a 	mov	r4,r16
   84488:	008a22c0 	call	8a22c <__floatsidf>
   8448c:	1011883a 	mov	r8,r2
   84490:	1813883a 	mov	r9,r3
   84494:	8003bc16 	blt	r16,zero,85388 <_dtoa_r+0x10cc>
   84498:	00bf8434 	movhi	r2,65040
   8449c:	10800004 	addi	r2,r2,0
   844a0:	1247883a 	add	r3,r2,r9
   844a4:	01000044 	movi	r4,1
   844a8:	da000f15 	stw	r8,60(sp)
   844ac:	d8c01015 	stw	r3,64(sp)
   844b0:	b5bef344 	addi	r22,r22,-1075
   844b4:	d9001315 	stw	r4,76(sp)
   844b8:	d9401017 	ldw	r5,64(sp)
   844bc:	d9000f17 	ldw	r4,60(sp)
   844c0:	0005883a 	mov	r2,zero
   844c4:	00cffe34 	movhi	r3,16376
   844c8:	18c00004 	addi	r3,r3,0
   844cc:	180f883a 	mov	r7,r3
   844d0:	100d883a 	mov	r6,r2
   844d4:	00898a80 	call	898a8 <__subdf3>
   844d8:	0218dbf4 	movhi	r8,25455
   844dc:	4210d844 	addi	r8,r8,17249
   844e0:	024ff4f4 	movhi	r9,16339
   844e4:	4a61e9c4 	addi	r9,r9,-30809
   844e8:	480f883a 	mov	r7,r9
   844ec:	400d883a 	mov	r6,r8
   844f0:	180b883a 	mov	r5,r3
   844f4:	1009883a 	mov	r4,r2
   844f8:	00899200 	call	89920 <__muldf3>
   844fc:	0222d874 	movhi	r8,35681
   84500:	42322cc4 	addi	r8,r8,-14157
   84504:	024ff1f4 	movhi	r9,16327
   84508:	4a628a04 	addi	r9,r9,-30168
   8450c:	480f883a 	mov	r7,r9
   84510:	400d883a 	mov	r6,r8
   84514:	180b883a 	mov	r5,r3
   84518:	1009883a 	mov	r4,r2
   8451c:	008983c0 	call	8983c <__adddf3>
   84520:	b009883a 	mov	r4,r22
   84524:	1021883a 	mov	r16,r2
   84528:	1823883a 	mov	r17,r3
   8452c:	008a22c0 	call	8a22c <__floatsidf>
   84530:	021427f4 	movhi	r8,20639
   84534:	421e7ec4 	addi	r8,r8,31227
   84538:	024ff4f4 	movhi	r9,16339
   8453c:	4a5104c4 	addi	r9,r9,17427
   84540:	480f883a 	mov	r7,r9
   84544:	400d883a 	mov	r6,r8
   84548:	180b883a 	mov	r5,r3
   8454c:	1009883a 	mov	r4,r2
   84550:	00899200 	call	89920 <__muldf3>
   84554:	180f883a 	mov	r7,r3
   84558:	880b883a 	mov	r5,r17
   8455c:	100d883a 	mov	r6,r2
   84560:	8009883a 	mov	r4,r16
   84564:	008983c0 	call	8983c <__adddf3>
   84568:	1009883a 	mov	r4,r2
   8456c:	180b883a 	mov	r5,r3
   84570:	1021883a 	mov	r16,r2
   84574:	1823883a 	mov	r17,r3
   84578:	008a2fc0 	call	8a2fc <__fixdfsi>
   8457c:	000d883a 	mov	r6,zero
   84580:	000f883a 	mov	r7,zero
   84584:	8009883a 	mov	r4,r16
   84588:	880b883a 	mov	r5,r17
   8458c:	d8800915 	stw	r2,36(sp)
   84590:	008a1a00 	call	8a1a0 <__ltdf2>
   84594:	1002ea16 	blt	r2,zero,85140 <_dtoa_r+0xe84>
   84598:	d9000917 	ldw	r4,36(sp)
   8459c:	00c00044 	movi	r3,1
   845a0:	00800584 	movi	r2,22
   845a4:	d8c00b15 	stw	r3,44(sp)
   845a8:	11001036 	bltu	r2,r4,845ec <_dtoa_r+0x330>
   845ac:	200490fa 	slli	r2,r4,3
   845b0:	00c00274 	movhi	r3,9
   845b4:	18db3104 	addi	r3,r3,27844
   845b8:	900d883a 	mov	r6,r18
   845bc:	10c5883a 	add	r2,r2,r3
   845c0:	12000017 	ldw	r8,0(r2)
   845c4:	12400117 	ldw	r9,4(r2)
   845c8:	980f883a 	mov	r7,r19
   845cc:	4009883a 	mov	r4,r8
   845d0:	480b883a 	mov	r5,r9
   845d4:	008a0880 	call	8a088 <__gtdf2>
   845d8:	0080030e 	bge	zero,r2,845e8 <_dtoa_r+0x32c>
   845dc:	d8800917 	ldw	r2,36(sp)
   845e0:	10bfffc4 	addi	r2,r2,-1
   845e4:	d8800915 	stw	r2,36(sp)
   845e8:	d8000b15 	stw	zero,44(sp)
   845ec:	bd85c83a 	sub	r2,r23,r22
   845f0:	147fffc4 	addi	r17,r2,-1
   845f4:	8802ce16 	blt	r17,zero,85130 <_dtoa_r+0xe74>
   845f8:	dc400d15 	stw	r17,52(sp)
   845fc:	d8000415 	stw	zero,16(sp)
   84600:	d8c00917 	ldw	r3,36(sp)
   84604:	1802c216 	blt	r3,zero,85110 <_dtoa_r+0xe54>
   84608:	d9000d17 	ldw	r4,52(sp)
   8460c:	d8000515 	stw	zero,20(sp)
   84610:	d8c00e15 	stw	r3,56(sp)
   84614:	20c9883a 	add	r4,r4,r3
   84618:	d9000d15 	stw	r4,52(sp)
   8461c:	d8c00317 	ldw	r3,12(sp)
   84620:	00800244 	movi	r2,9
   84624:	10c0012e 	bgeu	r2,r3,8462c <_dtoa_r+0x370>
   84628:	d8000315 	stw	zero,12(sp)
   8462c:	d9000317 	ldw	r4,12(sp)
   84630:	00800144 	movi	r2,5
   84634:	04000044 	movi	r16,1
   84638:	1100030e 	bge	r2,r4,84648 <_dtoa_r+0x38c>
   8463c:	213fff04 	addi	r4,r4,-4
   84640:	d9000315 	stw	r4,12(sp)
   84644:	0021883a 	mov	r16,zero
   84648:	00ffffc4 	movi	r3,-1
   8464c:	d8c00615 	stw	r3,24(sp)
   84650:	d8c00815 	stw	r3,32(sp)
   84654:	d8c00317 	ldw	r3,12(sp)
   84658:	01000044 	movi	r4,1
   8465c:	d9000c15 	stw	r4,48(sp)
   84660:	10c02136 	bltu	r2,r3,846e8 <_dtoa_r+0x42c>
   84664:	180490ba 	slli	r2,r3,2
   84668:	00c00274 	movhi	r3,9
   8466c:	18db0804 	addi	r3,r3,27680
   84670:	10c5883a 	add	r2,r2,r3
   84674:	11000017 	ldw	r4,0(r2)
   84678:	2000683a 	jmp	r4
   8467c:	00800434 	movhi	r2,16
   84680:	10bfffc4 	addi	r2,r2,-1
   84684:	01000274 	movhi	r4,9
   84688:	211b0504 	addi	r4,r4,27668
   8468c:	9884703a 	and	r2,r19,r2
   84690:	d9001715 	stw	r4,92(sp)
   84694:	103f5a26 	beq	r2,zero,84400 <_dtoa_r+0x144>
   84698:	003f5606 	br	843f4 <_dtoa_r+0x138>
   8469c:	00800434 	movhi	r2,16
   846a0:	10bfffc4 	addi	r2,r2,-1
   846a4:	ddc00117 	ldw	r23,4(sp)
   846a8:	14c6703a 	and	r3,r2,r19
   846ac:	190ffc34 	orhi	r4,r3,16368
   846b0:	b5bf0044 	addi	r22,r22,-1023
   846b4:	dc800f15 	stw	r18,60(sp)
   846b8:	d9001015 	stw	r4,64(sp)
   846bc:	d8001315 	stw	zero,76(sp)
   846c0:	003f7d06 	br	844b8 <_dtoa_r+0x1fc>
   846c4:	d8000c15 	stw	zero,48(sp)
   846c8:	d8c02317 	ldw	r3,140(sp)
   846cc:	d9000917 	ldw	r4,36(sp)
   846d0:	1905883a 	add	r2,r3,r4
   846d4:	15800044 	addi	r22,r2,1
   846d8:	d8800815 	stw	r2,32(sp)
   846dc:	dd800615 	stw	r22,24(sp)
   846e0:	05800116 	blt	zero,r22,846e8 <_dtoa_r+0x42c>
   846e4:	05800044 	movi	r22,1
   846e8:	00800604 	movi	r2,24
   846ec:	e0001115 	stw	zero,68(fp)
   846f0:	04400104 	movi	r17,4
   846f4:	b0800636 	bltu	r22,r2,84710 <_dtoa_r+0x454>
   846f8:	0007883a 	mov	r3,zero
   846fc:	8c63883a 	add	r17,r17,r17
   84700:	18c00044 	addi	r3,r3,1
   84704:	88800504 	addi	r2,r17,20
   84708:	b0bffc2e 	bgeu	r22,r2,846fc <_dtoa_r+0x440>
   8470c:	e0c01115 	stw	r3,68(fp)
   84710:	e1401117 	ldw	r5,68(fp)
   84714:	e009883a 	mov	r4,fp
   84718:	0086cf80 	call	86cf8 <_Balloc>
   8471c:	d8c00617 	ldw	r3,24(sp)
   84720:	d8801815 	stw	r2,96(sp)
   84724:	e0801015 	stw	r2,64(fp)
   84728:	d8801715 	stw	r2,92(sp)
   8472c:	00800384 	movi	r2,14
   84730:	10c0a836 	bltu	r2,r3,849d4 <_dtoa_r+0x718>
   84734:	8000a726 	beq	r16,zero,849d4 <_dtoa_r+0x718>
   84738:	d8c00917 	ldw	r3,36(sp)
   8473c:	d9000617 	ldw	r4,24(sp)
   84740:	dc800f15 	stw	r18,60(sp)
   84744:	dcc01015 	stw	r19,64(sp)
   84748:	d8c00a15 	stw	r3,40(sp)
   8474c:	d9000715 	stw	r4,28(sp)
   84750:	05800084 	movi	r22,2
   84754:	00c1230e 	bge	zero,r3,84be4 <_dtoa_r+0x928>
   84758:	188003cc 	andi	r2,r3,15
   8475c:	1823d13a 	srai	r17,r3,4
   84760:	100490fa 	slli	r2,r2,3
   84764:	00c00274 	movhi	r3,9
   84768:	18db3104 	addi	r3,r3,27844
   8476c:	10c5883a 	add	r2,r2,r3
   84770:	88c0040c 	andi	r3,r17,16
   84774:	15000017 	ldw	r20,0(r2)
   84778:	15400117 	ldw	r21,4(r2)
   8477c:	18000d26 	beq	r3,zero,847b4 <_dtoa_r+0x4f8>
   84780:	01800274 	movhi	r6,9
   84784:	319b2704 	addi	r6,r6,27804
   84788:	30c00917 	ldw	r3,36(r6)
   8478c:	30800817 	ldw	r2,32(r6)
   84790:	980b883a 	mov	r5,r19
   84794:	9009883a 	mov	r4,r18
   84798:	180f883a 	mov	r7,r3
   8479c:	100d883a 	mov	r6,r2
   847a0:	0089d200 	call	89d20 <__divdf3>
   847a4:	8c4003cc 	andi	r17,r17,15
   847a8:	058000c4 	movi	r22,3
   847ac:	1025883a 	mov	r18,r2
   847b0:	1827883a 	mov	r19,r3
   847b4:	88001126 	beq	r17,zero,847fc <_dtoa_r+0x540>
   847b8:	04000274 	movhi	r16,9
   847bc:	841b2704 	addi	r16,r16,27804
   847c0:	8880004c 	andi	r2,r17,1
   847c4:	10000a26 	beq	r2,zero,847f0 <_dtoa_r+0x534>
   847c8:	80800017 	ldw	r2,0(r16)
   847cc:	80c00117 	ldw	r3,4(r16)
   847d0:	a80b883a 	mov	r5,r21
   847d4:	a009883a 	mov	r4,r20
   847d8:	180f883a 	mov	r7,r3
   847dc:	100d883a 	mov	r6,r2
   847e0:	00899200 	call	89920 <__muldf3>
   847e4:	b5800044 	addi	r22,r22,1
   847e8:	1029883a 	mov	r20,r2
   847ec:	182b883a 	mov	r21,r3
   847f0:	8823d07a 	srai	r17,r17,1
   847f4:	84000204 	addi	r16,r16,8
   847f8:	883ff11e 	bne	r17,zero,847c0 <_dtoa_r+0x504>
   847fc:	980b883a 	mov	r5,r19
   84800:	9009883a 	mov	r4,r18
   84804:	a80f883a 	mov	r7,r21
   84808:	a00d883a 	mov	r6,r20
   8480c:	0089d200 	call	89d20 <__divdf3>
   84810:	1025883a 	mov	r18,r2
   84814:	1827883a 	mov	r19,r3
   84818:	d8c00b17 	ldw	r3,44(sp)
   8481c:	18000926 	beq	r3,zero,84844 <_dtoa_r+0x588>
   84820:	0005883a 	mov	r2,zero
   84824:	00cffc34 	movhi	r3,16368
   84828:	18c00004 	addi	r3,r3,0
   8482c:	180f883a 	mov	r7,r3
   84830:	9009883a 	mov	r4,r18
   84834:	980b883a 	mov	r5,r19
   84838:	100d883a 	mov	r6,r2
   8483c:	008a1a00 	call	8a1a0 <__ltdf2>
   84840:	10037816 	blt	r2,zero,85624 <_dtoa_r+0x1368>
   84844:	b009883a 	mov	r4,r22
   84848:	008a22c0 	call	8a22c <__floatsidf>
   8484c:	180b883a 	mov	r5,r3
   84850:	1009883a 	mov	r4,r2
   84854:	900d883a 	mov	r6,r18
   84858:	980f883a 	mov	r7,r19
   8485c:	00899200 	call	89920 <__muldf3>
   84860:	0011883a 	mov	r8,zero
   84864:	02500734 	movhi	r9,16412
   84868:	4a400004 	addi	r9,r9,0
   8486c:	180b883a 	mov	r5,r3
   84870:	480f883a 	mov	r7,r9
   84874:	1009883a 	mov	r4,r2
   84878:	400d883a 	mov	r6,r8
   8487c:	008983c0 	call	8983c <__adddf3>
   84880:	d8801115 	stw	r2,68(sp)
   84884:	00bf3034 	movhi	r2,64704
   84888:	10800004 	addi	r2,r2,0
   8488c:	18a9883a 	add	r20,r3,r2
   84890:	d8800617 	ldw	r2,24(sp)
   84894:	dd001215 	stw	r20,72(sp)
   84898:	10024e1e 	bne	r2,zero,851d4 <_dtoa_r+0xf18>
   8489c:	00d00534 	movhi	r3,16404
   848a0:	18c00004 	addi	r3,r3,0
   848a4:	980b883a 	mov	r5,r19
   848a8:	180f883a 	mov	r7,r3
   848ac:	9009883a 	mov	r4,r18
   848b0:	100d883a 	mov	r6,r2
   848b4:	00898a80 	call	898a8 <__subdf3>
   848b8:	d9801117 	ldw	r6,68(sp)
   848bc:	a00f883a 	mov	r7,r20
   848c0:	1009883a 	mov	r4,r2
   848c4:	180b883a 	mov	r5,r3
   848c8:	1021883a 	mov	r16,r2
   848cc:	1823883a 	mov	r17,r3
   848d0:	d8001615 	stw	zero,88(sp)
   848d4:	002f883a 	mov	r23,zero
   848d8:	008a0880 	call	8a088 <__gtdf2>
   848dc:	0080260e 	bge	zero,r2,84978 <_dtoa_r+0x6bc>
   848e0:	d8800917 	ldw	r2,36(sp)
   848e4:	d8c01817 	ldw	r3,96(sp)
   848e8:	d9001817 	ldw	r4,96(sp)
   848ec:	10800044 	addi	r2,r2,1
   848f0:	18c00044 	addi	r3,r3,1
   848f4:	d8800915 	stw	r2,36(sp)
   848f8:	d8c01715 	stw	r3,92(sp)
   848fc:	00800c44 	movi	r2,49
   84900:	20800005 	stb	r2,0(r4)
   84904:	e009883a 	mov	r4,fp
   84908:	b80b883a 	mov	r5,r23
   8490c:	0086da80 	call	86da8 <_Bfree>
   84910:	d9001617 	ldw	r4,88(sp)
   84914:	20000926 	beq	r4,zero,8493c <_dtoa_r+0x680>
   84918:	d8801517 	ldw	r2,84(sp)
   8491c:	10000426 	beq	r2,zero,84930 <_dtoa_r+0x674>
   84920:	11000326 	beq	r2,r4,84930 <_dtoa_r+0x674>
   84924:	100b883a 	mov	r5,r2
   84928:	e009883a 	mov	r4,fp
   8492c:	0086da80 	call	86da8 <_Bfree>
   84930:	d9401617 	ldw	r5,88(sp)
   84934:	e009883a 	mov	r4,fp
   84938:	0086da80 	call	86da8 <_Bfree>
   8493c:	d9401417 	ldw	r5,80(sp)
   84940:	e009883a 	mov	r4,fp
   84944:	0086da80 	call	86da8 <_Bfree>
   84948:	d8c01717 	ldw	r3,92(sp)
   8494c:	18000005 	stb	zero,0(r3)
   84950:	d9000917 	ldw	r4,36(sp)
   84954:	d8c02417 	ldw	r3,144(sp)
   84958:	20800044 	addi	r2,r4,1
   8495c:	d9002617 	ldw	r4,152(sp)
   84960:	18800015 	stw	r2,0(r3)
   84964:	20000226 	beq	r4,zero,84970 <_dtoa_r+0x6b4>
   84968:	d8801717 	ldw	r2,92(sp)
   8496c:	20800015 	stw	r2,0(r4)
   84970:	d8801817 	ldw	r2,96(sp)
   84974:	003e7c06 	br	84368 <_dtoa_r+0xac>
   84978:	d9001117 	ldw	r4,68(sp)
   8497c:	000d883a 	mov	r6,zero
   84980:	01e00034 	movhi	r7,32768
   84984:	39c00004 	addi	r7,r7,0
   84988:	2184f03a 	xor	r2,r4,r6
   8498c:	d9001217 	ldw	r4,72(sp)
   84990:	800d883a 	mov	r6,r16
   84994:	21c6f03a 	xor	r3,r4,r7
   84998:	180b883a 	mov	r5,r3
   8499c:	1009883a 	mov	r4,r2
   849a0:	880f883a 	mov	r7,r17
   849a4:	008a0880 	call	8a088 <__gtdf2>
   849a8:	00808a16 	blt	zero,r2,84bd4 <_dtoa_r+0x918>
   849ac:	d9000f17 	ldw	r4,60(sp)
   849b0:	d8801017 	ldw	r2,64(sp)
   849b4:	d8c00a17 	ldw	r3,40(sp)
   849b8:	2025883a 	mov	r18,r4
   849bc:	1027883a 	mov	r19,r2
   849c0:	d9000717 	ldw	r4,28(sp)
   849c4:	d8801817 	ldw	r2,96(sp)
   849c8:	d8c00915 	stw	r3,36(sp)
   849cc:	d9000615 	stw	r4,24(sp)
   849d0:	d8801715 	stw	r2,92(sp)
   849d4:	d8c00217 	ldw	r3,8(sp)
   849d8:	1800a716 	blt	r3,zero,84c78 <_dtoa_r+0x9bc>
   849dc:	d9000917 	ldw	r4,36(sp)
   849e0:	00800384 	movi	r2,14
   849e4:	1100a416 	blt	r2,r4,84c78 <_dtoa_r+0x9bc>
   849e8:	200490fa 	slli	r2,r4,3
   849ec:	00c00274 	movhi	r3,9
   849f0:	18db3104 	addi	r3,r3,27844
   849f4:	10c5883a 	add	r2,r2,r3
   849f8:	15000017 	ldw	r20,0(r2)
   849fc:	15400117 	ldw	r21,4(r2)
   84a00:	d8802317 	ldw	r2,140(sp)
   84a04:	10006016 	blt	r2,zero,84b88 <_dtoa_r+0x8cc>
   84a08:	05800044 	movi	r22,1
   84a0c:	00001106 	br	84a54 <_dtoa_r+0x798>
   84a10:	0005883a 	mov	r2,zero
   84a14:	00d00934 	movhi	r3,16420
   84a18:	18c00004 	addi	r3,r3,0
   84a1c:	400d883a 	mov	r6,r8
   84a20:	180b883a 	mov	r5,r3
   84a24:	480f883a 	mov	r7,r9
   84a28:	1009883a 	mov	r4,r2
   84a2c:	00899200 	call	89920 <__muldf3>
   84a30:	180b883a 	mov	r5,r3
   84a34:	000d883a 	mov	r6,zero
   84a38:	000f883a 	mov	r7,zero
   84a3c:	1009883a 	mov	r4,r2
   84a40:	1025883a 	mov	r18,r2
   84a44:	1827883a 	mov	r19,r3
   84a48:	0089f700 	call	89f70 <__eqdf2>
   84a4c:	103fbb26 	beq	r2,zero,8493c <_dtoa_r+0x680>
   84a50:	b5800044 	addi	r22,r22,1
   84a54:	a00d883a 	mov	r6,r20
   84a58:	a80f883a 	mov	r7,r21
   84a5c:	9009883a 	mov	r4,r18
   84a60:	980b883a 	mov	r5,r19
   84a64:	0089d200 	call	89d20 <__divdf3>
   84a68:	180b883a 	mov	r5,r3
   84a6c:	1009883a 	mov	r4,r2
   84a70:	008a2fc0 	call	8a2fc <__fixdfsi>
   84a74:	1009883a 	mov	r4,r2
   84a78:	102f883a 	mov	r23,r2
   84a7c:	008a22c0 	call	8a22c <__floatsidf>
   84a80:	180b883a 	mov	r5,r3
   84a84:	1009883a 	mov	r4,r2
   84a88:	a00d883a 	mov	r6,r20
   84a8c:	a80f883a 	mov	r7,r21
   84a90:	00899200 	call	89920 <__muldf3>
   84a94:	180f883a 	mov	r7,r3
   84a98:	9009883a 	mov	r4,r18
   84a9c:	980b883a 	mov	r5,r19
   84aa0:	100d883a 	mov	r6,r2
   84aa4:	00898a80 	call	898a8 <__subdf3>
   84aa8:	d9001717 	ldw	r4,92(sp)
   84aac:	1011883a 	mov	r8,r2
   84ab0:	b8800c04 	addi	r2,r23,48
   84ab4:	20800005 	stb	r2,0(r4)
   84ab8:	d8800617 	ldw	r2,24(sp)
   84abc:	21000044 	addi	r4,r4,1
   84ac0:	1813883a 	mov	r9,r3
   84ac4:	d9001715 	stw	r4,92(sp)
   84ac8:	b0bfd11e 	bne	r22,r2,84a10 <_dtoa_r+0x754>
   84acc:	4009883a 	mov	r4,r8
   84ad0:	180b883a 	mov	r5,r3
   84ad4:	400d883a 	mov	r6,r8
   84ad8:	180f883a 	mov	r7,r3
   84adc:	008983c0 	call	8983c <__adddf3>
   84ae0:	100d883a 	mov	r6,r2
   84ae4:	a009883a 	mov	r4,r20
   84ae8:	a80b883a 	mov	r5,r21
   84aec:	180f883a 	mov	r7,r3
   84af0:	1021883a 	mov	r16,r2
   84af4:	1823883a 	mov	r17,r3
   84af8:	008a1a00 	call	8a1a0 <__ltdf2>
   84afc:	10000816 	blt	r2,zero,84b20 <_dtoa_r+0x864>
   84b00:	a80b883a 	mov	r5,r21
   84b04:	800d883a 	mov	r6,r16
   84b08:	880f883a 	mov	r7,r17
   84b0c:	a009883a 	mov	r4,r20
   84b10:	0089f700 	call	89f70 <__eqdf2>
   84b14:	103f891e 	bne	r2,zero,8493c <_dtoa_r+0x680>
   84b18:	b880004c 	andi	r2,r23,1
   84b1c:	103f8726 	beq	r2,zero,8493c <_dtoa_r+0x680>
   84b20:	d8c01717 	ldw	r3,92(sp)
   84b24:	00800e44 	movi	r2,57
   84b28:	18ffffc4 	addi	r3,r3,-1
   84b2c:	d8c01715 	stw	r3,92(sp)
   84b30:	18c00007 	ldb	r3,0(r3)
   84b34:	1882341e 	bne	r3,r2,85408 <_dtoa_r+0x114c>
   84b38:	d9001717 	ldw	r4,92(sp)
   84b3c:	d8801817 	ldw	r2,96(sp)
   84b40:	20822b26 	beq	r4,r2,853f0 <_dtoa_r+0x1134>
   84b44:	213fffc4 	addi	r4,r4,-1
   84b48:	d9001715 	stw	r4,92(sp)
   84b4c:	20800007 	ldb	r2,0(r4)
   84b50:	003ff806 	br	84b34 <_dtoa_r+0x878>
   84b54:	1d85c83a 	sub	r2,r3,r22
   84b58:	90a0983a 	sll	r16,r18,r2
   84b5c:	003e4906 	br	84484 <_dtoa_r+0x1c8>
   84b60:	d8000c15 	stw	zero,48(sp)
   84b64:	d9002317 	ldw	r4,140(sp)
   84b68:	0102a70e 	bge	zero,r4,85608 <_dtoa_r+0x134c>
   84b6c:	dd802317 	ldw	r22,140(sp)
   84b70:	dd800815 	stw	r22,32(sp)
   84b74:	dd800615 	stw	r22,24(sp)
   84b78:	003edb06 	br	846e8 <_dtoa_r+0x42c>
   84b7c:	05800484 	movi	r22,18
   84b80:	d8002315 	stw	zero,140(sp)
   84b84:	003ed806 	br	846e8 <_dtoa_r+0x42c>
   84b88:	d8c00617 	ldw	r3,24(sp)
   84b8c:	00ff9e16 	blt	zero,r3,84a08 <_dtoa_r+0x74c>
   84b90:	d8001615 	stw	zero,88(sp)
   84b94:	002f883a 	mov	r23,zero
   84b98:	18000e16 	blt	r3,zero,84bd4 <_dtoa_r+0x918>
   84b9c:	0005883a 	mov	r2,zero
   84ba0:	00d00534 	movhi	r3,16404
   84ba4:	18c00004 	addi	r3,r3,0
   84ba8:	a80b883a 	mov	r5,r21
   84bac:	180f883a 	mov	r7,r3
   84bb0:	a009883a 	mov	r4,r20
   84bb4:	100d883a 	mov	r6,r2
   84bb8:	00899200 	call	89920 <__muldf3>
   84bbc:	180b883a 	mov	r5,r3
   84bc0:	980f883a 	mov	r7,r19
   84bc4:	1009883a 	mov	r4,r2
   84bc8:	900d883a 	mov	r6,r18
   84bcc:	008a1140 	call	8a114 <__gedf2>
   84bd0:	103f4316 	blt	r2,zero,848e0 <_dtoa_r+0x624>
   84bd4:	d9002317 	ldw	r4,140(sp)
   84bd8:	0108303a 	nor	r4,zero,r4
   84bdc:	d9000915 	stw	r4,36(sp)
   84be0:	003f4806 	br	84904 <_dtoa_r+0x648>
   84be4:	d8800917 	ldw	r2,36(sp)
   84be8:	00a9c83a 	sub	r20,zero,r2
   84bec:	a03f0a26 	beq	r20,zero,84818 <_dtoa_r+0x55c>
   84bf0:	a14003cc 	andi	r5,r20,15
   84bf4:	280a90fa 	slli	r5,r5,3
   84bf8:	01000274 	movhi	r4,9
   84bfc:	211b3104 	addi	r4,r4,27844
   84c00:	a023d13a 	srai	r17,r20,4
   84c04:	290b883a 	add	r5,r5,r4
   84c08:	28800017 	ldw	r2,0(r5)
   84c0c:	28c00117 	ldw	r3,4(r5)
   84c10:	980f883a 	mov	r7,r19
   84c14:	900d883a 	mov	r6,r18
   84c18:	180b883a 	mov	r5,r3
   84c1c:	1009883a 	mov	r4,r2
   84c20:	00899200 	call	89920 <__muldf3>
   84c24:	1025883a 	mov	r18,r2
   84c28:	1827883a 	mov	r19,r3
   84c2c:	883efa26 	beq	r17,zero,84818 <_dtoa_r+0x55c>
   84c30:	04000274 	movhi	r16,9
   84c34:	841b2704 	addi	r16,r16,27804
   84c38:	8880004c 	andi	r2,r17,1
   84c3c:	10000a26 	beq	r2,zero,84c68 <_dtoa_r+0x9ac>
   84c40:	80800017 	ldw	r2,0(r16)
   84c44:	80c00117 	ldw	r3,4(r16)
   84c48:	980f883a 	mov	r7,r19
   84c4c:	900d883a 	mov	r6,r18
   84c50:	180b883a 	mov	r5,r3
   84c54:	1009883a 	mov	r4,r2
   84c58:	00899200 	call	89920 <__muldf3>
   84c5c:	b5800044 	addi	r22,r22,1
   84c60:	1025883a 	mov	r18,r2
   84c64:	1827883a 	mov	r19,r3
   84c68:	8823d07a 	srai	r17,r17,1
   84c6c:	84000204 	addi	r16,r16,8
   84c70:	883ff11e 	bne	r17,zero,84c38 <_dtoa_r+0x97c>
   84c74:	003ee806 	br	84818 <_dtoa_r+0x55c>
   84c78:	d9000c17 	ldw	r4,48(sp)
   84c7c:	dd000417 	ldw	r20,16(sp)
   84c80:	dc000517 	ldw	r16,20(sp)
   84c84:	202b003a 	cmpeq	r21,r4,zero
   84c88:	d8001515 	stw	zero,84(sp)
   84c8c:	d8001615 	stw	zero,88(sp)
   84c90:	a800131e 	bne	r21,zero,84ce0 <_dtoa_r+0xa24>
   84c94:	d9000317 	ldw	r4,12(sp)
   84c98:	00800044 	movi	r2,1
   84c9c:	1101a216 	blt	r2,r4,85328 <_dtoa_r+0x106c>
   84ca0:	d8801317 	ldw	r2,76(sp)
   84ca4:	1d810cc4 	addi	r22,r3,1075
   84ca8:	1000031e 	bne	r2,zero,84cb8 <_dtoa_r+0x9fc>
   84cac:	d8800117 	ldw	r2,4(sp)
   84cb0:	00c00d84 	movi	r3,54
   84cb4:	18adc83a 	sub	r22,r3,r2
   84cb8:	e009883a 	mov	r4,fp
   84cbc:	01400044 	movi	r5,1
   84cc0:	00871040 	call	87104 <_i2b>
   84cc4:	d8801615 	stw	r2,88(sp)
   84cc8:	d9000d17 	ldw	r4,52(sp)
   84ccc:	d8800417 	ldw	r2,16(sp)
   84cd0:	2589883a 	add	r4,r4,r22
   84cd4:	1585883a 	add	r2,r2,r22
   84cd8:	d9000d15 	stw	r4,52(sp)
   84cdc:	d8800415 	stw	r2,16(sp)
   84ce0:	05000c0e 	bge	zero,r20,84d14 <_dtoa_r+0xa58>
   84ce4:	d8c00d17 	ldw	r3,52(sp)
   84ce8:	00c00a0e 	bge	zero,r3,84d14 <_dtoa_r+0xa58>
   84cec:	182d883a 	mov	r22,r3
   84cf0:	a0c0010e 	bge	r20,r3,84cf8 <_dtoa_r+0xa3c>
   84cf4:	a02d883a 	mov	r22,r20
   84cf8:	d9000d17 	ldw	r4,52(sp)
   84cfc:	d8800417 	ldw	r2,16(sp)
   84d00:	a5a9c83a 	sub	r20,r20,r22
   84d04:	2589c83a 	sub	r4,r4,r22
   84d08:	1585c83a 	sub	r2,r2,r22
   84d0c:	d9000d15 	stw	r4,52(sp)
   84d10:	d8800415 	stw	r2,16(sp)
   84d14:	d8c00517 	ldw	r3,20(sp)
   84d18:	00c0130e 	bge	zero,r3,84d68 <_dtoa_r+0xaac>
   84d1c:	a801941e 	bne	r21,zero,85370 <_dtoa_r+0x10b4>
   84d20:	04000e0e 	bge	zero,r16,84d5c <_dtoa_r+0xaa0>
   84d24:	d9401617 	ldw	r5,88(sp)
   84d28:	e009883a 	mov	r4,fp
   84d2c:	800d883a 	mov	r6,r16
   84d30:	00873940 	call	87394 <_pow5mult>
   84d34:	d9801417 	ldw	r6,80(sp)
   84d38:	e009883a 	mov	r4,fp
   84d3c:	100b883a 	mov	r5,r2
   84d40:	d8801615 	stw	r2,88(sp)
   84d44:	00871400 	call	87140 <_multiply>
   84d48:	d9401417 	ldw	r5,80(sp)
   84d4c:	1023883a 	mov	r17,r2
   84d50:	e009883a 	mov	r4,fp
   84d54:	0086da80 	call	86da8 <_Bfree>
   84d58:	dc401415 	stw	r17,80(sp)
   84d5c:	d9000517 	ldw	r4,20(sp)
   84d60:	2423c83a 	sub	r17,r4,r16
   84d64:	8801af1e 	bne	r17,zero,85424 <_dtoa_r+0x1168>
   84d68:	04000044 	movi	r16,1
   84d6c:	e009883a 	mov	r4,fp
   84d70:	800b883a 	mov	r5,r16
   84d74:	00871040 	call	87104 <_i2b>
   84d78:	102f883a 	mov	r23,r2
   84d7c:	d8800e17 	ldw	r2,56(sp)
   84d80:	0080050e 	bge	zero,r2,84d98 <_dtoa_r+0xadc>
   84d84:	b80b883a 	mov	r5,r23
   84d88:	e009883a 	mov	r4,fp
   84d8c:	100d883a 	mov	r6,r2
   84d90:	00873940 	call	87394 <_pow5mult>
   84d94:	102f883a 	mov	r23,r2
   84d98:	d8c00317 	ldw	r3,12(sp)
   84d9c:	0023883a 	mov	r17,zero
   84da0:	80c00e16 	blt	r16,r3,84ddc <_dtoa_r+0xb20>
   84da4:	90000d1e 	bne	r18,zero,84ddc <_dtoa_r+0xb20>
   84da8:	00800434 	movhi	r2,16
   84dac:	10bfffc4 	addi	r2,r2,-1
   84db0:	9884703a 	and	r2,r19,r2
   84db4:	1000091e 	bne	r2,zero,84ddc <_dtoa_r+0xb20>
   84db8:	989ffc2c 	andhi	r2,r19,32752
   84dbc:	10000726 	beq	r2,zero,84ddc <_dtoa_r+0xb20>
   84dc0:	d9000417 	ldw	r4,16(sp)
   84dc4:	d8800d17 	ldw	r2,52(sp)
   84dc8:	8023883a 	mov	r17,r16
   84dcc:	21000044 	addi	r4,r4,1
   84dd0:	10800044 	addi	r2,r2,1
   84dd4:	d9000415 	stw	r4,16(sp)
   84dd8:	d8800d15 	stw	r2,52(sp)
   84ddc:	d8c00e17 	ldw	r3,56(sp)
   84de0:	1800f41e 	bne	r3,zero,851b4 <_dtoa_r+0xef8>
   84de4:	d8c00d17 	ldw	r3,52(sp)
   84de8:	18800044 	addi	r2,r3,1
   84dec:	158007cc 	andi	r22,r2,31
   84df0:	b0000226 	beq	r22,zero,84dfc <_dtoa_r+0xb40>
   84df4:	00800804 	movi	r2,32
   84df8:	15adc83a 	sub	r22,r2,r22
   84dfc:	00800104 	movi	r2,4
   84e00:	1580b20e 	bge	r2,r22,850cc <_dtoa_r+0xe10>
   84e04:	d9000d17 	ldw	r4,52(sp)
   84e08:	d8800417 	ldw	r2,16(sp)
   84e0c:	b5bfff04 	addi	r22,r22,-4
   84e10:	2589883a 	add	r4,r4,r22
   84e14:	1585883a 	add	r2,r2,r22
   84e18:	d9000d15 	stw	r4,52(sp)
   84e1c:	d8800415 	stw	r2,16(sp)
   84e20:	a5a9883a 	add	r20,r20,r22
   84e24:	d8800417 	ldw	r2,16(sp)
   84e28:	0080050e 	bge	zero,r2,84e40 <_dtoa_r+0xb84>
   84e2c:	d9401417 	ldw	r5,80(sp)
   84e30:	100d883a 	mov	r6,r2
   84e34:	e009883a 	mov	r4,fp
   84e38:	00874c00 	call	874c0 <_lshift>
   84e3c:	d8801415 	stw	r2,80(sp)
   84e40:	d8c00d17 	ldw	r3,52(sp)
   84e44:	00c0050e 	bge	zero,r3,84e5c <_dtoa_r+0xba0>
   84e48:	b80b883a 	mov	r5,r23
   84e4c:	180d883a 	mov	r6,r3
   84e50:	e009883a 	mov	r4,fp
   84e54:	00874c00 	call	874c0 <_lshift>
   84e58:	102f883a 	mov	r23,r2
   84e5c:	d9000b17 	ldw	r4,44(sp)
   84e60:	2000c31e 	bne	r4,zero,85170 <_dtoa_r+0xeb4>
   84e64:	d9000617 	ldw	r4,24(sp)
   84e68:	0101520e 	bge	zero,r4,853b4 <_dtoa_r+0x10f8>
   84e6c:	05800044 	movi	r22,1
   84e70:	a8004d1e 	bne	r21,zero,84fa8 <_dtoa_r+0xcec>
   84e74:	0500050e 	bge	zero,r20,84e8c <_dtoa_r+0xbd0>
   84e78:	d9401617 	ldw	r5,88(sp)
   84e7c:	a00d883a 	mov	r6,r20
   84e80:	e009883a 	mov	r4,fp
   84e84:	00874c00 	call	874c0 <_lshift>
   84e88:	d8801615 	stw	r2,88(sp)
   84e8c:	d8801617 	ldw	r2,88(sp)
   84e90:	d8801515 	stw	r2,84(sp)
   84e94:	8801661e 	bne	r17,zero,85430 <_dtoa_r+0x1174>
   84e98:	94c0004c 	andi	r19,r18,1
   84e9c:	05800044 	movi	r22,1
   84ea0:	05400e44 	movi	r21,57
   84ea4:	d9001417 	ldw	r4,80(sp)
   84ea8:	b80b883a 	mov	r5,r23
   84eac:	05000044 	movi	r20,1
   84eb0:	00840900 	call	84090 <quorem>
   84eb4:	d9001417 	ldw	r4,80(sp)
   84eb8:	d9401517 	ldw	r5,84(sp)
   84ebc:	14800c04 	addi	r18,r2,48
   84ec0:	00875f80 	call	875f8 <__mcmp>
   84ec4:	d9801617 	ldw	r6,88(sp)
   84ec8:	e009883a 	mov	r4,fp
   84ecc:	b80b883a 	mov	r5,r23
   84ed0:	1023883a 	mov	r17,r2
   84ed4:	008765c0 	call	8765c <__mdiff>
   84ed8:	1021883a 	mov	r16,r2
   84edc:	10800317 	ldw	r2,12(r2)
   84ee0:	10006c26 	beq	r2,zero,85094 <_dtoa_r+0xdd8>
   84ee4:	800b883a 	mov	r5,r16
   84ee8:	e009883a 	mov	r4,fp
   84eec:	0086da80 	call	86da8 <_Bfree>
   84ef0:	a000031e 	bne	r20,zero,84f00 <_dtoa_r+0xc44>
   84ef4:	d9000317 	ldw	r4,12(sp)
   84ef8:	2000011e 	bne	r4,zero,84f00 <_dtoa_r+0xc44>
   84efc:	98005d26 	beq	r19,zero,85074 <_dtoa_r+0xdb8>
   84f00:	88004a16 	blt	r17,zero,8502c <_dtoa_r+0xd70>
   84f04:	8800031e 	bne	r17,zero,84f14 <_dtoa_r+0xc58>
   84f08:	d8c00317 	ldw	r3,12(sp)
   84f0c:	1800011e 	bne	r3,zero,84f14 <_dtoa_r+0xc58>
   84f10:	98004626 	beq	r19,zero,8502c <_dtoa_r+0xd70>
   84f14:	0501a916 	blt	zero,r20,855bc <_dtoa_r+0x1300>
   84f18:	d9001717 	ldw	r4,92(sp)
   84f1c:	24800005 	stb	r18,0(r4)
   84f20:	d8800617 	ldw	r2,24(sp)
   84f24:	21000044 	addi	r4,r4,1
   84f28:	d9001715 	stw	r4,92(sp)
   84f2c:	b0802926 	beq	r22,r2,84fd4 <_dtoa_r+0xd18>
   84f30:	d9401417 	ldw	r5,80(sp)
   84f34:	e009883a 	mov	r4,fp
   84f38:	01800284 	movi	r6,10
   84f3c:	000f883a 	mov	r7,zero
   84f40:	0086dcc0 	call	86dcc <_multadd>
   84f44:	d8c01517 	ldw	r3,84(sp)
   84f48:	d9001617 	ldw	r4,88(sp)
   84f4c:	d8801415 	stw	r2,80(sp)
   84f50:	19005526 	beq	r3,r4,850a8 <_dtoa_r+0xdec>
   84f54:	d9401517 	ldw	r5,84(sp)
   84f58:	e009883a 	mov	r4,fp
   84f5c:	01800284 	movi	r6,10
   84f60:	000f883a 	mov	r7,zero
   84f64:	0086dcc0 	call	86dcc <_multadd>
   84f68:	d9401617 	ldw	r5,88(sp)
   84f6c:	e009883a 	mov	r4,fp
   84f70:	01800284 	movi	r6,10
   84f74:	000f883a 	mov	r7,zero
   84f78:	d8801515 	stw	r2,84(sp)
   84f7c:	b5800044 	addi	r22,r22,1
   84f80:	0086dcc0 	call	86dcc <_multadd>
   84f84:	d8801615 	stw	r2,88(sp)
   84f88:	003fc606 	br	84ea4 <_dtoa_r+0xbe8>
   84f8c:	d9401417 	ldw	r5,80(sp)
   84f90:	e009883a 	mov	r4,fp
   84f94:	01800284 	movi	r6,10
   84f98:	000f883a 	mov	r7,zero
   84f9c:	0086dcc0 	call	86dcc <_multadd>
   84fa0:	d8801415 	stw	r2,80(sp)
   84fa4:	b5800044 	addi	r22,r22,1
   84fa8:	d9001417 	ldw	r4,80(sp)
   84fac:	b80b883a 	mov	r5,r23
   84fb0:	00840900 	call	84090 <quorem>
   84fb4:	14800c04 	addi	r18,r2,48
   84fb8:	d8801717 	ldw	r2,92(sp)
   84fbc:	14800005 	stb	r18,0(r2)
   84fc0:	d8801717 	ldw	r2,92(sp)
   84fc4:	d8c00617 	ldw	r3,24(sp)
   84fc8:	10800044 	addi	r2,r2,1
   84fcc:	d8801715 	stw	r2,92(sp)
   84fd0:	b0ffee16 	blt	r22,r3,84f8c <_dtoa_r+0xcd0>
   84fd4:	d9401417 	ldw	r5,80(sp)
   84fd8:	e009883a 	mov	r4,fp
   84fdc:	01800044 	movi	r6,1
   84fe0:	00874c00 	call	874c0 <_lshift>
   84fe4:	1009883a 	mov	r4,r2
   84fe8:	b80b883a 	mov	r5,r23
   84fec:	d8801415 	stw	r2,80(sp)
   84ff0:	00875f80 	call	875f8 <__mcmp>
   84ff4:	0081770e 	bge	zero,r2,855d4 <_dtoa_r+0x1318>
   84ff8:	d9001717 	ldw	r4,92(sp)
   84ffc:	00800e44 	movi	r2,57
   85000:	213fffc4 	addi	r4,r4,-1
   85004:	d9001715 	stw	r4,92(sp)
   85008:	20c00007 	ldb	r3,0(r4)
   8500c:	1880391e 	bne	r3,r2,850f4 <_dtoa_r+0xe38>
   85010:	d8801717 	ldw	r2,92(sp)
   85014:	d9001817 	ldw	r4,96(sp)
   85018:	113e3126 	beq	r2,r4,848e0 <_dtoa_r+0x624>
   8501c:	10bfffc4 	addi	r2,r2,-1
   85020:	d8801715 	stw	r2,92(sp)
   85024:	10800007 	ldb	r2,0(r2)
   85028:	003ff806 	br	8500c <_dtoa_r+0xd50>
   8502c:	05000c0e 	bge	zero,r20,85060 <_dtoa_r+0xda4>
   85030:	d9401417 	ldw	r5,80(sp)
   85034:	e009883a 	mov	r4,fp
   85038:	01800044 	movi	r6,1
   8503c:	00874c00 	call	874c0 <_lshift>
   85040:	1009883a 	mov	r4,r2
   85044:	b80b883a 	mov	r5,r23
   85048:	d8801415 	stw	r2,80(sp)
   8504c:	00875f80 	call	875f8 <__mcmp>
   85050:	00818a0e 	bge	zero,r2,8567c <_dtoa_r+0x13c0>
   85054:	94800044 	addi	r18,r18,1
   85058:	00800e84 	movi	r2,58
   8505c:	90815826 	beq	r18,r2,855c0 <_dtoa_r+0x1304>
   85060:	d9001717 	ldw	r4,92(sp)
   85064:	24800005 	stb	r18,0(r4)
   85068:	21000044 	addi	r4,r4,1
   8506c:	d9001715 	stw	r4,92(sp)
   85070:	003e2406 	br	84904 <_dtoa_r+0x648>
   85074:	95415226 	beq	r18,r21,855c0 <_dtoa_r+0x1304>
   85078:	0440010e 	bge	zero,r17,85080 <_dtoa_r+0xdc4>
   8507c:	94800044 	addi	r18,r18,1
   85080:	d8801717 	ldw	r2,92(sp)
   85084:	14800005 	stb	r18,0(r2)
   85088:	10800044 	addi	r2,r2,1
