
experiment2.elf:     file format elf32-littlenios2
experiment2.elf
architecture: nios2, flags 0x00000112:
EXEC_P, HAS_SYMS, D_PAGED
start address 0x000801cc

Program Header:
    LOAD off    0x00000094 vaddr 0x00080000 paddr 0x00080000 align 2**0
         filesz 0x0001701c memsz 0x0001701c flags r-x
    LOAD off    0x000170b0 vaddr 0x0009701c paddr 0x00098b00 align 2**0
         filesz 0x00001ae4 memsz 0x00001ae4 flags rw-
    LOAD off    0x00018b94 vaddr 0x0009a5e4 paddr 0x0009a5e4 align 2**0
         filesz 0x00000000 memsz 0x0000b5e8 flags rw-

Sections:
Idx Name          Size      VMA       LMA       File off  Algn
  0 .entry        00000020  00080000  00080000  00000094  2**5
                  CONTENTS, ALLOC, LOAD, READONLY, CODE
  1 .exceptions   000001ac  00080020  00080020  000000b4  2**2
                  CONTENTS, ALLOC, LOAD, READONLY, CODE
  2 .text         00015dcc  000801cc  000801cc  00000260  2**2
                  CONTENTS, ALLOC, LOAD, READONLY, CODE
  3 .rodata       00001084  00095f98  00095f98  0001602c  2**2
                  CONTENTS, ALLOC, LOAD, READONLY, DATA
  4 .rwdata       00001ae4  0009701c  00098b00  000170b0  2**2
                  CONTENTS, ALLOC, LOAD, DATA, SMALL_DATA
  5 .bss          0000b5e8  0009a5e4  0009a5e4  00018b94  2**2
                  ALLOC, SMALL_DATA
  6 .sram_0       00000000  000a5bcc  000a5bcc  00018b94  2**0
                  CONTENTS
  7 .comment      0000138a  00000000  00000000  00018b94  2**0
                  CONTENTS, READONLY
  8 .debug_aranges 00000f38  00000000  00000000  00019f20  2**3
                  CONTENTS, READONLY, DEBUGGING
  9 .debug_pubnames 000023b5  00000000  00000000  0001ae58  2**0
                  CONTENTS, READONLY, DEBUGGING
 10 .debug_info   0003510d  00000000  00000000  0001d20d  2**0
                  CONTENTS, READONLY, DEBUGGING
 11 .debug_abbrev 00009c10  00000000  00000000  0005231a  2**0
                  CONTENTS, READONLY, DEBUGGING
 12 .debug_line   0001c49b  00000000  00000000  0005bf2a  2**0
                  CONTENTS, READONLY, DEBUGGING
 13 .debug_frame  000027a8  00000000  00000000  000783c8  2**2
                  CONTENTS, READONLY, DEBUGGING
 14 .debug_str    0000266d  00000000  00000000  0007ab70  2**0
                  CONTENTS, READONLY, DEBUGGING
 15 .debug_alt_sim_info 00000010  00000000  00000000  0007d1e0  2**2
                  CONTENTS, READONLY, DEBUGGING
 16 .debug_ranges 000005a0  00000010  00000010  0007d1f0  2**0
                  CONTENTS, READONLY, DEBUGGING
 17 .thread_model 00000006  00000000  00000000  0008272c  2**0
                  CONTENTS, READONLY
 18 .cpu          00000005  00000000  00000000  00082732  2**0
                  CONTENTS, READONLY
 19 .qsys         00000001  00000000  00000000  00082737  2**0
                  CONTENTS, READONLY
 20 .simulation_enabled 00000001  00000000  00000000  00082738  2**0
                  CONTENTS, READONLY
 21 .stderr_dev   0000000b  00000000  00000000  00082739  2**0
                  CONTENTS, READONLY
 22 .stdin_dev    0000000b  00000000  00000000  00082744  2**0
                  CONTENTS, READONLY
 23 .stdout_dev   0000000b  00000000  00000000  0008274f  2**0
                  CONTENTS, READONLY
 24 .sopc_system_name 0000000b  00000000  00000000  0008275a  2**0
                  CONTENTS, READONLY
 25 .quartus_project_dir 0000003e  00000000  00000000  00082765  2**0
                  CONTENTS, READONLY
 26 .sopcinfo     0004b6b5  00000000  00000000  000827a3  2**0
                  CONTENTS, READONLY
SYMBOL TABLE:
00080000 l    d  .entry	00000000 
00080020 l    d  .exceptions	00000000 
000801cc l    d  .text	00000000 
00095f98 l    d  .rodata	00000000 
0009701c l    d  .rwdata	00000000 
0009a5e4 l    d  .bss	00000000 
000a5bcc l    d  .sram_0	00000000 
00000000 l    d  .comment	00000000 
00000000 l    d  .debug_aranges	00000000 
00000000 l    d  .debug_pubnames	00000000 
00000000 l    d  .debug_info	00000000 
00000000 l    d  .debug_abbrev	00000000 
00000000 l    d  .debug_line	00000000 
00000000 l    d  .debug_frame	00000000 
00000000 l    d  .debug_str	00000000 
00000000 l    d  .debug_alt_sim_info	00000000 
00000010 l    d  .debug_ranges	00000000 
00000000 l    d  *ABS*	00000000 
00000000 l    d  *ABS*	00000000 
00000000 l    d  *ABS*	00000000 
00000000 l    df *ABS*	00000000 HAL/src/crt0.S
00000000 l    df *ABS*	00000000 ./HAL/inc/sys/alt_log_printf.h
00000000 l    df *ABS*	00000000 ./system.h
00000000 l    df *ABS*	00000000 ./HAL/inc/sys/alt_log_printf.h
00000000 l    df *ABS*	00000000 HAL/src/crt0.S
00000000 l    df *ABS*	00000000 ./HAL/inc/nios2.h
00000000 l    df *ABS*	00000000 HAL/src/crt0.S
00000000 l    df *ABS*	00000000 ./system.h
00000000 l    df *ABS*	00000000 ./linker.h
00000000 l    df *ABS*	00000000 ./system.h
00000000 l    df *ABS*	00000000 HAL/src/crt0.S
00000000 l    df *ABS*	00000000 <command line>
00000000 l    df *ABS*	00000000 <built-in>
00000000 l    df *ABS*	00000000 /cygdrive/c/Users/lim14/coe4ds4_lab6_2020/coe4ds4_lab6_2020/experiment2/software/experiment2_bsp//
00000000 l    df *ABS*	00000000 HAL/src/crt0.S
00080204 l       .text	00000000 alt_after_alt_main
00000000 l    df *ABS*	00000000 HAL/src/alt_irq_entry.S
00000000 l    df *ABS*	00000000 ./system.h
00000000 l    df *ABS*	00000000 ./linker.h
00000000 l    df *ABS*	00000000 ./system.h
00000000 l    df *ABS*	00000000 HAL/src/alt_irq_entry.S
00000000 l    df *ABS*	00000000 <command line>
00000000 l    df *ABS*	00000000 <built-in>
00000000 l    df *ABS*	00000000 /cygdrive/c/Users/lim14/coe4ds4_lab6_2020/coe4ds4_lab6_2020/experiment2/software/experiment2_bsp//
00000000 l    df *ABS*	00000000 HAL/src/alt_irq_entry.S
00000000 l    df *ABS*	00000000 HAL/src/alt_exception_entry.S
00000000 l    df *ABS*	00000000 ./system.h
00000000 l    df *ABS*	00000000 ./linker.h
00000000 l    df *ABS*	00000000 ./system.h
00000000 l    df *ABS*	00000000 HAL/src/alt_exception_entry.S
00000000 l    df *ABS*	00000000 <command line>
00000000 l    df *ABS*	00000000 <built-in>
00000000 l    df *ABS*	00000000 /cygdrive/c/Users/lim14/coe4ds4_lab6_2020/coe4ds4_lab6_2020/experiment2/software/experiment2_bsp//
00000000 l    df *ABS*	00000000 HAL/src/alt_exception_entry.S
00000000 l    df *ABS*	00000000 alt_irq_handler.c
00000000 l    df *ABS*	00000000 PB_button.c
00000000 l    df *ABS*	00000000 alt_ucosii_simple_error_check.c
00000000 l    df *ABS*	00000000 experiment2.c
00000000 l    df *ABS*	00000000 tasks.c
00000000 l    df *ABS*	00000000 lib2-divmod.c
000819d0 l     F .text	00000060 udivmodsi4
00000000 l    df *ABS*	00000000 lib2-mul.c
00000000 l    df *ABS*	00000000 fprintf.c
00000000 l    df *ABS*	00000000 impure.c
0009701c l     O .rwdata	0000037c impure_data
00000000 l    df *ABS*	00000000 printf.c
00000000 l    df *ABS*	00000000 rand.c
00000000 l    df *ABS*	00000000 vfprintf1.c
00081bf0 l     F .text	00000058 __sprint
00096a14 l     O .rodata	00000010 blanks.0
00096a24 l     O .rodata	00000010 zeroes.1
00000000 l    df *ABS*	00000000 wcrtomb.c
00000000 l    df *ABS*	00000000 wcsrtombs.c
00000000 l    df *ABS*	00000000 wctomb_r.c
00000000 l    df *ABS*	00000000 wsetup.c
00000000 l    df *ABS*	00000000 dtoa.c
00084090 l     F .text	0000022c quorem
00000000 l    df *ABS*	00000000 fflush.c
00000000 l    df *ABS*	00000000 findfp.c
00085790 l     F .text	00000058 std
00000000 l    df *ABS*	00000000 mallocr.c
00000000 l    df *ABS*	00000000 fvwrite.c
00000000 l    df *ABS*	00000000 fwalk.c
00000000 l    df *ABS*	00000000 locale.c
00096c44 l     O .rodata	00000030 lconv
00098a2c l     O .rwdata	00000004 charset
00000000 l    df *ABS*	00000000 makebuf.c
00000000 l    df *ABS*	00000000 malloc.c
00000000 l    df *ABS*	00000000 mallocr.c
00000000 l    df *ABS*	00000000 memchr.c
00000000 l    df *ABS*	00000000 memcpy.c
00000000 l    df *ABS*	00000000 memmove.c
00000000 l    df *ABS*	00000000 memset.c
00000000 l    df *ABS*	00000000 mprec.c
00096d8c l     O .rodata	0000000c p05.0
00000000 l    df *ABS*	00000000 mallocr.c
00000000 l    df *ABS*	00000000 s_isinf.c
00000000 l    df *ABS*	00000000 s_isnan.c
00000000 l    df *ABS*	00000000 sbrkr.c
00000000 l    df *ABS*	00000000 stdio.c
00000000 l    df *ABS*	00000000 strcmp.c
00000000 l    df *ABS*	00000000 strlen.c
00000000 l    df *ABS*	00000000 writer.c
00000000 l    df *ABS*	00000000 mallocr.c
00000000 l    df *ABS*	00000000 closer.c
00000000 l    df *ABS*	00000000 fstatr.c
00000000 l    df *ABS*	00000000 int_errno.c
00000000 l    df *ABS*	00000000 lseekr.c
00000000 l    df *ABS*	00000000 readr.c
00000000 l    df *ABS*	00000000 libgcc2.c
00000000 l    df *ABS*	00000000 libgcc2.c
00000000 l    df *ABS*	00000000 libgcc2.c
00000000 l    df *ABS*	00000000 libgcc2.c
00000000 l    df *ABS*	00000000 nios2-dp-bit.c
00089520 l     F .text	0000031c _fpadd_parts
00000000 l    df *ABS*	00000000 nios2-dp-bit.c
00000000 l    df *ABS*	00000000 nios2-dp-bit.c
00000000 l    df *ABS*	00000000 nios2-dp-bit.c
00000000 l    df *ABS*	00000000 nios2-dp-bit.c
00000000 l    df *ABS*	00000000 nios2-dp-bit.c
00000000 l    df *ABS*	00000000 nios2-dp-bit.c
00000000 l    df *ABS*	00000000 nios2-dp-bit.c
00000000 l    df *ABS*	00000000 nios2-dp-bit.c
00000000 l    df *ABS*	00000000 nios2-dp-bit.c
00000000 l    df *ABS*	00000000 nios2-dp-bit.c
00000000 l    df *ABS*	00000000 libgcc2.c
00000000 l    df *ABS*	00000000 libgcc2.c
00000000 l    df *ABS*	00000000 nios2-dp-bit.c
00000000 l    df *ABS*	00000000 nios2-dp-bit.c
00000000 l    df *ABS*	00000000 nios2-dp-bit.c
00000000 l    df *ABS*	00000000 libgcc2.c
00000000 l    df *ABS*	00000000 alt_close.c
0008aa14 l     F .text	00000048 alt_get_errno
00000000 l    df *ABS*	00000000 alt_dev.c
0008aa5c l     F .text	00000028 alt_dev_null_write
00000000 l    df *ABS*	00000000 alt_errno.c
00000000 l    df *ABS*	00000000 alt_fstat.c
0008ab58 l     F .text	00000048 alt_get_errno
00000000 l    df *ABS*	00000000 alt_irq_register.c
00000000 l    df *ABS*	00000000 alt_irq_vars.c
00000000 l    df *ABS*	00000000 alt_isatty.c
0008ae04 l     F .text	00000048 alt_get_errno
00000000 l    df *ABS*	00000000 alt_load.c
0008aec8 l     F .text	00000068 alt_load_section
00000000 l    df *ABS*	00000000 alt_lseek.c
0008b020 l     F .text	00000048 alt_get_errno
00000000 l    df *ABS*	00000000 alt_main.c
00000000 l    df *ABS*	00000000 alt_printf.c
00000000 l    df *ABS*	00000000 alt_putchar.c
00000000 l    df *ABS*	00000000 alt_read.c
0008b4c4 l     F .text	00000048 alt_get_errno
00000000 l    df *ABS*	00000000 alt_release_fd.c
00000000 l    df *ABS*	00000000 alt_sbrk.c
00098a70 l     O .rwdata	00000004 heap_end
00000000 l    df *ABS*	00000000 alt_write.c
0008b760 l     F .text	00000048 alt_get_errno
00000000 l    df *ABS*	00000000 alt_env_lock.c
00098a74 l     O .rwdata	00000004 lockid
0009a5f0 l     O .bss	00000004 locks
00000000 l    df *ABS*	00000000 alt_malloc_lock.c
00098a78 l     O .rwdata	00000004 lockid
0009a5f8 l     O .bss	00000004 locks
00000000 l    df *ABS*	00000000 os_core.c
0008d070 l     F .text	00000040 OS_InitMisc
0008d0b0 l     F .text	0000006c OS_InitRdyList
0008d20c l     F .text	000000dc OS_InitTCBList
0008cf98 l     F .text	000000d8 OS_InitEventList
0008d11c l     F .text	00000078 OS_InitTaskIdle
0008d194 l     F .text	00000078 OS_InitTaskStat
0008d464 l     F .text	00000064 OS_SchedNew
00000000 l    df *ABS*	00000000 os_dbg.c
00000000 l    df *ABS*	00000000 os_flag.c
0008f1b0 l     F .text	000000dc OS_FlagTaskRdy
0008ef90 l     F .text	00000148 OS_FlagBlock
00000000 l    df *ABS*	00000000 os_mem.c
00000000 l    df *ABS*	00000000 os_q.c
00000000 l    df *ABS*	00000000 os_sem.c
00000000 l    df *ABS*	00000000 os_task.c
00000000 l    df *ABS*	00000000 os_time.c
00000000 l    df *ABS*	00000000 alt_sys_init.c
0009797c l     O .rwdata	0000106c jtag_uart_0
000989e8 l     O .rwdata	0000002c character_lcd_0
00093540 l     F .text	00000030 alt_dev_reg
00000000 l    df *ABS*	00000000 altera_avalon_jtag_uart_fd.c
00000000 l    df *ABS*	00000000 altera_avalon_jtag_uart_init.c
0009382c l     F .text	000002bc altera_avalon_jtag_uart_irq
00093ae8 l     F .text	00000114 altera_avalon_jtag_uart_timeout
00000000 l    df *ABS*	00000000 altera_avalon_jtag_uart_ioctl.c
00000000 l    df *ABS*	00000000 altera_avalon_jtag_uart_read.c
00000000 l    df *ABS*	00000000 altera_avalon_jtag_uart_write.c
00000000 l    df *ABS*	00000000 altera_avalon_timer_sc.c
00094318 l     F .text	00000074 alt_avalon_timer_sc_irq
00000000 l    df *ABS*	00000000 altera_up_avalon_character_lcd.c
00000000 l    df *ABS*	00000000 alt_alarm_start.c
00000000 l    df *ABS*	00000000 alt_dcache_flush_all.c
00000000 l    df *ABS*	00000000 alt_dev_llist_insert.c
00094b08 l     F .text	00000048 alt_get_errno
00000000 l    df *ABS*	00000000 alt_do_ctors.c
00000000 l    df *ABS*	00000000 alt_do_dtors.c
00000000 l    df *ABS*	00000000 alt_find_dev.c
00000000 l    df *ABS*	00000000 alt_icache_flush_all.c
00000000 l    df *ABS*	00000000 alt_iic.c
00000000 l    df *ABS*	00000000 alt_iic_isr_register.c
00000000 l    df *ABS*	00000000 alt_io_redirect.c
00094f44 l     F .text	000000dc alt_open_fd
00000000 l    df *ABS*	00000000 alt_open.c
00095094 l     F .text	000000e8 alt_file_locked
00095304 l     F .text	00000048 alt_get_errno
00000000 l    df *ABS*	00000000 alt_tick.c
00000000 l    df *ABS*	00000000 altera_nios2_qsys_irq.c
00000000 l    df *ABS*	00000000 HAL/src/os_cpu_a.S
00000000 l    df *ABS*	00000000 ./UCOSII/inc/os_cfg.h
00000000 l    df *ABS*	00000000 ./system.h
00000000 l    df *ABS*	00000000 ./linker.h
00000000 l    df *ABS*	00000000 ./system.h
00000000 l    df *ABS*	00000000 ./UCOSII/inc/os_cfg.h
00000000 l    df *ABS*	00000000 HAL/src/os_cpu_a.S
00000000 l    df *ABS*	00000000 <command line>
00000000 l    df *ABS*	00000000 <built-in>
00000000 l    df *ABS*	00000000 /cygdrive/c/Users/lim14/coe4ds4_lab6_2020/coe4ds4_lab6_2020/experiment2/software/experiment2_bsp//
00000000 l    df *ABS*	00000000 HAL/src/os_cpu_a.S
00000040 l       *ABS*	00000000 OSCtxSw_SWITCH_PC
00000000 l    df *ABS*	00000000 os_cpu_c.c
00000014 l       *ABS*	00000000 OSTCBNext_OFFSET
00000032 l       *ABS*	00000000 OSTCBPrio_OFFSET
00000000 l       *ABS*	00000000 OSTCBStkPtr_OFFSET
00000000 l    df *ABS*	00000000 alt_find_file.c
00000000 l    df *ABS*	00000000 alt_get_fd.c
00000000 l    df *ABS*	00000000 atexit.c
0009a644 l     O .bss	00000004 lock.0
00000000 l    df *ABS*	00000000 exit.c
00000000 l    df *ABS*	00000000 memcmp.c
00000000 l    df *ABS*	00000000 putc.c
00000000 l    df *ABS*	00000000 wbuf.c
00000000 l    df *ABS*	00000000 alt_exit.c
00095f38 l     F .text	0000003c alt_sim_halt
00087bb4 g     F .text	000000b0 _mprec_log10
00098ac6 g     O .rwdata	00000002 OSTaskNameSize
00096c74 g     O .rodata	00000028 __mprec_tinytens
0008b068 g     F .text	000000d4 alt_main
0008a8c8 g     F .text	00000050 __ashldi3
00086fec g     F .text	00000064 _hi0bits
000a59c0 g     O .bss	00000100 alt_irq
000886ec g     F .text	00000064 _lseek_r
0008fa44 g     F .text	000000d0 OS_MemInit
00098b00 g       *ABS*	00000000 __flash_rwdata_start
00093430 g     F .text	00000060 OSTimeSet
00094488 g     F .text	00000030 alt_up_character_lcd_send_cmd
00089f70 g     F .text	0000008c __eqdf2
0008bcd8 g     F .text	000006b8 OSEventPendMulti
000a5bcc g       *ABS*	00000000 __alt_heap_start
000958f4 g     F .text	0000001c OSTaskCreateHook
0009a648 g     O .bss	00002000 custom_scheduler_stk
00081b38 g     F .text	00000034 printf
00098a9e g     O .rwdata	00000002 OSMboxEn
0008c3e0 g     F .text	00000078 OSIntEnter
0008392c g     F .text	00000064 _wcrtomb_r
00088368 g     F .text	00000078 __sseek
0008580c g     F .text	0000009c __sinit
00098aae g     O .rwdata	00000002 OSQEn
000860dc g     F .text	00000088 _setlocale_r
0008b99c g     F .text	000000c8 __malloc_unlock
00095944 g     F .text	00000018 OSTaskStatHook
0009a616 g     O .bss	00000001 OSLockNesting
000802c8 g     F .text	00000040 KEY3_Pressed
00098aec g     O .rwdata	00000002 OSDataSize
0009a61d g     O .bss	00000001 OSRunning
00086b54 g     F .text	00000108 memmove
00095974 g     F .text	00000018 OSInitHookBegin
00098ae4 g     O .rwdata	00000002 OSTmrSize
000857fc g     F .text	00000010 _cleanup
00086cf8 g     F .text	000000b0 _Balloc
0009a620 g     O .bss	00000004 OSIdleCtr
0008a088 g     F .text	0000008c __gtdf2
000955b4 g       .text	00000000 OSStartTsk
00000000  w      *UND*	00000000 __errno
00094418 g     F .text	00000070 get_DDRAM_addr
0008d77c g     F .text	000002c4 OS_TCBInit
00080000 g     F .entry	0000000c __reset
00098aea g     O .rwdata	00000002 OSTmrWheelTblSize
0008798c g     F .text	0000017c _d2b
00087140 g     F .text	00000254 _multiply
00080020 g       .exceptions	00000000 __flash_exceptions_start
00098a8a g     O .rwdata	00000002 OSEventSize
0009a618 g     O .bss	00000001 OSPrioHighRdy
0008868c g     F .text	00000060 _fstat_r
00095910 g     F .text	0000001c OSTaskDelHook
0009a5e4 g     O .bss	00000004 errno
00095594 g       .text	00000000 OSStartHighRdy
00091e48 g     F .text	000001e8 OSTaskCreateExt
00087b08 g     F .text	000000ac _ratio
00080690 g     F .text	0000003c initialize_task
0008eac0 g     F .text	00000064 OSFlagPendGetFlagsRdy
00098aca g     O .rwdata	00000002 OSTaskStatStkSize
0008dbc8 g     F .text	0000031c OSFlagAccept
000900d0 g     F .text	000000c8 OSQFlush
0008fb14 g     F .text	0000014c OSQAccept
00098a68 g     O .rwdata	00000004 alt_argv
000a0a14 g       *ABS*	00000000 _gp
00086ef0 g     F .text	000000fc _s2b
00087104 g     F .text	0000003c _i2b
00091c8c g     F .text	000001bc OSTaskCreate
000917c4 g     F .text	000004c8 OSTaskChangePrio
0009a5f4 g     O .bss	00000004 alt_heapsem
0008da40 g     F .text	00000188 OSDebugInit
00092030 g     F .text	00000348 OSTaskDel
00080a9c g     F .text	0000088c custom_scheduler
000977fc g     O .rwdata	00000180 alt_fd_list
000a279c g     O .bss	00000370 OSFlagTbl
00081964 g     F .text	0000006c custom_delay
0008cda4 g     F .text	000000a0 OS_EventTaskRemove
00094c00 g     F .text	00000090 alt_find_dev
00086a98 g     F .text	000000bc memcpy
00098ab4 g     O .rwdata	00000002 OSRdyTblSize
000945e0 g     F .text	00000044 alt_up_character_lcd_write_fd
000857e8 g     F .text	00000014 _cleanup_r
0008a22c g     F .text	000000d0 __floatsidf
00095020 g     F .text	00000074 alt_io_redirect
0008a1a0 g     F .text	0000008c __ltdf2
00095f98 g       *ABS*	00000000 __DTOR_END__
0008083c g     F .text	00000078 init_OS_data_structs
0008ba64 g     F .text	00000130 OSEventNameGet
00098a98 g     O .rwdata	00000002 OSFlagMax
0008c458 g     F .text	000000e8 OSIntExit
00098ad2 g     O .rwdata	00000002 OSTCBSize
0009a617 g     O .bss	00000001 OSPrioCur
00093d60 g     F .text	000002cc altera_avalon_jtag_uart_read
000862ec g     F .text	00000014 malloc
00081acc g     F .text	00000010 __udivsi3
0008ad44 g     F .text	000000c0 isatty
0009c648 g     O .bss	00004000 periodic_task_stk
00098ab8 g     O .rwdata	00000002 OSStkWidth
00096cc4 g     O .rodata	000000c8 __mprec_tens
00098aac g     O .rwdata	00000002 OSPtrSize
00086164 g     F .text	00000008 __locale_charset
00098a8c g     O .rwdata	00000002 OSEventTblSize
00095508 g       .text	00000000 OSCtxSw
00098a3c g     O .rwdata	00000004 __malloc_top_pad
0009a630 g     O .bss	00000004 OSTCBList
0009a5e8 g     O .bss	00000004 alt_fd_list_lock
00098a28 g     O .rwdata	00000004 __mb_cur_max
0008616c g     F .text	0000000c _localeconv_r
000a2b0c g     O .bss	00000c30 OSMemTbl
0009a634 g     O .bss	00000001 OSTickStepState
0008822c g     F .text	0000004c _sbrk_r
00098ab0 g     O .rwdata	00000002 OSQMax
000861a4 g     F .text	00000148 __smakebuf
000a373c g     O .bss	00000800 OSTaskStatStk
0008f630 g     F .text	00000104 OSMemNameGet
00098a90 g     O .rwdata	00000002 OSFlagEn
00088750 g     F .text	00000064 _read_r
00098ad6 g     O .rwdata	00000002 OSTimeTickHookEn
000905b0 g     F .text	00000174 OSQPost
0008f28c g     F .text	000000a8 OS_FlagUnlink
00097398 g     O .rwdata	0000000c __lc_ctype
00098a54 g     O .rwdata	00000004 alt_max_fd
0008d338 g     F .text	00000068 OS_MemCopy
0008d3a0 g     F .text	000000c4 OS_Sched
0008a68c g     F .text	00000128 __unpack_d
0008f528 g     F .text	00000108 OSMemGet
0009268c g     F .text	000001b4 OSTaskNameSet
000856a8 g     F .text	000000e8 fflush
00098a34 g     O .rwdata	00000004 __malloc_max_sbrked_mem
0009a5fc g     O .bss	00000004 OSCtxSwCtr
0009595c g     F .text	00000018 OSTimeTickHook
0008aba0 g     F .text	000001a4 alt_irq_register
00098a9a g     O .rwdata	00000002 OSFlagNameSize
0008ce44 g     F .text	000000ec OS_EventTaskRemoveMulti
0008983c g     F .text	0000006c __adddf3
0008cc74 g     F .text	00000130 OS_EventTaskWaitMulti
00098ab2 g     O .rwdata	00000002 OSQSize
00088ed0 g     F .text	00000650 __umoddi3
0008af30 g     F .text	000000f0 lseek
000910ec g     F .text	00000214 OSSemPend
000a0648 g     O .bss	00000010 PBSemaphore
00087c64 g     F .text	00000550 _realloc_r
00098a9c g     O .rwdata	00000002 OSLowestPrio
000a5bcc g       *ABS*	00000000 __bss_end
00094e48 g     F .text	000000fc alt_iic_isr_register
000959bc g     F .text	0000001c OSTCBInitHook
00098ae2 g     O .rwdata	00000002 OSTmrCfgTicksPerSec
000953e8 g     F .text	00000104 alt_tick
00087050 g     F .text	000000b4 _lo0bits
000a0658 g     O .bss	0000006c custom_scheduler_tcb
000888e0 g     F .text	000005f0 __udivdi3
00098a84 g     O .rwdata	00000002 OSEventEn
00096c9c g     O .rodata	00000028 __mprec_bigtens
00098ade g     O .rwdata	00000002 OSTmrCfgNameSize
000875f8 g     F .text	00000064 __mcmp
00094e08 g     F .text	00000040 alt_ic_irq_enabled
0008f0d8 g     F .text	000000d8 OS_FlagInit
0009534c g     F .text	0000009c alt_alarm_stop
00098ac0 g     O .rwdata	00000002 OSTaskIdleStkSize
00098a5c g     O .rwdata	00000004 alt_irq_active
00090cd8 g     F .text	000000bc OSSemAccept
0008f850 g     F .text	000000f4 OSMemPut
0008f334 g     F .text	000001f4 OSMemCreate
0009a60c g     O .bss	00000004 OSIdleCtrMax
000800ec g     F .exceptions	000000e0 alt_irq_handler
000977d4 g     O .rwdata	00000028 alt_dev_null
00098ad4 g     O .rwdata	00000002 OSTicksPerSec
00080288 g     F .text	00000040 KEY2_Pressed
000948bc g     F .text	00000030 alt_up_character_lcd_cursor_blink_on
00095508 g       .text	00000000 OSIntCtxSw
00094a40 g     F .text	00000018 alt_dcache_flush_all
000a06c4 g     O .bss	000000d8 periodic_task_tcb
0008a2fc g     F .text	000000b0 __fixdfsi
0009a628 g     O .bss	00000004 OSTCBFreeList
00098b00 g       *ABS*	00000000 __ram_rwdata_end
000881b4 g     F .text	00000044 isinf
00091300 g     F .text	00000174 OSSemPendAbort
00098a4c g     O .rwdata	00000008 alt_dev_list
0008b640 g     F .text	00000120 write
00098ad8 g     O .rwdata	00000002 OSVersionNbr
0009701c g       *ABS*	00000000 __ram_rodata_end
0008aa84 g     F .text	000000d4 fstat
00081b14 g     F .text	00000024 fprintf
0008a3ac g     F .text	00000050 __lshrdi3
00098a80 g     O .rwdata	00000004 OSEndiannessTest
00098a24 g     O .rwdata	00000004 __nlocale_changed
00081adc g     F .text	00000010 __umodsi3
00098a92 g     O .rwdata	00000002 OSFlagGrpSize
000a5bcc g       *ABS*	00000000 end
00087394 g     F .text	0000012c _pow5mult
000936a8 g     F .text	00000184 altera_avalon_jtag_uart_init
0008d5f4 g     F .text	000000cc OS_TaskStat
00095f98 g       *ABS*	00000000 __CTOR_LIST__
00100000 g       *ABS*	00000000 __alt_stack_pointer
0009438c g     F .text	0000008c alt_avalon_timer_sc_init
0009402c g     F .text	000002ec altera_avalon_jtag_uart_write
000869cc g     F .text	000000cc memchr
0008d2e8 g     F .text	00000050 OS_MemClr
0009451c g     F .text	00000068 alt_up_character_lcd_write
00081c48 g     F .text	00001c78 ___vfprintf_internal_r
000955d8 g     F .text	0000031c OSTaskStkInit
000859cc g     F .text	000002b8 _free_r
0008b13c g     F .text	00000234 alt_printf
000839b4 g     F .text	00000140 _wcsrtombs_r
0008ca14 g     F .text	00000174 OS_EventTaskRdy
0009a608 g     O .bss	00000001 OSCPUUsage
00098a20 g     O .rwdata	00000004 __mlocale_changed
00098a38 g     O .rwdata	00000004 __malloc_sbrk_base
000801cc g     F .text	0000003c _start
00098af0 g     O .rwdata	00000004 _alt_tick_rate
00090198 g     F .text	000002a4 OSQPend
00092f80 g     F .text	000000f8 OSTimeDly
00081b80 g     F .text	00000070 rand
00098af4 g     O .rwdata	00000004 _alt_nticks
0008b3a4 g     F .text	00000120 read
000934c0 g     F .text	00000080 alt_sys_init
0009474c g     F .text	000000b0 alt_up_character_lcd_shift_display
0009a61e g     O .bss	00000001 OSTaskCtr
0008093c g     F .text	000000b0 periodic_task1
00083af4 g     F .text	0000003c wcsrtombs
00093078 g     F .text	00000180 OSTimeDlyHMSM
000947fc g     F .text	00000090 alt_up_character_lcd_erase_pos
00093bfc g     F .text	0000006c altera_avalon_jtag_uart_close
00081aec g     F .text	00000028 __mulsi3
0009701c g       *ABS*	00000000 __ram_rwdata_start
00095f98 g       *ABS*	00000000 __ram_rodata_start
000973a4 g     O .rwdata	00000028 __malloc_current_mallinfo
00098a86 g     O .rwdata	00000002 OSEventMax
00085c84 g     F .text	00000384 __sfvwrite
00091474 g     F .text	0000011c OSSemPost
000888c0 g     F .text	00000020 __negdi2
00080248 g     F .text	00000040 KEY1_Pressed
0008c5c4 g     F .text	000000d8 OSSchedUnlock
00093570 g     F .text	00000054 altera_avalon_jtag_uart_read_fd
00095abc g     F .text	000000e8 alt_get_fd
0009a638 g     O .bss	00000004 OSMemFreeList
0008c6fc g     F .text	000000b8 OSStatInit
0008eebc g     F .text	000000d4 OSFlagQuery
0008a7b4 g     F .text	00000114 __fpcmp_parts_d
00098abc g     O .rwdata	00000002 OSTaskCreateExtEn
00088630 g     F .text	0000005c _close_r
00095d24 g     F .text	00000070 memcmp
0008c9fc g     F .text	00000018 OS_Dummy
00093618 g     F .text	00000044 altera_avalon_jtag_uart_close_fd
000a5bcc g       *ABS*	00000000 __alt_stack_base
0009365c g     F .text	0000004c altera_avalon_jtag_uart_ioctl_fd
000a3f3c g     O .bss	000001e0 OSQTbl
00089d20 g     F .text	00000250 __divdf3
000973cc g     O .rwdata	00000408 __malloc_av_
0009a62c g     O .bss	00000004 OSTCBHighRdy
00089920 g     F .text	00000400 __muldf3
00088278 g     F .text	00000070 __sread
0009a63c g     O .bss	00000004 OSQFreeList
000959d8 g     F .text	000000e4 alt_find_file
00094a58 g     F .text	000000b0 alt_dev_llist_insert
0008b8a0 g     F .text	000000fc __malloc_lock
0008b580 g     F .text	000000c0 sbrk
0008bb94 g     F .text	00000144 OSEventNameSet
0008157c g     F .text	000003e8 custom_task_create
0008856c g     F .text	000000c4 _calloc_r
0009a619 g     O .bss	00000001 OSRdyGrp
0009a5e4 g       *ABS*	00000000 __bss_start
00086c5c g     F .text	0000009c memset
000806cc g     F .text	00000170 main
00098a6c g     O .rwdata	00000004 alt_envp
00098a30 g     O .rwdata	00000004 __malloc_max_total_mem
000935c4 g     F .text	00000054 altera_avalon_jtag_uart_write_fd
00095e20 g     F .text	00000118 __swbuf
00081b6c g     F .text	00000014 srand
00096ecc g     O .rodata	00000100 OSUnMapTbl
000877e0 g     F .text	00000088 _ulp
00098ab6 g     O .rwdata	00000002 OSSemEn
0009469c g     F .text	000000b0 alt_up_character_lcd_shift_cursor
0008eb24 g     F .text	00000398 OSFlagPost
000883e0 g     F .text	00000014 __sclose
0008046c g     F .text	00000224 alt_ucosii_simple_error_handler
00100000 g       *ABS*	00000000 __alt_heap_limit
0008cb88 g     F .text	000000ec OS_EventTaskWait
0008d6c0 g     F .text	000000bc OS_TaskStatStkChk
000a5ac0 g     O .bss	0000010c _atexit0
00092378 g     F .text	00000170 OSTaskDelReq
000842bc g     F .text	000013ec _dtoa_r
00086314 g     F .text	000006b8 _malloc_r
00098a58 g     O .rwdata	00000004 alt_errno
0008c69c g     F .text	00000060 OSStart
0008b848 g     F .text	00000058 __env_unlock
00086008 g     F .text	000000d4 _fwalk
00092840 g     F .text	000001d4 OSTaskResume
0008f944 g     F .text	00000100 OSMemQuery
00098ac8 g     O .rwdata	00000002 OSTaskStatEn
00098aa2 g     O .rwdata	00000002 OSMemMax
00090724 g     F .text	00000178 OSQPostFront
00095d94 g     F .text	0000008c putc
00081a30 g     F .text	00000050 __divsi3
0009a61a g     O .bss	00000003 OSRdyTbl
00098a7c g     O .rwdata	00000002 OSDebugEn
00096d98 g     O .rodata	00000014 __thenan_df
000944e4 g     F .text	00000038 alt_up_character_lcd_open_dev
000858a8 g     F .text	00000124 _malloc_trim_r
00095f98 g       *ABS*	00000000 __CTOR_END__
00098a94 g     O .rwdata	00000002 OSFlagNodeSize
00098adc g     O .rwdata	00000002 OSTmrCfgMax
000944b8 g     F .text	0000002c alt_up_character_lcd_init
000883f4 g     F .text	000000b8 strcmp
0008fc60 g     F .text	000001c0 OSQCreate
000924e8 g     F .text	000001a4 OSTaskNameGet
00095f98 g       .rodata	00000000 __flash_rodata_start
0009089c g     F .text	0000021c OSQPostOpt
0008c7b4 g     F .text	0000022c OSTimeTick
00098ac4 g     O .rwdata	00000002 OSTaskMax
00095f98 g       *ABS*	00000000 __DTOR_LIST__
00090d94 g     F .text	000000e8 OSSemCreate
00098ae8 g     O .rwdata	00000002 OSTmrWheelSize
00089ffc g     F .text	0000008c __nedf2
00098abe g     O .rwdata	00000002 OSTaskDelEn
00080000 g       *ABS*	00000000 __alt_mem_sram_0
00091590 g     F .text	00000134 OSSemQuery
0008fe20 g     F .text	000002b0 OSQDel
0009043c g     F .text	00000174 OSQPendAbort
00093490 g     F .text	00000030 alt_irq_init
0008b50c g     F .text	00000074 alt_release_fd
000803dc g     F .text	00000050 init_button_irq
00083f84 g     F .text	0000010c __swsetup
0009488c g     F .text	00000030 alt_up_character_lcd_cursor_off
00096dac g     O .rodata	00000100 .hidden __clz_tab
00098a1c g     O .rwdata	00000004 _PathLocale
00095ba4 g     F .text	0000009c atexit
00088508 g     F .text	00000064 _write_r
00087868 g     F .text	00000124 _b2d
0008c540 g     F .text	00000084 OSSchedLock
00086178 g     F .text	0000001c setlocale
0008dee4 g     F .text	00000118 OSFlagCreate
000808b4 g     F .text	00000088 init_create_tasks
00098a18 g     O .rwdata	00000004 _impure_ptr
00098a64 g     O .rwdata	00000004 alt_argc
00094ba8 g     F .text	00000058 _do_dtors
00098a8e g     O .rwdata	00000002 OSEventMultiEn
000881f8 g     F .text	00000034 isnan
0008dffc g     F .text	0000027c OSFlagDel
0009a600 g     O .bss	00000004 OSEventFreeList
00080020 g       .exceptions	00000000 alt_irq_entry
0008e4fc g     F .text	000005c4 OSFlagPend
00098ada g     O .rwdata	00000002 OSTmrEn
00081328 g     F .text	00000254 custom_task_del
00098a44 g     O .rwdata	00000008 alt_fs_list
0008042c g     F .text	00000040 alt_ucosii_check_return_code
0008d4c8 g     F .text	00000078 OS_StrCopy
00098aa4 g     O .rwdata	00000002 OSMemNameSize
0009598c g     F .text	00000018 OSInitHookEnd
00080020 g       *ABS*	00000000 __ram_exceptions_start
00098ad0 g     O .rwdata	00000002 OSTCBPrioTblMax
00086194 g     F .text	00000010 localeconv
00086dcc g     F .text	00000124 _multadd
00098acc g     O .rwdata	00000002 OSTaskStatStkChkEn
00094ca8 g     F .text	0000004c alt_ic_isr_register
00098aa0 g     O .rwdata	00000002 OSMemEn
00098aaa g     O .rwdata	00000002 OSMutexEn
00098b00 g       *ABS*	00000000 _edata
00080208 g     F .text	00000040 KEY0_Pressed
000a5bcc g       *ABS*	00000000 _end
0009a615 g     O .bss	00000001 OSIntNesting
000801cc g       *ABS*	00000000 __ram_exceptions_end
00093c68 g     F .text	000000f8 altera_avalon_jtag_uart_ioctl
000931f8 g     F .text	000001d8 OSTimeDlyResume
0008e3b0 g     F .text	0000014c OSFlagNameSet
000809ec g     F .text	000000b0 periodic_task2
00092a14 g     F .text	000001d8 OSTaskStkChk
00094d7c g     F .text	0000008c alt_ic_irq_disable
00098aa6 g     O .rwdata	00000002 OSMemSize
000882e8 g     F .text	00000080 __swrite
00098a40 g     O .rwdata	00000004 __malloc_trim_threshold
000954ec g     F .text	0000001c altera_nios2_qsys_irq_init
0009a624 g     O .bss	00000004 OSTCBCur
00095c40 g     F .text	000000e4 exit
00098aa8 g     O .rwdata	00000002 OSMemTblSize
0008765c g     F .text	00000184 __mdiff
00081a80 g     F .text	0000004c __modsi3
00100000 g       *ABS*	00000000 __alt_data_end
00080020 g     F .exceptions	00000000 alt_exception
0008c390 g     F .text	00000050 OSInit
00092dd0 g     F .text	0000013c OSTaskQuery
00094584 g     F .text	0000005c alt_up_character_lcd_string
00090c38 g     F .text	000000a0 OS_QInit
0008d540 g     F .text	00000050 OS_StrLen
0008f734 g     F .text	0000011c OSMemNameSet
00098a14 g     O .rwdata	00000004 performance_name
00098ac2 g     O .rwdata	00000002 OSTaskProfileEn
0009a640 g     O .bss	00000004 OSTime
000a079c g     O .bss	00002000 initialize_task_stk
000a411c g     O .bss	00000800 OSTaskIdleStk
00095f74 g     F .text	00000024 _exit
000948ec g     F .text	00000154 alt_alarm_start
0008e278 g     F .text	00000138 OSFlagNameGet
000933d0 g     F .text	00000060 OSTimeGet
000887b4 g     F .text	0000010c __muldi3
000884ac g     F .text	0000005c strlen
0009592c g     F .text	00000018 OSTaskSwHook
0009517c g     F .text	00000188 open
000a491c g     O .bss	00000b40 OSEventTbl
0008a114 g     F .text	0000008c __gedf2
0008b370 g     F .text	00000034 alt_putchar
000a545c g     O .bss	00000510 OSTCBTbl
000916c4 g     F .text	00000100 OSSemSet
00094c90 g     F .text	00000018 alt_icache_flush_all
00094624 g     F .text	00000078 alt_up_character_lcd_set_cursor_pos
00098a60 g     O .rwdata	00000004 alt_priority_mask
00090e7c g     F .text	00000270 OSSemDel
0009a604 g     O .bss	00000004 OSFlagFreeList
00094cf4 g     F .text	00000088 alt_ic_irq_enable
00098a88 g     O .rwdata	00000002 OSEventNameSize
000838c0 g     F .text	0000006c __vfprintf_internal
0009a614 g     O .bss	00000001 OSStatRdy
000a596c g     O .bss	00000054 OSTCBPrioTbl
00083b30 g     F .text	00000454 _wctomb_r
0008b7a8 g     F .text	000000a0 __env_lock
00098ace g     O .rwdata	00000002 OSTaskSwHookEn
000898a8 g     F .text	00000078 __subdf3
00098af8 g     O .rwdata	00000008 alt_alarm_list
00098a96 g     O .rwdata	00000002 OSFlagWidth
00094b50 g     F .text	00000058 _do_ctors
00080308 g     F .text	000000d4 handle_button_interrupts
00083990 g     F .text	00000024 wcrtomb
0008a918 g     F .text	000000fc close
0009a5ec g     O .bss	00000004 alt_envsem
0009a610 g     O .bss	00000004 OSIdleCtrRun
0008c9e0 g     F .text	0000001c OSVersion
00098ae0 g     O .rwdata	00000002 OSTmrCfgWheelSize
0008ae4c g     F .text	0000007c alt_load
00092f0c g     F .text	00000074 OS_TaskStkClr
0008a3fc g     F .text	00000290 __pack_d
00098aba g     O .rwdata	00000002 OSTaskCreateEn
0008cf30 g     F .text	00000068 OS_EventWaitListInit
000959a4 g     F .text	00000018 OSTaskIdleHook
000874c0 g     F .text	00000138 _lshift
00086300 g     F .text	00000014 free
00092bec g     F .text	000001e4 OSTaskSuspend
00086da8 g     F .text	00000024 _Bfree
0008d590 g     F .text	00000064 OS_TaskIdle
00098ae6 g     O .rwdata	00000002 OSTmrTblSize
00090ab8 g     F .text	00000180 OSQQuery


Disassembly of section .entry:

00080000 <__reset>:
   80000:	00400234 	movhi	at,8
   80004:	08407314 	ori	at,at,460
   80008:	0800683a 	jmp	at
	...
Disassembly of section .exceptions:

00080020 <alt_exception>:
   80020:	deffed04 	addi	sp,sp,-76
   80024:	dfc00015 	stw	ra,0(sp)
   80028:	d8400215 	stw	at,8(sp)
   8002c:	d8800315 	stw	r2,12(sp)
   80030:	d8c00415 	stw	r3,16(sp)
   80034:	d9000515 	stw	r4,20(sp)
   80038:	d9400615 	stw	r5,24(sp)
   8003c:	d9800715 	stw	r6,28(sp)
   80040:	d9c00815 	stw	r7,32(sp)
   80044:	000b307a 	rdctl	r5,estatus
   80048:	da000915 	stw	r8,36(sp)
   8004c:	da400a15 	stw	r9,40(sp)
   80050:	da800b15 	stw	r10,44(sp)
   80054:	dac00c15 	stw	r11,48(sp)
   80058:	db000d15 	stw	r12,52(sp)
   8005c:	db400e15 	stw	r13,56(sp)
   80060:	db800f15 	stw	r14,60(sp)
   80064:	dbc01015 	stw	r15,64(sp)
   80068:	d9401115 	stw	r5,68(sp)
   8006c:	ebffff04 	addi	r15,ea,-4
   80070:	dbc01215 	stw	r15,72(sp)
   80074:	0009313a 	rdctl	r4,ipending
   80078:	2880004c 	andi	r2,r5,1
   8007c:	10000326 	beq	r2,zero,8008c <__ram_exceptions_start+0x6c>
   80080:	20000226 	beq	r4,zero,8008c <__ram_exceptions_start+0x6c>
   80084:	00800ec0 	call	800ec <alt_irq_handler>
   80088:	00000306 	br	80098 <__ram_exceptions_start+0x78>
   8008c:	df401215 	stw	ea,72(sp)
   80090:	e8bfff17 	ldw	r2,-4(ea)
   80094:	003da03a 	break	0
   80098:	d9401117 	ldw	r5,68(sp)
   8009c:	df401217 	ldw	ea,72(sp)
   800a0:	dfc00017 	ldw	ra,0(sp)
   800a4:	2801707a 	wrctl	estatus,r5
   800a8:	d8400217 	ldw	at,8(sp)
   800ac:	d8800317 	ldw	r2,12(sp)
   800b0:	d8c00417 	ldw	r3,16(sp)
   800b4:	d9000517 	ldw	r4,20(sp)
   800b8:	d9400617 	ldw	r5,24(sp)
   800bc:	d9800717 	ldw	r6,28(sp)
   800c0:	d9c00817 	ldw	r7,32(sp)
   800c4:	da000917 	ldw	r8,36(sp)
   800c8:	da400a17 	ldw	r9,40(sp)
   800cc:	da800b17 	ldw	r10,44(sp)
   800d0:	dac00c17 	ldw	r11,48(sp)
   800d4:	db000d17 	ldw	r12,52(sp)
   800d8:	db400e17 	ldw	r13,56(sp)
   800dc:	db800f17 	ldw	r14,60(sp)
   800e0:	dbc01017 	ldw	r15,64(sp)
   800e4:	dec01304 	addi	sp,sp,76
   800e8:	ef80083a 	eret

000800ec <alt_irq_handler>:
   800ec:	defff904 	addi	sp,sp,-28
   800f0:	dfc00615 	stw	ra,24(sp)
   800f4:	df000515 	stw	fp,20(sp)
   800f8:	df000504 	addi	fp,sp,20
   800fc:	008c3e00 	call	8c3e0 <OSIntEnter>
   80100:	0005313a 	rdctl	r2,ipending
   80104:	e0bfff15 	stw	r2,-4(fp)
   80108:	e0bfff17 	ldw	r2,-4(fp)
   8010c:	e0bffe15 	stw	r2,-8(fp)
   80110:	e0bffe17 	ldw	r2,-8(fp)
   80114:	e0bffb15 	stw	r2,-20(fp)
   80118:	e03ffd15 	stw	zero,-12(fp)
   8011c:	00800044 	movi	r2,1
   80120:	e0bffc15 	stw	r2,-16(fp)
   80124:	e0fffb17 	ldw	r3,-20(fp)
   80128:	e0bffc17 	ldw	r2,-16(fp)
   8012c:	1884703a 	and	r2,r3,r2
   80130:	1005003a 	cmpeq	r2,r2,zero
   80134:	10000f1e 	bne	r2,zero,80174 <alt_irq_handler+0x88>
   80138:	00c002b4 	movhi	r3,10
   8013c:	18d67004 	addi	r3,r3,22976
   80140:	e0bffd17 	ldw	r2,-12(fp)
   80144:	100490fa 	slli	r2,r2,3
   80148:	10c9883a 	add	r4,r2,r3
   8014c:	00c002b4 	movhi	r3,10
   80150:	18d67004 	addi	r3,r3,22976
   80154:	e0bffd17 	ldw	r2,-12(fp)
   80158:	100490fa 	slli	r2,r2,3
   8015c:	10c5883a 	add	r2,r2,r3
   80160:	10800104 	addi	r2,r2,4
   80164:	20c00017 	ldw	r3,0(r4)
   80168:	11000017 	ldw	r4,0(r2)
   8016c:	183ee83a 	callr	r3
   80170:	00000706 	br	80190 <alt_irq_handler+0xa4>
   80174:	e0bffc17 	ldw	r2,-16(fp)
   80178:	1085883a 	add	r2,r2,r2
   8017c:	e0bffc15 	stw	r2,-16(fp)
   80180:	e0bffd17 	ldw	r2,-12(fp)
   80184:	10800044 	addi	r2,r2,1
   80188:	e0bffd15 	stw	r2,-12(fp)
   8018c:	003fe506 	br	80124 <alt_irq_handler+0x38>
   80190:	0005313a 	rdctl	r2,ipending
   80194:	e0bffe15 	stw	r2,-8(fp)
   80198:	e0bffe17 	ldw	r2,-8(fp)
   8019c:	e0bfff15 	stw	r2,-4(fp)
   801a0:	e0bfff17 	ldw	r2,-4(fp)
   801a4:	e0bffb15 	stw	r2,-20(fp)
   801a8:	e0bffb17 	ldw	r2,-20(fp)
   801ac:	1005003a 	cmpeq	r2,r2,zero
   801b0:	1000011e 	bne	r2,zero,801b8 <alt_irq_handler+0xcc>
   801b4:	003fd806 	br	80118 <alt_irq_handler+0x2c>
   801b8:	008c4580 	call	8c458 <OSIntExit>
   801bc:	dfc00617 	ldw	ra,24(sp)
   801c0:	df000517 	ldw	fp,20(sp)
   801c4:	dec00704 	addi	sp,sp,28
   801c8:	f800283a 	ret
Disassembly of section .text:

000801cc <_start>:
   801cc:	06c00434 	movhi	sp,16
   801d0:	dec00014 	ori	sp,sp,0
   801d4:	068002b4 	movhi	gp,10
   801d8:	d6828514 	ori	gp,gp,2580
   801dc:	00800274 	movhi	r2,9
   801e0:	10a97914 	ori	r2,r2,42468
   801e4:	00c002b4 	movhi	r3,10
   801e8:	18d6f314 	ori	r3,r3,23500
   801ec:	10c00326 	beq	r2,r3,801fc <__ram_exceptions_end+0x30>
   801f0:	10000015 	stw	zero,0(r2)
   801f4:	10800104 	addi	r2,r2,4
   801f8:	10fffd36 	bltu	r2,r3,801f0 <__ram_exceptions_end+0x24>
   801fc:	008ae4c0 	call	8ae4c <alt_load>
   80200:	008b0680 	call	8b068 <alt_main>

00080204 <alt_after_alt_main>:
   80204:	003fff06 	br	80204 <alt_after_alt_main>

00080208 <KEY0_Pressed>:
// Semaphore from uCOS
extern OS_EVENT *PBSemaphore[];

// Function for post semaphore when PB0 is pressed
void KEY0_Pressed() {
   80208:	defffd04 	addi	sp,sp,-12
   8020c:	dfc00215 	stw	ra,8(sp)
   80210:	df000115 	stw	fp,4(sp)
   80214:	df000104 	addi	fp,sp,4
	INT8U return_code = OS_NO_ERR;
   80218:	e03fff05 	stb	zero,-4(fp)

	return_code = OSSemPost(PBSemaphore[0]);
   8021c:	008002b4 	movhi	r2,10
   80220:	10819204 	addi	r2,r2,1608
   80224:	11000017 	ldw	r4,0(r2)
   80228:	00914740 	call	91474 <OSSemPost>
   8022c:	e0bfff05 	stb	r2,-4(fp)
  	alt_ucosii_check_return_code(return_code);
   80230:	e13fff03 	ldbu	r4,-4(fp)
   80234:	008042c0 	call	8042c <alt_ucosii_check_return_code>
}
   80238:	dfc00217 	ldw	ra,8(sp)
   8023c:	df000117 	ldw	fp,4(sp)
   80240:	dec00304 	addi	sp,sp,12
   80244:	f800283a 	ret

00080248 <KEY1_Pressed>:

// Function for post semaphore when PB1 is pressed
void KEY1_Pressed() {
   80248:	defffd04 	addi	sp,sp,-12
   8024c:	dfc00215 	stw	ra,8(sp)
   80250:	df000115 	stw	fp,4(sp)
   80254:	df000104 	addi	fp,sp,4
	INT8U return_code = OS_NO_ERR;
   80258:	e03fff05 	stb	zero,-4(fp)

	return_code = OSSemPost(PBSemaphore[1]);
   8025c:	008002b4 	movhi	r2,10
   80260:	10819204 	addi	r2,r2,1608
   80264:	11000117 	ldw	r4,4(r2)
   80268:	00914740 	call	91474 <OSSemPost>
   8026c:	e0bfff05 	stb	r2,-4(fp)
  	alt_ucosii_check_return_code(return_code);
   80270:	e13fff03 	ldbu	r4,-4(fp)
   80274:	008042c0 	call	8042c <alt_ucosii_check_return_code>
}
   80278:	dfc00217 	ldw	ra,8(sp)
   8027c:	df000117 	ldw	fp,4(sp)
   80280:	dec00304 	addi	sp,sp,12
   80284:	f800283a 	ret

00080288 <KEY2_Pressed>:

// Function for post semaphore when PB2 is pressed
void KEY2_Pressed() {
   80288:	defffd04 	addi	sp,sp,-12
   8028c:	dfc00215 	stw	ra,8(sp)
   80290:	df000115 	stw	fp,4(sp)
   80294:	df000104 	addi	fp,sp,4
	INT8U return_code = OS_NO_ERR;
   80298:	e03fff05 	stb	zero,-4(fp)

	return_code = OSSemPost(PBSemaphore[2]);
   8029c:	008002b4 	movhi	r2,10
   802a0:	10819204 	addi	r2,r2,1608
   802a4:	11000217 	ldw	r4,8(r2)
   802a8:	00914740 	call	91474 <OSSemPost>
   802ac:	e0bfff05 	stb	r2,-4(fp)
  	alt_ucosii_check_return_code(return_code);
   802b0:	e13fff03 	ldbu	r4,-4(fp)
   802b4:	008042c0 	call	8042c <alt_ucosii_check_return_code>
}
   802b8:	dfc00217 	ldw	ra,8(sp)
   802bc:	df000117 	ldw	fp,4(sp)
   802c0:	dec00304 	addi	sp,sp,12
   802c4:	f800283a 	ret

000802c8 <KEY3_Pressed>:

// Function for post semaphore when PB3 is pressed
void KEY3_Pressed() {
   802c8:	defffd04 	addi	sp,sp,-12
   802cc:	dfc00215 	stw	ra,8(sp)
   802d0:	df000115 	stw	fp,4(sp)
   802d4:	df000104 	addi	fp,sp,4
	INT8U return_code = OS_NO_ERR;
   802d8:	e03fff05 	stb	zero,-4(fp)

	return_code = OSSemPost(PBSemaphore[3]);
   802dc:	008002b4 	movhi	r2,10
   802e0:	10819204 	addi	r2,r2,1608
   802e4:	11000317 	ldw	r4,12(r2)
   802e8:	00914740 	call	91474 <OSSemPost>
   802ec:	e0bfff05 	stb	r2,-4(fp)
  	alt_ucosii_check_return_code(return_code);
   802f0:	e13fff03 	ldbu	r4,-4(fp)
   802f4:	008042c0 	call	8042c <alt_ucosii_check_return_code>
}
   802f8:	dfc00217 	ldw	ra,8(sp)
   802fc:	df000117 	ldw	fp,4(sp)
   80300:	dec00304 	addi	sp,sp,12
   80304:	f800283a 	ret

00080308 <handle_button_interrupts>:
// ISR when any PB is pressed
void handle_button_interrupts()
{
   80308:	defffc04 	addi	sp,sp,-16
   8030c:	dfc00315 	stw	ra,12(sp)
   80310:	df000215 	stw	fp,8(sp)
   80314:	dc000115 	stw	r16,4(sp)
   80318:	df000204 	addi	fp,sp,8
	OSIntEnter();
   8031c:	008c3e00 	call	8c3e0 <OSIntEnter>

    outport(LED_GREEN_O_BASE,get_pio_edge_cap(PUSH_BUTTON_I_BASE)*get_pio_edge_cap(PUSH_BUTTON_I_BASE));
   80320:	04000434 	movhi	r16,16
   80324:	84042404 	addi	r16,r16,4240
   80328:	00800434 	movhi	r2,16
   8032c:	10841f04 	addi	r2,r2,4220
   80330:	11000037 	ldwio	r4,0(r2)
   80334:	00800434 	movhi	r2,16
   80338:	10841f04 	addi	r2,r2,4220
   8033c:	11400037 	ldwio	r5,0(r2)
   80340:	0081aec0 	call	81aec <__mulsi3>
   80344:	80800035 	stwio	r2,0(r16)
    switch(get_pio_edge_cap(PUSH_BUTTON_I_BASE)) {
   80348:	00800434 	movhi	r2,16
   8034c:	10841f04 	addi	r2,r2,4220
   80350:	10800037 	ldwio	r2,0(r2)
   80354:	e0bffe15 	stw	r2,-8(fp)
   80358:	e0fffe17 	ldw	r3,-8(fp)
   8035c:	188000a0 	cmpeqi	r2,r3,2
   80360:	1000101e 	bne	r2,zero,803a4 <handle_button_interrupts+0x9c>
   80364:	e0fffe17 	ldw	r3,-8(fp)
   80368:	188000c8 	cmpgei	r2,r3,3
   8036c:	1000041e 	bne	r2,zero,80380 <handle_button_interrupts+0x78>
   80370:	e0fffe17 	ldw	r3,-8(fp)
   80374:	18800060 	cmpeqi	r2,r3,1
   80378:	1000081e 	bne	r2,zero,8039c <handle_button_interrupts+0x94>
   8037c:	00000e06 	br	803b8 <handle_button_interrupts+0xb0>
   80380:	e0fffe17 	ldw	r3,-8(fp)
   80384:	18800120 	cmpeqi	r2,r3,4
   80388:	1000081e 	bne	r2,zero,803ac <handle_button_interrupts+0xa4>
   8038c:	e0fffe17 	ldw	r3,-8(fp)
   80390:	18800220 	cmpeqi	r2,r3,8
   80394:	1000071e 	bne	r2,zero,803b4 <handle_button_interrupts+0xac>
   80398:	00000706 	br	803b8 <handle_button_interrupts+0xb0>
    case 1: KEY0_Pressed(); break;
   8039c:	00802080 	call	80208 <KEY0_Pressed>
   803a0:	00000506 	br	803b8 <handle_button_interrupts+0xb0>
    case 2: KEY1_Pressed(); break;
   803a4:	00802480 	call	80248 <KEY1_Pressed>
   803a8:	00000306 	br	803b8 <handle_button_interrupts+0xb0>
    case 4: KEY2_Pressed(); break;
   803ac:	00802880 	call	80288 <KEY2_Pressed>
   803b0:	00000106 	br	803b8 <handle_button_interrupts+0xb0>
    case 8: KEY3_Pressed(); break;
   803b4:	00802c80 	call	802c8 <KEY3_Pressed>
    }
    set_pio_edge_cap(PUSH_BUTTON_I_BASE,0x0);
   803b8:	00800434 	movhi	r2,16
   803bc:	10841f04 	addi	r2,r2,4220
   803c0:	10000035 	stwio	zero,0(r2)

	OSIntExit();
   803c4:	008c4580 	call	8c458 <OSIntExit>
}
   803c8:	dfc00317 	ldw	ra,12(sp)
   803cc:	df000217 	ldw	fp,8(sp)
   803d0:	dc000117 	ldw	r16,4(sp)
   803d4:	dec00404 	addi	sp,sp,16
   803d8:	f800283a 	ret

000803dc <init_button_irq>:

// Function for initializing the ISR of the PBs
// The PBs are setup to generate interrupt on falling edge,
// and the interrupt is captured when the edge comes
void init_button_irq() {
   803dc:	defffe04 	addi	sp,sp,-8
   803e0:	dfc00115 	stw	ra,4(sp)
   803e4:	df000015 	stw	fp,0(sp)
   803e8:	d839883a 	mov	fp,sp
  // Enable all 4 button interrupts
  set_pio_irq_mask(PUSH_BUTTON_I_BASE, BUTTON_INT_MASK);
   803ec:	00800434 	movhi	r2,16
   803f0:	10841e04 	addi	r2,r2,4216
   803f4:	00c003c4 	movi	r3,15
   803f8:	10c00035 	stwio	r3,0(r2)

  // Reset the edge capture register
  set_pio_edge_cap(PUSH_BUTTON_I_BASE, 0x0);
   803fc:	00800434 	movhi	r2,16
   80400:	10841f04 	addi	r2,r2,4220
   80404:	10000035 	stwio	zero,0(r2)

  // Register the interrupt handler
  alt_irq_register( PUSH_BUTTON_I_IRQ, NULL, (void*)handle_button_interrupts );
   80408:	01000084 	movi	r4,2
   8040c:	000b883a 	mov	r5,zero
   80410:	01800234 	movhi	r6,8
   80414:	3180c204 	addi	r6,r6,776
   80418:	008aba00 	call	8aba0 <alt_irq_register>
}
   8041c:	dfc00117 	ldw	ra,4(sp)
   80420:	df000017 	ldw	fp,0(sp)
   80424:	dec00204 	addi	sp,sp,8
   80428:	f800283a 	ret

0008042c <alt_ucosii_check_return_code>:
 

 
void alt_ucosii_check_return_code(INT8U return_code)
{
   8042c:	defffd04 	addi	sp,sp,-12
   80430:	dfc00215 	stw	ra,8(sp)
   80434:	df000115 	stw	fp,4(sp)
   80438:	df000104 	addi	fp,sp,4
   8043c:	e13fff05 	stb	r4,-4(fp)
  if(return_code != OS_NO_ERR)
   80440:	e0bfff03 	ldbu	r2,-4(fp)
   80444:	1005003a 	cmpeq	r2,r2,zero
   80448:	1000041e 	bne	r2,zero,8045c <alt_ucosii_check_return_code+0x30>
  {
    OSSchedLock();  /* Disable Task Switching but still service other IRQs */
   8044c:	008c5400 	call	8c540 <OSSchedLock>
    alt_ucosii_simple_error_handler(return_code);
   80450:	e13fff03 	ldbu	r4,-4(fp)
   80454:	008046c0 	call	8046c <alt_ucosii_simple_error_handler>
    OSSchedUnlock(); /* Enable Task Switching */
   80458:	008c5c40 	call	8c5c4 <OSSchedUnlock>
  }
}
   8045c:	dfc00217 	ldw	ra,8(sp)
   80460:	df000117 	ldw	fp,4(sp)
   80464:	dec00304 	addi	sp,sp,12
   80468:	f800283a 	ret

0008046c <alt_ucosii_simple_error_handler>:
/*The following function is a generic error handler that doesn't actually do
 * proper error handling.  It's purpose is to simply alert the user that 
 * a MicroC/OS-II system call exited with some status other than "OK".  The 
 * current implementation terminates the program.  In a real application, there
 * should be some means to recover from errors from system calls.  This function
 * can be extended with additional inputs to produce a proper error handler that
 * controls the flow that is taken from different errors occurring at different 
 * locations in the application code.
 */

void alt_ucosii_simple_error_handler(INT8U return_code)
{
   8046c:	defffc04 	addi	sp,sp,-16
   80470:	dfc00315 	stw	ra,12(sp)
   80474:	df000215 	stw	fp,8(sp)
   80478:	df000204 	addi	fp,sp,8
   8047c:	e13ffe05 	stb	r4,-8(fp)
  printf("[Program Error]: See STDERR\n");
   80480:	01000274 	movhi	r4,9
   80484:	2117e604 	addi	r4,r4,24472
   80488:	0081b380 	call	81b38 <printf>
  switch (return_code) {
   8048c:	e0bffe03 	ldbu	r2,-8(fp)
   80490:	e0bfff15 	stw	r2,-4(fp)
   80494:	e0ffff17 	ldw	r3,-4(fp)
   80498:	18801968 	cmpgeui	r2,r3,101
   8049c:	1000731e 	bne	r2,zero,8066c <alt_ucosii_simple_error_handler+0x200>
   804a0:	e0bfff17 	ldw	r2,-4(fp)
   804a4:	100690ba 	slli	r3,r2,2
   804a8:	00800274 	movhi	r2,9
   804ac:	1098d604 	addi	r2,r2,25432
   804b0:	1885883a 	add	r2,r3,r2
   804b4:	10800017 	ldw	r2,0(r2)
   804b8:	1000683a 	jmp	r2
    case OS_PRIO_EXIST:
      fprintf(stderr, "Attempted to assign a task priority that is aready in use.\n");
   804bc:	d0a00117 	ldw	r2,-32764(gp)
   804c0:	11000317 	ldw	r4,12(r2)
   804c4:	01400274 	movhi	r5,9
   804c8:	2957ee04 	addi	r5,r5,24504
   804cc:	0081b140 	call	81b14 <fprintf>
      break;
   804d0:	00006b06 	br	80680 <alt_ucosii_simple_error_handler+0x214>
    case OS_PRIO_INVALID:
      fprintf(stderr, "Specified a task priority higher than the allowed maximum.\n");
   804d4:	d0a00117 	ldw	r2,-32764(gp)
   804d8:	11000317 	ldw	r4,12(r2)
   804dc:	01400274 	movhi	r5,9
   804e0:	2957fd04 	addi	r5,r5,24564
   804e4:	0081b140 	call	81b14 <fprintf>
      fprintf(stderr, "Task can not be assigned a priority higher than %d\n",OS_LOWEST_PRIO);
   804e8:	d0a00117 	ldw	r2,-32764(gp)
   804ec:	11000317 	ldw	r4,12(r2)
   804f0:	01400274 	movhi	r5,9
   804f4:	29580c04 	addi	r5,r5,24624
   804f8:	01800504 	movi	r6,20
   804fc:	0081b140 	call	81b14 <fprintf>
      break;
   80500:	00005f06 	br	80680 <alt_ucosii_simple_error_handler+0x214>
    case OS_NO_MORE_TCB:
      fprintf(stderr, "Task Control Blocks have been exhausted\n");
   80504:	d0a00117 	ldw	r2,-32764(gp)
   80508:	11000317 	ldw	r4,12(r2)
   8050c:	01400274 	movhi	r5,9
   80510:	29581904 	addi	r5,r5,24676
   80514:	0081b140 	call	81b14 <fprintf>
      fprintf(stderr, "The current max number of task is %d\n",OS_MAX_TASKS);
   80518:	d0a00117 	ldw	r2,-32764(gp)
   8051c:	11000317 	ldw	r4,12(r2)
   80520:	01400274 	movhi	r5,9
   80524:	29582404 	addi	r5,r5,24720
   80528:	01800284 	movi	r6,10
   8052c:	0081b140 	call	81b14 <fprintf>
      break;
   80530:	00005306 	br	80680 <alt_ucosii_simple_error_handler+0x214>
    case OS_MBOX_FULL:
      fprintf(stderr, "Attempted a Post to a Mailbox that already contains a message\n");
   80534:	d0a00117 	ldw	r2,-32764(gp)
   80538:	11000317 	ldw	r4,12(r2)
   8053c:	01400274 	movhi	r5,9
   80540:	29582e04 	addi	r5,r5,24760
   80544:	0081b140 	call	81b14 <fprintf>
      break;
   80548:	00004d06 	br	80680 <alt_ucosii_simple_error_handler+0x214>
    case OS_ERR_EVENT_TYPE:
      fprintf(stderr, "Attempted to access a resource that doesn't match the required data type\n");
   8054c:	d0a00117 	ldw	r2,-32764(gp)
   80550:	11000317 	ldw	r4,12(r2)
   80554:	01400274 	movhi	r5,9
   80558:	29583e04 	addi	r5,r5,24824
   8055c:	0081b140 	call	81b14 <fprintf>
      break;
   80560:	00004706 	br	80680 <alt_ucosii_simple_error_handler+0x214>
    case OS_ERR_PEVENT_NULL:
      fprintf(stderr, "Attempting access a resource that is pointing to NULL\n");
   80564:	d0a00117 	ldw	r2,-32764(gp)
   80568:	11000317 	ldw	r4,12(r2)
   8056c:	01400274 	movhi	r5,9
   80570:	29585104 	addi	r5,r5,24900
   80574:	0081b140 	call	81b14 <fprintf>
      break;
   80578:	00004106 	br	80680 <alt_ucosii_simple_error_handler+0x214>
    case OS_ERR_POST_NULL_PTR:
      fprintf(stderr, "Attempted to Post a NULL to a resource. \n");
   8057c:	d0a00117 	ldw	r2,-32764(gp)
   80580:	11000317 	ldw	r4,12(r2)
   80584:	01400274 	movhi	r5,9
   80588:	29585f04 	addi	r5,r5,24956
   8058c:	0081b140 	call	81b14 <fprintf>
      break;
   80590:	00003b06 	br	80680 <alt_ucosii_simple_error_handler+0x214>
    case OS_TIMEOUT:
      fprintf(stderr, "Resource not received in specified time\n");
   80594:	d0a00117 	ldw	r2,-32764(gp)
   80598:	11000317 	ldw	r4,12(r2)
   8059c:	01400274 	movhi	r5,9
   805a0:	29586a04 	addi	r5,r5,25000
   805a4:	0081b140 	call	81b14 <fprintf>
      break;
   805a8:	00003506 	br	80680 <alt_ucosii_simple_error_handler+0x214>
    case OS_ERR_PEND_ISR:
      fprintf(stderr, "Attempting to pending for a resource in an ISR\n");
   805ac:	d0a00117 	ldw	r2,-32764(gp)
   805b0:	11000317 	ldw	r4,12(r2)
   805b4:	01400274 	movhi	r5,9
   805b8:	29587504 	addi	r5,r5,25044
   805bc:	0081b140 	call	81b14 <fprintf>
      break;
   805c0:	00002f06 	br	80680 <alt_ucosii_simple_error_handler+0x214>
    case OS_TASK_DEL_IDLE:
      fprintf(stderr, "Attempted to delete the IDLE task\n");
   805c4:	d0a00117 	ldw	r2,-32764(gp)
   805c8:	11000317 	ldw	r4,12(r2)
   805cc:	01400274 	movhi	r5,9
   805d0:	29588104 	addi	r5,r5,25092
   805d4:	0081b140 	call	81b14 <fprintf>
      break;
   805d8:	00002906 	br	80680 <alt_ucosii_simple_error_handler+0x214>
    case OS_TASK_DEL_ERR:
      fprintf(stderr, "Attempted to delete a task that does not exist\n");
   805dc:	d0a00117 	ldw	r2,-32764(gp)
   805e0:	11000317 	ldw	r4,12(r2)
   805e4:	01400274 	movhi	r5,9
   805e8:	29588a04 	addi	r5,r5,25128
   805ec:	0081b140 	call	81b14 <fprintf>
      break;
   805f0:	00002306 	br	80680 <alt_ucosii_simple_error_handler+0x214>
    case OS_TASK_DEL_ISR:
      fprintf(stderr, "Attempted to delete a task from an ISR\n");
   805f4:	d0a00117 	ldw	r2,-32764(gp)
   805f8:	11000317 	ldw	r4,12(r2)
   805fc:	01400274 	movhi	r5,9
   80600:	29589604 	addi	r5,r5,25176
   80604:	0081b140 	call	81b14 <fprintf>
      break;
   80608:	00001d06 	br	80680 <alt_ucosii_simple_error_handler+0x214>
    case OS_Q_FULL:
      fprintf(stderr, "Attempted to post to a full message queue\n");
   8060c:	d0a00117 	ldw	r2,-32764(gp)
   80610:	11000317 	ldw	r4,12(r2)
   80614:	01400274 	movhi	r5,9
   80618:	2958a004 	addi	r5,r5,25216
   8061c:	0081b140 	call	81b14 <fprintf>
      break;
   80620:	00001706 	br	80680 <alt_ucosii_simple_error_handler+0x214>
    case OS_ERR_NOT_MUTEX_OWNER:
      fprintf(stderr, "Attempted to post a mutex that is not owned by the task\n");
   80624:	d0a00117 	ldw	r2,-32764(gp)
   80628:	11000317 	ldw	r4,12(r2)
   8062c:	01400274 	movhi	r5,9
   80630:	2958ab04 	addi	r5,r5,25260
   80634:	0081b140 	call	81b14 <fprintf>
      break;
   80638:	00001106 	br	80680 <alt_ucosii_simple_error_handler+0x214>
    case OS_MEM_NO_FREE_BLKS:
      fprintf(stderr, "the memory partition doesnt contain any more memory blocks to allocate\n");
   8063c:	d0a00117 	ldw	r2,-32764(gp)
   80640:	11000317 	ldw	r4,12(r2)
   80644:	01400274 	movhi	r5,9
   80648:	2958ba04 	addi	r5,r5,25320
   8064c:	0081b140 	call	81b14 <fprintf>
      break;
   80650:	00000b06 	br	80680 <alt_ucosii_simple_error_handler+0x214>
    case OS_MEM_INVALID_PMEM:
      fprintf(stderr, "pmem is a NULL pointer\n");
   80654:	d0a00117 	ldw	r2,-32764(gp)
   80658:	11000317 	ldw	r4,12(r2)
   8065c:	01400274 	movhi	r5,9
   80660:	2958cc04 	addi	r5,r5,25392
   80664:	0081b140 	call	81b14 <fprintf>
      break;
   80668:	00000506 	br	80680 <alt_ucosii_simple_error_handler+0x214>
    default:
      fprintf(stderr, "Unknown Error\n");
   8066c:	d0a00117 	ldw	r2,-32764(gp)
   80670:	11000317 	ldw	r4,12(r2)
   80674:	01400274 	movhi	r5,9
   80678:	2958d204 	addi	r5,r5,25416
   8067c:	0081b140 	call	81b14 <fprintf>
      break;
  }
//  fprintf(stderr, "Program is terminating.\n");
//  exit(0);
}
   80680:	dfc00317 	ldw	ra,12(sp)
   80684:	df000217 	ldw	fp,8(sp)
   80688:	dec00404 	addi	sp,sp,16
   8068c:	f800283a 	ret

00080690 <initialize_task>:
int init_OS_data_structs(void);
int init_create_tasks(void);

// Initialization task for uCOS
void initialize_task(void* pdata) {
   80690:	defffc04 	addi	sp,sp,-16
   80694:	dfc00315 	stw	ra,12(sp)
   80698:	df000215 	stw	fp,8(sp)
   8069c:	df000204 	addi	fp,sp,8
   806a0:	e13ffe15 	stw	r4,-8(fp)
	INT8U return_code = OS_NO_ERR;
   806a4:	e03fff05 	stb	zero,-4(fp)

	// Initialize statistic counters in OS
	OSStatInit();
   806a8:	008c6fc0 	call	8c6fc <OSStatInit>

	// create os data structures
	init_OS_data_structs();
   806ac:	008083c0 	call	8083c <init_OS_data_structs>

	// create the tasks
	init_create_tasks();
   806b0:	00808b40 	call	808b4 <init_create_tasks>

	// This task is deleted because there is no need for it to run again
	return_code = OSTaskDel(OS_PRIO_SELF);
   806b4:	01003fc4 	movi	r4,255
   806b8:	00920300 	call	92030 <OSTaskDel>
   806bc:	e0bfff05 	stb	r2,-4(fp)
	alt_ucosii_check_return_code(return_code);
   806c0:	e13fff03 	ldbu	r4,-4(fp)
   806c4:	008042c0 	call	8042c <alt_ucosii_check_return_code>

	while (1);
   806c8:	003fff06 	br	806c8 <initialize_task+0x38>

000806cc <main>:
}

// The main function, it initializes the hardware, and create the initialization task,
// then it starts uCOS, and never returns
int main(void) {
   806cc:	defff704 	addi	sp,sp,-36
   806d0:	dfc00815 	stw	ra,32(sp)
   806d4:	df000715 	stw	fp,28(sp)
   806d8:	df000704 	addi	fp,sp,28
  	INT8U return_code = OS_NO_ERR;
   806dc:	e03ffe05 	stb	zero,-8(fp)
    alt_up_character_lcd_dev *lcd_0;

	printf("Start main...\n");
   806e0:	01000274 	movhi	r4,9
   806e4:	21193b04 	addi	r4,r4,25836
   806e8:	0081b380 	call	81b38 <printf>

	init_button_irq();
   806ec:	00803dc0 	call	803dc <init_button_irq>
	printf("PB initialized...\n");
   806f0:	01000274 	movhi	r4,9
   806f4:	21193f04 	addi	r4,r4,25852
   806f8:	0081b380 	call	81b38 <printf>

	seg7_show(SEG7_DISPLAY_0_BASE,SEG7_VALUE);
   806fc:	00c00434 	movhi	r3,16
   80700:	18c42a04 	addi	r3,r3,4264
   80704:	00844474 	movhi	r2,4369
   80708:	10844444 	addi	r2,r2,4369
   8070c:	18800035 	stwio	r2,0(r3)
	printf("SEG7 initialized...\n");
   80710:	01000274 	movhi	r4,9
   80714:	21194404 	addi	r4,r4,25872
   80718:	0081b380 	call	81b38 <printf>

   	lcd_0 = alt_up_character_lcd_open_dev(CHARACTER_LCD_0_NAME);
   8071c:	01000274 	movhi	r4,9
   80720:	21194a04 	addi	r4,r4,25896
   80724:	00944e40 	call	944e4 <alt_up_character_lcd_open_dev>
   80728:	e0bfff15 	stw	r2,-4(fp)
    
    if (lcd_0 == NULL) alt_printf("Error opening LCD device\n");
   8072c:	e0bfff17 	ldw	r2,-4(fp)
   80730:	1004c03a 	cmpne	r2,r2,zero
   80734:	1000041e 	bne	r2,zero,80748 <main+0x7c>
   80738:	01000274 	movhi	r4,9
   8073c:	21195004 	addi	r4,r4,25920
   80740:	008b13c0 	call	8b13c <alt_printf>
   80744:	00000306 	br	80754 <main+0x88>
    else alt_printf("LCD device opened.\n");
   80748:	01000274 	movhi	r4,9
   8074c:	21195704 	addi	r4,r4,25948
   80750:	008b13c0 	call	8b13c <alt_printf>
    
    alt_up_character_lcd_init(lcd_0);
   80754:	e13fff17 	ldw	r4,-4(fp)
   80758:	00944b80 	call	944b8 <alt_up_character_lcd_init>
    
    alt_up_character_lcd_string(lcd_0, "COE4DS4 Winter20");
   8075c:	e13fff17 	ldw	r4,-4(fp)
   80760:	01400274 	movhi	r5,9
   80764:	29595c04 	addi	r5,r5,25968
   80768:	00945840 	call	94584 <alt_up_character_lcd_string>
    
    alt_up_character_lcd_set_cursor_pos(lcd_0, 0, 1);
   8076c:	e13fff17 	ldw	r4,-4(fp)
   80770:	000b883a 	mov	r5,zero
   80774:	01800044 	movi	r6,1
   80778:	00946240 	call	94624 <alt_up_character_lcd_set_cursor_pos>
    
    alt_up_character_lcd_string(lcd_0, "Lab6      exp. 2");
   8077c:	e13fff17 	ldw	r4,-4(fp)
   80780:	01400274 	movhi	r5,9
   80784:	29596104 	addi	r5,r5,25988
   80788:	00945840 	call	94584 <alt_up_character_lcd_string>
    
    printf("Character LCD initialized...\n");
   8078c:	01000274 	movhi	r4,9
   80790:	21196604 	addi	r4,r4,26008
   80794:	0081b380 	call	81b38 <printf>


	PERF_RESET(PERFORMANCE_COUNTER_0_BASE);
   80798:	00c00434 	movhi	r3,16
   8079c:	18c40004 	addi	r3,r3,4096
   807a0:	00800044 	movi	r2,1
   807a4:	18800035 	stwio	r2,0(r3)
	printf("Reset performance counter...\n");
   807a8:	01000274 	movhi	r4,9
   807ac:	21196e04 	addi	r4,r4,26040
   807b0:	0081b380 	call	81b38 <printf>

    srand(IORD(SWITCH_I_BASE, 0));
   807b4:	00800434 	movhi	r2,16
   807b8:	10841804 	addi	r2,r2,4192
   807bc:	11000037 	ldwio	r4,0(r2)
   807c0:	0081b6c0 	call	81b6c <srand>

	OSInit();
   807c4:	008c3900 	call	8c390 <OSInit>

	return_code = OSTaskCreateExt(initialize_task,
   807c8:	00800184 	movi	r2,6
   807cc:	d8800015 	stw	r2,0(sp)
   807d0:	008002b4 	movhi	r2,10
   807d4:	1081e704 	addi	r2,r2,1948
   807d8:	d8800115 	stw	r2,4(sp)
   807dc:	00820004 	movi	r2,2048
   807e0:	d8800215 	stw	r2,8(sp)
   807e4:	d8000315 	stw	zero,12(sp)
   807e8:	008000c4 	movi	r2,3
   807ec:	d8800415 	stw	r2,16(sp)
   807f0:	01000234 	movhi	r4,8
   807f4:	2101a404 	addi	r4,r4,1680
   807f8:	000b883a 	mov	r5,zero
   807fc:	018002b4 	movhi	r6,10
   80800:	3189e704 	addi	r6,r6,10140
   80804:	01c00184 	movi	r7,6
   80808:	0091e480 	call	91e48 <OSTaskCreateExt>
   8080c:	e0bffe05 	stb	r2,-8(fp)
					NULL,
					(void *)&initialize_task_stk[TASK_STACKSIZE],
					INITIALIZE_TASK_PRIORITY,
					INITIALIZE_TASK_PRIORITY,
					initialize_task_stk,
					TASK_STACKSIZE,
					NULL,
					OS_TASK_OPT_STK_CHK | OS_TASK_OPT_STK_CLR);
	alt_ucosii_check_return_code(return_code);
   80810:	e13ffe03 	ldbu	r4,-8(fp)
   80814:	008042c0 	call	8042c <alt_ucosii_check_return_code>
	printf("Starting uCOS...\n");
   80818:	01000274 	movhi	r4,9
   8081c:	21197604 	addi	r4,r4,26072
   80820:	0081b380 	call	81b38 <printf>

	OSStart();
   80824:	008c69c0 	call	8c69c <OSStart>
	return 0;
   80828:	0005883a 	mov	r2,zero
}
   8082c:	dfc00817 	ldw	ra,32(sp)
   80830:	df000717 	ldw	fp,28(sp)
   80834:	dec00904 	addi	sp,sp,36
   80838:	f800283a 	ret

0008083c <init_OS_data_structs>:

// This function creates the data structures for uCOS
int init_OS_data_structs(void) {
   8083c:	defffc04 	addi	sp,sp,-16
   80840:	dfc00315 	stw	ra,12(sp)
   80844:	df000215 	stw	fp,8(sp)
   80848:	dc000115 	stw	r16,4(sp)
   8084c:	df000204 	addi	fp,sp,8
	int i;

	printf("Init data structs...\n");
   80850:	01000274 	movhi	r4,9
   80854:	21197b04 	addi	r4,r4,26092
   80858:	0081b380 	call	81b38 <printf>

	for (i = 0; i < NUM_PB_BUTTON; i++)
   8085c:	e03ffe15 	stw	zero,-8(fp)
   80860:	e0bffe17 	ldw	r2,-8(fp)
   80864:	10800108 	cmpgei	r2,r2,4
   80868:	10000c1e 	bne	r2,zero,8089c <init_OS_data_structs+0x60>
		PBSemaphore[i] = OSSemCreate(0);
   8086c:	00c002b4 	movhi	r3,10
   80870:	18c19204 	addi	r3,r3,1608
   80874:	e0bffe17 	ldw	r2,-8(fp)
   80878:	100490ba 	slli	r2,r2,2
   8087c:	10e1883a 	add	r16,r2,r3
   80880:	0009883a 	mov	r4,zero
   80884:	0090d940 	call	90d94 <OSSemCreate>
   80888:	80800015 	stw	r2,0(r16)
   8088c:	e0bffe17 	ldw	r2,-8(fp)
   80890:	10800044 	addi	r2,r2,1
   80894:	e0bffe15 	stw	r2,-8(fp)
   80898:	003ff106 	br	80860 <init_OS_data_structs+0x24>

	return 0;
   8089c:	0005883a 	mov	r2,zero
}
   808a0:	dfc00317 	ldw	ra,12(sp)
   808a4:	df000217 	ldw	fp,8(sp)
   808a8:	dc000117 	ldw	r16,4(sp)
   808ac:	dec00404 	addi	sp,sp,16
   808b0:	f800283a 	ret

000808b4 <init_create_tasks>:

// This function creates the first task in uCOS
int init_create_tasks(void) {
   808b4:	defff804 	addi	sp,sp,-32
   808b8:	dfc00715 	stw	ra,28(sp)
   808bc:	df000615 	stw	fp,24(sp)
   808c0:	df000604 	addi	fp,sp,24
	INT8U return_code = OS_NO_ERR;
   808c4:	e03fff05 	stb	zero,-4(fp)

	printf("Creating custom_scheduler...\n");
   808c8:	01000274 	movhi	r4,9
   808cc:	21198104 	addi	r4,r4,26116
   808d0:	0081b380 	call	81b38 <printf>
	return_code = OSTaskCreateExt(custom_scheduler,
   808d4:	00800244 	movi	r2,9
   808d8:	d8800015 	stw	r2,0(sp)
   808dc:	008002b4 	movhi	r2,10
   808e0:	10a99204 	addi	r2,r2,-22968
   808e4:	d8800115 	stw	r2,4(sp)
   808e8:	00820004 	movi	r2,2048
   808ec:	d8800215 	stw	r2,8(sp)
   808f0:	008002b4 	movhi	r2,10
   808f4:	10819604 	addi	r2,r2,1624
   808f8:	d8800315 	stw	r2,12(sp)
   808fc:	d8000415 	stw	zero,16(sp)
   80900:	01000234 	movhi	r4,8
   80904:	2102a704 	addi	r4,r4,2716
   80908:	000b883a 	mov	r5,zero
   8090c:	018002b4 	movhi	r6,10
   80910:	31b19204 	addi	r6,r6,-14776
   80914:	01c00244 	movi	r7,9
   80918:	0091e480 	call	91e48 <OSTaskCreateExt>
   8091c:	e0bfff05 	stb	r2,-4(fp)
					NULL,
					(void *)&custom_scheduler_stk[TASK_STACKSIZE],
					CUSTOM_SCHEDULER_PRIORITY,
					CUSTOM_SCHEDULER_PRIORITY,
					custom_scheduler_stk,
                    TASK_STACKSIZE,
					&custom_scheduler_tcb,
					0);
	alt_ucosii_check_return_code(return_code);
   80920:	e13fff03 	ldbu	r4,-4(fp)
   80924:	008042c0 	call	8042c <alt_ucosii_check_return_code>

	return 0;
   80928:	0005883a 	mov	r2,zero
}
   8092c:	dfc00717 	ldw	ra,28(sp)
   80930:	df000617 	ldw	fp,24(sp)
   80934:	dec00804 	addi	sp,sp,32
   80938:	f800283a 	ret

0008093c <periodic_task1>:

// Periodic task 1
// It periodically uses a custom delay to occupy the CPU
// Then it suspends itself for a specified period of time
void periodic_task1(void* pdata) {
   8093c:	defffc04 	addi	sp,sp,-16
   80940:	dfc00315 	stw	ra,12(sp)
   80944:	df000215 	stw	fp,8(sp)
   80948:	df000204 	addi	fp,sp,8
   8094c:	e13ffe15 	stw	r4,-8(fp)
	task_info_struct *task_info_ptr;

	task_info_ptr = (task_info_struct *)pdata;
   80950:	e0bffe17 	ldw	r2,-8(fp)
   80954:	e0bfff15 	stw	r2,-4(fp)
	while (1) {

		#if MY_NON_PREEMPTIVE_SCH == 1
			OSSchedLock();
			printf("\n");
			printf("NON-PREEMPTIVE, task 1 OSTick value: %d \n", OSTimeGet());
			printf("Start periodic_task1 (execution_time: %4d ms) (os_delay: %1d s) (%d priority)\n", task_info_ptr->execution_time, task_info_ptr->os_delay, task_info_ptr->priority);
			custom_delay(task_info_ptr->execution_time);
			printf("End   periodic_task1 (execution_time: %4d ms) (os_delay: %1d s) (%d priority)\n", task_info_ptr->execution_time, task_info_ptr->os_delay, task_info_ptr->priority);
			OSSchedUnlock();
			OSTimeDlyHMSM(0, 0, task_info_ptr->os_delay, 0);
		#else
			printf("\n");
   80958:	01000274 	movhi	r4,9
   8095c:	21198904 	addi	r4,r4,26148
   80960:	0081b380 	call	81b38 <printf>
			printf("PREEMPTIVE, task 1 OSTick value: %d \n", OSTimeGet());
   80964:	00933d00 	call	933d0 <OSTimeGet>
   80968:	100b883a 	mov	r5,r2
   8096c:	01000274 	movhi	r4,9
   80970:	21198a04 	addi	r4,r4,26152
   80974:	0081b380 	call	81b38 <printf>
			printf("Start periodic_task1 (execution_time: %4d ms) (os_delay: %1d s) (%d priority)\n", task_info_ptr->execution_time, task_info_ptr->os_delay, task_info_ptr->priority);
   80978:	e0bfff17 	ldw	r2,-4(fp)
   8097c:	e0ffff17 	ldw	r3,-4(fp)
   80980:	e1ffff17 	ldw	r7,-4(fp)
   80984:	01000274 	movhi	r4,9
   80988:	21199404 	addi	r4,r4,26192
   8098c:	11400117 	ldw	r5,4(r2)
   80990:	19800217 	ldw	r6,8(r3)
   80994:	39c00017 	ldw	r7,0(r7)
   80998:	0081b380 	call	81b38 <printf>
			custom_delay(task_info_ptr->execution_time);
   8099c:	e0bfff17 	ldw	r2,-4(fp)
   809a0:	11000117 	ldw	r4,4(r2)
   809a4:	00819640 	call	81964 <custom_delay>
			printf("End   periodic_task1 (execution_time: %4d ms) (os_delay: %1d s) (%d priority)\n", task_info_ptr->execution_time, task_info_ptr->os_delay, task_info_ptr->priority);
   809a8:	e0bfff17 	ldw	r2,-4(fp)
   809ac:	e0ffff17 	ldw	r3,-4(fp)
   809b0:	e1ffff17 	ldw	r7,-4(fp)
   809b4:	01000274 	movhi	r4,9
   809b8:	2119a804 	addi	r4,r4,26272
   809bc:	11400117 	ldw	r5,4(r2)
   809c0:	19800217 	ldw	r6,8(r3)
   809c4:	39c00017 	ldw	r7,0(r7)
   809c8:	0081b380 	call	81b38 <printf>
			OSTimeDlyHMSM(0, 0, task_info_ptr->os_delay, 0);
   809cc:	e0bfff17 	ldw	r2,-4(fp)
   809d0:	10800217 	ldw	r2,8(r2)
   809d4:	11803fcc 	andi	r6,r2,255
   809d8:	0009883a 	mov	r4,zero
   809dc:	000b883a 	mov	r5,zero
   809e0:	000f883a 	mov	r7,zero
   809e4:	00930780 	call	93078 <OSTimeDlyHMSM>
   809e8:	003fdb06 	br	80958 <periodic_task1+0x1c>

000809ec <periodic_task2>:
		#endif
	}
}

// Periodic task 2
// It periodically uses a custom delay to occupy the CPU
// Then it suspends itself for a specified period of time
void periodic_task2(void* pdata) {
   809ec:	defffc04 	addi	sp,sp,-16
   809f0:	dfc00315 	stw	ra,12(sp)
   809f4:	df000215 	stw	fp,8(sp)
   809f8:	df000204 	addi	fp,sp,8
   809fc:	e13ffe15 	stw	r4,-8(fp)
	task_info_struct *task_info_ptr;

	task_info_ptr = (task_info_struct *)pdata;
   80a00:	e0bffe17 	ldw	r2,-8(fp)
   80a04:	e0bfff15 	stw	r2,-4(fp)
	while (1) {

		#if MY_NON_PREEMPTIVE_SCH == 1
			OSSchedLock();
			printf("\n");
			printf("NON-PREEMPTIVE, task 2 OSTick value: %d \n", OSTimeGet());
			printf("Start periodic_task2 (execution_time: %4d ms) (os_delay: %1d s) (%d priority)\n", task_info_ptr->execution_time, task_info_ptr->os_delay, task_info_ptr->priority);
			custom_delay(task_info_ptr->execution_time);
			printf("End   periodic_task2 (execution_time: %4d ms) (os_delay: %1d s) (%d priority)\n", task_info_ptr->execution_time, task_info_ptr->os_delay, task_info_ptr->priority);
			OSSchedUnlock();
			OSTimeDlyHMSM(0, 0, task_info_ptr->os_delay, 0);
		#else
			printf("\n");
   80a08:	01000274 	movhi	r4,9
   80a0c:	21198904 	addi	r4,r4,26148
   80a10:	0081b380 	call	81b38 <printf>
			printf("PREEMPTIVE, task 2 OSTick value: %d \n", OSTimeGet());
   80a14:	00933d00 	call	933d0 <OSTimeGet>
   80a18:	100b883a 	mov	r5,r2
   80a1c:	01000274 	movhi	r4,9
   80a20:	2119bc04 	addi	r4,r4,26352
   80a24:	0081b380 	call	81b38 <printf>
			printf("Start periodic_task2 (execution_time: %4d ms) (os_delay: %1d s) (%d priority)\n", task_info_ptr->execution_time, task_info_ptr->os_delay, task_info_ptr->priority);
   80a28:	e0bfff17 	ldw	r2,-4(fp)
   80a2c:	e0ffff17 	ldw	r3,-4(fp)
   80a30:	e1ffff17 	ldw	r7,-4(fp)
   80a34:	01000274 	movhi	r4,9
   80a38:	2119c604 	addi	r4,r4,26392
   80a3c:	11400117 	ldw	r5,4(r2)
   80a40:	19800217 	ldw	r6,8(r3)
   80a44:	39c00017 	ldw	r7,0(r7)
   80a48:	0081b380 	call	81b38 <printf>
			custom_delay(task_info_ptr->execution_time);
   80a4c:	e0bfff17 	ldw	r2,-4(fp)
   80a50:	11000117 	ldw	r4,4(r2)
   80a54:	00819640 	call	81964 <custom_delay>
			printf("End   periodic_task2 (execution_time: %4d ms) (os_delay: %1d s) (%d priority)\n", task_info_ptr->execution_time, task_info_ptr->os_delay, task_info_ptr->priority);
   80a58:	e0bfff17 	ldw	r2,-4(fp)
   80a5c:	e0ffff17 	ldw	r3,-4(fp)
   80a60:	e1ffff17 	ldw	r7,-4(fp)
   80a64:	01000274 	movhi	r4,9
   80a68:	2119da04 	addi	r4,r4,26472
   80a6c:	11400117 	ldw	r5,4(r2)
   80a70:	19800217 	ldw	r6,8(r3)
   80a74:	39c00017 	ldw	r7,0(r7)
   80a78:	0081b380 	call	81b38 <printf>
			OSTimeDlyHMSM(0, 0, task_info_ptr->os_delay, 0);
   80a7c:	e0bfff17 	ldw	r2,-4(fp)
   80a80:	10800217 	ldw	r2,8(r2)
   80a84:	11803fcc 	andi	r6,r2,255
   80a88:	0009883a 	mov	r4,zero
   80a8c:	000b883a 	mov	r5,zero
   80a90:	000f883a 	mov	r7,zero
   80a94:	00930780 	call	93078 <OSTimeDlyHMSM>
   80a98:	003fdb06 	br	80a08 <periodic_task2+0x1c>

00080a9c <custom_scheduler>:
		#endif
	}
}

// The custom_scheduler
// It has the highest priority
// It checks the PBs every 500ms
// It a button has been pressed, it creates/deletes the corresponding task in the OS
// When creating a task, it will assign the new task with the lowest priority among the running tasks
void custom_scheduler(void *pdata) {
   80a9c:	deffde04 	addi	sp,sp,-136
   80aa0:	dfc02115 	stw	ra,132(sp)
   80aa4:	df002015 	stw	fp,128(sp)
   80aa8:	dc001f15 	stw	r16,124(sp)
   80aac:	dc401e15 	stw	r17,120(sp)
   80ab0:	dc801d15 	stw	r18,116(sp)
   80ab4:	df002004 	addi	fp,sp,128
   80ab8:	e13fe515 	stw	r4,-108(fp)
	INT8U return_code = OS_NO_ERR;
   80abc:	e03fe605 	stb	zero,-104(fp)
	int i;
	int PB_pressed[NUM_PB_BUTTON];
	int sem_value;
	int new_pressed;
	
	int num_active_task;	
	// Array of task_info
	task_info_struct task_info[NUM_TASK];
	scheduler_info_struct scheduler_info[NUM_TASK];

	printf("Starting custom scheduler...\n");
   80ac0:	01000274 	movhi	r4,9
   80ac4:	2119ee04 	addi	r4,r4,26552
   80ac8:	0081b380 	call	81b38 <printf>

	#if MY_NON_PREEMPTIVE_SCH == 0
		printf("Exercise 1 for preemptive scheduling...\n");
   80acc:	01000274 	movhi	r4,9
   80ad0:	2119f604 	addi	r4,r4,26584
   80ad4:	0081b380 	call	81b38 <printf>
	#else
		printf("Exercise 1 for non-preemptive scheduling...\n");
	#endif

	num_active_task = 0;
   80ad8:	e03fee15 	stw	zero,-72(fp)
	int os_delay = 0;
   80adc:	e03ffb15 	stw	zero,-20(fp)

	for (i = 0; i < NUM_TASK; i++) {
   80ae0:	e03fe715 	stw	zero,-100(fp)
   80ae4:	e0bfe717 	ldw	r2,-100(fp)
   80ae8:	10800088 	cmpgei	r2,r2,2
   80aec:	1000d21e 	bne	r2,zero,80e38 <custom_scheduler+0x39c>
		// Creating periodic task 0 with random execution time and delay time for periodic arrival

		if (i == 0) {
   80af0:	e0bfe717 	ldw	r2,-100(fp)
   80af4:	1004c03a 	cmpne	r2,r2,zero
   80af8:	1000151e 	bne	r2,zero,80b50 <custom_scheduler+0xb4>
			//Mengjia: 7 char
			task_info[i].execution_time = 7 * 200;
   80afc:	e13fe717 	ldw	r4,-100(fp)
   80b00:	01400304 	movi	r5,12
   80b04:	0081aec0 	call	81aec <__mulsi3>
   80b08:	1007883a 	mov	r3,r2
   80b0c:	e0bfe504 	addi	r2,fp,-108
   80b10:	1885883a 	add	r2,r3,r2
   80b14:	10c00b04 	addi	r3,r2,44
   80b18:	00815e04 	movi	r2,1400
   80b1c:	18800015 	stw	r2,0(r3)
			//Nicole: 6 char
			os_delay = 6 * 700;
   80b20:	00841a04 	movi	r2,4200
   80b24:	e0bffb15 	stw	r2,-20(fp)
			task_info[i].os_delay = (6 * 700)/1000;
   80b28:	e13fe717 	ldw	r4,-100(fp)
   80b2c:	01400304 	movi	r5,12
   80b30:	0081aec0 	call	81aec <__mulsi3>
   80b34:	1007883a 	mov	r3,r2
   80b38:	e0bfe504 	addi	r2,fp,-108
   80b3c:	1885883a 	add	r2,r3,r2
   80b40:	10c00c04 	addi	r3,r2,48
   80b44:	00800104 	movi	r2,4
   80b48:	18800015 	stw	r2,0(r3)
   80b4c:	00001406 	br	80ba0 <custom_scheduler+0x104>
		}
		else {
			//Wu: 2 char
			task_info[i].execution_time = 2 * 200;
   80b50:	e13fe717 	ldw	r4,-100(fp)
   80b54:	01400304 	movi	r5,12
   80b58:	0081aec0 	call	81aec <__mulsi3>
   80b5c:	1007883a 	mov	r3,r2
   80b60:	e0bfe504 	addi	r2,fp,-108
   80b64:	1885883a 	add	r2,r3,r2
   80b68:	10c00b04 	addi	r3,r2,44
   80b6c:	00806404 	movi	r2,400
   80b70:	18800015 	stw	r2,0(r3)
			//Li: 2 char, os_delay in seconds
			os_delay = 2 * 700;
   80b74:	00815e04 	movi	r2,1400
   80b78:	e0bffb15 	stw	r2,-20(fp)
			task_info[i].os_delay = (2 * 700)/1000;
   80b7c:	e13fe717 	ldw	r4,-100(fp)
   80b80:	01400304 	movi	r5,12
   80b84:	0081aec0 	call	81aec <__mulsi3>
   80b88:	1007883a 	mov	r3,r2
   80b8c:	e0bfe504 	addi	r2,fp,-108
   80b90:	1885883a 	add	r2,r3,r2
   80b94:	10c00c04 	addi	r3,r2,48
   80b98:	00800044 	movi	r2,1
   80b9c:	18800015 	stw	r2,0(r3)
		}
		task_info[i].priority = num_active_task;
   80ba0:	e13fe717 	ldw	r4,-100(fp)
   80ba4:	01400304 	movi	r5,12
   80ba8:	0081aec0 	call	81aec <__mulsi3>
   80bac:	1007883a 	mov	r3,r2
   80bb0:	e0bfe504 	addi	r2,fp,-108
   80bb4:	1885883a 	add	r2,r3,r2
   80bb8:	10c00a04 	addi	r3,r2,40
   80bbc:	e0bfee17 	ldw	r2,-72(fp)
   80bc0:	18800015 	stw	r2,0(r3)

		scheduler_info[num_active_task].valid = 1;
   80bc4:	e13fee17 	ldw	r4,-72(fp)
   80bc8:	01400304 	movi	r5,12
   80bcc:	0081aec0 	call	81aec <__mulsi3>
   80bd0:	1007883a 	mov	r3,r2
   80bd4:	e0bfe504 	addi	r2,fp,-108
   80bd8:	1885883a 	add	r2,r3,r2
   80bdc:	10c01004 	addi	r3,r2,64
   80be0:	00800044 	movi	r2,1
   80be4:	18800015 	stw	r2,0(r3)
		scheduler_info[num_active_task].id = i;
   80be8:	e13fee17 	ldw	r4,-72(fp)
   80bec:	01400304 	movi	r5,12
   80bf0:	0081aec0 	call	81aec <__mulsi3>
   80bf4:	1007883a 	mov	r3,r2
   80bf8:	e0bfe504 	addi	r2,fp,-108
   80bfc:	1885883a 	add	r2,r3,r2
   80c00:	10c01104 	addi	r3,r2,68
   80c04:	e0bfe717 	ldw	r2,-100(fp)
   80c08:	18800015 	stw	r2,0(r3)
		scheduler_info[num_active_task].period = task_info[i].execution_time + os_delay;
   80c0c:	e13fee17 	ldw	r4,-72(fp)
   80c10:	01400304 	movi	r5,12
   80c14:	0081aec0 	call	81aec <__mulsi3>
   80c18:	1007883a 	mov	r3,r2
   80c1c:	e0bfe504 	addi	r2,fp,-108
   80c20:	1885883a 	add	r2,r3,r2
   80c24:	14001204 	addi	r16,r2,72
   80c28:	e13fe717 	ldw	r4,-100(fp)
   80c2c:	01400304 	movi	r5,12
   80c30:	0081aec0 	call	81aec <__mulsi3>
   80c34:	1007883a 	mov	r3,r2
   80c38:	e0bfe504 	addi	r2,fp,-108
   80c3c:	1885883a 	add	r2,r3,r2
   80c40:	10800b04 	addi	r2,r2,44
   80c44:	10c00017 	ldw	r3,0(r2)
   80c48:	e0bffb17 	ldw	r2,-20(fp)
   80c4c:	1885883a 	add	r2,r3,r2
   80c50:	80800015 	stw	r2,0(r16)

		printf("-Creating periodic_task%d: execution_time_tick = %d, os_delay_time = %d\n",
   80c54:	e0bfe717 	ldw	r2,-100(fp)
   80c58:	14000044 	addi	r16,r2,1
   80c5c:	e13fe717 	ldw	r4,-100(fp)
   80c60:	01400304 	movi	r5,12
   80c64:	0081aec0 	call	81aec <__mulsi3>
   80c68:	1007883a 	mov	r3,r2
   80c6c:	e0bfe504 	addi	r2,fp,-108
   80c70:	1885883a 	add	r2,r3,r2
   80c74:	14400b04 	addi	r17,r2,44
   80c78:	e13fe717 	ldw	r4,-100(fp)
   80c7c:	01400304 	movi	r5,12
   80c80:	0081aec0 	call	81aec <__mulsi3>
   80c84:	1007883a 	mov	r3,r2
   80c88:	e0bfe504 	addi	r2,fp,-108
   80c8c:	1885883a 	add	r2,r3,r2
   80c90:	10800c04 	addi	r2,r2,48
   80c94:	01000274 	movhi	r4,9
   80c98:	211a0104 	addi	r4,r4,26628
   80c9c:	800b883a 	mov	r5,r16
   80ca0:	89800017 	ldw	r6,0(r17)
   80ca4:	11c00017 	ldw	r7,0(r2)
   80ca8:	0081b380 	call	81b38 <printf>
			i+1,
			task_info[i].execution_time,
			task_info[i].os_delay);

		switch (i) {
   80cac:	e0bfe717 	ldw	r2,-100(fp)
   80cb0:	e0bffc15 	stw	r2,-16(fp)
   80cb4:	e0fffc17 	ldw	r3,-16(fp)
   80cb8:	1805003a 	cmpeq	r2,r3,zero
   80cbc:	1000041e 	bne	r2,zero,80cd0 <custom_scheduler+0x234>
   80cc0:	e0fffc17 	ldw	r3,-16(fp)
   80cc4:	18800060 	cmpeqi	r2,r3,1
   80cc8:	10002a1e 	bne	r2,zero,80d74 <custom_scheduler+0x2d8>
   80ccc:	00005106 	br	80e14 <custom_scheduler+0x378>
			case 0:
				return_code = OSTaskCreateExt(periodic_task1,
   80cd0:	e43fef04 	addi	r16,fp,-68
   80cd4:	e13fe717 	ldw	r4,-100(fp)
   80cd8:	01400304 	movi	r5,12
   80cdc:	0081aec0 	call	81aec <__mulsi3>
   80ce0:	80a1883a 	add	r16,r16,r2
   80ce4:	e0bfee17 	ldw	r2,-72(fp)
   80ce8:	1006937a 	slli	r3,r2,13
   80cec:	008002b4 	movhi	r2,10
   80cf0:	10b99104 	addi	r2,r2,-6588
   80cf4:	18a3883a 	add	r17,r3,r2
   80cf8:	e0bfee17 	ldw	r2,-72(fp)
   80cfc:	10800284 	addi	r2,r2,10
   80d00:	14803fcc 	andi	r18,r2,255
   80d04:	e0bfee17 	ldw	r2,-72(fp)
   80d08:	10bfffcc 	andi	r2,r2,65535
   80d0c:	d8800015 	stw	r2,0(sp)
   80d10:	e0bfee17 	ldw	r2,-72(fp)
   80d14:	1006937a 	slli	r3,r2,13
   80d18:	008002b4 	movhi	r2,10
   80d1c:	10b19204 	addi	r2,r2,-14776
   80d20:	1885883a 	add	r2,r3,r2
   80d24:	d8800115 	stw	r2,4(sp)
   80d28:	00820004 	movi	r2,2048
   80d2c:	d8800215 	stw	r2,8(sp)
   80d30:	e13fee17 	ldw	r4,-72(fp)
   80d34:	01401b04 	movi	r5,108
   80d38:	0081aec0 	call	81aec <__mulsi3>
   80d3c:	1007883a 	mov	r3,r2
   80d40:	008002b4 	movhi	r2,10
   80d44:	1081b104 	addi	r2,r2,1732
   80d48:	1885883a 	add	r2,r3,r2
   80d4c:	d8800315 	stw	r2,12(sp)
   80d50:	d8000415 	stw	zero,16(sp)
   80d54:	01000234 	movhi	r4,8
   80d58:	21024f04 	addi	r4,r4,2364
   80d5c:	800b883a 	mov	r5,r16
   80d60:	880d883a 	mov	r6,r17
   80d64:	900f883a 	mov	r7,r18
   80d68:	0091e480 	call	91e48 <OSTaskCreateExt>
   80d6c:	e0bfe605 	stb	r2,-104(fp)
								 &task_info[i],
								 (void *)&periodic_task_stk[num_active_task][TASK_STACKSIZE-1],
								 TASK_START_PRIORITY+num_active_task,
								 num_active_task,
								 &periodic_task_stk[num_active_task][0],
								 TASK_STACKSIZE,
								 &periodic_task_tcb[num_active_task],
								 0);
			break;
   80d70:	00002806 	br	80e14 <custom_scheduler+0x378>
			case 1:
				return_code = OSTaskCreateExt(periodic_task2,
   80d74:	e43fef04 	addi	r16,fp,-68
   80d78:	e13fe717 	ldw	r4,-100(fp)
   80d7c:	01400304 	movi	r5,12
   80d80:	0081aec0 	call	81aec <__mulsi3>
   80d84:	80a1883a 	add	r16,r16,r2
   80d88:	e0bfee17 	ldw	r2,-72(fp)
   80d8c:	1006937a 	slli	r3,r2,13
   80d90:	008002b4 	movhi	r2,10
   80d94:	10b99104 	addi	r2,r2,-6588
   80d98:	18a3883a 	add	r17,r3,r2
   80d9c:	e0bfee17 	ldw	r2,-72(fp)
   80da0:	10800284 	addi	r2,r2,10
   80da4:	14803fcc 	andi	r18,r2,255
   80da8:	e0bfee17 	ldw	r2,-72(fp)
   80dac:	10bfffcc 	andi	r2,r2,65535
   80db0:	d8800015 	stw	r2,0(sp)
   80db4:	e0bfee17 	ldw	r2,-72(fp)
   80db8:	1006937a 	slli	r3,r2,13
   80dbc:	008002b4 	movhi	r2,10
   80dc0:	10b19204 	addi	r2,r2,-14776
   80dc4:	1885883a 	add	r2,r3,r2
   80dc8:	d8800115 	stw	r2,4(sp)
   80dcc:	00820004 	movi	r2,2048
   80dd0:	d8800215 	stw	r2,8(sp)
   80dd4:	e13fee17 	ldw	r4,-72(fp)
   80dd8:	01401b04 	movi	r5,108
   80ddc:	0081aec0 	call	81aec <__mulsi3>
   80de0:	1007883a 	mov	r3,r2
   80de4:	008002b4 	movhi	r2,10
   80de8:	1081b104 	addi	r2,r2,1732
   80dec:	1885883a 	add	r2,r3,r2
   80df0:	d8800315 	stw	r2,12(sp)
   80df4:	d8000415 	stw	zero,16(sp)
   80df8:	01000234 	movhi	r4,8
   80dfc:	21027b04 	addi	r4,r4,2540
   80e00:	800b883a 	mov	r5,r16
   80e04:	880d883a 	mov	r6,r17
   80e08:	900f883a 	mov	r7,r18
   80e0c:	0091e480 	call	91e48 <OSTaskCreateExt>
   80e10:	e0bfe605 	stb	r2,-104(fp)
								 &task_info[i],
								 (void *)&periodic_task_stk[num_active_task][TASK_STACKSIZE-1],
								 TASK_START_PRIORITY+num_active_task,
								 num_active_task,
								 &periodic_task_stk[num_active_task][0],
								 TASK_STACKSIZE,
								 &periodic_task_tcb[num_active_task],
								 0);
			break;
		}
		alt_ucosii_check_return_code(return_code);
   80e14:	e13fe603 	ldbu	r4,-104(fp)
   80e18:	008042c0 	call	8042c <alt_ucosii_check_return_code>

		num_active_task++;
   80e1c:	e0bfee17 	ldw	r2,-72(fp)
   80e20:	10800044 	addi	r2,r2,1
   80e24:	e0bfee15 	stw	r2,-72(fp)
   80e28:	e0bfe717 	ldw	r2,-100(fp)
   80e2c:	10800044 	addi	r2,r2,1
   80e30:	e0bfe715 	stw	r2,-100(fp)
   80e34:	003f2b06 	br	80ae4 <custom_scheduler+0x48>
	}
	printf("Finish creating initial tasks...\n");
   80e38:	01000274 	movhi	r4,9
   80e3c:	211a1404 	addi	r4,r4,26704
   80e40:	0081b380 	call	81b38 <printf>

	printf("Printing task info:\n");
   80e44:	01000274 	movhi	r4,9
   80e48:	211a1d04 	addi	r4,r4,26740
   80e4c:	0081b380 	call	81b38 <printf>
	for (i = 0; i < num_active_task; i++) {
   80e50:	e03fe715 	stw	zero,-100(fp)
   80e54:	e0ffe717 	ldw	r3,-100(fp)
   80e58:	e0bfee17 	ldw	r2,-72(fp)
   80e5c:	1880510e 	bge	r3,r2,80fa4 <custom_scheduler+0x508>
		printf("Priority %d: valid=%d, task_id=%d, period=%d, exec_time=%d, os_delay=%d, pri=%d\n",
   80e60:	e13fe717 	ldw	r4,-100(fp)
   80e64:	01400304 	movi	r5,12
   80e68:	0081aec0 	call	81aec <__mulsi3>
   80e6c:	1007883a 	mov	r3,r2
   80e70:	e0bfe504 	addi	r2,fp,-108
   80e74:	1885883a 	add	r2,r3,r2
   80e78:	14001004 	addi	r16,r2,64
   80e7c:	e13fe717 	ldw	r4,-100(fp)
   80e80:	01400304 	movi	r5,12
   80e84:	0081aec0 	call	81aec <__mulsi3>
   80e88:	1007883a 	mov	r3,r2
   80e8c:	e0bfe504 	addi	r2,fp,-108
   80e90:	1885883a 	add	r2,r3,r2
   80e94:	14401104 	addi	r17,r2,68
   80e98:	e13fe717 	ldw	r4,-100(fp)
   80e9c:	01400304 	movi	r5,12
   80ea0:	0081aec0 	call	81aec <__mulsi3>
   80ea4:	1007883a 	mov	r3,r2
   80ea8:	e0bfe504 	addi	r2,fp,-108
   80eac:	1885883a 	add	r2,r3,r2
   80eb0:	10801204 	addi	r2,r2,72
   80eb4:	10800017 	ldw	r2,0(r2)
   80eb8:	d8800015 	stw	r2,0(sp)
   80ebc:	e13fe717 	ldw	r4,-100(fp)
   80ec0:	01400304 	movi	r5,12
   80ec4:	0081aec0 	call	81aec <__mulsi3>
   80ec8:	1007883a 	mov	r3,r2
   80ecc:	e0bfe504 	addi	r2,fp,-108
   80ed0:	1885883a 	add	r2,r3,r2
   80ed4:	10801104 	addi	r2,r2,68
   80ed8:	11000017 	ldw	r4,0(r2)
   80edc:	01400304 	movi	r5,12
   80ee0:	0081aec0 	call	81aec <__mulsi3>
   80ee4:	1007883a 	mov	r3,r2
   80ee8:	e0bfe504 	addi	r2,fp,-108
   80eec:	1885883a 	add	r2,r3,r2
   80ef0:	10800b04 	addi	r2,r2,44
   80ef4:	10800017 	ldw	r2,0(r2)
   80ef8:	d8800115 	stw	r2,4(sp)
   80efc:	e13fe717 	ldw	r4,-100(fp)
   80f00:	01400304 	movi	r5,12
   80f04:	0081aec0 	call	81aec <__mulsi3>
   80f08:	1007883a 	mov	r3,r2
   80f0c:	e0bfe504 	addi	r2,fp,-108
   80f10:	1885883a 	add	r2,r3,r2
   80f14:	10801104 	addi	r2,r2,68
   80f18:	11000017 	ldw	r4,0(r2)
   80f1c:	01400304 	movi	r5,12
   80f20:	0081aec0 	call	81aec <__mulsi3>
   80f24:	1007883a 	mov	r3,r2
   80f28:	e0bfe504 	addi	r2,fp,-108
   80f2c:	1885883a 	add	r2,r3,r2
   80f30:	10800c04 	addi	r2,r2,48
   80f34:	10800017 	ldw	r2,0(r2)
   80f38:	d8800215 	stw	r2,8(sp)
   80f3c:	e13fe717 	ldw	r4,-100(fp)
   80f40:	01400304 	movi	r5,12
   80f44:	0081aec0 	call	81aec <__mulsi3>
   80f48:	1007883a 	mov	r3,r2
   80f4c:	e0bfe504 	addi	r2,fp,-108
   80f50:	1885883a 	add	r2,r3,r2
   80f54:	10801104 	addi	r2,r2,68
   80f58:	11000017 	ldw	r4,0(r2)
   80f5c:	01400304 	movi	r5,12
   80f60:	0081aec0 	call	81aec <__mulsi3>
   80f64:	1007883a 	mov	r3,r2
   80f68:	e0bfe504 	addi	r2,fp,-108
   80f6c:	1885883a 	add	r2,r3,r2
   80f70:	10800a04 	addi	r2,r2,40
   80f74:	10800017 	ldw	r2,0(r2)
   80f78:	d8800315 	stw	r2,12(sp)
   80f7c:	01000274 	movhi	r4,9
   80f80:	211a2304 	addi	r4,r4,26764
   80f84:	e17fe717 	ldw	r5,-100(fp)
   80f88:	81800017 	ldw	r6,0(r16)
   80f8c:	89c00017 	ldw	r7,0(r17)
   80f90:	0081b380 	call	81b38 <printf>
   80f94:	e0bfe717 	ldw	r2,-100(fp)
   80f98:	10800044 	addi	r2,r2,1
   80f9c:	e0bfe715 	stw	r2,-100(fp)
   80fa0:	003fac06 	br	80e54 <custom_scheduler+0x3b8>
			i,
			scheduler_info[i].valid,
			scheduler_info[i].id,
			scheduler_info[i].period,
			task_info[scheduler_info[i].id].execution_time,
			task_info[scheduler_info[i].id].os_delay,
			task_info[scheduler_info[i].id].priority);
	}

	// Scheduler never returns
	while (1) {
		new_pressed = 0;
   80fa4:	e03fed15 	stw	zero,-76(fp)
		// Check for PBs
		for (i = 0; i < NUM_PB_BUTTON; i++) {
   80fa8:	e03fe715 	stw	zero,-100(fp)
   80fac:	e0bfe717 	ldw	r2,-100(fp)
   80fb0:	10800108 	cmpgei	r2,r2,4
   80fb4:	10001f1e 	bne	r2,zero,81034 <custom_scheduler+0x598>
			PB_pressed[i] = 0;
   80fb8:	e0bfe717 	ldw	r2,-100(fp)
   80fbc:	100690ba 	slli	r3,r2,2
   80fc0:	e0bfe504 	addi	r2,fp,-108
   80fc4:	1885883a 	add	r2,r3,r2
   80fc8:	10800304 	addi	r2,r2,12
   80fcc:	10000015 	stw	zero,0(r2)
			sem_value = OSSemAccept(PBSemaphore[i]);
   80fd0:	00c002b4 	movhi	r3,10
   80fd4:	18c19204 	addi	r3,r3,1608
   80fd8:	e0bfe717 	ldw	r2,-100(fp)
   80fdc:	100490ba 	slli	r2,r2,2
   80fe0:	10c5883a 	add	r2,r2,r3
   80fe4:	11000017 	ldw	r4,0(r2)
   80fe8:	0090cd80 	call	90cd8 <OSSemAccept>
   80fec:	10bfffcc 	andi	r2,r2,65535
   80ff0:	e0bfec15 	stw	r2,-80(fp)
			if (sem_value != 0) {
   80ff4:	e0bfec17 	ldw	r2,-80(fp)
   80ff8:	1005003a 	cmpeq	r2,r2,zero
   80ffc:	1000091e 	bne	r2,zero,81024 <custom_scheduler+0x588>
				PB_pressed[i] = 1;
   81000:	e0bfe717 	ldw	r2,-100(fp)
   81004:	100690ba 	slli	r3,r2,2
   81008:	e0bfe504 	addi	r2,fp,-108
   8100c:	1885883a 	add	r2,r3,r2
   81010:	10c00304 	addi	r3,r2,12
   81014:	00800044 	movi	r2,1
   81018:	18800015 	stw	r2,0(r3)
				new_pressed = 1;
   8101c:	00800044 	movi	r2,1
   81020:	e0bfed15 	stw	r2,-76(fp)
   81024:	e0bfe717 	ldw	r2,-100(fp)
   81028:	10800044 	addi	r2,r2,1
   8102c:	e0bfe715 	stw	r2,-100(fp)
   81030:	003fde06 	br	80fac <custom_scheduler+0x510>
			}
		}

		if (new_pressed != 0) {
   81034:	e0bfed17 	ldw	r2,-76(fp)
   81038:	1005003a 	cmpeq	r2,r2,zero
   8103c:	1000b41e 	bne	r2,zero,81310 <custom_scheduler+0x874>
			printf("Locking OS scheduler for new scheduling\n");
   81040:	01000274 	movhi	r4,9
   81044:	211a3804 	addi	r4,r4,26848
   81048:	0081b380 	call	81b38 <printf>
			OSSchedLock();
   8104c:	008c5400 	call	8c540 <OSSchedLock>

			for (i = 0; i < num_active_task; i++) {
   81050:	e03fe715 	stw	zero,-100(fp)
   81054:	e0ffe717 	ldw	r3,-100(fp)
   81058:	e0bfee17 	ldw	r2,-72(fp)
   8105c:	18803f0e 	bge	r3,r2,8115c <custom_scheduler+0x6c0>
				// check for task to delete if PB is pressed
				if (scheduler_info[i].valid == 1 && PB_pressed[scheduler_info[i].id] == 1) {
   81060:	e13fe717 	ldw	r4,-100(fp)
   81064:	01400304 	movi	r5,12
   81068:	0081aec0 	call	81aec <__mulsi3>
   8106c:	1007883a 	mov	r3,r2
   81070:	e0bfe504 	addi	r2,fp,-108
   81074:	1885883a 	add	r2,r3,r2
   81078:	10801004 	addi	r2,r2,64
   8107c:	10800017 	ldw	r2,0(r2)
   81080:	10800058 	cmpnei	r2,r2,1
   81084:	1000311e 	bne	r2,zero,8114c <custom_scheduler+0x6b0>
   81088:	e13fe717 	ldw	r4,-100(fp)
   8108c:	01400304 	movi	r5,12
   81090:	0081aec0 	call	81aec <__mulsi3>
   81094:	1007883a 	mov	r3,r2
   81098:	e0bfe504 	addi	r2,fp,-108
   8109c:	1885883a 	add	r2,r3,r2
   810a0:	10801104 	addi	r2,r2,68
   810a4:	10800017 	ldw	r2,0(r2)
   810a8:	100690ba 	slli	r3,r2,2
   810ac:	e0bfe504 	addi	r2,fp,-108
   810b0:	1885883a 	add	r2,r3,r2
   810b4:	10800304 	addi	r2,r2,12
   810b8:	10800017 	ldw	r2,0(r2)
   810bc:	10800058 	cmpnei	r2,r2,1
   810c0:	1000221e 	bne	r2,zero,8114c <custom_scheduler+0x6b0>
					// task is valid, mark it for deletion
					printf("-Marking task with id (%d) and priority (%d) for deletion\n", scheduler_info[i].id, i);
   810c4:	e13fe717 	ldw	r4,-100(fp)
   810c8:	01400304 	movi	r5,12
   810cc:	0081aec0 	call	81aec <__mulsi3>
   810d0:	1007883a 	mov	r3,r2
   810d4:	e0bfe504 	addi	r2,fp,-108
   810d8:	1885883a 	add	r2,r3,r2
   810dc:	10801104 	addi	r2,r2,68
   810e0:	01000274 	movhi	r4,9
   810e4:	211a4304 	addi	r4,r4,26892
   810e8:	11400017 	ldw	r5,0(r2)
   810ec:	e1bfe717 	ldw	r6,-100(fp)
   810f0:	0081b380 	call	81b38 <printf>
					scheduler_info[i].valid = -1;
   810f4:	e13fe717 	ldw	r4,-100(fp)
   810f8:	01400304 	movi	r5,12
   810fc:	0081aec0 	call	81aec <__mulsi3>
   81100:	1007883a 	mov	r3,r2
   81104:	e0bfe504 	addi	r2,fp,-108
   81108:	1885883a 	add	r2,r3,r2
   8110c:	10c01004 	addi	r3,r2,64
   81110:	00bfffc4 	movi	r2,-1
   81114:	18800015 	stw	r2,0(r3)

					PB_pressed[scheduler_info[i].id] = 0;
   81118:	e13fe717 	ldw	r4,-100(fp)
   8111c:	01400304 	movi	r5,12
   81120:	0081aec0 	call	81aec <__mulsi3>
   81124:	1007883a 	mov	r3,r2
   81128:	e0bfe504 	addi	r2,fp,-108
   8112c:	1885883a 	add	r2,r3,r2
   81130:	10801104 	addi	r2,r2,68
   81134:	10800017 	ldw	r2,0(r2)
   81138:	100690ba 	slli	r3,r2,2
   8113c:	e0bfe504 	addi	r2,fp,-108
   81140:	1885883a 	add	r2,r3,r2
   81144:	10800304 	addi	r2,r2,12
   81148:	10000015 	stw	zero,0(r2)
   8114c:	e0bfe717 	ldw	r2,-100(fp)
   81150:	10800044 	addi	r2,r2,1
   81154:	e0bfe715 	stw	r2,-100(fp)
   81158:	003fbe06 	br	81054 <custom_scheduler+0x5b8>
				}
			}

			// Delete the corresponding task first
			num_active_task -= custom_task_del(num_active_task, scheduler_info, task_info);
   8115c:	e17ff504 	addi	r5,fp,-44
   81160:	e1bfef04 	addi	r6,fp,-68
   81164:	e13fee17 	ldw	r4,-72(fp)
   81168:	00813280 	call	81328 <custom_task_del>
   8116c:	1007883a 	mov	r3,r2
   81170:	e0bfee17 	ldw	r2,-72(fp)
   81174:	10c5c83a 	sub	r2,r2,r3
   81178:	e0bfee15 	stw	r2,-72(fp)

			// Create the new task if available
			num_active_task += custom_task_create(PB_pressed, num_active_task, scheduler_info, task_info);
   8117c:	e13fe804 	addi	r4,fp,-96
   81180:	e1bff504 	addi	r6,fp,-44
   81184:	e1ffef04 	addi	r7,fp,-68
   81188:	e17fee17 	ldw	r5,-72(fp)
   8118c:	008157c0 	call	8157c <custom_task_create>
   81190:	1007883a 	mov	r3,r2
   81194:	e0bfee17 	ldw	r2,-72(fp)
   81198:	10c5883a 	add	r2,r2,r3
   8119c:	e0bfee15 	stw	r2,-72(fp)

			printf("Printing task info:\n");
   811a0:	01000274 	movhi	r4,9
   811a4:	211a1d04 	addi	r4,r4,26740
   811a8:	0081b380 	call	81b38 <printf>
			for (i = 0; i < num_active_task; i++) {
   811ac:	e03fe715 	stw	zero,-100(fp)
   811b0:	e0ffe717 	ldw	r3,-100(fp)
   811b4:	e0bfee17 	ldw	r2,-72(fp)
   811b8:	1880510e 	bge	r3,r2,81300 <custom_scheduler+0x864>
				printf("Priority %d: valid=%d, task_id=%d, period=%d, exec_time=%d, os_delay=%d, pri=%d\n",
   811bc:	e13fe717 	ldw	r4,-100(fp)
   811c0:	01400304 	movi	r5,12
   811c4:	0081aec0 	call	81aec <__mulsi3>
   811c8:	1007883a 	mov	r3,r2
   811cc:	e0bfe504 	addi	r2,fp,-108
   811d0:	1885883a 	add	r2,r3,r2
   811d4:	14001004 	addi	r16,r2,64
   811d8:	e13fe717 	ldw	r4,-100(fp)
   811dc:	01400304 	movi	r5,12
   811e0:	0081aec0 	call	81aec <__mulsi3>
   811e4:	1007883a 	mov	r3,r2
   811e8:	e0bfe504 	addi	r2,fp,-108
   811ec:	1885883a 	add	r2,r3,r2
   811f0:	14401104 	addi	r17,r2,68
   811f4:	e13fe717 	ldw	r4,-100(fp)
   811f8:	01400304 	movi	r5,12
   811fc:	0081aec0 	call	81aec <__mulsi3>
   81200:	1007883a 	mov	r3,r2
   81204:	e0bfe504 	addi	r2,fp,-108
   81208:	1885883a 	add	r2,r3,r2
   8120c:	10801204 	addi	r2,r2,72
   81210:	10800017 	ldw	r2,0(r2)
   81214:	d8800015 	stw	r2,0(sp)
   81218:	e13fe717 	ldw	r4,-100(fp)
   8121c:	01400304 	movi	r5,12
   81220:	0081aec0 	call	81aec <__mulsi3>
   81224:	1007883a 	mov	r3,r2
   81228:	e0bfe504 	addi	r2,fp,-108
   8122c:	1885883a 	add	r2,r3,r2
   81230:	10801104 	addi	r2,r2,68
   81234:	11000017 	ldw	r4,0(r2)
   81238:	01400304 	movi	r5,12
   8123c:	0081aec0 	call	81aec <__mulsi3>
   81240:	1007883a 	mov	r3,r2
   81244:	e0bfe504 	addi	r2,fp,-108
   81248:	1885883a 	add	r2,r3,r2
   8124c:	10800b04 	addi	r2,r2,44
   81250:	10800017 	ldw	r2,0(r2)
   81254:	d8800115 	stw	r2,4(sp)
   81258:	e13fe717 	ldw	r4,-100(fp)
   8125c:	01400304 	movi	r5,12
   81260:	0081aec0 	call	81aec <__mulsi3>
   81264:	1007883a 	mov	r3,r2
   81268:	e0bfe504 	addi	r2,fp,-108
   8126c:	1885883a 	add	r2,r3,r2
   81270:	10801104 	addi	r2,r2,68
   81274:	11000017 	ldw	r4,0(r2)
   81278:	01400304 	movi	r5,12
   8127c:	0081aec0 	call	81aec <__mulsi3>
   81280:	1007883a 	mov	r3,r2
   81284:	e0bfe504 	addi	r2,fp,-108
   81288:	1885883a 	add	r2,r3,r2
   8128c:	10800c04 	addi	r2,r2,48
   81290:	10800017 	ldw	r2,0(r2)
   81294:	d8800215 	stw	r2,8(sp)
   81298:	e13fe717 	ldw	r4,-100(fp)
   8129c:	01400304 	movi	r5,12
   812a0:	0081aec0 	call	81aec <__mulsi3>
   812a4:	1007883a 	mov	r3,r2
   812a8:	e0bfe504 	addi	r2,fp,-108
   812ac:	1885883a 	add	r2,r3,r2
   812b0:	10801104 	addi	r2,r2,68
   812b4:	11000017 	ldw	r4,0(r2)
   812b8:	01400304 	movi	r5,12
   812bc:	0081aec0 	call	81aec <__mulsi3>
   812c0:	1007883a 	mov	r3,r2
   812c4:	e0bfe504 	addi	r2,fp,-108
   812c8:	1885883a 	add	r2,r3,r2
   812cc:	10800a04 	addi	r2,r2,40
   812d0:	10800017 	ldw	r2,0(r2)
   812d4:	d8800315 	stw	r2,12(sp)
   812d8:	01000274 	movhi	r4,9
   812dc:	211a2304 	addi	r4,r4,26764
   812e0:	e17fe717 	ldw	r5,-100(fp)
   812e4:	81800017 	ldw	r6,0(r16)
   812e8:	89c00017 	ldw	r7,0(r17)
   812ec:	0081b380 	call	81b38 <printf>
   812f0:	e0bfe717 	ldw	r2,-100(fp)
   812f4:	10800044 	addi	r2,r2,1
   812f8:	e0bfe715 	stw	r2,-100(fp)
   812fc:	003fac06 	br	811b0 <custom_scheduler+0x714>
					i,
					scheduler_info[i].valid,
					scheduler_info[i].id,
					scheduler_info[i].period,
					task_info[scheduler_info[i].id].execution_time,
					task_info[scheduler_info[i].id].os_delay,
					task_info[scheduler_info[i].id].priority);
			}

			printf("Unlocking OS scheduler\n");
   81300:	01000274 	movhi	r4,9
   81304:	211a5204 	addi	r4,r4,26952
   81308:	0081b380 	call	81b38 <printf>
			OSSchedUnlock();
   8130c:	008c5c40 	call	8c5c4 <OSSchedUnlock>
		}

		OSTimeDlyHMSM(0, 0, 0, 500);
   81310:	0009883a 	mov	r4,zero
   81314:	000b883a 	mov	r5,zero
   81318:	000d883a 	mov	r6,zero
   8131c:	01c07d04 	movi	r7,500
   81320:	00930780 	call	93078 <OSTimeDlyHMSM>
   81324:	003f1f06 	br	80fa4 <custom_scheduler+0x508>

00081328 <custom_task_del>:
	}
}

// Function for deleting a task from the OS, and from the data structure task_info
int custom_task_del(int num_active_task, scheduler_info_struct scheduler_info[], task_info_struct task_info[]) {
   81328:	defff704 	addi	sp,sp,-36
   8132c:	dfc00815 	stw	ra,32(sp)
   81330:	df000715 	stw	fp,28(sp)
   81334:	dc000615 	stw	r16,24(sp)
   81338:	df000704 	addi	fp,sp,28
   8133c:	e13ff915 	stw	r4,-28(fp)
   81340:	e17ffa15 	stw	r5,-24(fp)
   81344:	e1bffb15 	stw	r6,-20(fp)

	int i, total_task_del = 0;
   81348:	e03ffd15 	stw	zero,-12(fp)
	INT8U return_code = OS_NO_ERR;
   8134c:	e03ffe05 	stb	zero,-8(fp)

	printf("Deleting task(s) from the OS ...\n");
   81350:	01000274 	movhi	r4,9
   81354:	211a5804 	addi	r4,r4,26976
   81358:	0081b380 	call	81b38 <printf>
	for (i = 0; i < num_active_task; i++) {
   8135c:	e03ffc15 	stw	zero,-16(fp)
   81360:	e0fffc17 	ldw	r3,-16(fp)
   81364:	e0bff917 	ldw	r2,-28(fp)
   81368:	18806c0e 	bge	r3,r2,8151c <custom_task_del+0x1f4>
		if (scheduler_info[i].valid == -1) {
   8136c:	e13ffc17 	ldw	r4,-16(fp)
   81370:	01400304 	movi	r5,12
   81374:	0081aec0 	call	81aec <__mulsi3>
   81378:	1007883a 	mov	r3,r2
   8137c:	e0bffa17 	ldw	r2,-24(fp)
   81380:	1885883a 	add	r2,r3,r2
   81384:	10800017 	ldw	r2,0(r2)
   81388:	10bfffd8 	cmpnei	r2,r2,-1
   8138c:	10000b1e 	bne	r2,zero,813bc <custom_task_del+0x94>
			// delete tasks that were marked for deletion
			return_code = OSTaskDel(TASK_START_PRIORITY+i);
   81390:	e0bffc17 	ldw	r2,-16(fp)
   81394:	10800284 	addi	r2,r2,10
   81398:	11003fcc 	andi	r4,r2,255
   8139c:	00920300 	call	92030 <OSTaskDel>
   813a0:	e0bffe05 	stb	r2,-8(fp)
			alt_ucosii_check_return_code(return_code);
   813a4:	e13ffe03 	ldbu	r4,-8(fp)
   813a8:	008042c0 	call	8042c <alt_ucosii_check_return_code>
			total_task_del++;
   813ac:	e0bffd17 	ldw	r2,-12(fp)
   813b0:	10800044 	addi	r2,r2,1
   813b4:	e0bffd15 	stw	r2,-12(fp)
   813b8:	00005406 	br	8150c <custom_task_del+0x1e4>
		}
		else {
			// active tasks will upgrade their priority
			if (total_task_del != 0) {
   813bc:	e0bffd17 	ldw	r2,-12(fp)
   813c0:	1005003a 	cmpeq	r2,r2,zero
   813c4:	1000511e 	bne	r2,zero,8150c <custom_task_del+0x1e4>
				return_code = OSTaskChangePrio(TASK_START_PRIORITY+i, TASK_START_PRIORITY+i-total_task_del);
   813c8:	e0bffc17 	ldw	r2,-16(fp)
   813cc:	10800284 	addi	r2,r2,10
   813d0:	11803fcc 	andi	r6,r2,255
   813d4:	e0bffc17 	ldw	r2,-16(fp)
   813d8:	e0fffd17 	ldw	r3,-12(fp)
   813dc:	1009883a 	mov	r4,r2
   813e0:	1805883a 	mov	r2,r3
   813e4:	2085c83a 	sub	r2,r4,r2
   813e8:	10800284 	addi	r2,r2,10
   813ec:	11403fcc 	andi	r5,r2,255
   813f0:	3009883a 	mov	r4,r6
   813f4:	00917c40 	call	917c4 <OSTaskChangePrio>
   813f8:	e0bffe05 	stb	r2,-8(fp)
				alt_ucosii_check_return_code(return_code);
   813fc:	e13ffe03 	ldbu	r4,-8(fp)
   81400:	008042c0 	call	8042c <alt_ucosii_check_return_code>
				scheduler_info[i-total_task_del].valid = scheduler_info[i].valid;
   81404:	e0fffc17 	ldw	r3,-16(fp)
   81408:	e0bffd17 	ldw	r2,-12(fp)
   8140c:	1889c83a 	sub	r4,r3,r2
   81410:	01400304 	movi	r5,12
   81414:	0081aec0 	call	81aec <__mulsi3>
   81418:	1007883a 	mov	r3,r2
   8141c:	e0bffa17 	ldw	r2,-24(fp)
   81420:	18a1883a 	add	r16,r3,r2
   81424:	e13ffc17 	ldw	r4,-16(fp)
   81428:	01400304 	movi	r5,12
   8142c:	0081aec0 	call	81aec <__mulsi3>
   81430:	1007883a 	mov	r3,r2
   81434:	e0bffa17 	ldw	r2,-24(fp)
   81438:	1885883a 	add	r2,r3,r2
   8143c:	10800017 	ldw	r2,0(r2)
   81440:	80800015 	stw	r2,0(r16)
				scheduler_info[i-total_task_del].id = scheduler_info[i].id;
   81444:	e0fffc17 	ldw	r3,-16(fp)
   81448:	e0bffd17 	ldw	r2,-12(fp)
   8144c:	1889c83a 	sub	r4,r3,r2
   81450:	01400304 	movi	r5,12
   81454:	0081aec0 	call	81aec <__mulsi3>
   81458:	1007883a 	mov	r3,r2
   8145c:	e0bffa17 	ldw	r2,-24(fp)
   81460:	18a1883a 	add	r16,r3,r2
   81464:	e13ffc17 	ldw	r4,-16(fp)
   81468:	01400304 	movi	r5,12
   8146c:	0081aec0 	call	81aec <__mulsi3>
   81470:	1007883a 	mov	r3,r2
   81474:	e0bffa17 	ldw	r2,-24(fp)
   81478:	1885883a 	add	r2,r3,r2
   8147c:	10800117 	ldw	r2,4(r2)
   81480:	80800115 	stw	r2,4(r16)
				scheduler_info[i-total_task_del].period = scheduler_info[i].period;
   81484:	e0fffc17 	ldw	r3,-16(fp)
   81488:	e0bffd17 	ldw	r2,-12(fp)
   8148c:	1889c83a 	sub	r4,r3,r2
   81490:	01400304 	movi	r5,12
   81494:	0081aec0 	call	81aec <__mulsi3>
   81498:	1007883a 	mov	r3,r2
   8149c:	e0bffa17 	ldw	r2,-24(fp)
   814a0:	18a1883a 	add	r16,r3,r2
   814a4:	e13ffc17 	ldw	r4,-16(fp)
   814a8:	01400304 	movi	r5,12
   814ac:	0081aec0 	call	81aec <__mulsi3>
   814b0:	1007883a 	mov	r3,r2
   814b4:	e0bffa17 	ldw	r2,-24(fp)
   814b8:	1885883a 	add	r2,r3,r2
   814bc:	10800217 	ldw	r2,8(r2)
   814c0:	80800215 	stw	r2,8(r16)
				task_info[scheduler_info[i-total_task_del].id].priority = i-total_task_del;
   814c4:	e0fffc17 	ldw	r3,-16(fp)
   814c8:	e0bffd17 	ldw	r2,-12(fp)
   814cc:	1889c83a 	sub	r4,r3,r2
   814d0:	01400304 	movi	r5,12
   814d4:	0081aec0 	call	81aec <__mulsi3>
   814d8:	1007883a 	mov	r3,r2
   814dc:	e0bffa17 	ldw	r2,-24(fp)
   814e0:	1885883a 	add	r2,r3,r2
   814e4:	11000117 	ldw	r4,4(r2)
   814e8:	01400304 	movi	r5,12
   814ec:	0081aec0 	call	81aec <__mulsi3>
   814f0:	1007883a 	mov	r3,r2
   814f4:	e0bffb17 	ldw	r2,-20(fp)
   814f8:	1889883a 	add	r4,r3,r2
   814fc:	e0fffc17 	ldw	r3,-16(fp)
   81500:	e0bffd17 	ldw	r2,-12(fp)
   81504:	1885c83a 	sub	r2,r3,r2
   81508:	20800015 	stw	r2,0(r4)
   8150c:	e0bffc17 	ldw	r2,-16(fp)
   81510:	10800044 	addi	r2,r2,1
   81514:	e0bffc15 	stw	r2,-16(fp)
   81518:	003f9106 	br	81360 <custom_task_del+0x38>
			}
		}
	}

	// clear the valid flag for all the inactive tasks
	for (i = num_active_task - total_task_del; i < num_active_task; i++)
   8151c:	e0bff917 	ldw	r2,-28(fp)
   81520:	e0fffd17 	ldw	r3,-12(fp)
   81524:	10c5c83a 	sub	r2,r2,r3
   81528:	e0bffc15 	stw	r2,-16(fp)
   8152c:	e0fffc17 	ldw	r3,-16(fp)
   81530:	e0bff917 	ldw	r2,-28(fp)
   81534:	18800b0e 	bge	r3,r2,81564 <custom_task_del+0x23c>
			scheduler_info[i].valid = 0;
   81538:	e13ffc17 	ldw	r4,-16(fp)
   8153c:	01400304 	movi	r5,12
   81540:	0081aec0 	call	81aec <__mulsi3>
   81544:	1007883a 	mov	r3,r2
   81548:	e0bffa17 	ldw	r2,-24(fp)
   8154c:	1885883a 	add	r2,r3,r2
   81550:	10000015 	stw	zero,0(r2)
   81554:	e0bffc17 	ldw	r2,-16(fp)
   81558:	10800044 	addi	r2,r2,1
   8155c:	e0bffc15 	stw	r2,-16(fp)
   81560:	003ff206 	br	8152c <custom_task_del+0x204>

	return total_task_del;
   81564:	e0bffd17 	ldw	r2,-12(fp)
}
   81568:	dfc00817 	ldw	ra,32(sp)
   8156c:	df000717 	ldw	fp,28(sp)
   81570:	dc000617 	ldw	r16,24(sp)
   81574:	dec00904 	addi	sp,sp,36
   81578:	f800283a 	ret

0008157c <custom_task_create>:

// Function for creating a task in the OS, and update the data structure task_info
// The new task has the lowest priority among the existing tasks
int custom_task_create(int PB_pressed[], int num_active_task, scheduler_info_struct scheduler_info[], task_info_struct task_info[]) {
   8157c:	deffee04 	addi	sp,sp,-72
   81580:	dfc01115 	stw	ra,68(sp)
   81584:	df001015 	stw	fp,64(sp)
   81588:	dc000f15 	stw	r16,60(sp)
   8158c:	dc400e15 	stw	r17,56(sp)
   81590:	dc800d15 	stw	r18,52(sp)
   81594:	df001004 	addi	fp,sp,64
   81598:	e13ff515 	stw	r4,-44(fp)
   8159c:	e17ff615 	stw	r5,-40(fp)
   815a0:	e1bff715 	stw	r6,-36(fp)
   815a4:	e1fff815 	stw	r7,-32(fp)
	int i;
	int num_task_created;
	INT8U return_code = OS_NO_ERR;
   815a8:	e03ffb05 	stb	zero,-20(fp)

	num_task_created = 0;
   815ac:	e03ffa15 	stw	zero,-24(fp)
	printf("Creating task(s) in the OS ...\n");
   815b0:	01000274 	movhi	r4,9
   815b4:	211a6104 	addi	r4,r4,27012
   815b8:	0081b380 	call	81b38 <printf>

	for (i = 0; i < NUM_PB_BUTTON; i++) {
   815bc:	e03ff915 	stw	zero,-28(fp)
   815c0:	e0bff917 	ldw	r2,-28(fp)
   815c4:	10800108 	cmpgei	r2,r2,4
   815c8:	1000da1e 	bne	r2,zero,81934 <custom_task_create+0x3b8>
		if (PB_pressed[i] == 1) {
   815cc:	e0bff917 	ldw	r2,-28(fp)
   815d0:	100690ba 	slli	r3,r2,2
   815d4:	e0bff517 	ldw	r2,-44(fp)
   815d8:	1885883a 	add	r2,r3,r2
   815dc:	10800017 	ldw	r2,0(r2)
   815e0:	10800058 	cmpnei	r2,r2,1
   815e4:	1000cf1e 	bne	r2,zero,81924 <custom_task_create+0x3a8>
			task_info[i].execution_time = rand() % EXECUTION_TIME_LIMIT + 1;
   815e8:	e13ff917 	ldw	r4,-28(fp)
   815ec:	01400304 	movi	r5,12
   815f0:	0081aec0 	call	81aec <__mulsi3>
   815f4:	1007883a 	mov	r3,r2
   815f8:	e0bff817 	ldw	r2,-32(fp)
   815fc:	18a1883a 	add	r16,r3,r2
   81600:	0081b800 	call	81b80 <rand>
   81604:	1009883a 	mov	r4,r2
   81608:	0144e204 	movi	r5,5000
   8160c:	0081a800 	call	81a80 <__modsi3>
   81610:	10800044 	addi	r2,r2,1
   81614:	80800115 	stw	r2,4(r16)
			task_info[i].os_delay = rand() % OS_DELAY_LIMIT + 1;
   81618:	e13ff917 	ldw	r4,-28(fp)
   8161c:	01400304 	movi	r5,12
   81620:	0081aec0 	call	81aec <__mulsi3>
   81624:	1007883a 	mov	r3,r2
   81628:	e0bff817 	ldw	r2,-32(fp)
   8162c:	18a1883a 	add	r16,r3,r2
   81630:	0081b800 	call	81b80 <rand>
   81634:	1009883a 	mov	r4,r2
   81638:	01400144 	movi	r5,5
   8163c:	0081a800 	call	81a80 <__modsi3>
   81640:	10800044 	addi	r2,r2,1
   81644:	80800215 	stw	r2,8(r16)
			task_info[i].priority = num_active_task + num_task_created;
   81648:	e13ff917 	ldw	r4,-28(fp)
   8164c:	01400304 	movi	r5,12
   81650:	0081aec0 	call	81aec <__mulsi3>
   81654:	1007883a 	mov	r3,r2
   81658:	e0bff817 	ldw	r2,-32(fp)
   8165c:	1889883a 	add	r4,r3,r2
   81660:	e0fff617 	ldw	r3,-40(fp)
   81664:	e0bffa17 	ldw	r2,-24(fp)
   81668:	1885883a 	add	r2,r3,r2
   8166c:	20800015 	stw	r2,0(r4)
			
            scheduler_info[num_active_task + num_task_created].valid = 1;
   81670:	e0fff617 	ldw	r3,-40(fp)
   81674:	e0bffa17 	ldw	r2,-24(fp)
   81678:	1889883a 	add	r4,r3,r2
   8167c:	01400304 	movi	r5,12
   81680:	0081aec0 	call	81aec <__mulsi3>
   81684:	1007883a 	mov	r3,r2
   81688:	e0bff717 	ldw	r2,-36(fp)
   8168c:	1887883a 	add	r3,r3,r2
   81690:	00800044 	movi	r2,1
   81694:	18800015 	stw	r2,0(r3)
            scheduler_info[num_active_task + num_task_created].period = task_info[i].execution_time + task_info[i].os_delay;// * 1000;
   81698:	e0fff617 	ldw	r3,-40(fp)
   8169c:	e0bffa17 	ldw	r2,-24(fp)
   816a0:	1889883a 	add	r4,r3,r2
   816a4:	01400304 	movi	r5,12
   816a8:	0081aec0 	call	81aec <__mulsi3>
   816ac:	1007883a 	mov	r3,r2
   816b0:	e0bff717 	ldw	r2,-36(fp)
   816b4:	18a3883a 	add	r17,r3,r2
   816b8:	e13ff917 	ldw	r4,-28(fp)
   816bc:	01400304 	movi	r5,12
   816c0:	0081aec0 	call	81aec <__mulsi3>
   816c4:	1007883a 	mov	r3,r2
   816c8:	e0bff817 	ldw	r2,-32(fp)
   816cc:	18a1883a 	add	r16,r3,r2
   816d0:	e13ff917 	ldw	r4,-28(fp)
   816d4:	01400304 	movi	r5,12
   816d8:	0081aec0 	call	81aec <__mulsi3>
   816dc:	1007883a 	mov	r3,r2
   816e0:	e0bff817 	ldw	r2,-32(fp)
   816e4:	1885883a 	add	r2,r3,r2
   816e8:	80c00117 	ldw	r3,4(r16)
   816ec:	10800217 	ldw	r2,8(r2)
   816f0:	1885883a 	add	r2,r3,r2
   816f4:	88800215 	stw	r2,8(r17)
            scheduler_info[num_active_task + num_task_created].id = i;
   816f8:	e0fff617 	ldw	r3,-40(fp)
   816fc:	e0bffa17 	ldw	r2,-24(fp)
   81700:	1889883a 	add	r4,r3,r2
   81704:	01400304 	movi	r5,12
   81708:	0081aec0 	call	81aec <__mulsi3>
   8170c:	1007883a 	mov	r3,r2
   81710:	e0bff717 	ldw	r2,-36(fp)
   81714:	1887883a 	add	r3,r3,r2
   81718:	e0bff917 	ldw	r2,-28(fp)
   8171c:	18800115 	stw	r2,4(r3)
            
			printf("-Creating periodic_task%d: execution_time_tick = %d, os_delay_time = %d: priority (%d)\n",
   81720:	e13ff917 	ldw	r4,-28(fp)
   81724:	01400304 	movi	r5,12
   81728:	0081aec0 	call	81aec <__mulsi3>
   8172c:	1007883a 	mov	r3,r2
   81730:	e0bff817 	ldw	r2,-32(fp)
   81734:	18a1883a 	add	r16,r3,r2
   81738:	e13ff917 	ldw	r4,-28(fp)
   8173c:	01400304 	movi	r5,12
   81740:	0081aec0 	call	81aec <__mulsi3>
   81744:	1007883a 	mov	r3,r2
   81748:	e0bff817 	ldw	r2,-32(fp)
   8174c:	188f883a 	add	r7,r3,r2
   81750:	e0fff617 	ldw	r3,-40(fp)
   81754:	e0bffa17 	ldw	r2,-24(fp)
   81758:	1885883a 	add	r2,r3,r2
   8175c:	d8800015 	stw	r2,0(sp)
   81760:	01000274 	movhi	r4,9
   81764:	211a6904 	addi	r4,r4,27044
   81768:	e17ff917 	ldw	r5,-28(fp)
   8176c:	81800117 	ldw	r6,4(r16)
   81770:	39c00217 	ldw	r7,8(r7)
   81774:	0081b380 	call	81b38 <printf>
				i,
				task_info[i].execution_time,
				task_info[i].os_delay,
                num_active_task + num_task_created
                );

			// Create the task in the OS
			switch(i) {
   81778:	e0bff917 	ldw	r2,-28(fp)
   8177c:	e0bffc15 	stw	r2,-16(fp)
   81780:	e0fffc17 	ldw	r3,-16(fp)
   81784:	18800060 	cmpeqi	r2,r3,1
   81788:	1000041e 	bne	r2,zero,8179c <custom_task_create+0x220>
   8178c:	e0fffc17 	ldw	r3,-16(fp)
   81790:	188000a0 	cmpeqi	r2,r3,2
   81794:	1000311e 	bne	r2,zero,8185c <custom_task_create+0x2e0>
   81798:	00005f06 	br	81918 <custom_task_create+0x39c>
				case 1:
					return_code = OSTaskCreateExt(periodic_task1,
   8179c:	e13ff917 	ldw	r4,-28(fp)
   817a0:	01400304 	movi	r5,12
   817a4:	0081aec0 	call	81aec <__mulsi3>
   817a8:	1007883a 	mov	r3,r2
   817ac:	e0bff817 	ldw	r2,-32(fp)
   817b0:	18a1883a 	add	r16,r3,r2
   817b4:	e0bff917 	ldw	r2,-28(fp)
   817b8:	1006937a 	slli	r3,r2,13
   817bc:	008002b4 	movhi	r2,10
   817c0:	10b99104 	addi	r2,r2,-6588
   817c4:	18a3883a 	add	r17,r3,r2
   817c8:	e0bff617 	ldw	r2,-40(fp)
   817cc:	e0fffa17 	ldw	r3,-24(fp)
   817d0:	1009883a 	mov	r4,r2
   817d4:	1805883a 	mov	r2,r3
   817d8:	2085883a 	add	r2,r4,r2
   817dc:	10800284 	addi	r2,r2,10
   817e0:	14803fcc 	andi	r18,r2,255
   817e4:	e0bff917 	ldw	r2,-28(fp)
   817e8:	10bfffcc 	andi	r2,r2,65535
   817ec:	d8800015 	stw	r2,0(sp)
   817f0:	e0bff917 	ldw	r2,-28(fp)
   817f4:	1006937a 	slli	r3,r2,13
   817f8:	008002b4 	movhi	r2,10
   817fc:	10b19204 	addi	r2,r2,-14776
   81800:	1885883a 	add	r2,r3,r2
   81804:	d8800115 	stw	r2,4(sp)
   81808:	00820004 	movi	r2,2048
   8180c:	d8800215 	stw	r2,8(sp)
   81810:	e13ff917 	ldw	r4,-28(fp)
   81814:	01401b04 	movi	r5,108
   81818:	0081aec0 	call	81aec <__mulsi3>
   8181c:	1007883a 	mov	r3,r2
   81820:	008002b4 	movhi	r2,10
   81824:	1081b104 	addi	r2,r2,1732
   81828:	1885883a 	add	r2,r3,r2
   8182c:	d8800315 	stw	r2,12(sp)
   81830:	d8000415 	stw	zero,16(sp)
   81834:	01000234 	movhi	r4,8
   81838:	21024f04 	addi	r4,r4,2364
   8183c:	800b883a 	mov	r5,r16
   81840:	880d883a 	mov	r6,r17
   81844:	900f883a 	mov	r7,r18
   81848:	0091e480 	call	91e48 <OSTaskCreateExt>
   8184c:	e0bffb05 	stb	r2,-20(fp)
						 					&task_info[i],
											 (void *)&periodic_task_stk[i][TASK_STACKSIZE-1],
											 TASK_START_PRIORITY+num_active_task + num_task_created,
											 i,
											 &periodic_task_stk[i][0],
											 TASK_STACKSIZE,
											 &periodic_task_tcb[i],
											 0);
					alt_ucosii_check_return_code(return_code);
   81850:	e13ffb03 	ldbu	r4,-20(fp)
   81854:	008042c0 	call	8042c <alt_ucosii_check_return_code>
				break;
   81858:	00002f06 	br	81918 <custom_task_create+0x39c>
				case 2:
					return_code = OSTaskCreateExt(periodic_task2,
   8185c:	e13ff917 	ldw	r4,-28(fp)
   81860:	01400304 	movi	r5,12
   81864:	0081aec0 	call	81aec <__mulsi3>
   81868:	1007883a 	mov	r3,r2
   8186c:	e0bff817 	ldw	r2,-32(fp)
   81870:	18a1883a 	add	r16,r3,r2
   81874:	e0bff917 	ldw	r2,-28(fp)
   81878:	1006937a 	slli	r3,r2,13
   8187c:	008002b4 	movhi	r2,10
   81880:	10b99104 	addi	r2,r2,-6588
   81884:	18a3883a 	add	r17,r3,r2
   81888:	e0bff617 	ldw	r2,-40(fp)
   8188c:	e0fffa17 	ldw	r3,-24(fp)
   81890:	1009883a 	mov	r4,r2
   81894:	1805883a 	mov	r2,r3
   81898:	2085883a 	add	r2,r4,r2
   8189c:	10800284 	addi	r2,r2,10
   818a0:	14803fcc 	andi	r18,r2,255
   818a4:	e0bff917 	ldw	r2,-28(fp)
   818a8:	10bfffcc 	andi	r2,r2,65535
   818ac:	d8800015 	stw	r2,0(sp)
   818b0:	e0bff917 	ldw	r2,-28(fp)
   818b4:	1006937a 	slli	r3,r2,13
   818b8:	008002b4 	movhi	r2,10
   818bc:	10b19204 	addi	r2,r2,-14776
   818c0:	1885883a 	add	r2,r3,r2
   818c4:	d8800115 	stw	r2,4(sp)
   818c8:	00820004 	movi	r2,2048
   818cc:	d8800215 	stw	r2,8(sp)
   818d0:	e13ff917 	ldw	r4,-28(fp)
   818d4:	01401b04 	movi	r5,108
   818d8:	0081aec0 	call	81aec <__mulsi3>
   818dc:	1007883a 	mov	r3,r2
   818e0:	008002b4 	movhi	r2,10
   818e4:	1081b104 	addi	r2,r2,1732
   818e8:	1885883a 	add	r2,r3,r2
   818ec:	d8800315 	stw	r2,12(sp)
   818f0:	d8000415 	stw	zero,16(sp)
   818f4:	01000234 	movhi	r4,8
   818f8:	21027b04 	addi	r4,r4,2540
   818fc:	800b883a 	mov	r5,r16
   81900:	880d883a 	mov	r6,r17
   81904:	900f883a 	mov	r7,r18
   81908:	0091e480 	call	91e48 <OSTaskCreateExt>
   8190c:	e0bffb05 	stb	r2,-20(fp)
						 					&task_info[i],
											 (void *)&periodic_task_stk[i][TASK_STACKSIZE-1],
											 TASK_START_PRIORITY+num_active_task + num_task_created,
											 i,
											 &periodic_task_stk[i][0],
											 TASK_STACKSIZE,
											 &periodic_task_tcb[i],
											 0);
					alt_ucosii_check_return_code(return_code);
   81910:	e13ffb03 	ldbu	r4,-20(fp)
   81914:	008042c0 	call	8042c <alt_ucosii_check_return_code>
				break;
			}

			num_task_created++;
   81918:	e0bffa17 	ldw	r2,-24(fp)
   8191c:	10800044 	addi	r2,r2,1
   81920:	e0bffa15 	stw	r2,-24(fp)
   81924:	e0bff917 	ldw	r2,-28(fp)
   81928:	10800044 	addi	r2,r2,1
   8192c:	e0bff915 	stw	r2,-28(fp)
   81930:	003f2306 	br	815c0 <custom_task_create+0x44>
		}
	}

	printf("%d task created...\n", num_task_created);
   81934:	01000274 	movhi	r4,9
   81938:	211a7f04 	addi	r4,r4,27132
   8193c:	e17ffa17 	ldw	r5,-24(fp)
   81940:	0081b380 	call	81b38 <printf>

	return num_task_created;
   81944:	e0bffa17 	ldw	r2,-24(fp)
}
   81948:	dfc01117 	ldw	ra,68(sp)
   8194c:	df001017 	ldw	fp,64(sp)
   81950:	dc000f17 	ldw	r16,60(sp)
   81954:	dc400e17 	ldw	r17,56(sp)
   81958:	dc800d17 	ldw	r18,52(sp)
   8195c:	dec01204 	addi	sp,sp,72
   81960:	f800283a 	ret

00081964 <custom_delay>:

// Function for occupying the processor for the specified number of clock ticks
// to simulate custom delay while keeping the task in the processor
void custom_delay(int ticks) {
   81964:	defffc04 	addi	sp,sp,-16
   81968:	dfc00315 	stw	ra,12(sp)
   8196c:	df000215 	stw	fp,8(sp)
   81970:	df000204 	addi	fp,sp,8
   81974:	e13ffe15 	stw	r4,-8(fp)
    INT32U cur_tick;
    ticks--;
   81978:	e0bffe17 	ldw	r2,-8(fp)
   8197c:	10bfffc4 	addi	r2,r2,-1
   81980:	e0bffe15 	stw	r2,-8(fp)
    cur_tick = OSTimeGet();
   81984:	00933d00 	call	933d0 <OSTimeGet>
   81988:	e0bfff15 	stw	r2,-4(fp)
    while (ticks > 0) {
   8198c:	e0bffe17 	ldw	r2,-8(fp)
   81990:	10800050 	cmplti	r2,r2,1
   81994:	10000a1e 	bne	r2,zero,819c0 <custom_delay+0x5c>
         if (OSTimeGet() > cur_tick) {
   81998:	00933d00 	call	933d0 <OSTimeGet>
   8199c:	1007883a 	mov	r3,r2
   819a0:	e0bfff17 	ldw	r2,-4(fp)
   819a4:	10fff92e 	bgeu	r2,r3,8198c <custom_delay+0x28>
            ticks--;
   819a8:	e0bffe17 	ldw	r2,-8(fp)
   819ac:	10bfffc4 	addi	r2,r2,-1
   819b0:	e0bffe15 	stw	r2,-8(fp)
            cur_tick = OSTimeGet();
   819b4:	00933d00 	call	933d0 <OSTimeGet>
   819b8:	e0bfff15 	stw	r2,-4(fp)
   819bc:	003ff306 	br	8198c <custom_delay+0x28>
         }  
    }
}
   819c0:	dfc00317 	ldw	ra,12(sp)
   819c4:	df000217 	ldw	fp,8(sp)
   819c8:	dec00404 	addi	sp,sp,16
   819cc:	f800283a 	ret

000819d0 <udivmodsi4>:
   819d0:	00800044 	movi	r2,1
   819d4:	000f883a 	mov	r7,zero
   819d8:	2900082e 	bgeu	r5,r4,819fc <udivmodsi4+0x2c>
   819dc:	28000716 	blt	r5,zero,819fc <udivmodsi4+0x2c>
   819e0:	294b883a 	add	r5,r5,r5
   819e4:	1085883a 	add	r2,r2,r2
   819e8:	29000e2e 	bgeu	r5,r4,81a24 <udivmodsi4+0x54>
   819ec:	1007003a 	cmpeq	r3,r2,zero
   819f0:	1800081e 	bne	r3,zero,81a14 <udivmodsi4+0x44>
   819f4:	283ffa0e 	bge	r5,zero,819e0 <udivmodsi4+0x10>
   819f8:	1800061e 	bne	r3,zero,81a14 <udivmodsi4+0x44>
   819fc:	21400236 	bltu	r4,r5,81a08 <udivmodsi4+0x38>
   81a00:	2149c83a 	sub	r4,r4,r5
   81a04:	388eb03a 	or	r7,r7,r2
   81a08:	1004d07a 	srli	r2,r2,1
   81a0c:	280ad07a 	srli	r5,r5,1
   81a10:	103ffa1e 	bne	r2,zero,819fc <udivmodsi4+0x2c>
   81a14:	3000011e 	bne	r6,zero,81a1c <udivmodsi4+0x4c>
   81a18:	3809883a 	mov	r4,r7
   81a1c:	2005883a 	mov	r2,r4
   81a20:	f800283a 	ret
   81a24:	1007003a 	cmpeq	r3,r2,zero
   81a28:	183ff426 	beq	r3,zero,819fc <udivmodsi4+0x2c>
   81a2c:	003ff906 	br	81a14 <udivmodsi4+0x44>

00081a30 <__divsi3>:
   81a30:	defffe04 	addi	sp,sp,-8
   81a34:	dc000015 	stw	r16,0(sp)
   81a38:	dfc00115 	stw	ra,4(sp)
   81a3c:	000d883a 	mov	r6,zero
   81a40:	0021883a 	mov	r16,zero
   81a44:	20000816 	blt	r4,zero,81a68 <__divsi3+0x38>
   81a48:	28000a16 	blt	r5,zero,81a74 <__divsi3+0x44>
   81a4c:	00819d00 	call	819d0 <udivmodsi4>
   81a50:	80000126 	beq	r16,zero,81a58 <__divsi3+0x28>
   81a54:	0085c83a 	sub	r2,zero,r2
   81a58:	dfc00117 	ldw	ra,4(sp)
   81a5c:	dc000017 	ldw	r16,0(sp)
   81a60:	dec00204 	addi	sp,sp,8
   81a64:	f800283a 	ret
   81a68:	0109c83a 	sub	r4,zero,r4
   81a6c:	0021003a 	cmpeq	r16,zero,zero
   81a70:	283ff60e 	bge	r5,zero,81a4c <__divsi3+0x1c>
   81a74:	014bc83a 	sub	r5,zero,r5
   81a78:	8021003a 	cmpeq	r16,r16,zero
   81a7c:	003ff306 	br	81a4c <__divsi3+0x1c>

00081a80 <__modsi3>:
   81a80:	defffe04 	addi	sp,sp,-8
   81a84:	dc000015 	stw	r16,0(sp)
   81a88:	dfc00115 	stw	ra,4(sp)
   81a8c:	01800044 	movi	r6,1
   81a90:	0021883a 	mov	r16,zero
   81a94:	20000816 	blt	r4,zero,81ab8 <__modsi3+0x38>
   81a98:	28000a16 	blt	r5,zero,81ac4 <__modsi3+0x44>
   81a9c:	00819d00 	call	819d0 <udivmodsi4>
   81aa0:	80000126 	beq	r16,zero,81aa8 <__modsi3+0x28>
   81aa4:	0085c83a 	sub	r2,zero,r2
   81aa8:	dfc00117 	ldw	ra,4(sp)
   81aac:	dc000017 	ldw	r16,0(sp)
   81ab0:	dec00204 	addi	sp,sp,8
   81ab4:	f800283a 	ret
   81ab8:	0109c83a 	sub	r4,zero,r4
   81abc:	3021883a 	mov	r16,r6
   81ac0:	283ff60e 	bge	r5,zero,81a9c <__modsi3+0x1c>
   81ac4:	014bc83a 	sub	r5,zero,r5
   81ac8:	003ff406 	br	81a9c <__modsi3+0x1c>

00081acc <__udivsi3>:
   81acc:	000d883a 	mov	r6,zero
   81ad0:	02000234 	movhi	r8,8
   81ad4:	42067404 	addi	r8,r8,6608
   81ad8:	4000683a 	jmp	r8

00081adc <__umodsi3>:
   81adc:	01800044 	movi	r6,1
   81ae0:	02000234 	movhi	r8,8
   81ae4:	42067404 	addi	r8,r8,6608
   81ae8:	4000683a 	jmp	r8

00081aec <__mulsi3>:
   81aec:	0007883a 	mov	r3,zero
   81af0:	20000626 	beq	r4,zero,81b0c <__mulsi3+0x20>
   81af4:	2080004c 	andi	r2,r4,1
   81af8:	2008d07a 	srli	r4,r4,1
   81afc:	10000126 	beq	r2,zero,81b04 <__mulsi3+0x18>
   81b00:	1947883a 	add	r3,r3,r5
   81b04:	294b883a 	add	r5,r5,r5
   81b08:	203ffa1e 	bne	r4,zero,81af4 <__mulsi3+0x8>
   81b0c:	1805883a 	mov	r2,r3
   81b10:	f800283a 	ret

00081b14 <fprintf>:
   81b14:	defffd04 	addi	sp,sp,-12
   81b18:	dfc00015 	stw	ra,0(sp)
   81b1c:	d9800115 	stw	r6,4(sp)
   81b20:	d9c00215 	stw	r7,8(sp)
   81b24:	d9800104 	addi	r6,sp,4
   81b28:	00838c00 	call	838c0 <__vfprintf_internal>
   81b2c:	dfc00017 	ldw	ra,0(sp)
   81b30:	dec00304 	addi	sp,sp,12
   81b34:	f800283a 	ret

00081b38 <printf>:
   81b38:	defffc04 	addi	sp,sp,-16
   81b3c:	dfc00015 	stw	ra,0(sp)
   81b40:	d9400115 	stw	r5,4(sp)
   81b44:	d9800215 	stw	r6,8(sp)
   81b48:	d9c00315 	stw	r7,12(sp)
   81b4c:	d0a00117 	ldw	r2,-32764(gp)
   81b50:	200b883a 	mov	r5,r4
   81b54:	d9800104 	addi	r6,sp,4
   81b58:	11000217 	ldw	r4,8(r2)
   81b5c:	00838c00 	call	838c0 <__vfprintf_internal>
   81b60:	dfc00017 	ldw	ra,0(sp)
   81b64:	dec00404 	addi	sp,sp,16
   81b68:	f800283a 	ret

00081b6c <srand>:
   81b6c:	d1600117 	ldw	r5,-32764(gp)
   81b70:	0007883a 	mov	r3,zero
   81b74:	28c02a15 	stw	r3,168(r5)
   81b78:	29002915 	stw	r4,164(r5)
   81b7c:	f800283a 	ret

00081b80 <rand>:
   81b80:	defffe04 	addi	sp,sp,-8
   81b84:	dc000015 	stw	r16,0(sp)
   81b88:	d4200117 	ldw	r16,-32764(gp)
   81b8c:	dfc00115 	stw	ra,4(sp)
   81b90:	00932574 	movhi	r2,19605
   81b94:	109fcb44 	addi	r2,r2,32557
   81b98:	82002917 	ldw	r8,164(r16)
   81b9c:	82402a17 	ldw	r9,168(r16)
   81ba0:	00d614b4 	movhi	r3,22610
   81ba4:	18fd0b44 	addi	r3,r3,-3027
   81ba8:	4009883a 	mov	r4,r8
   81bac:	180f883a 	mov	r7,r3
   81bb0:	100d883a 	mov	r6,r2
   81bb4:	480b883a 	mov	r5,r9
   81bb8:	00887b40 	call	887b4 <__muldi3>
   81bbc:	02000044 	movi	r8,1
   81bc0:	1209883a 	add	r4,r2,r8
   81bc4:	2095803a 	cmpltu	r10,r4,r2
   81bc8:	50d5883a 	add	r10,r10,r3
   81bcc:	81002915 	stw	r4,164(r16)
   81bd0:	01200034 	movhi	r4,32768
   81bd4:	213fffc4 	addi	r4,r4,-1
   81bd8:	2284703a 	and	r2,r4,r10
   81bdc:	82802a15 	stw	r10,168(r16)
   81be0:	dfc00117 	ldw	ra,4(sp)
   81be4:	dc000017 	ldw	r16,0(sp)
   81be8:	dec00204 	addi	sp,sp,8
   81bec:	f800283a 	ret

00081bf0 <__sprint>:
   81bf0:	defffe04 	addi	sp,sp,-8
   81bf4:	dc000015 	stw	r16,0(sp)
   81bf8:	dfc00115 	stw	ra,4(sp)
   81bfc:	28800217 	ldw	r2,8(r5)
   81c00:	2821883a 	mov	r16,r5
   81c04:	0007883a 	mov	r3,zero
   81c08:	1000061e 	bne	r2,zero,81c24 <__sprint+0x34>
   81c0c:	1805883a 	mov	r2,r3
   81c10:	28000115 	stw	zero,4(r5)
   81c14:	dfc00117 	ldw	ra,4(sp)
   81c18:	dc000017 	ldw	r16,0(sp)
   81c1c:	dec00204 	addi	sp,sp,8
   81c20:	f800283a 	ret
   81c24:	0085c840 	call	85c84 <__sfvwrite>
   81c28:	1007883a 	mov	r3,r2
   81c2c:	1805883a 	mov	r2,r3
   81c30:	80000115 	stw	zero,4(r16)
   81c34:	80000215 	stw	zero,8(r16)
   81c38:	dfc00117 	ldw	ra,4(sp)
   81c3c:	dc000017 	ldw	r16,0(sp)
   81c40:	dec00204 	addi	sp,sp,8
   81c44:	f800283a 	ret

00081c48 <___vfprintf_internal_r>:
   81c48:	defe4a04 	addi	sp,sp,-1752
   81c4c:	dc01b315 	stw	r16,1740(sp)
   81c50:	d9419e15 	stw	r5,1656(sp)
   81c54:	d9019d15 	stw	r4,1652(sp)
   81c58:	dfc1b515 	stw	ra,1748(sp)
   81c5c:	df01b415 	stw	fp,1744(sp)
   81c60:	dc41b215 	stw	r17,1736(sp)
   81c64:	dc81b115 	stw	r18,1732(sp)
   81c68:	dcc1b015 	stw	r19,1728(sp)
   81c6c:	dd01af15 	stw	r20,1724(sp)
   81c70:	dd41ae15 	stw	r21,1720(sp)
   81c74:	dd81ad15 	stw	r22,1716(sp)
   81c78:	ddc1ac15 	stw	r23,1712(sp)
   81c7c:	3021883a 	mov	r16,r6
   81c80:	d9c19f15 	stw	r7,1660(sp)
   81c84:	00861940 	call	86194 <localeconv>
   81c88:	d8c19e17 	ldw	r3,1656(sp)
   81c8c:	10800017 	ldw	r2,0(r2)
   81c90:	000b883a 	mov	r5,zero
   81c94:	1900030b 	ldhu	r4,12(r3)
   81c98:	d881a315 	stw	r2,1676(sp)
   81c9c:	d941a415 	stw	r5,1680(sp)
   81ca0:	2080020c 	andi	r2,r4,8
   81ca4:	d941a515 	stw	r5,1684(sp)
   81ca8:	d801a615 	stw	zero,1688(sp)
   81cac:	d801a915 	stw	zero,1700(sp)
   81cb0:	d801aa15 	stw	zero,1704(sp)
   81cb4:	10004226 	beq	r2,zero,81dc0 <___vfprintf_internal_r+0x178>
   81cb8:	18800417 	ldw	r2,16(r3)
   81cbc:	10004026 	beq	r2,zero,81dc0 <___vfprintf_internal_r+0x178>
   81cc0:	20c0068c 	andi	r3,r4,26
   81cc4:	00800284 	movi	r2,10
   81cc8:	18804626 	beq	r3,r2,81de4 <___vfprintf_internal_r+0x19c>
   81ccc:	dc800904 	addi	r18,sp,36
   81cd0:	802d883a 	mov	r22,r16
   81cd4:	dc800615 	stw	r18,24(sp)
   81cd8:	d8000815 	stw	zero,32(sp)
   81cdc:	d8000715 	stw	zero,28(sp)
   81ce0:	d801a115 	stw	zero,1668(sp)
   81ce4:	b1000003 	ldbu	r4,0(r22)
   81ce8:	b027883a 	mov	r19,r22
   81cec:	20803fcc 	andi	r2,r4,255
   81cf0:	1080201c 	xori	r2,r2,128
   81cf4:	10bfe004 	addi	r2,r2,-128
   81cf8:	10000826 	beq	r2,zero,81d1c <___vfprintf_internal_r+0xd4>
   81cfc:	00c00944 	movi	r3,37
   81d00:	10c00626 	beq	r2,r3,81d1c <___vfprintf_internal_r+0xd4>
   81d04:	b5800044 	addi	r22,r22,1
   81d08:	b1000003 	ldbu	r4,0(r22)
   81d0c:	20803fcc 	andi	r2,r4,255
   81d10:	1080201c 	xori	r2,r2,128
   81d14:	10bfe004 	addi	r2,r2,-128
   81d18:	103ff91e 	bne	r2,zero,81d00 <___vfprintf_internal_r+0xb8>
   81d1c:	b4e3c83a 	sub	r17,r22,r19
   81d20:	88000f26 	beq	r17,zero,81d60 <___vfprintf_internal_r+0x118>
   81d24:	d8800817 	ldw	r2,32(sp)
   81d28:	d8c00717 	ldw	r3,28(sp)
   81d2c:	94c00015 	stw	r19,0(r18)
   81d30:	1445883a 	add	r2,r2,r17
   81d34:	18c00044 	addi	r3,r3,1
   81d38:	d8800815 	stw	r2,32(sp)
   81d3c:	008001c4 	movi	r2,7
   81d40:	94400115 	stw	r17,4(r18)
   81d44:	d8c00715 	stw	r3,28(sp)
   81d48:	94800204 	addi	r18,r18,8
   81d4c:	10c05a16 	blt	r2,r3,81eb8 <___vfprintf_internal_r+0x270>
   81d50:	d8c1a117 	ldw	r3,1668(sp)
   81d54:	b1000003 	ldbu	r4,0(r22)
   81d58:	1c47883a 	add	r3,r3,r17
   81d5c:	d8c1a115 	stw	r3,1668(sp)
   81d60:	20803fcc 	andi	r2,r4,255
   81d64:	1080201c 	xori	r2,r2,128
   81d68:	10bfe004 	addi	r2,r2,-128
   81d6c:	10036d26 	beq	r2,zero,82b24 <___vfprintf_internal_r+0xedc>
   81d70:	b5800044 	addi	r22,r22,1
   81d74:	b1000003 	ldbu	r4,0(r22)
   81d78:	053fffc4 	movi	r20,-1
   81d7c:	d801a015 	stw	zero,1664(sp)
   81d80:	d801a715 	stw	zero,1692(sp)
   81d84:	d801a215 	stw	zero,1672(sp)
   81d88:	d8019c05 	stb	zero,1648(sp)
   81d8c:	27003fcc 	andi	fp,r4,255
   81d90:	e700201c 	xori	fp,fp,128
   81d94:	e73fe004 	addi	fp,fp,-128
   81d98:	b5800044 	addi	r22,r22,1
   81d9c:	e0fff804 	addi	r3,fp,-32
   81da0:	00801604 	movi	r2,88
   81da4:	10c19c36 	bltu	r2,r3,82418 <___vfprintf_internal_r+0x7d0>
   81da8:	180490ba 	slli	r2,r3,2
   81dac:	00c00274 	movhi	r3,9
   81db0:	18da8d04 	addi	r3,r3,27188
   81db4:	10c5883a 	add	r2,r2,r3
   81db8:	11000017 	ldw	r4,0(r2)
   81dbc:	2000683a 	jmp	r4
   81dc0:	d9019e17 	ldw	r4,1656(sp)
   81dc4:	0083f840 	call	83f84 <__swsetup>
   81dc8:	00ffffc4 	movi	r3,-1
   81dcc:	10002d1e 	bne	r2,zero,81e84 <___vfprintf_internal_r+0x23c>
   81dd0:	d9c19e17 	ldw	r7,1656(sp)
   81dd4:	00800284 	movi	r2,10
   81dd8:	3900030b 	ldhu	r4,12(r7)
   81ddc:	20c0068c 	andi	r3,r4,26
   81de0:	18bfba1e 	bne	r3,r2,81ccc <___vfprintf_internal_r+0x84>
   81de4:	d8819e17 	ldw	r2,1656(sp)
   81de8:	1280038b 	ldhu	r10,14(r2)
   81dec:	50bfffcc 	andi	r2,r10,65535
   81df0:	10a0001c 	xori	r2,r2,32768
   81df4:	10a00004 	addi	r2,r2,-32768
   81df8:	103fb416 	blt	r2,zero,81ccc <___vfprintf_internal_r+0x84>
   81dfc:	d8c19e17 	ldw	r3,1656(sp)
   81e00:	d9819f17 	ldw	r6,1660(sp)
   81e04:	dc407104 	addi	r17,sp,452
   81e08:	1a000717 	ldw	r8,28(r3)
   81e0c:	1a400917 	ldw	r9,36(r3)
   81e10:	20bfff4c 	andi	r2,r4,65533
   81e14:	d8c08804 	addi	r3,sp,544
   81e18:	01c10004 	movi	r7,1024
   81e1c:	800b883a 	mov	r5,r16
   81e20:	8809883a 	mov	r4,r17
   81e24:	d880740d 	sth	r2,464(sp)
   81e28:	da80748d 	sth	r10,466(sp)
   81e2c:	da007815 	stw	r8,480(sp)
   81e30:	da407a15 	stw	r9,488(sp)
   81e34:	d8c07515 	stw	r3,468(sp)
   81e38:	d9c07615 	stw	r7,472(sp)
   81e3c:	d8c07115 	stw	r3,452(sp)
   81e40:	d9c07315 	stw	r7,460(sp)
   81e44:	d8007715 	stw	zero,476(sp)
   81e48:	00838c00 	call	838c0 <__vfprintf_internal>
   81e4c:	1021883a 	mov	r16,r2
   81e50:	10000416 	blt	r2,zero,81e64 <___vfprintf_internal_r+0x21c>
   81e54:	8809883a 	mov	r4,r17
   81e58:	00856a80 	call	856a8 <fflush>
   81e5c:	10000126 	beq	r2,zero,81e64 <___vfprintf_internal_r+0x21c>
   81e60:	043fffc4 	movi	r16,-1
   81e64:	d880740b 	ldhu	r2,464(sp)
   81e68:	1080100c 	andi	r2,r2,64
   81e6c:	10000426 	beq	r2,zero,81e80 <___vfprintf_internal_r+0x238>
   81e70:	d9019e17 	ldw	r4,1656(sp)
   81e74:	2080030b 	ldhu	r2,12(r4)
   81e78:	10801014 	ori	r2,r2,64
   81e7c:	2080030d 	sth	r2,12(r4)
   81e80:	8007883a 	mov	r3,r16
   81e84:	1805883a 	mov	r2,r3
   81e88:	dfc1b517 	ldw	ra,1748(sp)
   81e8c:	df01b417 	ldw	fp,1744(sp)
   81e90:	dc01b317 	ldw	r16,1740(sp)
   81e94:	dc41b217 	ldw	r17,1736(sp)
   81e98:	dc81b117 	ldw	r18,1732(sp)
   81e9c:	dcc1b017 	ldw	r19,1728(sp)
   81ea0:	dd01af17 	ldw	r20,1724(sp)
   81ea4:	dd41ae17 	ldw	r21,1720(sp)
   81ea8:	dd81ad17 	ldw	r22,1716(sp)
   81eac:	ddc1ac17 	ldw	r23,1712(sp)
   81eb0:	dec1b604 	addi	sp,sp,1752
   81eb4:	f800283a 	ret
   81eb8:	d9019e17 	ldw	r4,1656(sp)
   81ebc:	d9c00404 	addi	r7,sp,16
   81ec0:	39400204 	addi	r5,r7,8
   81ec4:	0081bf00 	call	81bf0 <__sprint>
   81ec8:	10031e1e 	bne	r2,zero,82b44 <___vfprintf_internal_r+0xefc>
   81ecc:	d8800404 	addi	r2,sp,16
   81ed0:	14800504 	addi	r18,r2,20
   81ed4:	003f9e06 	br	81d50 <___vfprintf_internal_r+0x108>
   81ed8:	d901a017 	ldw	r4,1664(sp)
   81edc:	21000414 	ori	r4,r4,16
   81ee0:	d901a015 	stw	r4,1664(sp)
   81ee4:	d941a017 	ldw	r5,1664(sp)
   81ee8:	2880080c 	andi	r2,r5,32
   81eec:	10042226 	beq	r2,zero,82f78 <___vfprintf_internal_r+0x1330>
   81ef0:	d8819f17 	ldw	r2,1660(sp)
   81ef4:	00c00044 	movi	r3,1
   81ef8:	14000017 	ldw	r16,0(r2)
   81efc:	14400117 	ldw	r17,4(r2)
   81f00:	11c00204 	addi	r7,r2,8
   81f04:	d9c19f15 	stw	r7,1660(sp)
   81f08:	d8019c05 	stb	zero,1648(sp)
   81f0c:	dd01a715 	stw	r20,1692(sp)
   81f10:	a0000416 	blt	r20,zero,81f24 <___vfprintf_internal_r+0x2dc>
   81f14:	d941a017 	ldw	r5,1664(sp)
   81f18:	00bfdfc4 	movi	r2,-129
   81f1c:	288a703a 	and	r5,r5,r2
   81f20:	d941a015 	stw	r5,1664(sp)
   81f24:	d9c00404 	addi	r7,sp,16
   81f28:	8444b03a 	or	r2,r16,r17
   81f2c:	3cc06c04 	addi	r19,r7,432
   81f30:	1000021e 	bne	r2,zero,81f3c <___vfprintf_internal_r+0x2f4>
   81f34:	d881a717 	ldw	r2,1692(sp)
   81f38:	10036426 	beq	r2,zero,82ccc <___vfprintf_internal_r+0x1084>
   81f3c:	18c03fcc 	andi	r3,r3,255
   81f40:	00800044 	movi	r2,1
   81f44:	1880ec26 	beq	r3,r2,822f8 <___vfprintf_internal_r+0x6b0>
   81f48:	10c34f16 	blt	r2,r3,82c88 <___vfprintf_internal_r+0x1040>
   81f4c:	1800f626 	beq	r3,zero,82328 <___vfprintf_internal_r+0x6e0>
   81f50:	04c00274 	movhi	r19,9
   81f54:	9cdae604 	addi	r19,r19,27544
   81f58:	9809883a 	mov	r4,r19
   81f5c:	00884ac0 	call	884ac <strlen>
   81f60:	102f883a 	mov	r23,r2
   81f64:	d881a717 	ldw	r2,1692(sp)
   81f68:	ddc1a815 	stw	r23,1696(sp)
   81f6c:	b880010e 	bge	r23,r2,81f74 <___vfprintf_internal_r+0x32c>
   81f70:	d881a815 	stw	r2,1696(sp)
   81f74:	d8c19c03 	ldbu	r3,1648(sp)
   81f78:	18023c26 	beq	r3,zero,8286c <___vfprintf_internal_r+0xc24>
   81f7c:	d901a817 	ldw	r4,1696(sp)
   81f80:	21000044 	addi	r4,r4,1
   81f84:	d901a815 	stw	r4,1696(sp)
   81f88:	d881a017 	ldw	r2,1664(sp)
   81f8c:	1080210c 	andi	r2,r2,132
   81f90:	d881ab15 	stw	r2,1708(sp)
   81f94:	10002e1e 	bne	r2,zero,82050 <___vfprintf_internal_r+0x408>
   81f98:	d941a217 	ldw	r5,1672(sp)
   81f9c:	d901a817 	ldw	r4,1696(sp)
   81fa0:	2921c83a 	sub	r16,r5,r4
   81fa4:	04002a0e 	bge	zero,r16,82050 <___vfprintf_internal_r+0x408>
   81fa8:	04400404 	movi	r17,16
   81fac:	8c001a0e 	bge	r17,r16,82018 <___vfprintf_internal_r+0x3d0>
   81fb0:	882b883a 	mov	r21,r17
   81fb4:	050001c4 	movi	r20,7
   81fb8:	00000206 	br	81fc4 <___vfprintf_internal_r+0x37c>
   81fbc:	843ffc04 	addi	r16,r16,-16
   81fc0:	ac00150e 	bge	r21,r16,82018 <___vfprintf_internal_r+0x3d0>
   81fc4:	d8800817 	ldw	r2,32(sp)
   81fc8:	d8c00717 	ldw	r3,28(sp)
   81fcc:	01c00274 	movhi	r7,9
   81fd0:	39da8504 	addi	r7,r7,27156
   81fd4:	10800404 	addi	r2,r2,16
   81fd8:	18c00044 	addi	r3,r3,1
   81fdc:	91c00015 	stw	r7,0(r18)
   81fe0:	94400115 	stw	r17,4(r18)
   81fe4:	d8800815 	stw	r2,32(sp)
   81fe8:	d8c00715 	stw	r3,28(sp)
   81fec:	94800204 	addi	r18,r18,8
   81ff0:	a0fff20e 	bge	r20,r3,81fbc <___vfprintf_internal_r+0x374>
   81ff4:	d9019e17 	ldw	r4,1656(sp)
   81ff8:	d8800404 	addi	r2,sp,16
   81ffc:	11400204 	addi	r5,r2,8
   82000:	0081bf00 	call	81bf0 <__sprint>
   82004:	1002cf1e 	bne	r2,zero,82b44 <___vfprintf_internal_r+0xefc>
   82008:	d8c00404 	addi	r3,sp,16
   8200c:	843ffc04 	addi	r16,r16,-16
   82010:	1c800504 	addi	r18,r3,20
   82014:	ac3feb16 	blt	r21,r16,81fc4 <___vfprintf_internal_r+0x37c>
   82018:	d8800817 	ldw	r2,32(sp)
   8201c:	d8c00717 	ldw	r3,28(sp)
   82020:	01000274 	movhi	r4,9
   82024:	211a8504 	addi	r4,r4,27156
   82028:	1405883a 	add	r2,r2,r16
   8202c:	18c00044 	addi	r3,r3,1
   82030:	d8800815 	stw	r2,32(sp)
   82034:	008001c4 	movi	r2,7
   82038:	91000015 	stw	r4,0(r18)
   8203c:	94000115 	stw	r16,4(r18)
   82040:	d8c00715 	stw	r3,28(sp)
   82044:	94800204 	addi	r18,r18,8
   82048:	10c37c16 	blt	r2,r3,82e3c <___vfprintf_internal_r+0x11f4>
   8204c:	d8c19c03 	ldbu	r3,1648(sp)
   82050:	18803fcc 	andi	r2,r3,255
   82054:	1080201c 	xori	r2,r2,128
   82058:	10bfe004 	addi	r2,r2,-128
   8205c:	10020a26 	beq	r2,zero,82888 <___vfprintf_internal_r+0xc40>
   82060:	d9000817 	ldw	r4,32(sp)
   82064:	d9400717 	ldw	r5,28(sp)
   82068:	d8819c04 	addi	r2,sp,1648
   8206c:	90800015 	stw	r2,0(r18)
   82070:	21000044 	addi	r4,r4,1
   82074:	29400044 	addi	r5,r5,1
   82078:	00c00044 	movi	r3,1
   8207c:	008001c4 	movi	r2,7
   82080:	90c00115 	stw	r3,4(r18)
   82084:	d9000815 	stw	r4,32(sp)
   82088:	94800204 	addi	r18,r18,8
   8208c:	d9400715 	stw	r5,28(sp)
   82090:	11431716 	blt	r2,r5,82cf0 <___vfprintf_internal_r+0x10a8>
   82094:	d8c1ab17 	ldw	r3,1708(sp)
   82098:	00802004 	movi	r2,128
   8209c:	18821726 	beq	r3,r2,828fc <___vfprintf_internal_r+0xcb4>
   820a0:	d8c1a717 	ldw	r3,1692(sp)
   820a4:	1de1c83a 	sub	r16,r3,r23
   820a8:	0400300e 	bge	zero,r16,8216c <___vfprintf_internal_r+0x524>
   820ac:	04400404 	movi	r17,16
   820b0:	8c001a0e 	bge	r17,r16,8211c <___vfprintf_internal_r+0x4d4>
   820b4:	882b883a 	mov	r21,r17
   820b8:	050001c4 	movi	r20,7
   820bc:	00000206 	br	820c8 <___vfprintf_internal_r+0x480>
   820c0:	843ffc04 	addi	r16,r16,-16
   820c4:	ac00150e 	bge	r21,r16,8211c <___vfprintf_internal_r+0x4d4>
   820c8:	d8800817 	ldw	r2,32(sp)
   820cc:	d8c00717 	ldw	r3,28(sp)
   820d0:	01000274 	movhi	r4,9
   820d4:	211a8904 	addi	r4,r4,27172
   820d8:	10800404 	addi	r2,r2,16
   820dc:	18c00044 	addi	r3,r3,1
   820e0:	91000015 	stw	r4,0(r18)
   820e4:	94400115 	stw	r17,4(r18)
   820e8:	d8800815 	stw	r2,32(sp)
   820ec:	d8c00715 	stw	r3,28(sp)
   820f0:	94800204 	addi	r18,r18,8
   820f4:	a0fff20e 	bge	r20,r3,820c0 <___vfprintf_internal_r+0x478>
   820f8:	d9019e17 	ldw	r4,1656(sp)
   820fc:	d9c00404 	addi	r7,sp,16
   82100:	39400204 	addi	r5,r7,8
   82104:	0081bf00 	call	81bf0 <__sprint>
   82108:	10028e1e 	bne	r2,zero,82b44 <___vfprintf_internal_r+0xefc>
   8210c:	d8800404 	addi	r2,sp,16
   82110:	843ffc04 	addi	r16,r16,-16
   82114:	14800504 	addi	r18,r2,20
   82118:	ac3feb16 	blt	r21,r16,820c8 <___vfprintf_internal_r+0x480>
   8211c:	d8800817 	ldw	r2,32(sp)
   82120:	d8c00717 	ldw	r3,28(sp)
   82124:	01000274 	movhi	r4,9
   82128:	211a8904 	addi	r4,r4,27172
   8212c:	1405883a 	add	r2,r2,r16
   82130:	18c00044 	addi	r3,r3,1
   82134:	d8800815 	stw	r2,32(sp)
   82138:	008001c4 	movi	r2,7
   8213c:	91000015 	stw	r4,0(r18)
   82140:	94000115 	stw	r16,4(r18)
   82144:	d8c00715 	stw	r3,28(sp)
   82148:	94800204 	addi	r18,r18,8
   8214c:	10c0070e 	bge	r2,r3,8216c <___vfprintf_internal_r+0x524>
   82150:	d9019e17 	ldw	r4,1656(sp)
   82154:	d9c00404 	addi	r7,sp,16
   82158:	39400204 	addi	r5,r7,8
   8215c:	0081bf00 	call	81bf0 <__sprint>
   82160:	1002781e 	bne	r2,zero,82b44 <___vfprintf_internal_r+0xefc>
   82164:	d8800404 	addi	r2,sp,16
   82168:	14800504 	addi	r18,r2,20
   8216c:	d8c1a017 	ldw	r3,1664(sp)
   82170:	1880400c 	andi	r2,r3,256
   82174:	1002161e 	bne	r2,zero,829d0 <___vfprintf_internal_r+0xd88>
   82178:	d8800817 	ldw	r2,32(sp)
   8217c:	d8c00717 	ldw	r3,28(sp)
   82180:	94c00015 	stw	r19,0(r18)
   82184:	15c5883a 	add	r2,r2,r23
   82188:	18c00044 	addi	r3,r3,1
   8218c:	d8800815 	stw	r2,32(sp)
   82190:	008001c4 	movi	r2,7
   82194:	95c00115 	stw	r23,4(r18)
   82198:	d8c00715 	stw	r3,28(sp)
   8219c:	94800204 	addi	r18,r18,8
   821a0:	10c25d16 	blt	r2,r3,82b18 <___vfprintf_internal_r+0xed0>
   821a4:	d8c1a017 	ldw	r3,1664(sp)
   821a8:	1880010c 	andi	r2,r3,4
   821ac:	10003126 	beq	r2,zero,82274 <___vfprintf_internal_r+0x62c>
   821b0:	d941a217 	ldw	r5,1672(sp)
   821b4:	d901a817 	ldw	r4,1696(sp)
   821b8:	2921c83a 	sub	r16,r5,r4
   821bc:	04002d0e 	bge	zero,r16,82274 <___vfprintf_internal_r+0x62c>
   821c0:	04400404 	movi	r17,16
   821c4:	8c001a0e 	bge	r17,r16,82230 <___vfprintf_internal_r+0x5e8>
   821c8:	8829883a 	mov	r20,r17
   821cc:	04c001c4 	movi	r19,7
   821d0:	00000206 	br	821dc <___vfprintf_internal_r+0x594>
   821d4:	843ffc04 	addi	r16,r16,-16
   821d8:	a400150e 	bge	r20,r16,82230 <___vfprintf_internal_r+0x5e8>
   821dc:	d8800817 	ldw	r2,32(sp)
   821e0:	d8c00717 	ldw	r3,28(sp)
   821e4:	01c00274 	movhi	r7,9
   821e8:	39da8504 	addi	r7,r7,27156
   821ec:	10800404 	addi	r2,r2,16
   821f0:	18c00044 	addi	r3,r3,1
   821f4:	91c00015 	stw	r7,0(r18)
   821f8:	94400115 	stw	r17,4(r18)
   821fc:	d8800815 	stw	r2,32(sp)
   82200:	d8c00715 	stw	r3,28(sp)
   82204:	94800204 	addi	r18,r18,8
   82208:	98fff20e 	bge	r19,r3,821d4 <___vfprintf_internal_r+0x58c>
   8220c:	d9019e17 	ldw	r4,1656(sp)
   82210:	d8800404 	addi	r2,sp,16
   82214:	11400204 	addi	r5,r2,8
   82218:	0081bf00 	call	81bf0 <__sprint>
   8221c:	1002491e 	bne	r2,zero,82b44 <___vfprintf_internal_r+0xefc>
   82220:	d8c00404 	addi	r3,sp,16
   82224:	843ffc04 	addi	r16,r16,-16
   82228:	1c800504 	addi	r18,r3,20
   8222c:	a43feb16 	blt	r20,r16,821dc <___vfprintf_internal_r+0x594>
   82230:	d8800817 	ldw	r2,32(sp)
   82234:	d8c00717 	ldw	r3,28(sp)
   82238:	01000274 	movhi	r4,9
   8223c:	211a8504 	addi	r4,r4,27156
   82240:	1405883a 	add	r2,r2,r16
   82244:	18c00044 	addi	r3,r3,1
   82248:	d8800815 	stw	r2,32(sp)
   8224c:	008001c4 	movi	r2,7
   82250:	91000015 	stw	r4,0(r18)
   82254:	94000115 	stw	r16,4(r18)
   82258:	d8c00715 	stw	r3,28(sp)
   8225c:	10c0050e 	bge	r2,r3,82274 <___vfprintf_internal_r+0x62c>
   82260:	d9019e17 	ldw	r4,1656(sp)
   82264:	d9c00404 	addi	r7,sp,16
   82268:	39400204 	addi	r5,r7,8
   8226c:	0081bf00 	call	81bf0 <__sprint>
   82270:	1002341e 	bne	r2,zero,82b44 <___vfprintf_internal_r+0xefc>
   82274:	d881a817 	ldw	r2,1696(sp)
   82278:	d8c1a217 	ldw	r3,1672(sp)
   8227c:	10c0010e 	bge	r2,r3,82284 <___vfprintf_internal_r+0x63c>
   82280:	1805883a 	mov	r2,r3
   82284:	d901a117 	ldw	r4,1668(sp)
   82288:	2089883a 	add	r4,r4,r2
   8228c:	d8800817 	ldw	r2,32(sp)
   82290:	d901a115 	stw	r4,1668(sp)
   82294:	1002361e 	bne	r2,zero,82b70 <___vfprintf_internal_r+0xf28>
   82298:	d8c1aa17 	ldw	r3,1704(sp)
   8229c:	d8800404 	addi	r2,sp,16
   822a0:	d8000715 	stw	zero,28(sp)
   822a4:	14800504 	addi	r18,r2,20
   822a8:	183e8e26 	beq	r3,zero,81ce4 <___vfprintf_internal_r+0x9c>
   822ac:	1809883a 	mov	r4,r3
   822b0:	00863000 	call	86300 <free>
   822b4:	d801aa15 	stw	zero,1704(sp)
   822b8:	003e8a06 	br	81ce4 <___vfprintf_internal_r+0x9c>
   822bc:	8009883a 	mov	r4,r16
   822c0:	880b883a 	mov	r5,r17
   822c4:	01800284 	movi	r6,10
   822c8:	000f883a 	mov	r7,zero
   822cc:	0088ed00 	call	88ed0 <__umoddi3>
   822d0:	11000c04 	addi	r4,r2,48
   822d4:	9cffffc4 	addi	r19,r19,-1
   822d8:	99000005 	stb	r4,0(r19)
   822dc:	880b883a 	mov	r5,r17
   822e0:	8009883a 	mov	r4,r16
   822e4:	01800284 	movi	r6,10
   822e8:	000f883a 	mov	r7,zero
   822ec:	00888e00 	call	888e0 <__udivdi3>
   822f0:	1021883a 	mov	r16,r2
   822f4:	1823883a 	mov	r17,r3
   822f8:	88800068 	cmpgeui	r2,r17,1
   822fc:	103fef1e 	bne	r2,zero,822bc <___vfprintf_internal_r+0x674>
   82300:	8800021e 	bne	r17,zero,8230c <___vfprintf_internal_r+0x6c4>
   82304:	00800244 	movi	r2,9
   82308:	143fec36 	bltu	r2,r16,822bc <___vfprintf_internal_r+0x674>
   8230c:	9cffffc4 	addi	r19,r19,-1
   82310:	80800c04 	addi	r2,r16,48
   82314:	98800005 	stb	r2,0(r19)
   82318:	d9400404 	addi	r5,sp,16
   8231c:	2cc5c83a 	sub	r2,r5,r19
   82320:	15c06c04 	addi	r23,r2,432
   82324:	003f0f06 	br	81f64 <___vfprintf_internal_r+0x31c>
   82328:	8008d0fa 	srli	r4,r16,3
   8232c:	880a977a 	slli	r5,r17,29
   82330:	8806d0fa 	srli	r3,r17,3
   82334:	818001cc 	andi	r6,r16,7
   82338:	2904b03a 	or	r2,r5,r4
   8233c:	9cffffc4 	addi	r19,r19,-1
   82340:	31800c04 	addi	r6,r6,48
   82344:	10c8b03a 	or	r4,r2,r3
   82348:	99800005 	stb	r6,0(r19)
   8234c:	1021883a 	mov	r16,r2
   82350:	1823883a 	mov	r17,r3
   82354:	203ff41e 	bne	r4,zero,82328 <___vfprintf_internal_r+0x6e0>
   82358:	d8c1a017 	ldw	r3,1664(sp)
   8235c:	1880004c 	andi	r2,r3,1
   82360:	103fed26 	beq	r2,zero,82318 <___vfprintf_internal_r+0x6d0>
   82364:	00800c04 	movi	r2,48
   82368:	30bfeb26 	beq	r6,r2,82318 <___vfprintf_internal_r+0x6d0>
   8236c:	9cffffc4 	addi	r19,r19,-1
   82370:	003fe806 	br	82314 <___vfprintf_internal_r+0x6cc>
   82374:	d881a017 	ldw	r2,1664(sp)
   82378:	10800414 	ori	r2,r2,16
   8237c:	d881a015 	stw	r2,1664(sp)
   82380:	d8c1a017 	ldw	r3,1664(sp)
   82384:	1880080c 	andi	r2,r3,32
   82388:	1002e626 	beq	r2,zero,82f24 <___vfprintf_internal_r+0x12dc>
   8238c:	d8819f17 	ldw	r2,1660(sp)
   82390:	0007883a 	mov	r3,zero
   82394:	14000017 	ldw	r16,0(r2)
   82398:	14400117 	ldw	r17,4(r2)
   8239c:	11000204 	addi	r4,r2,8
   823a0:	d9019f15 	stw	r4,1660(sp)
   823a4:	003ed806 	br	81f08 <___vfprintf_internal_r+0x2c0>
   823a8:	d9c1a017 	ldw	r7,1664(sp)
   823ac:	39c00414 	ori	r7,r7,16
   823b0:	d9c1a015 	stw	r7,1664(sp)
   823b4:	d8c1a017 	ldw	r3,1664(sp)
   823b8:	1880080c 	andi	r2,r3,32
   823bc:	1002e326 	beq	r2,zero,82f4c <___vfprintf_internal_r+0x1304>
   823c0:	d8819f17 	ldw	r2,1660(sp)
   823c4:	14400117 	ldw	r17,4(r2)
   823c8:	11000204 	addi	r4,r2,8
   823cc:	14000017 	ldw	r16,0(r2)
   823d0:	d9019f15 	stw	r4,1660(sp)
   823d4:	88011716 	blt	r17,zero,82834 <___vfprintf_internal_r+0xbec>
   823d8:	00c00044 	movi	r3,1
   823dc:	003ecb06 	br	81f0c <___vfprintf_internal_r+0x2c4>
   823e0:	d8819f17 	ldw	r2,1660(sp)
   823e4:	d9c19f17 	ldw	r7,1660(sp)
   823e8:	10800017 	ldw	r2,0(r2)
   823ec:	39c00104 	addi	r7,r7,4
   823f0:	d9c19f15 	stw	r7,1660(sp)
   823f4:	d881a215 	stw	r2,1672(sp)
   823f8:	10010c0e 	bge	r2,zero,8282c <___vfprintf_internal_r+0xbe4>
   823fc:	0085c83a 	sub	r2,zero,r2
   82400:	d881a215 	stw	r2,1672(sp)
   82404:	d881a017 	ldw	r2,1664(sp)
   82408:	b1000003 	ldbu	r4,0(r22)
   8240c:	10800114 	ori	r2,r2,4
   82410:	d881a015 	stw	r2,1664(sp)
   82414:	003e5d06 	br	81d8c <___vfprintf_internal_r+0x144>
   82418:	e001c226 	beq	fp,zero,82b24 <___vfprintf_internal_r+0xedc>
   8241c:	d9c00404 	addi	r7,sp,16
   82420:	3cc01504 	addi	r19,r7,84
   82424:	9f000005 	stb	fp,0(r19)
   82428:	05c00044 	movi	r23,1
   8242c:	d8019c05 	stb	zero,1648(sp)
   82430:	003ecc06 	br	81f64 <___vfprintf_internal_r+0x31c>
   82434:	d8819f17 	ldw	r2,1660(sp)
   82438:	14c00017 	ldw	r19,0(r2)
   8243c:	11400104 	addi	r5,r2,4
   82440:	d8019c05 	stb	zero,1648(sp)
   82444:	d9419f15 	stw	r5,1660(sp)
   82448:	9803db26 	beq	r19,zero,833b8 <___vfprintf_internal_r+0x1770>
   8244c:	008014c4 	movi	r2,83
   82450:	e0800326 	beq	fp,r2,82460 <___vfprintf_internal_r+0x818>
   82454:	d9c1a017 	ldw	r7,1664(sp)
   82458:	3880040c 	andi	r2,r7,16
   8245c:	10035826 	beq	r2,zero,831c0 <___vfprintf_internal_r+0x1578>
   82460:	d9019904 	addi	r4,sp,1636
   82464:	000b883a 	mov	r5,zero
   82468:	01800204 	movi	r6,8
   8246c:	dcc19b15 	stw	r19,1644(sp)
   82470:	0023883a 	mov	r17,zero
   82474:	002f883a 	mov	r23,zero
   82478:	0086c5c0 	call	86c5c <memset>
   8247c:	a004c616 	blt	r20,zero,83798 <___vfprintf_internal_r+0x1b50>
   82480:	057fffc4 	movi	r21,-1
   82484:	880490ba 	slli	r2,r17,2
   82488:	d8c19b17 	ldw	r3,1644(sp)
   8248c:	10c5883a 	add	r2,r2,r3
   82490:	11800017 	ldw	r6,0(r2)
   82494:	30000b26 	beq	r6,zero,824c4 <___vfprintf_internal_r+0x87c>
   82498:	d9019d17 	ldw	r4,1652(sp)
   8249c:	d8800404 	addi	r2,sp,16
   824a0:	11401504 	addi	r5,r2,84
   824a4:	d9c19904 	addi	r7,sp,1636
   824a8:	008392c0 	call	8392c <_wcrtomb_r>
   824ac:	1541a526 	beq	r2,r21,82b44 <___vfprintf_internal_r+0xefc>
   824b0:	15c5883a 	add	r2,r2,r23
   824b4:	a0800316 	blt	r20,r2,824c4 <___vfprintf_internal_r+0x87c>
   824b8:	102f883a 	mov	r23,r2
   824bc:	8c400044 	addi	r17,r17,1
   824c0:	153ff01e 	bne	r2,r20,82484 <___vfprintf_internal_r+0x83c>
   824c4:	b83ea726 	beq	r23,zero,81f64 <___vfprintf_internal_r+0x31c>
   824c8:	d9019d17 	ldw	r4,1652(sp)
   824cc:	b9400044 	addi	r5,r23,1
   824d0:	00863140 	call	86314 <_malloc_r>
   824d4:	d881aa15 	stw	r2,1704(sp)
   824d8:	10019a26 	beq	r2,zero,82b44 <___vfprintf_internal_r+0xefc>
   824dc:	d9019904 	addi	r4,sp,1636
   824e0:	000b883a 	mov	r5,zero
   824e4:	01800204 	movi	r6,8
   824e8:	0086c5c0 	call	86c5c <memset>
   824ec:	d9019d17 	ldw	r4,1652(sp)
   824f0:	d941aa17 	ldw	r5,1704(sp)
   824f4:	d8819904 	addi	r2,sp,1636
   824f8:	b80f883a 	mov	r7,r23
   824fc:	d9819b04 	addi	r6,sp,1644
   82500:	d8800015 	stw	r2,0(sp)
   82504:	00839b40 	call	839b4 <_wcsrtombs_r>
   82508:	15c18e1e 	bne	r2,r23,82b44 <___vfprintf_internal_r+0xefc>
   8250c:	d8c1aa17 	ldw	r3,1704(sp)
   82510:	1dc5883a 	add	r2,r3,r23
   82514:	1827883a 	mov	r19,r3
   82518:	10000005 	stb	zero,0(r2)
   8251c:	003e9106 	br	81f64 <___vfprintf_internal_r+0x31c>
   82520:	d8c1a017 	ldw	r3,1664(sp)
   82524:	1880080c 	andi	r2,r3,32
   82528:	10030826 	beq	r2,zero,8314c <___vfprintf_internal_r+0x1504>
   8252c:	d8819f17 	ldw	r2,1660(sp)
   82530:	d8c1a117 	ldw	r3,1668(sp)
   82534:	11400017 	ldw	r5,0(r2)
   82538:	1809d7fa 	srai	r4,r3,31
   8253c:	11c00104 	addi	r7,r2,4
   82540:	d9c19f15 	stw	r7,1660(sp)
   82544:	29000115 	stw	r4,4(r5)
   82548:	28c00015 	stw	r3,0(r5)
   8254c:	003de506 	br	81ce4 <___vfprintf_internal_r+0x9c>
   82550:	b7000007 	ldb	fp,0(r22)
   82554:	00800a84 	movi	r2,42
   82558:	b5800044 	addi	r22,r22,1
   8255c:	e084d026 	beq	fp,r2,838a0 <___vfprintf_internal_r+0x1c58>
   82560:	e0bff404 	addi	r2,fp,-48
   82564:	00c00244 	movi	r3,9
   82568:	0021883a 	mov	r16,zero
   8256c:	18800a36 	bltu	r3,r2,82598 <___vfprintf_internal_r+0x950>
   82570:	1823883a 	mov	r17,r3
   82574:	8009883a 	mov	r4,r16
   82578:	01400284 	movi	r5,10
   8257c:	0081aec0 	call	81aec <__mulsi3>
   82580:	1705883a 	add	r2,r2,fp
   82584:	b7000007 	ldb	fp,0(r22)
   82588:	143ff404 	addi	r16,r2,-48
   8258c:	b5800044 	addi	r22,r22,1
   82590:	e0bff404 	addi	r2,fp,-48
   82594:	88bff72e 	bgeu	r17,r2,82574 <___vfprintf_internal_r+0x92c>
   82598:	00bfffc4 	movi	r2,-1
   8259c:	8029883a 	mov	r20,r16
   825a0:	80bdfe0e 	bge	r16,r2,81d9c <___vfprintf_internal_r+0x154>
   825a4:	1029883a 	mov	r20,r2
   825a8:	003dfc06 	br	81d9c <___vfprintf_internal_r+0x154>
   825ac:	b1000003 	ldbu	r4,0(r22)
   825b0:	00801b04 	movi	r2,108
   825b4:	20c03fcc 	andi	r3,r4,255
   825b8:	18c0201c 	xori	r3,r3,128
   825bc:	18ffe004 	addi	r3,r3,-128
   825c0:	18835426 	beq	r3,r2,83314 <___vfprintf_internal_r+0x16cc>
   825c4:	d941a017 	ldw	r5,1664(sp)
   825c8:	29400414 	ori	r5,r5,16
   825cc:	d941a015 	stw	r5,1664(sp)
   825d0:	003dee06 	br	81d8c <___vfprintf_internal_r+0x144>
   825d4:	b1000003 	ldbu	r4,0(r22)
   825d8:	00800ac4 	movi	r2,43
   825dc:	d8819c05 	stb	r2,1648(sp)
   825e0:	003dea06 	br	81d8c <___vfprintf_internal_r+0x144>
   825e4:	d9c1a017 	ldw	r7,1664(sp)
   825e8:	b1000003 	ldbu	r4,0(r22)
   825ec:	39c00814 	ori	r7,r7,32
   825f0:	d9c1a015 	stw	r7,1664(sp)
   825f4:	003de506 	br	81d8c <___vfprintf_internal_r+0x144>
   825f8:	d8819f17 	ldw	r2,1660(sp)
   825fc:	01000274 	movhi	r4,9
   82600:	211aed04 	addi	r4,r4,27572
   82604:	0023883a 	mov	r17,zero
   82608:	11c00104 	addi	r7,r2,4
   8260c:	14000017 	ldw	r16,0(r2)
   82610:	d881a017 	ldw	r2,1664(sp)
   82614:	00c00084 	movi	r3,2
   82618:	07001e04 	movi	fp,120
   8261c:	10800094 	ori	r2,r2,2
   82620:	d9c19f15 	stw	r7,1660(sp)
   82624:	d881a015 	stw	r2,1664(sp)
   82628:	d901a915 	stw	r4,1700(sp)
   8262c:	003e3606 	br	81f08 <___vfprintf_internal_r+0x2c0>
   82630:	d941a017 	ldw	r5,1664(sp)
   82634:	01000274 	movhi	r4,9
   82638:	211aed04 	addi	r4,r4,27572
   8263c:	d901a915 	stw	r4,1700(sp)
   82640:	2880080c 	andi	r2,r5,32
   82644:	10003326 	beq	r2,zero,82714 <___vfprintf_internal_r+0xacc>
   82648:	d8819f17 	ldw	r2,1660(sp)
   8264c:	14000017 	ldw	r16,0(r2)
   82650:	14400117 	ldw	r17,4(r2)
   82654:	11c00204 	addi	r7,r2,8
   82658:	d9c19f15 	stw	r7,1660(sp)
   8265c:	d8c1a017 	ldw	r3,1664(sp)
   82660:	1880004c 	andi	r2,r3,1
   82664:	00c00084 	movi	r3,2
   82668:	103e2726 	beq	r2,zero,81f08 <___vfprintf_internal_r+0x2c0>
   8266c:	8444b03a 	or	r2,r16,r17
   82670:	103e2526 	beq	r2,zero,81f08 <___vfprintf_internal_r+0x2c0>
   82674:	d901a017 	ldw	r4,1664(sp)
   82678:	21000094 	ori	r4,r4,2
   8267c:	d901a015 	stw	r4,1664(sp)
   82680:	003e2106 	br	81f08 <___vfprintf_internal_r+0x2c0>
   82684:	d941a017 	ldw	r5,1664(sp)
   82688:	b1000003 	ldbu	r4,0(r22)
   8268c:	29400054 	ori	r5,r5,1
   82690:	d941a015 	stw	r5,1664(sp)
   82694:	003dbd06 	br	81d8c <___vfprintf_internal_r+0x144>
   82698:	d8800404 	addi	r2,sp,16
   8269c:	14c01504 	addi	r19,r2,84
   826a0:	008010c4 	movi	r2,67
   826a4:	e0800326 	beq	fp,r2,826b4 <___vfprintf_internal_r+0xa6c>
   826a8:	d8c1a017 	ldw	r3,1664(sp)
   826ac:	1880040c 	andi	r2,r3,16
   826b0:	1002b826 	beq	r2,zero,83194 <___vfprintf_internal_r+0x154c>
   826b4:	d9019204 	addi	r4,sp,1608
   826b8:	000b883a 	mov	r5,zero
   826bc:	01800204 	movi	r6,8
   826c0:	0086c5c0 	call	86c5c <memset>
   826c4:	d8c19f17 	ldw	r3,1660(sp)
   826c8:	d9019d17 	ldw	r4,1652(sp)
   826cc:	980b883a 	mov	r5,r19
   826d0:	19800017 	ldw	r6,0(r3)
   826d4:	d9c19204 	addi	r7,sp,1608
   826d8:	008392c0 	call	8392c <_wcrtomb_r>
   826dc:	d9019f17 	ldw	r4,1660(sp)
   826e0:	102f883a 	mov	r23,r2
   826e4:	00bfffc4 	movi	r2,-1
   826e8:	21000104 	addi	r4,r4,4
   826ec:	d9019f15 	stw	r4,1660(sp)
   826f0:	b8811426 	beq	r23,r2,82b44 <___vfprintf_internal_r+0xefc>
   826f4:	d8019c05 	stb	zero,1648(sp)
   826f8:	003e1a06 	br	81f64 <___vfprintf_internal_r+0x31c>
   826fc:	d941a017 	ldw	r5,1664(sp)
   82700:	00c00274 	movhi	r3,9
   82704:	18daf204 	addi	r3,r3,27592
   82708:	d8c1a915 	stw	r3,1700(sp)
   8270c:	2880080c 	andi	r2,r5,32
   82710:	103fcd1e 	bne	r2,zero,82648 <___vfprintf_internal_r+0xa00>
   82714:	d8c1a017 	ldw	r3,1664(sp)
   82718:	1880040c 	andi	r2,r3,16
   8271c:	10027926 	beq	r2,zero,83104 <___vfprintf_internal_r+0x14bc>
   82720:	d8819f17 	ldw	r2,1660(sp)
   82724:	0023883a 	mov	r17,zero
   82728:	14000017 	ldw	r16,0(r2)
   8272c:	11000104 	addi	r4,r2,4
   82730:	d9019f15 	stw	r4,1660(sp)
   82734:	003fc906 	br	8265c <___vfprintf_internal_r+0xa14>
   82738:	d881a017 	ldw	r2,1664(sp)
   8273c:	b1000003 	ldbu	r4,0(r22)
   82740:	10801014 	ori	r2,r2,64
   82744:	d881a015 	stw	r2,1664(sp)
   82748:	003d9006 	br	81d8c <___vfprintf_internal_r+0x144>
   8274c:	00bfffc4 	movi	r2,-1
   82750:	a082f626 	beq	r20,r2,8332c <___vfprintf_internal_r+0x16e4>
   82754:	008019c4 	movi	r2,103
   82758:	e0829626 	beq	fp,r2,831b4 <___vfprintf_internal_r+0x156c>
   8275c:	008011c4 	movi	r2,71
   82760:	e0829426 	beq	fp,r2,831b4 <___vfprintf_internal_r+0x156c>
   82764:	d9019f17 	ldw	r4,1660(sp)
   82768:	20800017 	ldw	r2,0(r4)
   8276c:	20c00117 	ldw	r3,4(r4)
   82770:	21400204 	addi	r5,r4,8
   82774:	d881a415 	stw	r2,1680(sp)
   82778:	d8c1a515 	stw	r3,1684(sp)
   8277c:	d9419f15 	stw	r5,1660(sp)
   82780:	d901a417 	ldw	r4,1680(sp)
   82784:	d941a517 	ldw	r5,1684(sp)
   82788:	00881b40 	call	881b4 <isinf>
   8278c:	1002d926 	beq	r2,zero,832f4 <___vfprintf_internal_r+0x16ac>
   82790:	d901a417 	ldw	r4,1680(sp)
   82794:	d941a517 	ldw	r5,1684(sp)
   82798:	000d883a 	mov	r6,zero
   8279c:	000f883a 	mov	r7,zero
   827a0:	008a1a00 	call	8a1a0 <__ltdf2>
   827a4:	10002c16 	blt	r2,zero,82858 <___vfprintf_internal_r+0xc10>
   827a8:	04c00274 	movhi	r19,9
   827ac:	9cdaf704 	addi	r19,r19,27612
   827b0:	05c000c4 	movi	r23,3
   827b4:	003deb06 	br	81f64 <___vfprintf_internal_r+0x31c>
   827b8:	d9c1a017 	ldw	r7,1664(sp)
   827bc:	b1000003 	ldbu	r4,0(r22)
   827c0:	39c00214 	ori	r7,r7,8
   827c4:	d9c1a015 	stw	r7,1664(sp)
   827c8:	003d7006 	br	81d8c <___vfprintf_internal_r+0x144>
   827cc:	d8819c07 	ldb	r2,1648(sp)
   827d0:	1000161e 	bne	r2,zero,8282c <___vfprintf_internal_r+0xbe4>
   827d4:	b1000003 	ldbu	r4,0(r22)
   827d8:	00800804 	movi	r2,32
   827dc:	d8819c05 	stb	r2,1648(sp)
   827e0:	003d6a06 	br	81d8c <___vfprintf_internal_r+0x144>
   827e4:	0021883a 	mov	r16,zero
   827e8:	04400244 	movi	r17,9
   827ec:	8009883a 	mov	r4,r16
   827f0:	01400284 	movi	r5,10
   827f4:	0081aec0 	call	81aec <__mulsi3>
   827f8:	1705883a 	add	r2,r2,fp
   827fc:	b7000007 	ldb	fp,0(r22)
   82800:	143ff404 	addi	r16,r2,-48
   82804:	b5800044 	addi	r22,r22,1
   82808:	e0bff404 	addi	r2,fp,-48
   8280c:	88bff72e 	bgeu	r17,r2,827ec <___vfprintf_internal_r+0xba4>
   82810:	dc01a215 	stw	r16,1672(sp)
   82814:	003d6106 	br	81d9c <___vfprintf_internal_r+0x154>
   82818:	d941a017 	ldw	r5,1664(sp)
   8281c:	b1000003 	ldbu	r4,0(r22)
   82820:	29402014 	ori	r5,r5,128
   82824:	d941a015 	stw	r5,1664(sp)
   82828:	003d5806 	br	81d8c <___vfprintf_internal_r+0x144>
   8282c:	b1000003 	ldbu	r4,0(r22)
   82830:	003d5606 	br	81d8c <___vfprintf_internal_r+0x144>
   82834:	880b883a 	mov	r5,r17
   82838:	8009883a 	mov	r4,r16
   8283c:	00888c00 	call	888c0 <__negdi2>
   82840:	1021883a 	mov	r16,r2
   82844:	1823883a 	mov	r17,r3
   82848:	00800b44 	movi	r2,45
   8284c:	00c00044 	movi	r3,1
   82850:	d8819c05 	stb	r2,1648(sp)
   82854:	003dad06 	br	81f0c <___vfprintf_internal_r+0x2c4>
   82858:	00800b44 	movi	r2,45
   8285c:	04c00274 	movhi	r19,9
   82860:	9cdaf704 	addi	r19,r19,27612
   82864:	d8819c05 	stb	r2,1648(sp)
   82868:	003fd106 	br	827b0 <___vfprintf_internal_r+0xb68>
   8286c:	d941a017 	ldw	r5,1664(sp)
   82870:	2880008c 	andi	r2,r5,2
   82874:	103dc426 	beq	r2,zero,81f88 <___vfprintf_internal_r+0x340>
   82878:	d9c1a817 	ldw	r7,1696(sp)
   8287c:	39c00084 	addi	r7,r7,2
   82880:	d9c1a815 	stw	r7,1696(sp)
   82884:	003dc006 	br	81f88 <___vfprintf_internal_r+0x340>
   82888:	d941a017 	ldw	r5,1664(sp)
   8288c:	2880008c 	andi	r2,r5,2
   82890:	103e0026 	beq	r2,zero,82094 <___vfprintf_internal_r+0x44c>
   82894:	d9000817 	ldw	r4,32(sp)
   82898:	d9400717 	ldw	r5,28(sp)
   8289c:	00800c04 	movi	r2,48
   828a0:	d8807005 	stb	r2,448(sp)
   828a4:	df007045 	stb	fp,449(sp)
   828a8:	00800084 	movi	r2,2
   828ac:	d9c00404 	addi	r7,sp,16
   828b0:	90800115 	stw	r2,4(r18)
   828b4:	21000084 	addi	r4,r4,2
   828b8:	29400044 	addi	r5,r5,1
   828bc:	38c06c04 	addi	r3,r7,432
   828c0:	008001c4 	movi	r2,7
   828c4:	90c00015 	stw	r3,0(r18)
   828c8:	d9000815 	stw	r4,32(sp)
   828cc:	94800204 	addi	r18,r18,8
   828d0:	d9400715 	stw	r5,28(sp)
   828d4:	117def0e 	bge	r2,r5,82094 <___vfprintf_internal_r+0x44c>
   828d8:	d9019e17 	ldw	r4,1656(sp)
   828dc:	39400204 	addi	r5,r7,8
   828e0:	0081bf00 	call	81bf0 <__sprint>
   828e4:	1000971e 	bne	r2,zero,82b44 <___vfprintf_internal_r+0xefc>
   828e8:	d8c1ab17 	ldw	r3,1708(sp)
   828ec:	d8800404 	addi	r2,sp,16
   828f0:	14800504 	addi	r18,r2,20
   828f4:	00802004 	movi	r2,128
   828f8:	18bde91e 	bne	r3,r2,820a0 <___vfprintf_internal_r+0x458>
   828fc:	d941a217 	ldw	r5,1672(sp)
   82900:	d901a817 	ldw	r4,1696(sp)
   82904:	2921c83a 	sub	r16,r5,r4
   82908:	043de50e 	bge	zero,r16,820a0 <___vfprintf_internal_r+0x458>
   8290c:	04400404 	movi	r17,16
   82910:	8c001a0e 	bge	r17,r16,8297c <___vfprintf_internal_r+0xd34>
   82914:	882b883a 	mov	r21,r17
   82918:	050001c4 	movi	r20,7
   8291c:	00000206 	br	82928 <___vfprintf_internal_r+0xce0>
   82920:	843ffc04 	addi	r16,r16,-16
   82924:	ac00150e 	bge	r21,r16,8297c <___vfprintf_internal_r+0xd34>
   82928:	d8800817 	ldw	r2,32(sp)
   8292c:	d8c00717 	ldw	r3,28(sp)
   82930:	01c00274 	movhi	r7,9
   82934:	39da8904 	addi	r7,r7,27172
   82938:	10800404 	addi	r2,r2,16
   8293c:	18c00044 	addi	r3,r3,1
   82940:	91c00015 	stw	r7,0(r18)
   82944:	94400115 	stw	r17,4(r18)
   82948:	d8800815 	stw	r2,32(sp)
   8294c:	d8c00715 	stw	r3,28(sp)
   82950:	94800204 	addi	r18,r18,8
   82954:	a0fff20e 	bge	r20,r3,82920 <___vfprintf_internal_r+0xcd8>
   82958:	d9019e17 	ldw	r4,1656(sp)
   8295c:	d8800404 	addi	r2,sp,16
   82960:	11400204 	addi	r5,r2,8
   82964:	0081bf00 	call	81bf0 <__sprint>
   82968:	1000761e 	bne	r2,zero,82b44 <___vfprintf_internal_r+0xefc>
   8296c:	d8c00404 	addi	r3,sp,16
   82970:	843ffc04 	addi	r16,r16,-16
   82974:	1c800504 	addi	r18,r3,20
   82978:	ac3feb16 	blt	r21,r16,82928 <___vfprintf_internal_r+0xce0>
   8297c:	d8800817 	ldw	r2,32(sp)
   82980:	d8c00717 	ldw	r3,28(sp)
   82984:	01000274 	movhi	r4,9
   82988:	211a8904 	addi	r4,r4,27172
   8298c:	1405883a 	add	r2,r2,r16
   82990:	18c00044 	addi	r3,r3,1
   82994:	d8800815 	stw	r2,32(sp)
   82998:	008001c4 	movi	r2,7
   8299c:	91000015 	stw	r4,0(r18)
   829a0:	94000115 	stw	r16,4(r18)
   829a4:	d8c00715 	stw	r3,28(sp)
   829a8:	94800204 	addi	r18,r18,8
   829ac:	10fdbc0e 	bge	r2,r3,820a0 <___vfprintf_internal_r+0x458>
   829b0:	d9019e17 	ldw	r4,1656(sp)
   829b4:	d9c00404 	addi	r7,sp,16
   829b8:	39400204 	addi	r5,r7,8
   829bc:	0081bf00 	call	81bf0 <__sprint>
   829c0:	1000601e 	bne	r2,zero,82b44 <___vfprintf_internal_r+0xefc>
   829c4:	d8800404 	addi	r2,sp,16
   829c8:	14800504 	addi	r18,r2,20
   829cc:	003db406 	br	820a0 <___vfprintf_internal_r+0x458>
   829d0:	00801944 	movi	r2,101
   829d4:	17006c0e 	bge	r2,fp,82b88 <___vfprintf_internal_r+0xf40>
   829d8:	d901a417 	ldw	r4,1680(sp)
   829dc:	d941a517 	ldw	r5,1684(sp)
   829e0:	000d883a 	mov	r6,zero
   829e4:	000f883a 	mov	r7,zero
   829e8:	0089f700 	call	89f70 <__eqdf2>
   829ec:	1000c81e 	bne	r2,zero,82d10 <___vfprintf_internal_r+0x10c8>
   829f0:	d8800817 	ldw	r2,32(sp)
   829f4:	d9000717 	ldw	r4,28(sp)
   829f8:	04400044 	movi	r17,1
   829fc:	10800044 	addi	r2,r2,1
   82a00:	21000044 	addi	r4,r4,1
   82a04:	00c00274 	movhi	r3,9
   82a08:	18daf804 	addi	r3,r3,27616
   82a0c:	04c001c4 	movi	r19,7
   82a10:	90c00015 	stw	r3,0(r18)
   82a14:	94400115 	stw	r17,4(r18)
   82a18:	d8800815 	stw	r2,32(sp)
   82a1c:	d9000715 	stw	r4,28(sp)
   82a20:	94800204 	addi	r18,r18,8
   82a24:	9901d316 	blt	r19,r4,83174 <___vfprintf_internal_r+0x152c>
   82a28:	dc019617 	ldw	r16,1624(sp)
   82a2c:	d8819517 	ldw	r2,1620(sp)
   82a30:	14000316 	blt	r2,r16,82a40 <___vfprintf_internal_r+0xdf8>
   82a34:	d941a017 	ldw	r5,1664(sp)
   82a38:	2880004c 	andi	r2,r5,1
   82a3c:	103dd926 	beq	r2,zero,821a4 <___vfprintf_internal_r+0x55c>
   82a40:	d8800817 	ldw	r2,32(sp)
   82a44:	d8c00717 	ldw	r3,28(sp)
   82a48:	d9c1a317 	ldw	r7,1676(sp)
   82a4c:	10800044 	addi	r2,r2,1
   82a50:	18c00044 	addi	r3,r3,1
   82a54:	94400115 	stw	r17,4(r18)
   82a58:	91c00015 	stw	r7,0(r18)
   82a5c:	d8800815 	stw	r2,32(sp)
   82a60:	d8c00715 	stw	r3,28(sp)
   82a64:	94800204 	addi	r18,r18,8
   82a68:	98c1e016 	blt	r19,r3,831ec <___vfprintf_internal_r+0x15a4>
   82a6c:	843fffc4 	addi	r16,r16,-1
   82a70:	043dcc0e 	bge	zero,r16,821a4 <___vfprintf_internal_r+0x55c>
   82a74:	04400404 	movi	r17,16
   82a78:	8c001a0e 	bge	r17,r16,82ae4 <___vfprintf_internal_r+0xe9c>
   82a7c:	9829883a 	mov	r20,r19
   82a80:	8827883a 	mov	r19,r17
   82a84:	00000206 	br	82a90 <___vfprintf_internal_r+0xe48>
   82a88:	843ffc04 	addi	r16,r16,-16
   82a8c:	9c00150e 	bge	r19,r16,82ae4 <___vfprintf_internal_r+0xe9c>
   82a90:	d8800817 	ldw	r2,32(sp)
   82a94:	d8c00717 	ldw	r3,28(sp)
   82a98:	01000274 	movhi	r4,9
   82a9c:	211a8904 	addi	r4,r4,27172
   82aa0:	10800404 	addi	r2,r2,16
   82aa4:	18c00044 	addi	r3,r3,1
   82aa8:	91000015 	stw	r4,0(r18)
   82aac:	94400115 	stw	r17,4(r18)
   82ab0:	d8800815 	stw	r2,32(sp)
   82ab4:	d8c00715 	stw	r3,28(sp)
   82ab8:	94800204 	addi	r18,r18,8
   82abc:	a0fff20e 	bge	r20,r3,82a88 <___vfprintf_internal_r+0xe40>
   82ac0:	d9019e17 	ldw	r4,1656(sp)
   82ac4:	d9c00404 	addi	r7,sp,16
   82ac8:	39400204 	addi	r5,r7,8
   82acc:	0081bf00 	call	81bf0 <__sprint>
   82ad0:	10001c1e 	bne	r2,zero,82b44 <___vfprintf_internal_r+0xefc>
   82ad4:	d8800404 	addi	r2,sp,16
   82ad8:	843ffc04 	addi	r16,r16,-16
   82adc:	14800504 	addi	r18,r2,20
   82ae0:	9c3feb16 	blt	r19,r16,82a90 <___vfprintf_internal_r+0xe48>
   82ae4:	d8800817 	ldw	r2,32(sp)
   82ae8:	d8c00717 	ldw	r3,28(sp)
   82aec:	01000274 	movhi	r4,9
   82af0:	211a8904 	addi	r4,r4,27172
   82af4:	1405883a 	add	r2,r2,r16
   82af8:	18c00044 	addi	r3,r3,1
   82afc:	d8800815 	stw	r2,32(sp)
   82b00:	008001c4 	movi	r2,7
   82b04:	91000015 	stw	r4,0(r18)
   82b08:	94000115 	stw	r16,4(r18)
   82b0c:	d8c00715 	stw	r3,28(sp)
   82b10:	94800204 	addi	r18,r18,8
   82b14:	10fda30e 	bge	r2,r3,821a4 <___vfprintf_internal_r+0x55c>
   82b18:	d9019e17 	ldw	r4,1656(sp)
   82b1c:	d9c00404 	addi	r7,sp,16
   82b20:	00005306 	br	82c70 <___vfprintf_internal_r+0x1028>
   82b24:	d8800817 	ldw	r2,32(sp)
   82b28:	10000526 	beq	r2,zero,82b40 <___vfprintf_internal_r+0xef8>
   82b2c:	d9000404 	addi	r4,sp,16
   82b30:	21400204 	addi	r5,r4,8
   82b34:	d9019e17 	ldw	r4,1656(sp)
   82b38:	0081bf00 	call	81bf0 <__sprint>
   82b3c:	1000011e 	bne	r2,zero,82b44 <___vfprintf_internal_r+0xefc>
   82b40:	d8000715 	stw	zero,28(sp)
   82b44:	d941aa17 	ldw	r5,1704(sp)
   82b48:	28000226 	beq	r5,zero,82b54 <___vfprintf_internal_r+0xf0c>
   82b4c:	2809883a 	mov	r4,r5
   82b50:	00863000 	call	86300 <free>
   82b54:	d9c19e17 	ldw	r7,1656(sp)
   82b58:	00ffffc4 	movi	r3,-1
   82b5c:	3880030b 	ldhu	r2,12(r7)
   82b60:	1080100c 	andi	r2,r2,64
   82b64:	103cc71e 	bne	r2,zero,81e84 <___vfprintf_internal_r+0x23c>
   82b68:	d8c1a117 	ldw	r3,1668(sp)
   82b6c:	003cc506 	br	81e84 <___vfprintf_internal_r+0x23c>
   82b70:	d9019e17 	ldw	r4,1656(sp)
   82b74:	d9c00404 	addi	r7,sp,16
   82b78:	39400204 	addi	r5,r7,8
   82b7c:	0081bf00 	call	81bf0 <__sprint>
   82b80:	103dc526 	beq	r2,zero,82298 <___vfprintf_internal_r+0x650>
   82b84:	003fef06 	br	82b44 <___vfprintf_internal_r+0xefc>
   82b88:	dc019617 	ldw	r16,1624(sp)
   82b8c:	01000044 	movi	r4,1
   82b90:	24000316 	blt	r4,r16,82ba0 <___vfprintf_internal_r+0xf58>
   82b94:	d941a017 	ldw	r5,1664(sp)
   82b98:	2904703a 	and	r2,r5,r4
   82b9c:	10010026 	beq	r2,zero,82fa0 <___vfprintf_internal_r+0x1358>
   82ba0:	98800003 	ldbu	r2,0(r19)
   82ba4:	d9000817 	ldw	r4,32(sp)
   82ba8:	d9400717 	ldw	r5,28(sp)
   82bac:	00c00b84 	movi	r3,46
   82bb0:	d9c00404 	addi	r7,sp,16
   82bb4:	d8807005 	stb	r2,448(sp)
   82bb8:	d8c07045 	stb	r3,449(sp)
   82bbc:	21000084 	addi	r4,r4,2
   82bc0:	29400044 	addi	r5,r5,1
   82bc4:	38c06c04 	addi	r3,r7,432
   82bc8:	00800084 	movi	r2,2
   82bcc:	050001c4 	movi	r20,7
   82bd0:	90c00015 	stw	r3,0(r18)
   82bd4:	90800115 	stw	r2,4(r18)
   82bd8:	d9000815 	stw	r4,32(sp)
   82bdc:	9cc00044 	addi	r19,r19,1
   82be0:	94800204 	addi	r18,r18,8
   82be4:	d9400715 	stw	r5,28(sp)
   82be8:	04400404 	movi	r17,16
   82bec:	a140ff16 	blt	r20,r5,82fec <___vfprintf_internal_r+0x13a4>
   82bf0:	d901a417 	ldw	r4,1680(sp)
   82bf4:	d941a517 	ldw	r5,1684(sp)
   82bf8:	000d883a 	mov	r6,zero
   82bfc:	000f883a 	mov	r7,zero
   82c00:	0089ffc0 	call	89ffc <__nedf2>
   82c04:	10009626 	beq	r2,zero,82e60 <___vfprintf_internal_r+0x1218>
   82c08:	d8c00817 	ldw	r3,32(sp)
   82c0c:	d9000717 	ldw	r4,28(sp)
   82c10:	80bfffc4 	addi	r2,r16,-1
   82c14:	1c07883a 	add	r3,r3,r16
   82c18:	18ffffc4 	addi	r3,r3,-1
   82c1c:	21000044 	addi	r4,r4,1
   82c20:	94c00015 	stw	r19,0(r18)
   82c24:	90800115 	stw	r2,4(r18)
   82c28:	d8c00815 	stw	r3,32(sp)
   82c2c:	94800204 	addi	r18,r18,8
   82c30:	d9000715 	stw	r4,28(sp)
   82c34:	a100e516 	blt	r20,r4,82fcc <___vfprintf_internal_r+0x1384>
   82c38:	d8800817 	ldw	r2,32(sp)
   82c3c:	d941a617 	ldw	r5,1688(sp)
   82c40:	d8c00717 	ldw	r3,28(sp)
   82c44:	d9c00404 	addi	r7,sp,16
   82c48:	1145883a 	add	r2,r2,r5
   82c4c:	18c00044 	addi	r3,r3,1
   82c50:	d8800815 	stw	r2,32(sp)
   82c54:	008001c4 	movi	r2,7
   82c58:	91c00015 	stw	r7,0(r18)
   82c5c:	91400115 	stw	r5,4(r18)
   82c60:	d8c00715 	stw	r3,28(sp)
   82c64:	94800204 	addi	r18,r18,8
   82c68:	10fd4e0e 	bge	r2,r3,821a4 <___vfprintf_internal_r+0x55c>
   82c6c:	d9019e17 	ldw	r4,1656(sp)
   82c70:	39400204 	addi	r5,r7,8
   82c74:	0081bf00 	call	81bf0 <__sprint>
   82c78:	103fb21e 	bne	r2,zero,82b44 <___vfprintf_internal_r+0xefc>
   82c7c:	d8800404 	addi	r2,sp,16
   82c80:	14800504 	addi	r18,r2,20
   82c84:	003d4706 	br	821a4 <___vfprintf_internal_r+0x55c>
   82c88:	00800084 	movi	r2,2
   82c8c:	18bcb01e 	bne	r3,r2,81f50 <___vfprintf_internal_r+0x308>
   82c90:	d9c1a917 	ldw	r7,1700(sp)
   82c94:	800ad13a 	srli	r5,r16,4
   82c98:	880c973a 	slli	r6,r17,28
   82c9c:	810003cc 	andi	r4,r16,15
   82ca0:	21c9883a 	add	r4,r4,r7
   82ca4:	8806d13a 	srli	r3,r17,4
   82ca8:	3144b03a 	or	r2,r6,r5
   82cac:	21400003 	ldbu	r5,0(r4)
   82cb0:	9cffffc4 	addi	r19,r19,-1
   82cb4:	10c8b03a 	or	r4,r2,r3
   82cb8:	1021883a 	mov	r16,r2
   82cbc:	1823883a 	mov	r17,r3
   82cc0:	99400005 	stb	r5,0(r19)
   82cc4:	203ff21e 	bne	r4,zero,82c90 <___vfprintf_internal_r+0x1048>
   82cc8:	003d9306 	br	82318 <___vfprintf_internal_r+0x6d0>
   82ccc:	18803fcc 	andi	r2,r3,255
   82cd0:	103d911e 	bne	r2,zero,82318 <___vfprintf_internal_r+0x6d0>
   82cd4:	d8c1a017 	ldw	r3,1664(sp)
   82cd8:	1880004c 	andi	r2,r3,1
   82cdc:	103d8e26 	beq	r2,zero,82318 <___vfprintf_internal_r+0x6d0>
   82ce0:	d9000404 	addi	r4,sp,16
   82ce4:	24c06bc4 	addi	r19,r4,431
   82ce8:	00800c04 	movi	r2,48
   82cec:	003d8906 	br	82314 <___vfprintf_internal_r+0x6cc>
   82cf0:	d9019e17 	ldw	r4,1656(sp)
   82cf4:	d8c00404 	addi	r3,sp,16
   82cf8:	19400204 	addi	r5,r3,8
   82cfc:	0081bf00 	call	81bf0 <__sprint>
   82d00:	103f901e 	bne	r2,zero,82b44 <___vfprintf_internal_r+0xefc>
   82d04:	d9000404 	addi	r4,sp,16
   82d08:	24800504 	addi	r18,r4,20
   82d0c:	003ce106 	br	82094 <___vfprintf_internal_r+0x44c>
   82d10:	d9819517 	ldw	r6,1620(sp)
   82d14:	01813e0e 	bge	zero,r6,83210 <___vfprintf_internal_r+0x15c8>
   82d18:	dc019617 	ldw	r16,1624(sp)
   82d1c:	3400bb16 	blt	r6,r16,8300c <___vfprintf_internal_r+0x13c4>
   82d20:	d8800817 	ldw	r2,32(sp)
   82d24:	d8c00717 	ldw	r3,28(sp)
   82d28:	050001c4 	movi	r20,7
   82d2c:	1405883a 	add	r2,r2,r16
   82d30:	18c00044 	addi	r3,r3,1
   82d34:	94c00015 	stw	r19,0(r18)
   82d38:	94000115 	stw	r16,4(r18)
   82d3c:	d8800815 	stw	r2,32(sp)
   82d40:	d8c00715 	stw	r3,28(sp)
   82d44:	94800204 	addi	r18,r18,8
   82d48:	a0c1b116 	blt	r20,r3,83410 <___vfprintf_internal_r+0x17c8>
   82d4c:	3421c83a 	sub	r16,r6,r16
   82d50:	0400280e 	bge	zero,r16,82df4 <___vfprintf_internal_r+0x11ac>
   82d54:	04400404 	movi	r17,16
   82d58:	8c00190e 	bge	r17,r16,82dc0 <___vfprintf_internal_r+0x1178>
   82d5c:	8827883a 	mov	r19,r17
   82d60:	00000206 	br	82d6c <___vfprintf_internal_r+0x1124>
   82d64:	843ffc04 	addi	r16,r16,-16
   82d68:	9c00150e 	bge	r19,r16,82dc0 <___vfprintf_internal_r+0x1178>
   82d6c:	00c00274 	movhi	r3,9
   82d70:	18da8904 	addi	r3,r3,27172
   82d74:	90c00015 	stw	r3,0(r18)
   82d78:	d8800817 	ldw	r2,32(sp)
   82d7c:	d8c00717 	ldw	r3,28(sp)
   82d80:	94400115 	stw	r17,4(r18)
   82d84:	10800404 	addi	r2,r2,16
   82d88:	18c00044 	addi	r3,r3,1
   82d8c:	d8800815 	stw	r2,32(sp)
   82d90:	d8c00715 	stw	r3,28(sp)
   82d94:	94800204 	addi	r18,r18,8
   82d98:	a0fff20e 	bge	r20,r3,82d64 <___vfprintf_internal_r+0x111c>
   82d9c:	d9019e17 	ldw	r4,1656(sp)
   82da0:	d9c00404 	addi	r7,sp,16
   82da4:	39400204 	addi	r5,r7,8
   82da8:	0081bf00 	call	81bf0 <__sprint>
   82dac:	103f651e 	bne	r2,zero,82b44 <___vfprintf_internal_r+0xefc>
   82db0:	d8800404 	addi	r2,sp,16
   82db4:	843ffc04 	addi	r16,r16,-16
   82db8:	14800504 	addi	r18,r2,20
   82dbc:	9c3feb16 	blt	r19,r16,82d6c <___vfprintf_internal_r+0x1124>
   82dc0:	d8800817 	ldw	r2,32(sp)
   82dc4:	d8c00717 	ldw	r3,28(sp)
   82dc8:	01000274 	movhi	r4,9
   82dcc:	211a8904 	addi	r4,r4,27172
   82dd0:	1405883a 	add	r2,r2,r16
   82dd4:	18c00044 	addi	r3,r3,1
   82dd8:	d8800815 	stw	r2,32(sp)
   82ddc:	008001c4 	movi	r2,7
   82de0:	91000015 	stw	r4,0(r18)
   82de4:	94000115 	stw	r16,4(r18)
   82de8:	d8c00715 	stw	r3,28(sp)
   82dec:	94800204 	addi	r18,r18,8
   82df0:	10c1f316 	blt	r2,r3,835c0 <___vfprintf_internal_r+0x1978>
   82df4:	d8c1a017 	ldw	r3,1664(sp)
   82df8:	1880004c 	andi	r2,r3,1
   82dfc:	103ce926 	beq	r2,zero,821a4 <___vfprintf_internal_r+0x55c>
   82e00:	d9000817 	ldw	r4,32(sp)
   82e04:	d9400717 	ldw	r5,28(sp)
   82e08:	00800044 	movi	r2,1
   82e0c:	90800115 	stw	r2,4(r18)
   82e10:	21000044 	addi	r4,r4,1
   82e14:	29400044 	addi	r5,r5,1
   82e18:	00c00274 	movhi	r3,9
   82e1c:	18daf904 	addi	r3,r3,27620
   82e20:	008001c4 	movi	r2,7
   82e24:	90c00015 	stw	r3,0(r18)
   82e28:	d9000815 	stw	r4,32(sp)
   82e2c:	94800204 	addi	r18,r18,8
   82e30:	d9400715 	stw	r5,28(sp)
   82e34:	117cdb0e 	bge	r2,r5,821a4 <___vfprintf_internal_r+0x55c>
   82e38:	003f3706 	br	82b18 <___vfprintf_internal_r+0xed0>
   82e3c:	d9019e17 	ldw	r4,1656(sp)
   82e40:	d9c00404 	addi	r7,sp,16
   82e44:	39400204 	addi	r5,r7,8
   82e48:	0081bf00 	call	81bf0 <__sprint>
   82e4c:	103f3d1e 	bne	r2,zero,82b44 <___vfprintf_internal_r+0xefc>
   82e50:	d8c19c03 	ldbu	r3,1648(sp)
   82e54:	d8800404 	addi	r2,sp,16
   82e58:	14800504 	addi	r18,r2,20
   82e5c:	003c7c06 	br	82050 <___vfprintf_internal_r+0x408>
   82e60:	843fffc4 	addi	r16,r16,-1
   82e64:	043f740e 	bge	zero,r16,82c38 <___vfprintf_internal_r+0xff0>
   82e68:	8c00190e 	bge	r17,r16,82ed0 <___vfprintf_internal_r+0x1288>
   82e6c:	a027883a 	mov	r19,r20
   82e70:	00000206 	br	82e7c <___vfprintf_internal_r+0x1234>
   82e74:	843ffc04 	addi	r16,r16,-16
   82e78:	8c00150e 	bge	r17,r16,82ed0 <___vfprintf_internal_r+0x1288>
   82e7c:	d8800817 	ldw	r2,32(sp)
   82e80:	d8c00717 	ldw	r3,28(sp)
   82e84:	01400274 	movhi	r5,9
   82e88:	295a8904 	addi	r5,r5,27172
   82e8c:	10800404 	addi	r2,r2,16
   82e90:	18c00044 	addi	r3,r3,1
   82e94:	91400015 	stw	r5,0(r18)
   82e98:	94400115 	stw	r17,4(r18)
   82e9c:	d8800815 	stw	r2,32(sp)
   82ea0:	d8c00715 	stw	r3,28(sp)
   82ea4:	94800204 	addi	r18,r18,8
   82ea8:	98fff20e 	bge	r19,r3,82e74 <___vfprintf_internal_r+0x122c>
   82eac:	d9019e17 	ldw	r4,1656(sp)
   82eb0:	d9c00404 	addi	r7,sp,16
   82eb4:	39400204 	addi	r5,r7,8
   82eb8:	0081bf00 	call	81bf0 <__sprint>
   82ebc:	103f211e 	bne	r2,zero,82b44 <___vfprintf_internal_r+0xefc>
   82ec0:	d8800404 	addi	r2,sp,16
   82ec4:	843ffc04 	addi	r16,r16,-16
   82ec8:	14800504 	addi	r18,r2,20
   82ecc:	8c3feb16 	blt	r17,r16,82e7c <___vfprintf_internal_r+0x1234>
   82ed0:	d8800817 	ldw	r2,32(sp)
   82ed4:	d8c00717 	ldw	r3,28(sp)
   82ed8:	01000274 	movhi	r4,9
   82edc:	211a8904 	addi	r4,r4,27172
   82ee0:	1405883a 	add	r2,r2,r16
   82ee4:	18c00044 	addi	r3,r3,1
   82ee8:	d8800815 	stw	r2,32(sp)
   82eec:	008001c4 	movi	r2,7
   82ef0:	91000015 	stw	r4,0(r18)
   82ef4:	94000115 	stw	r16,4(r18)
   82ef8:	d8c00715 	stw	r3,28(sp)
   82efc:	94800204 	addi	r18,r18,8
   82f00:	10ff4d0e 	bge	r2,r3,82c38 <___vfprintf_internal_r+0xff0>
   82f04:	d9019e17 	ldw	r4,1656(sp)
   82f08:	d9c00404 	addi	r7,sp,16
   82f0c:	39400204 	addi	r5,r7,8
   82f10:	0081bf00 	call	81bf0 <__sprint>
   82f14:	103f0b1e 	bne	r2,zero,82b44 <___vfprintf_internal_r+0xefc>
   82f18:	d8800404 	addi	r2,sp,16
   82f1c:	14800504 	addi	r18,r2,20
   82f20:	003f4506 	br	82c38 <___vfprintf_internal_r+0xff0>
   82f24:	d941a017 	ldw	r5,1664(sp)
   82f28:	2880040c 	andi	r2,r5,16
   82f2c:	10006426 	beq	r2,zero,830c0 <___vfprintf_internal_r+0x1478>
   82f30:	d8819f17 	ldw	r2,1660(sp)
   82f34:	0023883a 	mov	r17,zero
   82f38:	14000017 	ldw	r16,0(r2)
   82f3c:	11c00104 	addi	r7,r2,4
   82f40:	d9c19f15 	stw	r7,1660(sp)
   82f44:	0007883a 	mov	r3,zero
   82f48:	003bef06 	br	81f08 <___vfprintf_internal_r+0x2c0>
   82f4c:	d941a017 	ldw	r5,1664(sp)
   82f50:	2880040c 	andi	r2,r5,16
   82f54:	10006326 	beq	r2,zero,830e4 <___vfprintf_internal_r+0x149c>
   82f58:	d8819f17 	ldw	r2,1660(sp)
   82f5c:	10c00017 	ldw	r3,0(r2)
   82f60:	11c00104 	addi	r7,r2,4
   82f64:	d9c19f15 	stw	r7,1660(sp)
   82f68:	1823d7fa 	srai	r17,r3,31
   82f6c:	1821883a 	mov	r16,r3
   82f70:	883d190e 	bge	r17,zero,823d8 <___vfprintf_internal_r+0x790>
   82f74:	003e2f06 	br	82834 <___vfprintf_internal_r+0xbec>
   82f78:	d8c1a017 	ldw	r3,1664(sp)
   82f7c:	1880040c 	andi	r2,r3,16
   82f80:	10006926 	beq	r2,zero,83128 <___vfprintf_internal_r+0x14e0>
   82f84:	d8819f17 	ldw	r2,1660(sp)
   82f88:	0023883a 	mov	r17,zero
   82f8c:	14000017 	ldw	r16,0(r2)
   82f90:	11000104 	addi	r4,r2,4
   82f94:	d9019f15 	stw	r4,1660(sp)
   82f98:	00c00044 	movi	r3,1
   82f9c:	003bda06 	br	81f08 <___vfprintf_internal_r+0x2c0>
   82fa0:	d8800817 	ldw	r2,32(sp)
   82fa4:	d8c00717 	ldw	r3,28(sp)
   82fa8:	94c00015 	stw	r19,0(r18)
   82fac:	10800044 	addi	r2,r2,1
   82fb0:	18c00044 	addi	r3,r3,1
   82fb4:	d8800815 	stw	r2,32(sp)
   82fb8:	008001c4 	movi	r2,7
   82fbc:	91000115 	stw	r4,4(r18)
   82fc0:	d8c00715 	stw	r3,28(sp)
   82fc4:	94800204 	addi	r18,r18,8
   82fc8:	10ff1b0e 	bge	r2,r3,82c38 <___vfprintf_internal_r+0xff0>
   82fcc:	d9019e17 	ldw	r4,1656(sp)
   82fd0:	d8c00404 	addi	r3,sp,16
   82fd4:	19400204 	addi	r5,r3,8
   82fd8:	0081bf00 	call	81bf0 <__sprint>
   82fdc:	103ed91e 	bne	r2,zero,82b44 <___vfprintf_internal_r+0xefc>
   82fe0:	d9000404 	addi	r4,sp,16
   82fe4:	24800504 	addi	r18,r4,20
   82fe8:	003f1306 	br	82c38 <___vfprintf_internal_r+0xff0>
   82fec:	d9019e17 	ldw	r4,1656(sp)
   82ff0:	39400204 	addi	r5,r7,8
   82ff4:	0081bf00 	call	81bf0 <__sprint>
   82ff8:	103ed21e 	bne	r2,zero,82b44 <___vfprintf_internal_r+0xefc>
   82ffc:	dc019617 	ldw	r16,1624(sp)
   83000:	dc45883a 	add	r2,sp,r17
   83004:	14800504 	addi	r18,r2,20
   83008:	003ef906 	br	82bf0 <___vfprintf_internal_r+0xfa8>
   8300c:	d8800817 	ldw	r2,32(sp)
   83010:	d8c00717 	ldw	r3,28(sp)
   83014:	040001c4 	movi	r16,7
   83018:	1185883a 	add	r2,r2,r6
   8301c:	18c00044 	addi	r3,r3,1
   83020:	94c00015 	stw	r19,0(r18)
   83024:	91800115 	stw	r6,4(r18)
   83028:	d8800815 	stw	r2,32(sp)
   8302c:	d8c00715 	stw	r3,28(sp)
   83030:	94800204 	addi	r18,r18,8
   83034:	80c0ed16 	blt	r16,r3,833ec <___vfprintf_internal_r+0x17a4>
   83038:	d9000817 	ldw	r4,32(sp)
   8303c:	d9400717 	ldw	r5,28(sp)
   83040:	00800274 	movhi	r2,9
   83044:	109af904 	addi	r2,r2,27620
   83048:	21000044 	addi	r4,r4,1
   8304c:	29400044 	addi	r5,r5,1
   83050:	00c00044 	movi	r3,1
   83054:	90800015 	stw	r2,0(r18)
   83058:	90c00115 	stw	r3,4(r18)
   8305c:	d9000815 	stw	r4,32(sp)
   83060:	99a7883a 	add	r19,r19,r6
   83064:	94800204 	addi	r18,r18,8
   83068:	d9400715 	stw	r5,28(sp)
   8306c:	8140d616 	blt	r16,r5,833c8 <___vfprintf_internal_r+0x1780>
   83070:	d8819617 	ldw	r2,1624(sp)
   83074:	d8c00817 	ldw	r3,32(sp)
   83078:	d9000717 	ldw	r4,28(sp)
   8307c:	1185c83a 	sub	r2,r2,r6
   83080:	1887883a 	add	r3,r3,r2
   83084:	21000044 	addi	r4,r4,1
   83088:	94c00015 	stw	r19,0(r18)
   8308c:	90800115 	stw	r2,4(r18)
   83090:	d8c00815 	stw	r3,32(sp)
   83094:	d9000715 	stw	r4,28(sp)
   83098:	94800204 	addi	r18,r18,8
   8309c:	813c410e 	bge	r16,r4,821a4 <___vfprintf_internal_r+0x55c>
   830a0:	d9019e17 	ldw	r4,1656(sp)
   830a4:	d8c00404 	addi	r3,sp,16
   830a8:	19400204 	addi	r5,r3,8
   830ac:	0081bf00 	call	81bf0 <__sprint>
   830b0:	103ea41e 	bne	r2,zero,82b44 <___vfprintf_internal_r+0xefc>
   830b4:	d9000404 	addi	r4,sp,16
   830b8:	24800504 	addi	r18,r4,20
   830bc:	003c3906 	br	821a4 <___vfprintf_internal_r+0x55c>
   830c0:	d8c1a017 	ldw	r3,1664(sp)
   830c4:	1880100c 	andi	r2,r3,64
   830c8:	1000af26 	beq	r2,zero,83388 <___vfprintf_internal_r+0x1740>
   830cc:	d8819f17 	ldw	r2,1660(sp)
   830d0:	0023883a 	mov	r17,zero
   830d4:	1400000b 	ldhu	r16,0(r2)
   830d8:	11000104 	addi	r4,r2,4
   830dc:	d9019f15 	stw	r4,1660(sp)
   830e0:	003f9806 	br	82f44 <___vfprintf_internal_r+0x12fc>
   830e4:	d8c1a017 	ldw	r3,1664(sp)
   830e8:	1880100c 	andi	r2,r3,64
   830ec:	10009b26 	beq	r2,zero,8335c <___vfprintf_internal_r+0x1714>
   830f0:	d8819f17 	ldw	r2,1660(sp)
   830f4:	10c0000f 	ldh	r3,0(r2)
   830f8:	11000104 	addi	r4,r2,4
   830fc:	d9019f15 	stw	r4,1660(sp)
   83100:	003f9906 	br	82f68 <___vfprintf_internal_r+0x1320>
   83104:	d941a017 	ldw	r5,1664(sp)
   83108:	2880100c 	andi	r2,r5,64
   8310c:	1000a426 	beq	r2,zero,833a0 <___vfprintf_internal_r+0x1758>
   83110:	d8819f17 	ldw	r2,1660(sp)
   83114:	0023883a 	mov	r17,zero
   83118:	1400000b 	ldhu	r16,0(r2)
   8311c:	11c00104 	addi	r7,r2,4
   83120:	d9c19f15 	stw	r7,1660(sp)
   83124:	003d4d06 	br	8265c <___vfprintf_internal_r+0xa14>
   83128:	d941a017 	ldw	r5,1664(sp)
   8312c:	2880100c 	andi	r2,r5,64
   83130:	10008f26 	beq	r2,zero,83370 <___vfprintf_internal_r+0x1728>
   83134:	d8819f17 	ldw	r2,1660(sp)
   83138:	0023883a 	mov	r17,zero
   8313c:	1400000b 	ldhu	r16,0(r2)
   83140:	11c00104 	addi	r7,r2,4
   83144:	d9c19f15 	stw	r7,1660(sp)
   83148:	003f9306 	br	82f98 <___vfprintf_internal_r+0x1350>
   8314c:	d8c1a017 	ldw	r3,1664(sp)
   83150:	1880040c 	andi	r2,r3,16
   83154:	10007726 	beq	r2,zero,83334 <___vfprintf_internal_r+0x16ec>
   83158:	d8819f17 	ldw	r2,1660(sp)
   8315c:	d941a117 	ldw	r5,1668(sp)
   83160:	10c00017 	ldw	r3,0(r2)
   83164:	11000104 	addi	r4,r2,4
   83168:	d9019f15 	stw	r4,1660(sp)
   8316c:	19400015 	stw	r5,0(r3)
   83170:	003adc06 	br	81ce4 <___vfprintf_internal_r+0x9c>
   83174:	d9019e17 	ldw	r4,1656(sp)
   83178:	d8c00404 	addi	r3,sp,16
   8317c:	19400204 	addi	r5,r3,8
   83180:	0081bf00 	call	81bf0 <__sprint>
   83184:	103e6f1e 	bne	r2,zero,82b44 <___vfprintf_internal_r+0xefc>
   83188:	d9000404 	addi	r4,sp,16
   8318c:	24800504 	addi	r18,r4,20
   83190:	003e2506 	br	82a28 <___vfprintf_internal_r+0xde0>
   83194:	d8819f17 	ldw	r2,1660(sp)
   83198:	05c00044 	movi	r23,1
   8319c:	10c00017 	ldw	r3,0(r2)
   831a0:	11400104 	addi	r5,r2,4
   831a4:	d9419f15 	stw	r5,1660(sp)
   831a8:	98c00005 	stb	r3,0(r19)
   831ac:	d8019c05 	stb	zero,1648(sp)
   831b0:	003b6c06 	br	81f64 <___vfprintf_internal_r+0x31c>
   831b4:	a03d6b1e 	bne	r20,zero,82764 <___vfprintf_internal_r+0xb1c>
   831b8:	05000044 	movi	r20,1
   831bc:	003d6906 	br	82764 <___vfprintf_internal_r+0xb1c>
   831c0:	a03b6516 	blt	r20,zero,81f58 <___vfprintf_internal_r+0x310>
   831c4:	9809883a 	mov	r4,r19
   831c8:	000b883a 	mov	r5,zero
   831cc:	a00d883a 	mov	r6,r20
   831d0:	00869cc0 	call	869cc <memchr>
   831d4:	a02f883a 	mov	r23,r20
   831d8:	103b6226 	beq	r2,zero,81f64 <___vfprintf_internal_r+0x31c>
   831dc:	14efc83a 	sub	r23,r2,r19
   831e0:	a5fb600e 	bge	r20,r23,81f64 <___vfprintf_internal_r+0x31c>
   831e4:	a02f883a 	mov	r23,r20
   831e8:	003b5e06 	br	81f64 <___vfprintf_internal_r+0x31c>
   831ec:	d9019e17 	ldw	r4,1656(sp)
   831f0:	d8800404 	addi	r2,sp,16
   831f4:	11400204 	addi	r5,r2,8
   831f8:	0081bf00 	call	81bf0 <__sprint>
   831fc:	103e511e 	bne	r2,zero,82b44 <___vfprintf_internal_r+0xefc>
   83200:	dc019617 	ldw	r16,1624(sp)
   83204:	d8c00404 	addi	r3,sp,16
   83208:	1c800504 	addi	r18,r3,20
   8320c:	003e1706 	br	82a6c <___vfprintf_internal_r+0xe24>
   83210:	d8800817 	ldw	r2,32(sp)
   83214:	d9000717 	ldw	r4,28(sp)
   83218:	04000044 	movi	r16,1
   8321c:	10800044 	addi	r2,r2,1
   83220:	21000044 	addi	r4,r4,1
   83224:	00c00274 	movhi	r3,9
   83228:	18daf804 	addi	r3,r3,27616
   8322c:	050001c4 	movi	r20,7
   83230:	90c00015 	stw	r3,0(r18)
   83234:	94000115 	stw	r16,4(r18)
   83238:	d8800815 	stw	r2,32(sp)
   8323c:	d9000715 	stw	r4,28(sp)
   83240:	94800204 	addi	r18,r18,8
   83244:	a100ed16 	blt	r20,r4,835fc <___vfprintf_internal_r+0x19b4>
   83248:	3000021e 	bne	r6,zero,83254 <___vfprintf_internal_r+0x160c>
   8324c:	d8819617 	ldw	r2,1624(sp)
   83250:	103bd426 	beq	r2,zero,821a4 <___vfprintf_internal_r+0x55c>
   83254:	d8800817 	ldw	r2,32(sp)
   83258:	d8c00717 	ldw	r3,28(sp)
   8325c:	d941a317 	ldw	r5,1676(sp)
   83260:	10800044 	addi	r2,r2,1
   83264:	18c00044 	addi	r3,r3,1
   83268:	94000115 	stw	r16,4(r18)
   8326c:	91400015 	stw	r5,0(r18)
   83270:	d8800815 	stw	r2,32(sp)
   83274:	d8c00715 	stw	r3,28(sp)
   83278:	94800204 	addi	r18,r18,8
   8327c:	a0c13316 	blt	r20,r3,8374c <___vfprintf_internal_r+0x1b04>
   83280:	01a1c83a 	sub	r16,zero,r6
   83284:	0400f30e 	bge	zero,r16,83654 <___vfprintf_internal_r+0x1a0c>
   83288:	04400404 	movi	r17,16
   8328c:	8c00e40e 	bge	r17,r16,83620 <___vfprintf_internal_r+0x19d8>
   83290:	a02b883a 	mov	r21,r20
   83294:	8829883a 	mov	r20,r17
   83298:	00000206 	br	832a4 <___vfprintf_internal_r+0x165c>
   8329c:	843ffc04 	addi	r16,r16,-16
   832a0:	a400df0e 	bge	r20,r16,83620 <___vfprintf_internal_r+0x19d8>
   832a4:	00c00274 	movhi	r3,9
   832a8:	18da8904 	addi	r3,r3,27172
   832ac:	90c00015 	stw	r3,0(r18)
   832b0:	d8800817 	ldw	r2,32(sp)
   832b4:	d8c00717 	ldw	r3,28(sp)
   832b8:	94400115 	stw	r17,4(r18)
   832bc:	10800404 	addi	r2,r2,16
   832c0:	18c00044 	addi	r3,r3,1
   832c4:	d8800815 	stw	r2,32(sp)
   832c8:	d8c00715 	stw	r3,28(sp)
   832cc:	94800204 	addi	r18,r18,8
   832d0:	a8fff20e 	bge	r21,r3,8329c <___vfprintf_internal_r+0x1654>
   832d4:	d9019e17 	ldw	r4,1656(sp)
   832d8:	d9c00404 	addi	r7,sp,16
   832dc:	39400204 	addi	r5,r7,8
   832e0:	0081bf00 	call	81bf0 <__sprint>
   832e4:	103e171e 	bne	r2,zero,82b44 <___vfprintf_internal_r+0xefc>
   832e8:	d8800404 	addi	r2,sp,16
   832ec:	14800504 	addi	r18,r2,20
   832f0:	003fea06 	br	8329c <___vfprintf_internal_r+0x1654>
   832f4:	d901a417 	ldw	r4,1680(sp)
   832f8:	d941a517 	ldw	r5,1684(sp)
   832fc:	00881f80 	call	881f8 <isnan>
   83300:	10004d26 	beq	r2,zero,83438 <___vfprintf_internal_r+0x17f0>
   83304:	04c00274 	movhi	r19,9
   83308:	9cdafa04 	addi	r19,r19,27624
   8330c:	05c000c4 	movi	r23,3
   83310:	003b1406 	br	81f64 <___vfprintf_internal_r+0x31c>
   83314:	d8c1a017 	ldw	r3,1664(sp)
   83318:	b5800044 	addi	r22,r22,1
   8331c:	b1000003 	ldbu	r4,0(r22)
   83320:	18c00814 	ori	r3,r3,32
   83324:	d8c1a015 	stw	r3,1664(sp)
   83328:	003a9806 	br	81d8c <___vfprintf_internal_r+0x144>
   8332c:	05000184 	movi	r20,6
   83330:	003d0c06 	br	82764 <___vfprintf_internal_r+0xb1c>
   83334:	d9c1a017 	ldw	r7,1664(sp)
   83338:	3880100c 	andi	r2,r7,64
   8333c:	1000a826 	beq	r2,zero,835e0 <___vfprintf_internal_r+0x1998>
   83340:	d8819f17 	ldw	r2,1660(sp)
   83344:	d901a117 	ldw	r4,1668(sp)
   83348:	10c00017 	ldw	r3,0(r2)
   8334c:	10800104 	addi	r2,r2,4
   83350:	d8819f15 	stw	r2,1660(sp)
   83354:	1900000d 	sth	r4,0(r3)
   83358:	003a6206 	br	81ce4 <___vfprintf_internal_r+0x9c>
   8335c:	d8819f17 	ldw	r2,1660(sp)
   83360:	10c00017 	ldw	r3,0(r2)
   83364:	11400104 	addi	r5,r2,4
   83368:	d9419f15 	stw	r5,1660(sp)
   8336c:	003efe06 	br	82f68 <___vfprintf_internal_r+0x1320>
   83370:	d8819f17 	ldw	r2,1660(sp)
   83374:	0023883a 	mov	r17,zero
   83378:	14000017 	ldw	r16,0(r2)
   8337c:	10800104 	addi	r2,r2,4
   83380:	d8819f15 	stw	r2,1660(sp)
   83384:	003f0406 	br	82f98 <___vfprintf_internal_r+0x1350>
   83388:	d8819f17 	ldw	r2,1660(sp)
   8338c:	0023883a 	mov	r17,zero
   83390:	14000017 	ldw	r16,0(r2)
   83394:	11400104 	addi	r5,r2,4
   83398:	d9419f15 	stw	r5,1660(sp)
   8339c:	003ee906 	br	82f44 <___vfprintf_internal_r+0x12fc>
   833a0:	d8819f17 	ldw	r2,1660(sp)
   833a4:	0023883a 	mov	r17,zero
   833a8:	14000017 	ldw	r16,0(r2)
   833ac:	10800104 	addi	r2,r2,4
   833b0:	d8819f15 	stw	r2,1660(sp)
   833b4:	003ca906 	br	8265c <___vfprintf_internal_r+0xa14>
   833b8:	04c00274 	movhi	r19,9
   833bc:	9cdafb04 	addi	r19,r19,27628
   833c0:	05c00184 	movi	r23,6
   833c4:	003ae706 	br	81f64 <___vfprintf_internal_r+0x31c>
   833c8:	d9019e17 	ldw	r4,1656(sp)
   833cc:	d9c00404 	addi	r7,sp,16
   833d0:	39400204 	addi	r5,r7,8
   833d4:	0081bf00 	call	81bf0 <__sprint>
   833d8:	103dda1e 	bne	r2,zero,82b44 <___vfprintf_internal_r+0xefc>
   833dc:	d9819517 	ldw	r6,1620(sp)
   833e0:	d8800404 	addi	r2,sp,16
   833e4:	14800504 	addi	r18,r2,20
   833e8:	003f2106 	br	83070 <___vfprintf_internal_r+0x1428>
   833ec:	d9019e17 	ldw	r4,1656(sp)
   833f0:	d8c00404 	addi	r3,sp,16
   833f4:	19400204 	addi	r5,r3,8
   833f8:	0081bf00 	call	81bf0 <__sprint>
   833fc:	103dd11e 	bne	r2,zero,82b44 <___vfprintf_internal_r+0xefc>
   83400:	d9819517 	ldw	r6,1620(sp)
   83404:	d9000404 	addi	r4,sp,16
   83408:	24800504 	addi	r18,r4,20
   8340c:	003f0a06 	br	83038 <___vfprintf_internal_r+0x13f0>
   83410:	d9019e17 	ldw	r4,1656(sp)
   83414:	d9c00404 	addi	r7,sp,16
   83418:	39400204 	addi	r5,r7,8
   8341c:	0081bf00 	call	81bf0 <__sprint>
   83420:	103dc81e 	bne	r2,zero,82b44 <___vfprintf_internal_r+0xefc>
   83424:	d9819517 	ldw	r6,1620(sp)
   83428:	dc019617 	ldw	r16,1624(sp)
   8342c:	d8800404 	addi	r2,sp,16
   83430:	14800504 	addi	r18,r2,20
   83434:	003e4506 	br	82d4c <___vfprintf_internal_r+0x1104>
   83438:	d881a417 	ldw	r2,1680(sp)
   8343c:	d8c1a017 	ldw	r3,1664(sp)
   83440:	d901a517 	ldw	r4,1684(sp)
   83444:	1021883a 	mov	r16,r2
   83448:	18c04014 	ori	r3,r3,256
   8344c:	00801984 	movi	r2,102
   83450:	d8c1a015 	stw	r3,1664(sp)
   83454:	2023883a 	mov	r17,r4
   83458:	a02f883a 	mov	r23,r20
   8345c:	d9819404 	addi	r6,sp,1616
   83460:	01c000c4 	movi	r7,3
   83464:	e0800526 	beq	fp,r2,8347c <___vfprintf_internal_r+0x1834>
   83468:	00801944 	movi	r2,101
   8346c:	e0808626 	beq	fp,r2,83688 <___vfprintf_internal_r+0x1a40>
   83470:	00801144 	movi	r2,69
   83474:	e0808426 	beq	fp,r2,83688 <___vfprintf_internal_r+0x1a40>
   83478:	01c00084 	movi	r7,2
   8347c:	8800e316 	blt	r17,zero,8380c <___vfprintf_internal_r+0x1bc4>
   83480:	30000005 	stb	zero,0(r6)
   83484:	d9019d17 	ldw	r4,1652(sp)
   83488:	d8819704 	addi	r2,sp,1628
   8348c:	d8800215 	stw	r2,8(sp)
   83490:	d8c19804 	addi	r3,sp,1632
   83494:	d8819504 	addi	r2,sp,1620
   83498:	800b883a 	mov	r5,r16
   8349c:	880d883a 	mov	r6,r17
   834a0:	d8c00315 	stw	r3,12(sp)
   834a4:	ddc00015 	stw	r23,0(sp)
   834a8:	d8800115 	stw	r2,4(sp)
   834ac:	00842bc0 	call	842bc <_dtoa_r>
   834b0:	102b883a 	mov	r21,r2
   834b4:	008019c4 	movi	r2,103
   834b8:	e0808d26 	beq	fp,r2,836f0 <___vfprintf_internal_r+0x1aa8>
   834bc:	008011c4 	movi	r2,71
   834c0:	e0808b26 	beq	fp,r2,836f0 <___vfprintf_internal_r+0x1aa8>
   834c4:	00801984 	movi	r2,102
   834c8:	ade7883a 	add	r19,r21,r23
   834cc:	e080be26 	beq	fp,r2,837c8 <___vfprintf_internal_r+0x1b80>
   834d0:	000d883a 	mov	r6,zero
   834d4:	000f883a 	mov	r7,zero
   834d8:	880b883a 	mov	r5,r17
   834dc:	8009883a 	mov	r4,r16
   834e0:	0089f700 	call	89f70 <__eqdf2>
   834e4:	1000a21e 	bne	r2,zero,83770 <___vfprintf_internal_r+0x1b28>
   834e8:	9805883a 	mov	r2,r19
   834ec:	dcc19815 	stw	r19,1632(sp)
   834f0:	14c0052e 	bgeu	r2,r19,83508 <___vfprintf_internal_r+0x18c0>
   834f4:	00c00c04 	movi	r3,48
   834f8:	10c00005 	stb	r3,0(r2)
   834fc:	10800044 	addi	r2,r2,1
   83500:	d8819815 	stw	r2,1632(sp)
   83504:	14fffc36 	bltu	r2,r19,834f8 <___vfprintf_internal_r+0x18b0>
   83508:	1545c83a 	sub	r2,r2,r21
   8350c:	00c019c4 	movi	r3,103
   83510:	d8819615 	stw	r2,1624(sp)
   83514:	a827883a 	mov	r19,r21
   83518:	e0c06c26 	beq	fp,r3,836cc <___vfprintf_internal_r+0x1a84>
   8351c:	008011c4 	movi	r2,71
   83520:	e0806a26 	beq	fp,r2,836cc <___vfprintf_internal_r+0x1a84>
   83524:	d9819517 	ldw	r6,1620(sp)
   83528:	00801944 	movi	r2,101
   8352c:	17005916 	blt	r2,fp,83694 <___vfprintf_internal_r+0x1a4c>
   83530:	31bfffc4 	addi	r6,r6,-1
   83534:	d9819515 	stw	r6,1620(sp)
   83538:	df000405 	stb	fp,16(sp)
   8353c:	3023883a 	mov	r17,r6
   83540:	dd000444 	addi	r20,sp,17
   83544:	3000cb16 	blt	r6,zero,83874 <___vfprintf_internal_r+0x1c2c>
   83548:	00800ac4 	movi	r2,43
   8354c:	a0800005 	stb	r2,0(r20)
   83550:	d9000404 	addi	r4,sp,16
   83554:	00800244 	movi	r2,9
   83558:	dd000484 	addi	r20,sp,18
   8355c:	24018e04 	addi	r16,r4,1592
   83560:	1440680e 	bge	r2,r17,83704 <___vfprintf_internal_r+0x1abc>
   83564:	102b883a 	mov	r21,r2
   83568:	8809883a 	mov	r4,r17
   8356c:	01400284 	movi	r5,10
   83570:	0081a800 	call	81a80 <__modsi3>
   83574:	10800c04 	addi	r2,r2,48
   83578:	843fffc4 	addi	r16,r16,-1
   8357c:	8809883a 	mov	r4,r17
   83580:	01400284 	movi	r5,10
   83584:	80800005 	stb	r2,0(r16)
   83588:	0081a300 	call	81a30 <__divsi3>
   8358c:	1023883a 	mov	r17,r2
   83590:	a8bff516 	blt	r21,r2,83568 <___vfprintf_internal_r+0x1920>
   83594:	843fffc4 	addi	r16,r16,-1
   83598:	10800c04 	addi	r2,r2,48
   8359c:	d9c00404 	addi	r7,sp,16
   835a0:	39418e04 	addi	r5,r7,1592
   835a4:	80800005 	stb	r2,0(r16)
   835a8:	81405c2e 	bgeu	r16,r5,8371c <___vfprintf_internal_r+0x1ad4>
   835ac:	80800003 	ldbu	r2,0(r16)
   835b0:	84000044 	addi	r16,r16,1
   835b4:	a0800005 	stb	r2,0(r20)
   835b8:	a5000044 	addi	r20,r20,1
   835bc:	003ffa06 	br	835a8 <___vfprintf_internal_r+0x1960>
   835c0:	d9019e17 	ldw	r4,1656(sp)
   835c4:	d9c00404 	addi	r7,sp,16
   835c8:	39400204 	addi	r5,r7,8
   835cc:	0081bf00 	call	81bf0 <__sprint>
   835d0:	103d5c1e 	bne	r2,zero,82b44 <___vfprintf_internal_r+0xefc>
   835d4:	d8800404 	addi	r2,sp,16
   835d8:	14800504 	addi	r18,r2,20
   835dc:	003e0506 	br	82df4 <___vfprintf_internal_r+0x11ac>
   835e0:	d8819f17 	ldw	r2,1660(sp)
   835e4:	d9c1a117 	ldw	r7,1668(sp)
   835e8:	10c00017 	ldw	r3,0(r2)
   835ec:	11400104 	addi	r5,r2,4
   835f0:	d9419f15 	stw	r5,1660(sp)
   835f4:	19c00015 	stw	r7,0(r3)
   835f8:	0039ba06 	br	81ce4 <___vfprintf_internal_r+0x9c>
   835fc:	d9019e17 	ldw	r4,1656(sp)
   83600:	d8c00404 	addi	r3,sp,16
   83604:	19400204 	addi	r5,r3,8
   83608:	0081bf00 	call	81bf0 <__sprint>
   8360c:	103d4d1e 	bne	r2,zero,82b44 <___vfprintf_internal_r+0xefc>
   83610:	d9819517 	ldw	r6,1620(sp)
   83614:	d9000404 	addi	r4,sp,16
   83618:	24800504 	addi	r18,r4,20
   8361c:	003f0a06 	br	83248 <___vfprintf_internal_r+0x1600>
   83620:	d8800817 	ldw	r2,32(sp)
   83624:	d8c00717 	ldw	r3,28(sp)
   83628:	01000274 	movhi	r4,9
   8362c:	211a8904 	addi	r4,r4,27172
   83630:	1405883a 	add	r2,r2,r16
   83634:	18c00044 	addi	r3,r3,1
   83638:	d8800815 	stw	r2,32(sp)
   8363c:	008001c4 	movi	r2,7
   83640:	91000015 	stw	r4,0(r18)
   83644:	94000115 	stw	r16,4(r18)
   83648:	d8c00715 	stw	r3,28(sp)
   8364c:	94800204 	addi	r18,r18,8
   83650:	10c04916 	blt	r2,r3,83778 <___vfprintf_internal_r+0x1b30>
   83654:	d9019617 	ldw	r4,1624(sp)
   83658:	d8800817 	ldw	r2,32(sp)
   8365c:	d8c00717 	ldw	r3,28(sp)
   83660:	94c00015 	stw	r19,0(r18)
   83664:	1105883a 	add	r2,r2,r4
   83668:	18c00044 	addi	r3,r3,1
   8366c:	d8800815 	stw	r2,32(sp)
   83670:	008001c4 	movi	r2,7
   83674:	91000115 	stw	r4,4(r18)
   83678:	d8c00715 	stw	r3,28(sp)
   8367c:	94800204 	addi	r18,r18,8
   83680:	10fac80e 	bge	r2,r3,821a4 <___vfprintf_internal_r+0x55c>
   83684:	003e8606 	br	830a0 <___vfprintf_internal_r+0x1458>
   83688:	a5c00044 	addi	r23,r20,1
   8368c:	01c00084 	movi	r7,2
   83690:	003f7a06 	br	8347c <___vfprintf_internal_r+0x1834>
   83694:	00801984 	movi	r2,102
   83698:	e0806d26 	beq	fp,r2,83850 <___vfprintf_internal_r+0x1c08>
   8369c:	d8819617 	ldw	r2,1624(sp)
   836a0:	30806416 	blt	r6,r2,83834 <___vfprintf_internal_r+0x1bec>
   836a4:	d9c1a017 	ldw	r7,1664(sp)
   836a8:	302f883a 	mov	r23,r6
   836ac:	3880004c 	andi	r2,r7,1
   836b0:	10000126 	beq	r2,zero,836b8 <___vfprintf_internal_r+0x1a70>
   836b4:	35c00044 	addi	r23,r6,1
   836b8:	d8819407 	ldb	r2,1616(sp)
   836bc:	103a2926 	beq	r2,zero,81f64 <___vfprintf_internal_r+0x31c>
   836c0:	00800b44 	movi	r2,45
   836c4:	d8819c05 	stb	r2,1648(sp)
   836c8:	003a2606 	br	81f64 <___vfprintf_internal_r+0x31c>
   836cc:	d9819517 	ldw	r6,1620(sp)
   836d0:	00bfff04 	movi	r2,-4
   836d4:	1180010e 	bge	r2,r6,836dc <___vfprintf_internal_r+0x1a94>
   836d8:	a1805b0e 	bge	r20,r6,83848 <___vfprintf_internal_r+0x1c00>
   836dc:	00801944 	movi	r2,101
   836e0:	e0c00126 	beq	fp,r3,836e8 <___vfprintf_internal_r+0x1aa0>
   836e4:	00801144 	movi	r2,69
   836e8:	1039883a 	mov	fp,r2
   836ec:	003f8e06 	br	83528 <___vfprintf_internal_r+0x18e0>
   836f0:	d8c1a017 	ldw	r3,1664(sp)
   836f4:	1880004c 	andi	r2,r3,1
   836f8:	103f721e 	bne	r2,zero,834c4 <___vfprintf_internal_r+0x187c>
   836fc:	d8819817 	ldw	r2,1632(sp)
   83700:	003f8106 	br	83508 <___vfprintf_internal_r+0x18c0>
   83704:	00800c04 	movi	r2,48
   83708:	a0800005 	stb	r2,0(r20)
   8370c:	88c00c04 	addi	r3,r17,48
   83710:	a5000044 	addi	r20,r20,1
   83714:	a0c00005 	stb	r3,0(r20)
   83718:	a5000044 	addi	r20,r20,1
   8371c:	d8c19617 	ldw	r3,1624(sp)
   83720:	d8800404 	addi	r2,sp,16
   83724:	a085c83a 	sub	r2,r20,r2
   83728:	d881a615 	stw	r2,1688(sp)
   8372c:	10ef883a 	add	r23,r2,r3
   83730:	00800044 	movi	r2,1
   83734:	10c00316 	blt	r2,r3,83744 <___vfprintf_internal_r+0x1afc>
   83738:	d8c1a017 	ldw	r3,1664(sp)
   8373c:	1884703a 	and	r2,r3,r2
   83740:	103fdd26 	beq	r2,zero,836b8 <___vfprintf_internal_r+0x1a70>
   83744:	bdc00044 	addi	r23,r23,1
   83748:	003fdb06 	br	836b8 <___vfprintf_internal_r+0x1a70>
   8374c:	d9019e17 	ldw	r4,1656(sp)
   83750:	d9c00404 	addi	r7,sp,16
   83754:	39400204 	addi	r5,r7,8
   83758:	0081bf00 	call	81bf0 <__sprint>
   8375c:	103cf91e 	bne	r2,zero,82b44 <___vfprintf_internal_r+0xefc>
   83760:	d9819517 	ldw	r6,1620(sp)
   83764:	d8800404 	addi	r2,sp,16
   83768:	14800504 	addi	r18,r2,20
   8376c:	003ec406 	br	83280 <___vfprintf_internal_r+0x1638>
   83770:	d8819817 	ldw	r2,1632(sp)
   83774:	003f5e06 	br	834f0 <___vfprintf_internal_r+0x18a8>
   83778:	d9019e17 	ldw	r4,1656(sp)
   8377c:	d9c00404 	addi	r7,sp,16
   83780:	39400204 	addi	r5,r7,8
   83784:	0081bf00 	call	81bf0 <__sprint>
   83788:	103cee1e 	bne	r2,zero,82b44 <___vfprintf_internal_r+0xefc>
   8378c:	d8800404 	addi	r2,sp,16
   83790:	14800504 	addi	r18,r2,20
   83794:	003faf06 	br	83654 <___vfprintf_internal_r+0x1a0c>
   83798:	d9019d17 	ldw	r4,1652(sp)
   8379c:	d8819904 	addi	r2,sp,1636
   837a0:	000b883a 	mov	r5,zero
   837a4:	d9819b04 	addi	r6,sp,1644
   837a8:	000f883a 	mov	r7,zero
   837ac:	d8800015 	stw	r2,0(sp)
   837b0:	00839b40 	call	839b4 <_wcsrtombs_r>
   837b4:	102f883a 	mov	r23,r2
   837b8:	00bfffc4 	movi	r2,-1
   837bc:	b8bce126 	beq	r23,r2,82b44 <___vfprintf_internal_r+0xefc>
   837c0:	dcc19b15 	stw	r19,1644(sp)
   837c4:	003b3f06 	br	824c4 <___vfprintf_internal_r+0x87c>
   837c8:	a8c00007 	ldb	r3,0(r21)
   837cc:	00800c04 	movi	r2,48
   837d0:	18800326 	beq	r3,r2,837e0 <___vfprintf_internal_r+0x1b98>
   837d4:	d8819517 	ldw	r2,1620(sp)
   837d8:	98a7883a 	add	r19,r19,r2
   837dc:	003f3c06 	br	834d0 <___vfprintf_internal_r+0x1888>
   837e0:	000d883a 	mov	r6,zero
   837e4:	000f883a 	mov	r7,zero
   837e8:	8009883a 	mov	r4,r16
   837ec:	880b883a 	mov	r5,r17
   837f0:	0089ffc0 	call	89ffc <__nedf2>
   837f4:	103ff726 	beq	r2,zero,837d4 <___vfprintf_internal_r+0x1b8c>
   837f8:	00800044 	movi	r2,1
   837fc:	15c5c83a 	sub	r2,r2,r23
   83800:	98a7883a 	add	r19,r19,r2
   83804:	d8819515 	stw	r2,1620(sp)
   83808:	003f3106 	br	834d0 <___vfprintf_internal_r+0x1888>
   8380c:	0005883a 	mov	r2,zero
   83810:	00e00034 	movhi	r3,32768
   83814:	18c00004 	addi	r3,r3,0
   83818:	1408f03a 	xor	r4,r2,r16
   8381c:	88caf03a 	xor	r5,r17,r3
   83820:	00800b44 	movi	r2,45
   83824:	2021883a 	mov	r16,r4
   83828:	2823883a 	mov	r17,r5
   8382c:	30800005 	stb	r2,0(r6)
   83830:	003f1406 	br	83484 <___vfprintf_internal_r+0x183c>
   83834:	15c00044 	addi	r23,r2,1
   83838:	01bf9f16 	blt	zero,r6,836b8 <___vfprintf_internal_r+0x1a70>
   8383c:	1185c83a 	sub	r2,r2,r6
   83840:	15c00084 	addi	r23,r2,2
   83844:	003f9c06 	br	836b8 <___vfprintf_internal_r+0x1a70>
   83848:	1839883a 	mov	fp,r3
   8384c:	003f3606 	br	83528 <___vfprintf_internal_r+0x18e0>
   83850:	01800c0e 	bge	zero,r6,83884 <___vfprintf_internal_r+0x1c3c>
   83854:	302f883a 	mov	r23,r6
   83858:	a000031e 	bne	r20,zero,83868 <___vfprintf_internal_r+0x1c20>
   8385c:	d901a017 	ldw	r4,1664(sp)
   83860:	2080004c 	andi	r2,r4,1
   83864:	103f9426 	beq	r2,zero,836b8 <___vfprintf_internal_r+0x1a70>
   83868:	a185883a 	add	r2,r20,r6
   8386c:	15c00044 	addi	r23,r2,1
   83870:	003f9106 	br	836b8 <___vfprintf_internal_r+0x1a70>
   83874:	00800b44 	movi	r2,45
   83878:	01a3c83a 	sub	r17,zero,r6
   8387c:	a0800005 	stb	r2,0(r20)
   83880:	003f3306 	br	83550 <___vfprintf_internal_r+0x1908>
   83884:	a000041e 	bne	r20,zero,83898 <___vfprintf_internal_r+0x1c50>
   83888:	d941a017 	ldw	r5,1664(sp)
   8388c:	05c00044 	movi	r23,1
   83890:	2880004c 	andi	r2,r5,1
   83894:	103f8826 	beq	r2,zero,836b8 <___vfprintf_internal_r+0x1a70>
   83898:	a5c00084 	addi	r23,r20,2
   8389c:	003f8606 	br	836b8 <___vfprintf_internal_r+0x1a70>
   838a0:	d8819f17 	ldw	r2,1660(sp)
   838a4:	15000017 	ldw	r20,0(r2)
   838a8:	10c00104 	addi	r3,r2,4
   838ac:	d8c19f15 	stw	r3,1660(sp)
   838b0:	a03bde0e 	bge	r20,zero,8282c <___vfprintf_internal_r+0xbe4>
   838b4:	b1000003 	ldbu	r4,0(r22)
   838b8:	053fffc4 	movi	r20,-1
   838bc:	00393306 	br	81d8c <___vfprintf_internal_r+0x144>

000838c0 <__vfprintf_internal>:
   838c0:	d0e00117 	ldw	r3,-32764(gp)
   838c4:	defffc04 	addi	sp,sp,-16
   838c8:	dc000215 	stw	r16,8(sp)
   838cc:	dc400115 	stw	r17,4(sp)
   838d0:	dc800015 	stw	r18,0(sp)
   838d4:	dfc00315 	stw	ra,12(sp)
   838d8:	18800e17 	ldw	r2,56(r3)
   838dc:	2023883a 	mov	r17,r4
   838e0:	2825883a 	mov	r18,r5
   838e4:	1809883a 	mov	r4,r3
   838e8:	3021883a 	mov	r16,r6
   838ec:	10000c26 	beq	r2,zero,83920 <__vfprintf_internal+0x60>
   838f0:	1809883a 	mov	r4,r3
   838f4:	880b883a 	mov	r5,r17
   838f8:	900d883a 	mov	r6,r18
   838fc:	800f883a 	mov	r7,r16
   83900:	02000234 	movhi	r8,8
   83904:	42071204 	addi	r8,r8,7240
   83908:	dfc00317 	ldw	ra,12(sp)
   8390c:	dc000217 	ldw	r16,8(sp)
   83910:	dc400117 	ldw	r17,4(sp)
   83914:	dc800017 	ldw	r18,0(sp)
   83918:	dec00404 	addi	sp,sp,16
   8391c:	4000683a 	jmp	r8
   83920:	008580c0 	call	8580c <__sinit>
   83924:	d0e00117 	ldw	r3,-32764(gp)
   83928:	003ff106 	br	838f0 <__vfprintf_internal+0x30>

0008392c <_wcrtomb_r>:
   8392c:	defffa04 	addi	sp,sp,-24
   83930:	dc000415 	stw	r16,16(sp)
   83934:	dc400315 	stw	r17,12(sp)
   83938:	dfc00515 	stw	ra,20(sp)
   8393c:	2023883a 	mov	r17,r4
   83940:	3821883a 	mov	r16,r7
   83944:	28000b26 	beq	r5,zero,83974 <_wcrtomb_r+0x48>
   83948:	0083b300 	call	83b30 <_wctomb_r>
   8394c:	1007883a 	mov	r3,r2
   83950:	1009883a 	mov	r4,r2
   83954:	00bfffc4 	movi	r2,-1
   83958:	18800926 	beq	r3,r2,83980 <_wcrtomb_r+0x54>
   8395c:	2005883a 	mov	r2,r4
   83960:	dfc00517 	ldw	ra,20(sp)
   83964:	dc000417 	ldw	r16,16(sp)
   83968:	dc400317 	ldw	r17,12(sp)
   8396c:	dec00604 	addi	sp,sp,24
   83970:	f800283a 	ret
   83974:	d80b883a 	mov	r5,sp
   83978:	000d883a 	mov	r6,zero
   8397c:	003ff206 	br	83948 <_wcrtomb_r+0x1c>
   83980:	80000015 	stw	zero,0(r16)
   83984:	00802284 	movi	r2,138
   83988:	88800015 	stw	r2,0(r17)
   8398c:	003ff306 	br	8395c <_wcrtomb_r+0x30>

00083990 <wcrtomb>:
   83990:	2013883a 	mov	r9,r4
   83994:	d1200117 	ldw	r4,-32764(gp)
   83998:	2807883a 	mov	r3,r5
   8399c:	300f883a 	mov	r7,r6
   839a0:	480b883a 	mov	r5,r9
   839a4:	180d883a 	mov	r6,r3
   839a8:	02000234 	movhi	r8,8
   839ac:	420e4b04 	addi	r8,r8,14636
   839b0:	4000683a 	jmp	r8

000839b4 <_wcsrtombs_r>:
   839b4:	defff204 	addi	sp,sp,-56
   839b8:	dc000b15 	stw	r16,44(sp)
   839bc:	dc800915 	stw	r18,36(sp)
   839c0:	dd000715 	stw	r20,28(sp)
   839c4:	ddc00415 	stw	r23,16(sp)
   839c8:	dfc00d15 	stw	ra,52(sp)
   839cc:	df000c15 	stw	fp,48(sp)
   839d0:	dc400a15 	stw	r17,40(sp)
   839d4:	dcc00815 	stw	r19,32(sp)
   839d8:	dd400615 	stw	r21,24(sp)
   839dc:	dd800515 	stw	r22,20(sp)
   839e0:	2821883a 	mov	r16,r5
   839e4:	d9000315 	stw	r4,12(sp)
   839e8:	302f883a 	mov	r23,r6
   839ec:	3825883a 	mov	r18,r7
   839f0:	dd000e17 	ldw	r20,56(sp)
   839f4:	28002f26 	beq	r5,zero,83ab4 <_wcsrtombs_r+0x100>
   839f8:	002b883a 	mov	r21,zero
   839fc:	bc400017 	ldw	r17,0(r23)
   83a00:	04801f2e 	bgeu	zero,r18,83a80 <_wcsrtombs_r+0xcc>
   83a04:	8039003a 	cmpeq	fp,r16,zero
   83a08:	89800017 	ldw	r6,0(r17)
   83a0c:	d9000317 	ldw	r4,12(sp)
   83a10:	d80b883a 	mov	r5,sp
   83a14:	a00f883a 	mov	r7,r20
   83a18:	a5800017 	ldw	r22,0(r20)
   83a1c:	a4c00117 	ldw	r19,4(r20)
   83a20:	008392c0 	call	8392c <_wcrtomb_r>
   83a24:	100b883a 	mov	r5,r2
   83a28:	00bfffc4 	movi	r2,-1
   83a2c:	28802626 	beq	r5,r2,83ac8 <_wcsrtombs_r+0x114>
   83a30:	9145c83a 	sub	r2,r18,r5
   83a34:	15402136 	bltu	r2,r21,83abc <_wcsrtombs_r+0x108>
   83a38:	2c80202e 	bgeu	r5,r18,83abc <_wcsrtombs_r+0x108>
   83a3c:	a96b883a 	add	r21,r21,r5
   83a40:	e0000b1e 	bne	fp,zero,83a70 <_wcsrtombs_r+0xbc>
   83a44:	0009883a 	mov	r4,zero
   83a48:	0140060e 	bge	zero,r5,83a64 <_wcsrtombs_r+0xb0>
   83a4c:	d905883a 	add	r2,sp,r4
   83a50:	10c00003 	ldbu	r3,0(r2)
   83a54:	21000044 	addi	r4,r4,1
   83a58:	80c00005 	stb	r3,0(r16)
   83a5c:	84000044 	addi	r16,r16,1
   83a60:	217ffa16 	blt	r4,r5,83a4c <_wcsrtombs_r+0x98>
   83a64:	b8800017 	ldw	r2,0(r23)
   83a68:	10800104 	addi	r2,r2,4
   83a6c:	b8800015 	stw	r2,0(r23)
   83a70:	88800017 	ldw	r2,0(r17)
   83a74:	8c400104 	addi	r17,r17,4
   83a78:	10001926 	beq	r2,zero,83ae0 <_wcsrtombs_r+0x12c>
   83a7c:	acbfe236 	bltu	r21,r18,83a08 <_wcsrtombs_r+0x54>
   83a80:	a805883a 	mov	r2,r21
   83a84:	dfc00d17 	ldw	ra,52(sp)
   83a88:	df000c17 	ldw	fp,48(sp)
   83a8c:	dc000b17 	ldw	r16,44(sp)
   83a90:	dc400a17 	ldw	r17,40(sp)
   83a94:	dc800917 	ldw	r18,36(sp)
   83a98:	dcc00817 	ldw	r19,32(sp)
   83a9c:	dd000717 	ldw	r20,28(sp)
   83aa0:	dd400617 	ldw	r21,24(sp)
   83aa4:	dd800517 	ldw	r22,20(sp)
   83aa8:	ddc00417 	ldw	r23,16(sp)
   83aac:	dec00e04 	addi	sp,sp,56
   83ab0:	f800283a 	ret
   83ab4:	04bfffc4 	movi	r18,-1
   83ab8:	003fcf06 	br	839f8 <_wcsrtombs_r+0x44>
   83abc:	a4c00115 	stw	r19,4(r20)
   83ac0:	a5800015 	stw	r22,0(r20)
   83ac4:	003fee06 	br	83a80 <_wcsrtombs_r+0xcc>
   83ac8:	d8c00317 	ldw	r3,12(sp)
   83acc:	00802284 	movi	r2,138
   83ad0:	18800015 	stw	r2,0(r3)
   83ad4:	2805883a 	mov	r2,r5
   83ad8:	a0000015 	stw	zero,0(r20)
   83adc:	003fe906 	br	83a84 <_wcsrtombs_r+0xd0>
   83ae0:	e000011e 	bne	fp,zero,83ae8 <_wcsrtombs_r+0x134>
   83ae4:	b8000015 	stw	zero,0(r23)
   83ae8:	a8bfffc4 	addi	r2,r21,-1
   83aec:	a0000015 	stw	zero,0(r20)
   83af0:	003fe406 	br	83a84 <_wcsrtombs_r+0xd0>

00083af4 <wcsrtombs>:
   83af4:	d0e00117 	ldw	r3,-32764(gp)
   83af8:	defffe04 	addi	sp,sp,-8
   83afc:	2013883a 	mov	r9,r4
   83b00:	2817883a 	mov	r11,r5
   83b04:	301b883a 	mov	r13,r6
   83b08:	d9c00015 	stw	r7,0(sp)
   83b0c:	1809883a 	mov	r4,r3
   83b10:	480b883a 	mov	r5,r9
   83b14:	580d883a 	mov	r6,r11
   83b18:	680f883a 	mov	r7,r13
   83b1c:	dfc00115 	stw	ra,4(sp)
   83b20:	00839b40 	call	839b4 <_wcsrtombs_r>
   83b24:	dfc00117 	ldw	ra,4(sp)
   83b28:	dec00204 	addi	sp,sp,8
   83b2c:	f800283a 	ret

00083b30 <_wctomb_r>:
   83b30:	defffb04 	addi	sp,sp,-20
   83b34:	01000274 	movhi	r4,9
   83b38:	211ce604 	addi	r4,r4,29592
   83b3c:	dc000315 	stw	r16,12(sp)
   83b40:	dc400215 	stw	r17,8(sp)
   83b44:	dc800115 	stw	r18,4(sp)
   83b48:	dcc00015 	stw	r19,0(sp)
   83b4c:	2821883a 	mov	r16,r5
   83b50:	dfc00415 	stw	ra,16(sp)
   83b54:	3023883a 	mov	r17,r6
   83b58:	3827883a 	mov	r19,r7
   83b5c:	04800044 	movi	r18,1
   83b60:	00884ac0 	call	884ac <strlen>
   83b64:	8006c03a 	cmpne	r3,r16,zero
   83b68:	90800c36 	bltu	r18,r2,83b9c <_wctomb_r+0x6c>
   83b6c:	0011883a 	mov	r8,zero
   83b70:	18000226 	beq	r3,zero,83b7c <_wctomb_r+0x4c>
   83b74:	84400005 	stb	r17,0(r16)
   83b78:	02000044 	movi	r8,1
   83b7c:	4005883a 	mov	r2,r8
   83b80:	dfc00417 	ldw	ra,16(sp)
   83b84:	dc000317 	ldw	r16,12(sp)
   83b88:	dc400217 	ldw	r17,8(sp)
   83b8c:	dc800117 	ldw	r18,4(sp)
   83b90:	dcc00017 	ldw	r19,0(sp)
   83b94:	dec00504 	addi	sp,sp,20
   83b98:	f800283a 	ret
   83b9c:	01000274 	movhi	r4,9
   83ba0:	211ce604 	addi	r4,r4,29592
   83ba4:	01400274 	movhi	r5,9
   83ba8:	295afd04 	addi	r5,r5,27636
   83bac:	00883f40 	call	883f4 <strcmp>
   83bb0:	10003a1e 	bne	r2,zero,83c9c <_wctomb_r+0x16c>
   83bb4:	0011883a 	mov	r8,zero
   83bb8:	803ff026 	beq	r16,zero,83b7c <_wctomb_r+0x4c>
   83bbc:	00801fc4 	movi	r2,127
   83bc0:	9011883a 	mov	r8,r18
   83bc4:	1440630e 	bge	r2,r17,83d54 <_wctomb_r+0x224>
   83bc8:	88ffe004 	addi	r3,r17,-128
   83bcc:	0081dfc4 	movi	r2,1919
   83bd0:	027fe004 	movi	r9,-128
   83bd4:	10c0b42e 	bgeu	r2,r3,83ea8 <_wctomb_r+0x378>
   83bd8:	88fe0004 	addi	r3,r17,-2048
   83bdc:	00bdffd4 	movui	r2,63487
   83be0:	10c05e2e 	bgeu	r2,r3,83d5c <_wctomb_r+0x22c>
   83be4:	00bffff4 	movhi	r2,65535
   83be8:	10800004 	addi	r2,r2,0
   83bec:	8885883a 	add	r2,r17,r2
   83bf0:	00c007f4 	movhi	r3,31
   83bf4:	18ffffc4 	addi	r3,r3,-1
   83bf8:	1880b52e 	bgeu	r3,r2,83ed0 <_wctomb_r+0x3a0>
   83bfc:	00bff834 	movhi	r2,65504
   83c00:	10800004 	addi	r2,r2,0
   83c04:	8885883a 	add	r2,r17,r2
   83c08:	00c0f834 	movhi	r3,992
   83c0c:	18ffffc4 	addi	r3,r3,-1
   83c10:	1880c32e 	bgeu	r3,r2,83f20 <_wctomb_r+0x3f0>
   83c14:	00810034 	movhi	r2,1024
   83c18:	10bfffc4 	addi	r2,r2,-1
   83c1c:	023fffc4 	movi	r8,-1
   83c20:	147fd60e 	bge	r2,r17,83b7c <_wctomb_r+0x4c>
   83c24:	88d0002c 	andhi	r3,r17,16384
   83c28:	1807d7ba 	srai	r3,r3,30
   83c2c:	890fc02c 	andhi	r4,r17,16128
   83c30:	2009d63a 	srai	r4,r4,24
   83c34:	89403f2c 	andhi	r5,r17,252
   83c38:	00bfff04 	movi	r2,-4
   83c3c:	280bd4ba 	srai	r5,r5,18
   83c40:	880cd33a 	srli	r6,r17,12
   83c44:	1886b03a 	or	r3,r3,r2
   83c48:	89c3f00c 	andi	r7,r17,4032
   83c4c:	80c00005 	stb	r3,0(r16)
   83c50:	2248b03a 	or	r4,r4,r9
   83c54:	84000044 	addi	r16,r16,1
   83c58:	380fd1ba 	srai	r7,r7,6
   83c5c:	81000005 	stb	r4,0(r16)
   83c60:	2a4ab03a 	or	r5,r5,r9
   83c64:	84000044 	addi	r16,r16,1
   83c68:	31800fcc 	andi	r6,r6,63
   83c6c:	81400005 	stb	r5,0(r16)
   83c70:	324cb03a 	or	r6,r6,r9
   83c74:	84000044 	addi	r16,r16,1
   83c78:	88800fcc 	andi	r2,r17,63
   83c7c:	81800005 	stb	r6,0(r16)
   83c80:	1244b03a 	or	r2,r2,r9
   83c84:	84000044 	addi	r16,r16,1
   83c88:	3a4eb03a 	or	r7,r7,r9
   83c8c:	02000184 	movi	r8,6
   83c90:	80800045 	stb	r2,1(r16)
   83c94:	81c00005 	stb	r7,0(r16)
   83c98:	003fb806 	br	83b7c <_wctomb_r+0x4c>
   83c9c:	01000274 	movhi	r4,9
   83ca0:	211ce604 	addi	r4,r4,29592
   83ca4:	01400274 	movhi	r5,9
   83ca8:	295aff04 	addi	r5,r5,27644
   83cac:	00883f40 	call	883f4 <strcmp>
   83cb0:	10003f1e 	bne	r2,zero,83db0 <_wctomb_r+0x280>
   83cb4:	8006c03a 	cmpne	r3,r16,zero
   83cb8:	8809d23a 	srai	r4,r17,8
   83cbc:	0011883a 	mov	r8,zero
   83cc0:	183fae26 	beq	r3,zero,83b7c <_wctomb_r+0x4c>
   83cc4:	20803fcc 	andi	r2,r4,255
   83cc8:	103fa826 	beq	r2,zero,83b6c <_wctomb_r+0x3c>
   83ccc:	20801fc4 	addi	r2,r4,127
   83cd0:	10803fcc 	andi	r2,r2,255
   83cd4:	00c00784 	movi	r3,30
   83cd8:	1880042e 	bgeu	r3,r2,83cec <_wctomb_r+0x1bc>
   83cdc:	20800804 	addi	r2,r4,32
   83ce0:	10803fcc 	andi	r2,r2,255
   83ce4:	00c003c4 	movi	r3,15
   83ce8:	18804436 	bltu	r3,r2,83dfc <_wctomb_r+0x2cc>
   83cec:	88bff004 	addi	r2,r17,-64
   83cf0:	10803fcc 	andi	r2,r2,255
   83cf4:	00c00f84 	movi	r3,62
   83cf8:	1880042e 	bgeu	r3,r2,83d0c <_wctomb_r+0x1dc>
   83cfc:	88bfe004 	addi	r2,r17,-128
   83d00:	10803fcc 	andi	r2,r2,255
   83d04:	00c01f04 	movi	r3,124
   83d08:	18803c36 	bltu	r3,r2,83dfc <_wctomb_r+0x2cc>
   83d0c:	02000084 	movi	r8,2
   83d10:	84400045 	stb	r17,1(r16)
   83d14:	81000005 	stb	r4,0(r16)
   83d18:	003f9806 	br	83b7c <_wctomb_r+0x4c>
   83d1c:	98800017 	ldw	r2,0(r19)
   83d20:	10000b26 	beq	r2,zero,83d50 <_wctomb_r+0x220>
   83d24:	98000015 	stw	zero,0(r19)
   83d28:	008006c4 	movi	r2,27
   83d2c:	80800005 	stb	r2,0(r16)
   83d30:	84000044 	addi	r16,r16,1
   83d34:	00800a04 	movi	r2,40
   83d38:	80800005 	stb	r2,0(r16)
   83d3c:	84000044 	addi	r16,r16,1
   83d40:	00801084 	movi	r2,66
   83d44:	80800005 	stb	r2,0(r16)
   83d48:	010000c4 	movi	r4,3
   83d4c:	84000044 	addi	r16,r16,1
   83d50:	22000044 	addi	r8,r4,1
   83d54:	84400005 	stb	r17,0(r16)
   83d58:	003f8806 	br	83b7c <_wctomb_r+0x4c>
   83d5c:	00bffff4 	movhi	r2,65535
   83d60:	108a0004 	addi	r2,r2,10240
   83d64:	8885883a 	add	r2,r17,r2
   83d68:	00c1ffc4 	movi	r3,2047
   83d6c:	023fffc4 	movi	r8,-1
   83d70:	18bf822e 	bgeu	r3,r2,83b7c <_wctomb_r+0x4c>
   83d74:	88fc000c 	andi	r3,r17,61440
   83d78:	1807d33a 	srai	r3,r3,12
   83d7c:	8943f00c 	andi	r5,r17,4032
   83d80:	280bd1ba 	srai	r5,r5,6
   83d84:	00bff804 	movi	r2,-32
   83d88:	1886b03a 	or	r3,r3,r2
   83d8c:	89000fcc 	andi	r4,r17,63
   83d90:	80c00005 	stb	r3,0(r16)
   83d94:	2248b03a 	or	r4,r4,r9
   83d98:	84000044 	addi	r16,r16,1
   83d9c:	2a4ab03a 	or	r5,r5,r9
   83da0:	020000c4 	movi	r8,3
   83da4:	81000045 	stb	r4,1(r16)
   83da8:	81400005 	stb	r5,0(r16)
   83dac:	003f7306 	br	83b7c <_wctomb_r+0x4c>
   83db0:	01000274 	movhi	r4,9
   83db4:	211ce604 	addi	r4,r4,29592
   83db8:	01400274 	movhi	r5,9
   83dbc:	295b0104 	addi	r5,r5,27652
   83dc0:	00883f40 	call	883f4 <strcmp>
   83dc4:	1000131e 	bne	r2,zero,83e14 <_wctomb_r+0x2e4>
   83dc8:	8006c03a 	cmpne	r3,r16,zero
   83dcc:	880bd23a 	srai	r5,r17,8
   83dd0:	0011883a 	mov	r8,zero
   83dd4:	183f6926 	beq	r3,zero,83b7c <_wctomb_r+0x4c>
   83dd8:	28803fcc 	andi	r2,r5,255
   83ddc:	103f6326 	beq	r2,zero,83b6c <_wctomb_r+0x3c>
   83de0:	01802804 	movi	r6,160
   83de4:	3080052e 	bgeu	r6,r2,83dfc <_wctomb_r+0x2cc>
   83de8:	00c03fc4 	movi	r3,255
   83dec:	10c00326 	beq	r2,r3,83dfc <_wctomb_r+0x2cc>
   83df0:	88803fcc 	andi	r2,r17,255
   83df4:	3080012e 	bgeu	r6,r2,83dfc <_wctomb_r+0x2cc>
   83df8:	10c0021e 	bne	r2,r3,83e04 <_wctomb_r+0x2d4>
   83dfc:	023fffc4 	movi	r8,-1
   83e00:	003f5e06 	br	83b7c <_wctomb_r+0x4c>
   83e04:	02000084 	movi	r8,2
   83e08:	84400045 	stb	r17,1(r16)
   83e0c:	81400005 	stb	r5,0(r16)
   83e10:	003f5a06 	br	83b7c <_wctomb_r+0x4c>
   83e14:	01000274 	movhi	r4,9
   83e18:	211ce604 	addi	r4,r4,29592
   83e1c:	01400274 	movhi	r5,9
   83e20:	295b0304 	addi	r5,r5,27660
   83e24:	00883f40 	call	883f4 <strcmp>
   83e28:	8006c03a 	cmpne	r3,r16,zero
   83e2c:	103f4f1e 	bne	r2,zero,83b6c <_wctomb_r+0x3c>
   83e30:	8807d23a 	srai	r3,r17,8
   83e34:	0009883a 	mov	r4,zero
   83e38:	9011883a 	mov	r8,r18
   83e3c:	803f4f26 	beq	r16,zero,83b7c <_wctomb_r+0x4c>
   83e40:	18803fcc 	andi	r2,r3,255
   83e44:	103fb526 	beq	r2,zero,83d1c <_wctomb_r+0x1ec>
   83e48:	18bff7c4 	addi	r2,r3,-33
   83e4c:	10803fcc 	andi	r2,r2,255
   83e50:	01401744 	movi	r5,93
   83e54:	28bfe936 	bltu	r5,r2,83dfc <_wctomb_r+0x2cc>
   83e58:	88bff7c4 	addi	r2,r17,-33
   83e5c:	10803fcc 	andi	r2,r2,255
   83e60:	28bfe636 	bltu	r5,r2,83dfc <_wctomb_r+0x2cc>
   83e64:	98800017 	ldw	r2,0(r19)
   83e68:	10000b1e 	bne	r2,zero,83e98 <_wctomb_r+0x368>
   83e6c:	9c800015 	stw	r18,0(r19)
   83e70:	008006c4 	movi	r2,27
   83e74:	80800005 	stb	r2,0(r16)
   83e78:	84000044 	addi	r16,r16,1
   83e7c:	00800904 	movi	r2,36
   83e80:	80800005 	stb	r2,0(r16)
   83e84:	84000044 	addi	r16,r16,1
   83e88:	00801084 	movi	r2,66
   83e8c:	80800005 	stb	r2,0(r16)
   83e90:	010000c4 	movi	r4,3
   83e94:	84000044 	addi	r16,r16,1
   83e98:	22000084 	addi	r8,r4,2
   83e9c:	84400045 	stb	r17,1(r16)
   83ea0:	80c00005 	stb	r3,0(r16)
   83ea4:	003f3506 	br	83b7c <_wctomb_r+0x4c>
   83ea8:	8901f00c 	andi	r4,r17,1984
   83eac:	2009d1ba 	srai	r4,r4,6
   83eb0:	88c00fcc 	andi	r3,r17,63
   83eb4:	00bff004 	movi	r2,-64
   83eb8:	2088b03a 	or	r4,r4,r2
   83ebc:	1a46b03a 	or	r3,r3,r9
   83ec0:	02000084 	movi	r8,2
   83ec4:	80c00045 	stb	r3,1(r16)
   83ec8:	81000005 	stb	r4,0(r16)
   83ecc:	003f2b06 	br	83b7c <_wctomb_r+0x4c>
   83ed0:	88c0072c 	andhi	r3,r17,28
   83ed4:	1807d4ba 	srai	r3,r3,18
   83ed8:	8808d33a 	srli	r4,r17,12
   83edc:	8943f00c 	andi	r5,r17,4032
   83ee0:	00bffc04 	movi	r2,-16
   83ee4:	280bd1ba 	srai	r5,r5,6
   83ee8:	1886b03a 	or	r3,r3,r2
   83eec:	21000fcc 	andi	r4,r4,63
   83ef0:	80c00005 	stb	r3,0(r16)
   83ef4:	2248b03a 	or	r4,r4,r9
   83ef8:	84000044 	addi	r16,r16,1
   83efc:	88800fcc 	andi	r2,r17,63
   83f00:	81000005 	stb	r4,0(r16)
   83f04:	1244b03a 	or	r2,r2,r9
   83f08:	84000044 	addi	r16,r16,1
   83f0c:	2a4ab03a 	or	r5,r5,r9
   83f10:	02000104 	movi	r8,4
   83f14:	80800045 	stb	r2,1(r16)
   83f18:	81400005 	stb	r5,0(r16)
   83f1c:	003f1706 	br	83b7c <_wctomb_r+0x4c>
   83f20:	88c0c02c 	andhi	r3,r17,768
   83f24:	1807d63a 	srai	r3,r3,24
   83f28:	89003f2c 	andhi	r4,r17,252
   83f2c:	2009d4ba 	srai	r4,r4,18
   83f30:	880ad33a 	srli	r5,r17,12
   83f34:	00bffe04 	movi	r2,-8
   83f38:	8983f00c 	andi	r6,r17,4032
   83f3c:	1886b03a 	or	r3,r3,r2
   83f40:	300dd1ba 	srai	r6,r6,6
   83f44:	80c00005 	stb	r3,0(r16)
   83f48:	2248b03a 	or	r4,r4,r9
   83f4c:	84000044 	addi	r16,r16,1
   83f50:	29400fcc 	andi	r5,r5,63
   83f54:	81000005 	stb	r4,0(r16)
   83f58:	2a4ab03a 	or	r5,r5,r9
   83f5c:	84000044 	addi	r16,r16,1
   83f60:	88800fcc 	andi	r2,r17,63
   83f64:	81400005 	stb	r5,0(r16)
   83f68:	1244b03a 	or	r2,r2,r9
   83f6c:	84000044 	addi	r16,r16,1
   83f70:	324cb03a 	or	r6,r6,r9
   83f74:	02000144 	movi	r8,5
   83f78:	80800045 	stb	r2,1(r16)
   83f7c:	81800005 	stb	r6,0(r16)
   83f80:	003efe06 	br	83b7c <_wctomb_r+0x4c>

00083f84 <__swsetup>:
   83f84:	d0e00117 	ldw	r3,-32764(gp)
   83f88:	defffe04 	addi	sp,sp,-8
   83f8c:	dc000015 	stw	r16,0(sp)
   83f90:	dfc00115 	stw	ra,4(sp)
   83f94:	18800e17 	ldw	r2,56(r3)
   83f98:	2021883a 	mov	r16,r4
   83f9c:	10003526 	beq	r2,zero,84074 <__swsetup+0xf0>
   83fa0:	8180030b 	ldhu	r6,12(r16)
   83fa4:	30ffffcc 	andi	r3,r6,65535
   83fa8:	1880020c 	andi	r2,r3,8
   83fac:	1000251e 	bne	r2,zero,84044 <__swsetup+0xc0>
   83fb0:	1880040c 	andi	r2,r3,16
   83fb4:	013fffc4 	movi	r4,-1
   83fb8:	10001d26 	beq	r2,zero,84030 <__swsetup+0xac>
   83fbc:	1880010c 	andi	r2,r3,4
   83fc0:	10002f26 	beq	r2,zero,84080 <__swsetup+0xfc>
   83fc4:	81400c17 	ldw	r5,48(r16)
   83fc8:	28000626 	beq	r5,zero,83fe4 <__swsetup+0x60>
   83fcc:	80801004 	addi	r2,r16,64
   83fd0:	28800326 	beq	r5,r2,83fe0 <__swsetup+0x5c>
   83fd4:	d1200117 	ldw	r4,-32764(gp)
   83fd8:	00859cc0 	call	859cc <_free_r>
   83fdc:	8180030b 	ldhu	r6,12(r16)
   83fe0:	80000c15 	stw	zero,48(r16)
   83fe4:	00bff6c4 	movi	r2,-37
   83fe8:	3084703a 	and	r2,r6,r2
   83fec:	80c00417 	ldw	r3,16(r16)
   83ff0:	100d883a 	mov	r6,r2
   83ff4:	8080030d 	sth	r2,12(r16)
   83ff8:	30800214 	ori	r2,r6,8
   83ffc:	80000115 	stw	zero,4(r16)
   84000:	80c00015 	stw	r3,0(r16)
   84004:	8080030d 	sth	r2,12(r16)
   84008:	18001026 	beq	r3,zero,8404c <__swsetup+0xc8>
   8400c:	80c0030b 	ldhu	r3,12(r16)
   84010:	1880004c 	andi	r2,r3,1
   84014:	1000121e 	bne	r2,zero,84060 <__swsetup+0xdc>
   84018:	1880008c 	andi	r2,r3,2
   8401c:	0007883a 	mov	r3,zero
   84020:	1000011e 	bne	r2,zero,84028 <__swsetup+0xa4>
   84024:	80c00517 	ldw	r3,20(r16)
   84028:	80c00215 	stw	r3,8(r16)
   8402c:	0009883a 	mov	r4,zero
   84030:	2005883a 	mov	r2,r4
   84034:	dfc00117 	ldw	ra,4(sp)
   84038:	dc000017 	ldw	r16,0(sp)
   8403c:	dec00204 	addi	sp,sp,8
   84040:	f800283a 	ret
   84044:	80c00417 	ldw	r3,16(r16)
   84048:	183ff01e 	bne	r3,zero,8400c <__swsetup+0x88>
   8404c:	8009883a 	mov	r4,r16
   84050:	00861a40 	call	861a4 <__smakebuf>
   84054:	80c0030b 	ldhu	r3,12(r16)
   84058:	1880004c 	andi	r2,r3,1
   8405c:	103fee26 	beq	r2,zero,84018 <__swsetup+0x94>
   84060:	80800517 	ldw	r2,20(r16)
   84064:	80000215 	stw	zero,8(r16)
   84068:	0085c83a 	sub	r2,zero,r2
   8406c:	80800615 	stw	r2,24(r16)
   84070:	003fee06 	br	8402c <__swsetup+0xa8>
   84074:	1809883a 	mov	r4,r3
   84078:	008580c0 	call	8580c <__sinit>
   8407c:	003fc806 	br	83fa0 <__swsetup+0x1c>
   84080:	80c00417 	ldw	r3,16(r16)
   84084:	30800214 	ori	r2,r6,8
   84088:	8080030d 	sth	r2,12(r16)
   8408c:	003fde06 	br	84008 <__swsetup+0x84>

00084090 <quorem>:
   84090:	defff104 	addi	sp,sp,-60
   84094:	dfc00e15 	stw	ra,56(sp)
   84098:	df000d15 	stw	fp,52(sp)
   8409c:	dc000c15 	stw	r16,48(sp)
   840a0:	dc400b15 	stw	r17,44(sp)
   840a4:	dc800a15 	stw	r18,40(sp)
   840a8:	dcc00915 	stw	r19,36(sp)
   840ac:	dd000815 	stw	r20,32(sp)
   840b0:	dd400715 	stw	r21,28(sp)
   840b4:	dd800615 	stw	r22,24(sp)
   840b8:	ddc00515 	stw	r23,20(sp)
   840bc:	2dc00417 	ldw	r23,16(r5)
   840c0:	20800417 	ldw	r2,16(r4)
   840c4:	d9000015 	stw	r4,0(sp)
   840c8:	d9400115 	stw	r5,4(sp)
   840cc:	0007883a 	mov	r3,zero
   840d0:	15c04216 	blt	r2,r23,841dc <quorem+0x14c>
   840d4:	bdffffc4 	addi	r23,r23,-1
   840d8:	b80490ba 	slli	r2,r23,2
   840dc:	20c00504 	addi	r3,r4,20
   840e0:	2c800504 	addi	r18,r5,20
   840e4:	10eb883a 	add	r21,r2,r3
   840e8:	14ad883a 	add	r22,r2,r18
   840ec:	b1400017 	ldw	r5,0(r22)
   840f0:	a8800017 	ldw	r2,0(r21)
   840f4:	d8c00215 	stw	r3,8(sp)
   840f8:	29400044 	addi	r5,r5,1
   840fc:	1009883a 	mov	r4,r2
   84100:	d8800415 	stw	r2,16(sp)
   84104:	dc800315 	stw	r18,12(sp)
   84108:	0081acc0 	call	81acc <__udivsi3>
   8410c:	1039883a 	mov	fp,r2
   84110:	dc400217 	ldw	r17,8(sp)
   84114:	10003e1e 	bne	r2,zero,84210 <quorem+0x180>
   84118:	d9400117 	ldw	r5,4(sp)
   8411c:	d9000017 	ldw	r4,0(sp)
   84120:	00875f80 	call	875f8 <__mcmp>
   84124:	10002c16 	blt	r2,zero,841d8 <quorem+0x148>
   84128:	dc800317 	ldw	r18,12(sp)
   8412c:	dc400217 	ldw	r17,8(sp)
   84130:	e7000044 	addi	fp,fp,1
   84134:	0027883a 	mov	r19,zero
   84138:	0029883a 	mov	r20,zero
   8413c:	91000017 	ldw	r4,0(r18)
   84140:	88c00017 	ldw	r3,0(r17)
   84144:	94800104 	addi	r18,r18,4
   84148:	20bfffcc 	andi	r2,r4,65535
   8414c:	1521883a 	add	r16,r2,r20
   84150:	817fffcc 	andi	r5,r16,65535
   84154:	18bfffcc 	andi	r2,r3,65535
   84158:	2008d43a 	srli	r4,r4,16
   8415c:	800cd43a 	srli	r6,r16,16
   84160:	1145c83a 	sub	r2,r2,r5
   84164:	14cf883a 	add	r7,r2,r19
   84168:	1806d43a 	srli	r3,r3,16
   8416c:	218b883a 	add	r5,r4,r6
   84170:	3827d43a 	srai	r19,r7,16
   84174:	28bfffcc 	andi	r2,r5,65535
   84178:	1887c83a 	sub	r3,r3,r2
   8417c:	1cc7883a 	add	r3,r3,r19
   84180:	88c0008d 	sth	r3,2(r17)
   84184:	89c0000d 	sth	r7,0(r17)
   84188:	2828d43a 	srli	r20,r5,16
   8418c:	8c400104 	addi	r17,r17,4
   84190:	1827d43a 	srai	r19,r3,16
   84194:	b4bfe92e 	bgeu	r22,r18,8413c <quorem+0xac>
   84198:	d8c00217 	ldw	r3,8(sp)
   8419c:	b80490ba 	slli	r2,r23,2
   841a0:	10eb883a 	add	r21,r2,r3
   841a4:	a8c00017 	ldw	r3,0(r21)
   841a8:	18000b1e 	bne	r3,zero,841d8 <quorem+0x148>
   841ac:	d8800217 	ldw	r2,8(sp)
   841b0:	ad7fff04 	addi	r21,r21,-4
   841b4:	1540062e 	bgeu	r2,r21,841d0 <quorem+0x140>
   841b8:	a8800017 	ldw	r2,0(r21)
   841bc:	1000041e 	bne	r2,zero,841d0 <quorem+0x140>
   841c0:	d8c00217 	ldw	r3,8(sp)
   841c4:	ad7fff04 	addi	r21,r21,-4
   841c8:	bdffffc4 	addi	r23,r23,-1
   841cc:	1d7ffa36 	bltu	r3,r21,841b8 <quorem+0x128>
   841d0:	d8800017 	ldw	r2,0(sp)
   841d4:	15c00415 	stw	r23,16(r2)
   841d8:	e007883a 	mov	r3,fp
   841dc:	1805883a 	mov	r2,r3
   841e0:	dfc00e17 	ldw	ra,56(sp)
   841e4:	df000d17 	ldw	fp,52(sp)
   841e8:	dc000c17 	ldw	r16,48(sp)
   841ec:	dc400b17 	ldw	r17,44(sp)
   841f0:	dc800a17 	ldw	r18,40(sp)
   841f4:	dcc00917 	ldw	r19,36(sp)
   841f8:	dd000817 	ldw	r20,32(sp)
   841fc:	dd400717 	ldw	r21,28(sp)
   84200:	dd800617 	ldw	r22,24(sp)
   84204:	ddc00517 	ldw	r23,20(sp)
   84208:	dec00f04 	addi	sp,sp,60
   8420c:	f800283a 	ret
   84210:	0027883a 	mov	r19,zero
   84214:	0029883a 	mov	r20,zero
   84218:	94000017 	ldw	r16,0(r18)
   8421c:	e00b883a 	mov	r5,fp
   84220:	94800104 	addi	r18,r18,4
   84224:	813fffcc 	andi	r4,r16,65535
   84228:	0081aec0 	call	81aec <__mulsi3>
   8422c:	8008d43a 	srli	r4,r16,16
   84230:	e00b883a 	mov	r5,fp
   84234:	1521883a 	add	r16,r2,r20
   84238:	0081aec0 	call	81aec <__mulsi3>
   8423c:	89000017 	ldw	r4,0(r17)
   84240:	817fffcc 	andi	r5,r16,65535
   84244:	800cd43a 	srli	r6,r16,16
   84248:	20ffffcc 	andi	r3,r4,65535
   8424c:	1947c83a 	sub	r3,r3,r5
   84250:	1ccf883a 	add	r7,r3,r19
   84254:	2008d43a 	srli	r4,r4,16
   84258:	118b883a 	add	r5,r2,r6
   8425c:	3827d43a 	srai	r19,r7,16
   84260:	28bfffcc 	andi	r2,r5,65535
   84264:	2089c83a 	sub	r4,r4,r2
   84268:	24c7883a 	add	r3,r4,r19
   8426c:	88c0008d 	sth	r3,2(r17)
   84270:	89c0000d 	sth	r7,0(r17)
   84274:	2828d43a 	srli	r20,r5,16
   84278:	8c400104 	addi	r17,r17,4
   8427c:	1827d43a 	srai	r19,r3,16
   84280:	b4bfe52e 	bgeu	r22,r18,84218 <quorem+0x188>
   84284:	d8c00417 	ldw	r3,16(sp)
   84288:	183fa31e 	bne	r3,zero,84118 <quorem+0x88>
   8428c:	d8800217 	ldw	r2,8(sp)
   84290:	ad7fff04 	addi	r21,r21,-4
   84294:	1540062e 	bgeu	r2,r21,842b0 <quorem+0x220>
   84298:	a8800017 	ldw	r2,0(r21)
   8429c:	1000041e 	bne	r2,zero,842b0 <quorem+0x220>
   842a0:	d8c00217 	ldw	r3,8(sp)
   842a4:	ad7fff04 	addi	r21,r21,-4
   842a8:	bdffffc4 	addi	r23,r23,-1
   842ac:	1d7ffa36 	bltu	r3,r21,84298 <quorem+0x208>
   842b0:	d8800017 	ldw	r2,0(sp)
   842b4:	15c00415 	stw	r23,16(r2)
   842b8:	003f9706 	br	84118 <quorem+0x88>

000842bc <_dtoa_r>:
   842bc:	deffdd04 	addi	sp,sp,-140
   842c0:	df002115 	stw	fp,132(sp)
   842c4:	dc002015 	stw	r16,128(sp)
   842c8:	dc801e15 	stw	r18,120(sp)
   842cc:	dcc01d15 	stw	r19,116(sp)
   842d0:	dfc02215 	stw	ra,136(sp)
   842d4:	dc401f15 	stw	r17,124(sp)
   842d8:	dd001c15 	stw	r20,112(sp)
   842dc:	dd401b15 	stw	r21,108(sp)
   842e0:	dd801a15 	stw	r22,104(sp)
   842e4:	ddc01915 	stw	r23,100(sp)
   842e8:	22001017 	ldw	r8,64(r4)
   842ec:	2039883a 	mov	fp,r4
   842f0:	2825883a 	mov	r18,r5
   842f4:	d9c00315 	stw	r7,12(sp)
   842f8:	3027883a 	mov	r19,r6
   842fc:	dc002517 	ldw	r16,148(sp)
   84300:	d8001515 	stw	zero,84(sp)
   84304:	4000241e 	bne	r8,zero,84398 <_dtoa_r+0xdc>
   84308:	98002d16 	blt	r19,zero,843c0 <_dtoa_r+0x104>
   8430c:	98dffc2c 	andhi	r3,r19,32752
   84310:	009ffc34 	movhi	r2,32752
   84314:	10800004 	addi	r2,r2,0
   84318:	80000015 	stw	zero,0(r16)
   8431c:	18803126 	beq	r3,r2,843e4 <_dtoa_r+0x128>
   84320:	000d883a 	mov	r6,zero
   84324:	000f883a 	mov	r7,zero
   84328:	9009883a 	mov	r4,r18
   8432c:	980b883a 	mov	r5,r19
   84330:	0089f700 	call	89f70 <__eqdf2>
   84334:	10003c1e 	bne	r2,zero,84428 <_dtoa_r+0x16c>
   84338:	d8c02417 	ldw	r3,144(sp)
   8433c:	00800044 	movi	r2,1
   84340:	01000274 	movhi	r4,9
   84344:	211af804 	addi	r4,r4,27616
   84348:	18800015 	stw	r2,0(r3)
   8434c:	d8802617 	ldw	r2,152(sp)
   84350:	d9001715 	stw	r4,92(sp)
   84354:	10000326 	beq	r2,zero,84364 <_dtoa_r+0xa8>
   84358:	d8c02617 	ldw	r3,152(sp)
   8435c:	20800044 	addi	r2,r4,1
   84360:	18800015 	stw	r2,0(r3)
   84364:	d8801717 	ldw	r2,92(sp)
   84368:	dfc02217 	ldw	ra,136(sp)
   8436c:	df002117 	ldw	fp,132(sp)
   84370:	dc002017 	ldw	r16,128(sp)
   84374:	dc401f17 	ldw	r17,124(sp)
   84378:	dc801e17 	ldw	r18,120(sp)
   8437c:	dcc01d17 	ldw	r19,116(sp)
   84380:	dd001c17 	ldw	r20,112(sp)
   84384:	dd401b17 	ldw	r21,108(sp)
   84388:	dd801a17 	ldw	r22,104(sp)
   8438c:	ddc01917 	ldw	r23,100(sp)
   84390:	dec02304 	addi	sp,sp,140
   84394:	f800283a 	ret
   84398:	20801117 	ldw	r2,68(r4)
   8439c:	400b883a 	mov	r5,r8
   843a0:	40800115 	stw	r2,4(r8)
   843a4:	20c01117 	ldw	r3,68(r4)
   843a8:	00800044 	movi	r2,1
   843ac:	10c4983a 	sll	r2,r2,r3
   843b0:	40800215 	stw	r2,8(r8)
   843b4:	0086da80 	call	86da8 <_Bfree>
   843b8:	e0001015 	stw	zero,64(fp)
   843bc:	983fd30e 	bge	r19,zero,8430c <_dtoa_r+0x50>
   843c0:	00a00034 	movhi	r2,32768
   843c4:	10bfffc4 	addi	r2,r2,-1
   843c8:	14e6703a 	and	r19,r2,r19
   843cc:	00c00044 	movi	r3,1
   843d0:	80c00015 	stw	r3,0(r16)
   843d4:	009ffc34 	movhi	r2,32752
   843d8:	10800004 	addi	r2,r2,0
   843dc:	98dffc2c 	andhi	r3,r19,32752
   843e0:	18bfcf1e 	bne	r3,r2,84320 <_dtoa_r+0x64>
   843e4:	d8c02417 	ldw	r3,144(sp)
   843e8:	0089c3c4 	movi	r2,9999
   843ec:	18800015 	stw	r2,0(r3)
   843f0:	9000a226 	beq	r18,zero,8467c <_dtoa_r+0x3c0>
   843f4:	00800274 	movhi	r2,9
   843f8:	109afa04 	addi	r2,r2,27624
   843fc:	d8801715 	stw	r2,92(sp)
   84400:	d8c02617 	ldw	r3,152(sp)
   84404:	183fd726 	beq	r3,zero,84364 <_dtoa_r+0xa8>
   84408:	d9001717 	ldw	r4,92(sp)
   8440c:	208000c7 	ldb	r2,3(r4)
   84410:	20c00204 	addi	r3,r4,8
   84414:	1000011e 	bne	r2,zero,8441c <_dtoa_r+0x160>
   84418:	20c000c4 	addi	r3,r4,3
   8441c:	d8802617 	ldw	r2,152(sp)
   84420:	10c00015 	stw	r3,0(r2)
   84424:	003fcf06 	br	84364 <_dtoa_r+0xa8>
   84428:	d8800104 	addi	r2,sp,4
   8442c:	e009883a 	mov	r4,fp
   84430:	900b883a 	mov	r5,r18
   84434:	980d883a 	mov	r6,r19
   84438:	d9c00204 	addi	r7,sp,8
   8443c:	d8800015 	stw	r2,0(sp)
   84440:	008798c0 	call	8798c <_d2b>
   84444:	d8801415 	stw	r2,80(sp)
   84448:	9804d53a 	srli	r2,r19,20
   8444c:	1581ffcc 	andi	r22,r2,2047
   84450:	b000921e 	bne	r22,zero,8469c <_dtoa_r+0x3e0>
   84454:	ddc00117 	ldw	r23,4(sp)
   84458:	d8800217 	ldw	r2,8(sp)
   8445c:	00c00804 	movi	r3,32
   84460:	b885883a 	add	r2,r23,r2
   84464:	15810c84 	addi	r22,r2,1074
   84468:	1d81ba0e 	bge	r3,r22,84b54 <_dtoa_r+0x898>
   8446c:	00c01004 	movi	r3,64
   84470:	1d87c83a 	sub	r3,r3,r22
   84474:	10810484 	addi	r2,r2,1042
   84478:	98c6983a 	sll	r3,r19,r3
   8447c:	9084d83a 	srl	r2,r18,r2
   84480:	18a0b03a 	or	r16,r3,r2
   84484:	8009883a 	mov	r4,r16
   84488:	008a22c0 	call	8a22c <__floatsidf>
   8448c:	1011883a 	mov	r8,r2
   84490:	1813883a 	mov	r9,r3
   84494:	8003bc16 	blt	r16,zero,85388 <_dtoa_r+0x10cc>
   84498:	00bf8434 	movhi	r2,65040
   8449c:	10800004 	addi	r2,r2,0
   844a0:	1247883a 	add	r3,r2,r9
   844a4:	01000044 	movi	r4,1
   844a8:	da000f15 	stw	r8,60(sp)
   844ac:	d8c01015 	stw	r3,64(sp)
   844b0:	b5bef344 	addi	r22,r22,-1075
   844b4:	d9001315 	stw	r4,76(sp)
   844b8:	d9401017 	ldw	r5,64(sp)
   844bc:	d9000f17 	ldw	r4,60(sp)
   844c0:	0005883a 	mov	r2,zero
   844c4:	00cffe34 	movhi	r3,16376
   844c8:	18c00004 	addi	r3,r3,0
   844cc:	180f883a 	mov	r7,r3
   844d0:	100d883a 	mov	r6,r2
   844d4:	00898a80 	call	898a8 <__subdf3>
   844d8:	0218dbf4 	movhi	r8,25455
   844dc:	4210d844 	addi	r8,r8,17249
   844e0:	024ff4f4 	movhi	r9,16339
   844e4:	4a61e9c4 	addi	r9,r9,-30809
   844e8:	480f883a 	mov	r7,r9
   844ec:	400d883a 	mov	r6,r8
   844f0:	180b883a 	mov	r5,r3
   844f4:	1009883a 	mov	r4,r2
   844f8:	00899200 	call	89920 <__muldf3>
   844fc:	0222d874 	movhi	r8,35681
   84500:	42322cc4 	addi	r8,r8,-14157
   84504:	024ff1f4 	movhi	r9,16327
   84508:	4a628a04 	addi	r9,r9,-30168
   8450c:	480f883a 	mov	r7,r9
   84510:	400d883a 	mov	r6,r8
   84514:	180b883a 	mov	r5,r3
   84518:	1009883a 	mov	r4,r2
   8451c:	008983c0 	call	8983c <__adddf3>
   84520:	b009883a 	mov	r4,r22
   84524:	1021883a 	mov	r16,r2
   84528:	1823883a 	mov	r17,r3
   8452c:	008a22c0 	call	8a22c <__floatsidf>
   84530:	021427f4 	movhi	r8,20639
   84534:	421e7ec4 	addi	r8,r8,31227
   84538:	024ff4f4 	movhi	r9,16339
   8453c:	4a5104c4 	addi	r9,r9,17427
   84540:	480f883a 	mov	r7,r9
   84544:	400d883a 	mov	r6,r8
   84548:	180b883a 	mov	r5,r3
   8454c:	1009883a 	mov	r4,r2
   84550:	00899200 	call	89920 <__muldf3>
   84554:	180f883a 	mov	r7,r3
   84558:	880b883a 	mov	r5,r17
   8455c:	100d883a 	mov	r6,r2
   84560:	8009883a 	mov	r4,r16
   84564:	008983c0 	call	8983c <__adddf3>
   84568:	1009883a 	mov	r4,r2
   8456c:	180b883a 	mov	r5,r3
   84570:	1021883a 	mov	r16,r2
   84574:	1823883a 	mov	r17,r3
   84578:	008a2fc0 	call	8a2fc <__fixdfsi>
   8457c:	000d883a 	mov	r6,zero
   84580:	000f883a 	mov	r7,zero
   84584:	8009883a 	mov	r4,r16
   84588:	880b883a 	mov	r5,r17
   8458c:	d8800915 	stw	r2,36(sp)
   84590:	008a1a00 	call	8a1a0 <__ltdf2>
   84594:	1002ea16 	blt	r2,zero,85140 <_dtoa_r+0xe84>
   84598:	d9000917 	ldw	r4,36(sp)
   8459c:	00c00044 	movi	r3,1
   845a0:	00800584 	movi	r2,22
   845a4:	d8c00b15 	stw	r3,44(sp)
   845a8:	11001036 	bltu	r2,r4,845ec <_dtoa_r+0x330>
   845ac:	200490fa 	slli	r2,r4,3
   845b0:	00c00274 	movhi	r3,9
   845b4:	18db3104 	addi	r3,r3,27844
   845b8:	900d883a 	mov	r6,r18
   845bc:	10c5883a 	add	r2,r2,r3
   845c0:	12000017 	ldw	r8,0(r2)
   845c4:	12400117 	ldw	r9,4(r2)
   845c8:	980f883a 	mov	r7,r19
   845cc:	4009883a 	mov	r4,r8
   845d0:	480b883a 	mov	r5,r9
   845d4:	008a0880 	call	8a088 <__gtdf2>
   845d8:	0080030e 	bge	zero,r2,845e8 <_dtoa_r+0x32c>
   845dc:	d8800917 	ldw	r2,36(sp)
   845e0:	10bfffc4 	addi	r2,r2,-1
   845e4:	d8800915 	stw	r2,36(sp)
   845e8:	d8000b15 	stw	zero,44(sp)
   845ec:	bd85c83a 	sub	r2,r23,r22
   845f0:	147fffc4 	addi	r17,r2,-1
   845f4:	8802ce16 	blt	r17,zero,85130 <_dtoa_r+0xe74>
   845f8:	dc400d15 	stw	r17,52(sp)
   845fc:	d8000415 	stw	zero,16(sp)
   84600:	d8c00917 	ldw	r3,36(sp)
   84604:	1802c216 	blt	r3,zero,85110 <_dtoa_r+0xe54>
   84608:	d9000d17 	ldw	r4,52(sp)
   8460c:	d8000515 	stw	zero,20(sp)
   84610:	d8c00e15 	stw	r3,56(sp)
   84614:	20c9883a 	add	r4,r4,r3
   84618:	d9000d15 	stw	r4,52(sp)
   8461c:	d8c00317 	ldw	r3,12(sp)
   84620:	00800244 	movi	r2,9
   84624:	10c0012e 	bgeu	r2,r3,8462c <_dtoa_r+0x370>
   84628:	d8000315 	stw	zero,12(sp)
   8462c:	d9000317 	ldw	r4,12(sp)
   84630:	00800144 	movi	r2,5
   84634:	04000044 	movi	r16,1
   84638:	1100030e 	bge	r2,r4,84648 <_dtoa_r+0x38c>
   8463c:	213fff04 	addi	r4,r4,-4
   84640:	d9000315 	stw	r4,12(sp)
   84644:	0021883a 	mov	r16,zero
   84648:	00ffffc4 	movi	r3,-1
   8464c:	d8c00615 	stw	r3,24(sp)
   84650:	d8c00815 	stw	r3,32(sp)
   84654:	d8c00317 	ldw	r3,12(sp)
   84658:	01000044 	movi	r4,1
   8465c:	d9000c15 	stw	r4,48(sp)
   84660:	10c02136 	bltu	r2,r3,846e8 <_dtoa_r+0x42c>
   84664:	180490ba 	slli	r2,r3,2
   84668:	00c00274 	movhi	r3,9
   8466c:	18db0804 	addi	r3,r3,27680
   84670:	10c5883a 	add	r2,r2,r3
   84674:	11000017 	ldw	r4,0(r2)
   84678:	2000683a 	jmp	r4
   8467c:	00800434 	movhi	r2,16
   84680:	10bfffc4 	addi	r2,r2,-1
   84684:	01000274 	movhi	r4,9
   84688:	211b0504 	addi	r4,r4,27668
   8468c:	9884703a 	and	r2,r19,r2
   84690:	d9001715 	stw	r4,92(sp)
   84694:	103f5a26 	beq	r2,zero,84400 <_dtoa_r+0x144>
   84698:	003f5606 	br	843f4 <_dtoa_r+0x138>
   8469c:	00800434 	movhi	r2,16
   846a0:	10bfffc4 	addi	r2,r2,-1
   846a4:	ddc00117 	ldw	r23,4(sp)
   846a8:	14c6703a 	and	r3,r2,r19
   846ac:	190ffc34 	orhi	r4,r3,16368
   846b0:	b5bf0044 	addi	r22,r22,-1023
   846b4:	dc800f15 	stw	r18,60(sp)
   846b8:	d9001015 	stw	r4,64(sp)
   846bc:	d8001315 	stw	zero,76(sp)
   846c0:	003f7d06 	br	844b8 <_dtoa_r+0x1fc>
   846c4:	d8000c15 	stw	zero,48(sp)
   846c8:	d8c02317 	ldw	r3,140(sp)
   846cc:	d9000917 	ldw	r4,36(sp)
   846d0:	1905883a 	add	r2,r3,r4
   846d4:	15800044 	addi	r22,r2,1
   846d8:	d8800815 	stw	r2,32(sp)
   846dc:	dd800615 	stw	r22,24(sp)
   846e0:	05800116 	blt	zero,r22,846e8 <_dtoa_r+0x42c>
   846e4:	05800044 	movi	r22,1
   846e8:	00800604 	movi	r2,24
   846ec:	e0001115 	stw	zero,68(fp)
   846f0:	04400104 	movi	r17,4
   846f4:	b0800636 	bltu	r22,r2,84710 <_dtoa_r+0x454>
   846f8:	0007883a 	mov	r3,zero
   846fc:	8c63883a 	add	r17,r17,r17
   84700:	18c00044 	addi	r3,r3,1
   84704:	88800504 	addi	r2,r17,20
   84708:	b0bffc2e 	bgeu	r22,r2,846fc <_dtoa_r+0x440>
   8470c:	e0c01115 	stw	r3,68(fp)
   84710:	e1401117 	ldw	r5,68(fp)
   84714:	e009883a 	mov	r4,fp
   84718:	0086cf80 	call	86cf8 <_Balloc>
   8471c:	d8c00617 	ldw	r3,24(sp)
   84720:	d8801815 	stw	r2,96(sp)
   84724:	e0801015 	stw	r2,64(fp)
   84728:	d8801715 	stw	r2,92(sp)
   8472c:	00800384 	movi	r2,14
   84730:	10c0a836 	bltu	r2,r3,849d4 <_dtoa_r+0x718>
   84734:	8000a726 	beq	r16,zero,849d4 <_dtoa_r+0x718>
   84738:	d8c00917 	ldw	r3,36(sp)
   8473c:	d9000617 	ldw	r4,24(sp)
   84740:	dc800f15 	stw	r18,60(sp)
   84744:	dcc01015 	stw	r19,64(sp)
   84748:	d8c00a15 	stw	r3,40(sp)
   8474c:	d9000715 	stw	r4,28(sp)
   84750:	05800084 	movi	r22,2
   84754:	00c1230e 	bge	zero,r3,84be4 <_dtoa_r+0x928>
   84758:	188003cc 	andi	r2,r3,15
   8475c:	1823d13a 	srai	r17,r3,4
   84760:	100490fa 	slli	r2,r2,3
   84764:	00c00274 	movhi	r3,9
   84768:	18db3104 	addi	r3,r3,27844
   8476c:	10c5883a 	add	r2,r2,r3
   84770:	88c0040c 	andi	r3,r17,16
   84774:	15000017 	ldw	r20,0(r2)
   84778:	15400117 	ldw	r21,4(r2)
   8477c:	18000d26 	beq	r3,zero,847b4 <_dtoa_r+0x4f8>
   84780:	01800274 	movhi	r6,9
   84784:	319b2704 	addi	r6,r6,27804
   84788:	30c00917 	ldw	r3,36(r6)
   8478c:	30800817 	ldw	r2,32(r6)
   84790:	980b883a 	mov	r5,r19
   84794:	9009883a 	mov	r4,r18
   84798:	180f883a 	mov	r7,r3
   8479c:	100d883a 	mov	r6,r2
   847a0:	0089d200 	call	89d20 <__divdf3>
   847a4:	8c4003cc 	andi	r17,r17,15
   847a8:	058000c4 	movi	r22,3
   847ac:	1025883a 	mov	r18,r2
   847b0:	1827883a 	mov	r19,r3
   847b4:	88001126 	beq	r17,zero,847fc <_dtoa_r+0x540>
   847b8:	04000274 	movhi	r16,9
   847bc:	841b2704 	addi	r16,r16,27804
   847c0:	8880004c 	andi	r2,r17,1
   847c4:	10000a26 	beq	r2,zero,847f0 <_dtoa_r+0x534>
   847c8:	80800017 	ldw	r2,0(r16)
   847cc:	80c00117 	ldw	r3,4(r16)
   847d0:	a80b883a 	mov	r5,r21
   847d4:	a009883a 	mov	r4,r20
   847d8:	180f883a 	mov	r7,r3
   847dc:	100d883a 	mov	r6,r2
   847e0:	00899200 	call	89920 <__muldf3>
   847e4:	b5800044 	addi	r22,r22,1
   847e8:	1029883a 	mov	r20,r2
   847ec:	182b883a 	mov	r21,r3
   847f0:	8823d07a 	srai	r17,r17,1
   847f4:	84000204 	addi	r16,r16,8
   847f8:	883ff11e 	bne	r17,zero,847c0 <_dtoa_r+0x504>
   847fc:	980b883a 	mov	r5,r19
   84800:	9009883a 	mov	r4,r18
   84804:	a80f883a 	mov	r7,r21
   84808:	a00d883a 	mov	r6,r20
   8480c:	0089d200 	call	89d20 <__divdf3>
   84810:	1025883a 	mov	r18,r2
   84814:	1827883a 	mov	r19,r3
   84818:	d8c00b17 	ldw	r3,44(sp)
   8481c:	18000926 	beq	r3,zero,84844 <_dtoa_r+0x588>
   84820:	0005883a 	mov	r2,zero
   84824:	00cffc34 	movhi	r3,16368
   84828:	18c00004 	addi	r3,r3,0
   8482c:	180f883a 	mov	r7,r3
   84830:	9009883a 	mov	r4,r18
   84834:	980b883a 	mov	r5,r19
   84838:	100d883a 	mov	r6,r2
   8483c:	008a1a00 	call	8a1a0 <__ltdf2>
   84840:	10037816 	blt	r2,zero,85624 <_dtoa_r+0x1368>
   84844:	b009883a 	mov	r4,r22
   84848:	008a22c0 	call	8a22c <__floatsidf>
   8484c:	180b883a 	mov	r5,r3
   84850:	1009883a 	mov	r4,r2
   84854:	900d883a 	mov	r6,r18
   84858:	980f883a 	mov	r7,r19
   8485c:	00899200 	call	89920 <__muldf3>
   84860:	0011883a 	mov	r8,zero
   84864:	02500734 	movhi	r9,16412
   84868:	4a400004 	addi	r9,r9,0
   8486c:	180b883a 	mov	r5,r3
   84870:	480f883a 	mov	r7,r9
   84874:	1009883a 	mov	r4,r2
   84878:	400d883a 	mov	r6,r8
   8487c:	008983c0 	call	8983c <__adddf3>
   84880:	d8801115 	stw	r2,68(sp)
   84884:	00bf3034 	movhi	r2,64704
   84888:	10800004 	addi	r2,r2,0
   8488c:	18a9883a 	add	r20,r3,r2
   84890:	d8800617 	ldw	r2,24(sp)
   84894:	dd001215 	stw	r20,72(sp)
   84898:	10024e1e 	bne	r2,zero,851d4 <_dtoa_r+0xf18>
   8489c:	00d00534 	movhi	r3,16404
   848a0:	18c00004 	addi	r3,r3,0
   848a4:	980b883a 	mov	r5,r19
   848a8:	180f883a 	mov	r7,r3
   848ac:	9009883a 	mov	r4,r18
   848b0:	100d883a 	mov	r6,r2
   848b4:	00898a80 	call	898a8 <__subdf3>
   848b8:	d9801117 	ldw	r6,68(sp)
   848bc:	a00f883a 	mov	r7,r20
   848c0:	1009883a 	mov	r4,r2
   848c4:	180b883a 	mov	r5,r3
   848c8:	1021883a 	mov	r16,r2
   848cc:	1823883a 	mov	r17,r3
   848d0:	d8001615 	stw	zero,88(sp)
   848d4:	002f883a 	mov	r23,zero
   848d8:	008a0880 	call	8a088 <__gtdf2>
   848dc:	0080260e 	bge	zero,r2,84978 <_dtoa_r+0x6bc>
   848e0:	d8800917 	ldw	r2,36(sp)
   848e4:	d8c01817 	ldw	r3,96(sp)
   848e8:	d9001817 	ldw	r4,96(sp)
   848ec:	10800044 	addi	r2,r2,1
   848f0:	18c00044 	addi	r3,r3,1
   848f4:	d8800915 	stw	r2,36(sp)
   848f8:	d8c01715 	stw	r3,92(sp)
   848fc:	00800c44 	movi	r2,49
   84900:	20800005 	stb	r2,0(r4)
   84904:	e009883a 	mov	r4,fp
   84908:	b80b883a 	mov	r5,r23
   8490c:	0086da80 	call	86da8 <_Bfree>
   84910:	d9001617 	ldw	r4,88(sp)
   84914:	20000926 	beq	r4,zero,8493c <_dtoa_r+0x680>
   84918:	d8801517 	ldw	r2,84(sp)
   8491c:	10000426 	beq	r2,zero,84930 <_dtoa_r+0x674>
   84920:	11000326 	beq	r2,r4,84930 <_dtoa_r+0x674>
   84924:	100b883a 	mov	r5,r2
   84928:	e009883a 	mov	r4,fp
   8492c:	0086da80 	call	86da8 <_Bfree>
   84930:	d9401617 	ldw	r5,88(sp)
   84934:	e009883a 	mov	r4,fp
   84938:	0086da80 	call	86da8 <_Bfree>
   8493c:	d9401417 	ldw	r5,80(sp)
   84940:	e009883a 	mov	r4,fp
   84944:	0086da80 	call	86da8 <_Bfree>
   84948:	d8c01717 	ldw	r3,92(sp)
   8494c:	18000005 	stb	zero,0(r3)
   84950:	d9000917 	ldw	r4,36(sp)
   84954:	d8c02417 	ldw	r3,144(sp)
   84958:	20800044 	addi	r2,r4,1
   8495c:	d9002617 	ldw	r4,152(sp)
   84960:	18800015 	stw	r2,0(r3)
   84964:	20000226 	beq	r4,zero,84970 <_dtoa_r+0x6b4>
   84968:	d8801717 	ldw	r2,92(sp)
   8496c:	20800015 	stw	r2,0(r4)
   84970:	d8801817 	ldw	r2,96(sp)
   84974:	003e7c06 	br	84368 <_dtoa_r+0xac>
   84978:	d9001117 	ldw	r4,68(sp)
   8497c:	000d883a 	mov	r6,zero
   84980:	01e00034 	movhi	r7,32768
   84984:	39c00004 	addi	r7,r7,0
   84988:	2184f03a 	xor	r2,r4,r6
   8498c:	d9001217 	ldw	r4,72(sp)
   84990:	800d883a 	mov	r6,r16
   84994:	21c6f03a 	xor	r3,r4,r7
   84998:	180b883a 	mov	r5,r3
   8499c:	1009883a 	mov	r4,r2
   849a0:	880f883a 	mov	r7,r17
   849a4:	008a0880 	call	8a088 <__gtdf2>
   849a8:	00808a16 	blt	zero,r2,84bd4 <_dtoa_r+0x918>
   849ac:	d9000f17 	ldw	r4,60(sp)
   849b0:	d8801017 	ldw	r2,64(sp)
   849b4:	d8c00a17 	ldw	r3,40(sp)
   849b8:	2025883a 	mov	r18,r4
   849bc:	1027883a 	mov	r19,r2
   849c0:	d9000717 	ldw	r4,28(sp)
   849c4:	d8801817 	ldw	r2,96(sp)
   849c8:	d8c00915 	stw	r3,36(sp)
   849cc:	d9000615 	stw	r4,24(sp)
   849d0:	d8801715 	stw	r2,92(sp)
   849d4:	d8c00217 	ldw	r3,8(sp)
   849d8:	1800a716 	blt	r3,zero,84c78 <_dtoa_r+0x9bc>
   849dc:	d9000917 	ldw	r4,36(sp)
   849e0:	00800384 	movi	r2,14
   849e4:	1100a416 	blt	r2,r4,84c78 <_dtoa_r+0x9bc>
   849e8:	200490fa 	slli	r2,r4,3
   849ec:	00c00274 	movhi	r3,9
   849f0:	18db3104 	addi	r3,r3,27844
   849f4:	10c5883a 	add	r2,r2,r3
   849f8:	15000017 	ldw	r20,0(r2)
   849fc:	15400117 	ldw	r21,4(r2)
   84a00:	d8802317 	ldw	r2,140(sp)
   84a04:	10006016 	blt	r2,zero,84b88 <_dtoa_r+0x8cc>
   84a08:	05800044 	movi	r22,1
   84a0c:	00001106 	br	84a54 <_dtoa_r+0x798>
   84a10:	0005883a 	mov	r2,zero
   84a14:	00d00934 	movhi	r3,16420
   84a18:	18c00004 	addi	r3,r3,0
   84a1c:	400d883a 	mov	r6,r8
   84a20:	180b883a 	mov	r5,r3
   84a24:	480f883a 	mov	r7,r9
   84a28:	1009883a 	mov	r4,r2
   84a2c:	00899200 	call	89920 <__muldf3>
   84a30:	180b883a 	mov	r5,r3
   84a34:	000d883a 	mov	r6,zero
   84a38:	000f883a 	mov	r7,zero
   84a3c:	1009883a 	mov	r4,r2
   84a40:	1025883a 	mov	r18,r2
   84a44:	1827883a 	mov	r19,r3
   84a48:	0089f700 	call	89f70 <__eqdf2>
   84a4c:	103fbb26 	beq	r2,zero,8493c <_dtoa_r+0x680>
   84a50:	b5800044 	addi	r22,r22,1
   84a54:	a00d883a 	mov	r6,r20
   84a58:	a80f883a 	mov	r7,r21
   84a5c:	9009883a 	mov	r4,r18
   84a60:	980b883a 	mov	r5,r19
   84a64:	0089d200 	call	89d20 <__divdf3>
   84a68:	180b883a 	mov	r5,r3
   84a6c:	1009883a 	mov	r4,r2
   84a70:	008a2fc0 	call	8a2fc <__fixdfsi>
   84a74:	1009883a 	mov	r4,r2
   84a78:	102f883a 	mov	r23,r2
   84a7c:	008a22c0 	call	8a22c <__floatsidf>
   84a80:	180b883a 	mov	r5,r3
   84a84:	1009883a 	mov	r4,r2
   84a88:	a00d883a 	mov	r6,r20
   84a8c:	a80f883a 	mov	r7,r21
   84a90:	00899200 	call	89920 <__muldf3>
   84a94:	180f883a 	mov	r7,r3
   84a98:	9009883a 	mov	r4,r18
   84a9c:	980b883a 	mov	r5,r19
   84aa0:	100d883a 	mov	r6,r2
   84aa4:	00898a80 	call	898a8 <__subdf3>
   84aa8:	d9001717 	ldw	r4,92(sp)
   84aac:	1011883a 	mov	r8,r2
   84ab0:	b8800c04 	addi	r2,r23,48
   84ab4:	20800005 	stb	r2,0(r4)
   84ab8:	d8800617 	ldw	r2,24(sp)
   84abc:	21000044 	addi	r4,r4,1
   84ac0:	1813883a 	mov	r9,r3
   84ac4:	d9001715 	stw	r4,92(sp)
   84ac8:	b0bfd11e 	bne	r22,r2,84a10 <_dtoa_r+0x754>
   84acc:	4009883a 	mov	r4,r8
   84ad0:	180b883a 	mov	r5,r3
   84ad4:	400d883a 	mov	r6,r8
   84ad8:	180f883a 	mov	r7,r3
   84adc:	008983c0 	call	8983c <__adddf3>
   84ae0:	100d883a 	mov	r6,r2
   84ae4:	a009883a 	mov	r4,r20
   84ae8:	a80b883a 	mov	r5,r21
   84aec:	180f883a 	mov	r7,r3
   84af0:	1021883a 	mov	r16,r2
   84af4:	1823883a 	mov	r17,r3
   84af8:	008a1a00 	call	8a1a0 <__ltdf2>
   84afc:	10000816 	blt	r2,zero,84b20 <_dtoa_r+0x864>
   84b00:	a80b883a 	mov	r5,r21
   84b04:	800d883a 	mov	r6,r16
   84b08:	880f883a 	mov	r7,r17
   84b0c:	a009883a 	mov	r4,r20
   84b10:	0089f700 	call	89f70 <__eqdf2>
   84b14:	103f891e 	bne	r2,zero,8493c <_dtoa_r+0x680>
   84b18:	b880004c 	andi	r2,r23,1
   84b1c:	103f8726 	beq	r2,zero,8493c <_dtoa_r+0x680>
   84b20:	d8c01717 	ldw	r3,92(sp)
   84b24:	00800e44 	movi	r2,57
   84b28:	18ffffc4 	addi	r3,r3,-1
   84b2c:	d8c01715 	stw	r3,92(sp)
   84b30:	18c00007 	ldb	r3,0(r3)
   84b34:	1882341e 	bne	r3,r2,85408 <_dtoa_r+0x114c>
   84b38:	d9001717 	ldw	r4,92(sp)
   84b3c:	d8801817 	ldw	r2,96(sp)
   84b40:	20822b26 	beq	r4,r2,853f0 <_dtoa_r+0x1134>
   84b44:	213fffc4 	addi	r4,r4,-1
   84b48:	d9001715 	stw	r4,92(sp)
   84b4c:	20800007 	ldb	r2,0(r4)
   84b50:	003ff806 	br	84b34 <_dtoa_r+0x878>
   84b54:	1d85c83a 	sub	r2,r3,r22
   84b58:	90a0983a 	sll	r16,r18,r2
   84b5c:	003e4906 	br	84484 <_dtoa_r+0x1c8>
   84b60:	d8000c15 	stw	zero,48(sp)
   84b64:	d9002317 	ldw	r4,140(sp)
   84b68:	0102a70e 	bge	zero,r4,85608 <_dtoa_r+0x134c>
   84b6c:	dd802317 	ldw	r22,140(sp)
   84b70:	dd800815 	stw	r22,32(sp)
   84b74:	dd800615 	stw	r22,24(sp)
   84b78:	003edb06 	br	846e8 <_dtoa_r+0x42c>
   84b7c:	05800484 	movi	r22,18
   84b80:	d8002315 	stw	zero,140(sp)
   84b84:	003ed806 	br	846e8 <_dtoa_r+0x42c>
   84b88:	d8c00617 	ldw	r3,24(sp)
   84b8c:	00ff9e16 	blt	zero,r3,84a08 <_dtoa_r+0x74c>
   84b90:	d8001615 	stw	zero,88(sp)
   84b94:	002f883a 	mov	r23,zero
   84b98:	18000e16 	blt	r3,zero,84bd4 <_dtoa_r+0x918>
   84b9c:	0005883a 	mov	r2,zero
   84ba0:	00d00534 	movhi	r3,16404
   84ba4:	18c00004 	addi	r3,r3,0
   84ba8:	a80b883a 	mov	r5,r21
   84bac:	180f883a 	mov	r7,r3
   84bb0:	a009883a 	mov	r4,r20
   84bb4:	100d883a 	mov	r6,r2
   84bb8:	00899200 	call	89920 <__muldf3>
   84bbc:	180b883a 	mov	r5,r3
   84bc0:	980f883a 	mov	r7,r19
   84bc4:	1009883a 	mov	r4,r2
   84bc8:	900d883a 	mov	r6,r18
   84bcc:	008a1140 	call	8a114 <__gedf2>
   84bd0:	103f4316 	blt	r2,zero,848e0 <_dtoa_r+0x624>
   84bd4:	d9002317 	ldw	r4,140(sp)
   84bd8:	0108303a 	nor	r4,zero,r4
   84bdc:	d9000915 	stw	r4,36(sp)
   84be0:	003f4806 	br	84904 <_dtoa_r+0x648>
   84be4:	d8800917 	ldw	r2,36(sp)
   84be8:	00a9c83a 	sub	r20,zero,r2
   84bec:	a03f0a26 	beq	r20,zero,84818 <_dtoa_r+0x55c>
   84bf0:	a14003cc 	andi	r5,r20,15
   84bf4:	280a90fa 	slli	r5,r5,3
   84bf8:	01000274 	movhi	r4,9
   84bfc:	211b3104 	addi	r4,r4,27844
   84c00:	a023d13a 	srai	r17,r20,4
   84c04:	290b883a 	add	r5,r5,r4
   84c08:	28800017 	ldw	r2,0(r5)
   84c0c:	28c00117 	ldw	r3,4(r5)
   84c10:	980f883a 	mov	r7,r19
   84c14:	900d883a 	mov	r6,r18
   84c18:	180b883a 	mov	r5,r3
   84c1c:	1009883a 	mov	r4,r2
   84c20:	00899200 	call	89920 <__muldf3>
   84c24:	1025883a 	mov	r18,r2
   84c28:	1827883a 	mov	r19,r3
   84c2c:	883efa26 	beq	r17,zero,84818 <_dtoa_r+0x55c>
   84c30:	04000274 	movhi	r16,9
   84c34:	841b2704 	addi	r16,r16,27804
   84c38:	8880004c 	andi	r2,r17,1
   84c3c:	10000a26 	beq	r2,zero,84c68 <_dtoa_r+0x9ac>
   84c40:	80800017 	ldw	r2,0(r16)
   84c44:	80c00117 	ldw	r3,4(r16)
   84c48:	980f883a 	mov	r7,r19
   84c4c:	900d883a 	mov	r6,r18
   84c50:	180b883a 	mov	r5,r3
   84c54:	1009883a 	mov	r4,r2
   84c58:	00899200 	call	89920 <__muldf3>
   84c5c:	b5800044 	addi	r22,r22,1
   84c60:	1025883a 	mov	r18,r2
   84c64:	1827883a 	mov	r19,r3
   84c68:	8823d07a 	srai	r17,r17,1
   84c6c:	84000204 	addi	r16,r16,8
   84c70:	883ff11e 	bne	r17,zero,84c38 <_dtoa_r+0x97c>
   84c74:	003ee806 	br	84818 <_dtoa_r+0x55c>
   84c78:	d9000c17 	ldw	r4,48(sp)
   84c7c:	dd000417 	ldw	r20,16(sp)
   84c80:	dc000517 	ldw	r16,20(sp)
   84c84:	202b003a 	cmpeq	r21,r4,zero
   84c88:	d8001515 	stw	zero,84(sp)
   84c8c:	d8001615 	stw	zero,88(sp)
   84c90:	a800131e 	bne	r21,zero,84ce0 <_dtoa_r+0xa24>
   84c94:	d9000317 	ldw	r4,12(sp)
   84c98:	00800044 	movi	r2,1
   84c9c:	1101a216 	blt	r2,r4,85328 <_dtoa_r+0x106c>
   84ca0:	d8801317 	ldw	r2,76(sp)
   84ca4:	1d810cc4 	addi	r22,r3,1075
   84ca8:	1000031e 	bne	r2,zero,84cb8 <_dtoa_r+0x9fc>
   84cac:	d8800117 	ldw	r2,4(sp)
   84cb0:	00c00d84 	movi	r3,54
   84cb4:	18adc83a 	sub	r22,r3,r2
   84cb8:	e009883a 	mov	r4,fp
   84cbc:	01400044 	movi	r5,1
   84cc0:	00871040 	call	87104 <_i2b>
   84cc4:	d8801615 	stw	r2,88(sp)
   84cc8:	d9000d17 	ldw	r4,52(sp)
   84ccc:	d8800417 	ldw	r2,16(sp)
   84cd0:	2589883a 	add	r4,r4,r22
   84cd4:	1585883a 	add	r2,r2,r22
   84cd8:	d9000d15 	stw	r4,52(sp)
   84cdc:	d8800415 	stw	r2,16(sp)
   84ce0:	05000c0e 	bge	zero,r20,84d14 <_dtoa_r+0xa58>
   84ce4:	d8c00d17 	ldw	r3,52(sp)
   84ce8:	00c00a0e 	bge	zero,r3,84d14 <_dtoa_r+0xa58>
   84cec:	182d883a 	mov	r22,r3
   84cf0:	a0c0010e 	bge	r20,r3,84cf8 <_dtoa_r+0xa3c>
   84cf4:	a02d883a 	mov	r22,r20
   84cf8:	d9000d17 	ldw	r4,52(sp)
   84cfc:	d8800417 	ldw	r2,16(sp)
   84d00:	a5a9c83a 	sub	r20,r20,r22
   84d04:	2589c83a 	sub	r4,r4,r22
   84d08:	1585c83a 	sub	r2,r2,r22
   84d0c:	d9000d15 	stw	r4,52(sp)
   84d10:	d8800415 	stw	r2,16(sp)
   84d14:	d8c00517 	ldw	r3,20(sp)
   84d18:	00c0130e 	bge	zero,r3,84d68 <_dtoa_r+0xaac>
   84d1c:	a801941e 	bne	r21,zero,85370 <_dtoa_r+0x10b4>
   84d20:	04000e0e 	bge	zero,r16,84d5c <_dtoa_r+0xaa0>
   84d24:	d9401617 	ldw	r5,88(sp)
   84d28:	e009883a 	mov	r4,fp
   84d2c:	800d883a 	mov	r6,r16
   84d30:	00873940 	call	87394 <_pow5mult>
   84d34:	d9801417 	ldw	r6,80(sp)
   84d38:	e009883a 	mov	r4,fp
   84d3c:	100b883a 	mov	r5,r2
   84d40:	d8801615 	stw	r2,88(sp)
   84d44:	00871400 	call	87140 <_multiply>
   84d48:	d9401417 	ldw	r5,80(sp)
   84d4c:	1023883a 	mov	r17,r2
   84d50:	e009883a 	mov	r4,fp
   84d54:	0086da80 	call	86da8 <_Bfree>
   84d58:	dc401415 	stw	r17,80(sp)
   84d5c:	d9000517 	ldw	r4,20(sp)
   84d60:	2423c83a 	sub	r17,r4,r16
   84d64:	8801af1e 	bne	r17,zero,85424 <_dtoa_r+0x1168>
   84d68:	04000044 	movi	r16,1
   84d6c:	e009883a 	mov	r4,fp
   84d70:	800b883a 	mov	r5,r16
   84d74:	00871040 	call	87104 <_i2b>
   84d78:	102f883a 	mov	r23,r2
   84d7c:	d8800e17 	ldw	r2,56(sp)
   84d80:	0080050e 	bge	zero,r2,84d98 <_dtoa_r+0xadc>
   84d84:	b80b883a 	mov	r5,r23
   84d88:	e009883a 	mov	r4,fp
   84d8c:	100d883a 	mov	r6,r2
   84d90:	00873940 	call	87394 <_pow5mult>
   84d94:	102f883a 	mov	r23,r2
   84d98:	d8c00317 	ldw	r3,12(sp)
   84d9c:	0023883a 	mov	r17,zero
   84da0:	80c00e16 	blt	r16,r3,84ddc <_dtoa_r+0xb20>
   84da4:	90000d1e 	bne	r18,zero,84ddc <_dtoa_r+0xb20>
   84da8:	00800434 	movhi	r2,16
   84dac:	10bfffc4 	addi	r2,r2,-1
   84db0:	9884703a 	and	r2,r19,r2
   84db4:	1000091e 	bne	r2,zero,84ddc <_dtoa_r+0xb20>
   84db8:	989ffc2c 	andhi	r2,r19,32752
   84dbc:	10000726 	beq	r2,zero,84ddc <_dtoa_r+0xb20>
   84dc0:	d9000417 	ldw	r4,16(sp)
   84dc4:	d8800d17 	ldw	r2,52(sp)
   84dc8:	8023883a 	mov	r17,r16
   84dcc:	21000044 	addi	r4,r4,1
   84dd0:	10800044 	addi	r2,r2,1
   84dd4:	d9000415 	stw	r4,16(sp)
   84dd8:	d8800d15 	stw	r2,52(sp)
   84ddc:	d8c00e17 	ldw	r3,56(sp)
   84de0:	1800f41e 	bne	r3,zero,851b4 <_dtoa_r+0xef8>
   84de4:	d8c00d17 	ldw	r3,52(sp)
   84de8:	18800044 	addi	r2,r3,1
   84dec:	158007cc 	andi	r22,r2,31
   84df0:	b0000226 	beq	r22,zero,84dfc <_dtoa_r+0xb40>
   84df4:	00800804 	movi	r2,32
   84df8:	15adc83a 	sub	r22,r2,r22
   84dfc:	00800104 	movi	r2,4
   84e00:	1580b20e 	bge	r2,r22,850cc <_dtoa_r+0xe10>
   84e04:	d9000d17 	ldw	r4,52(sp)
   84e08:	d8800417 	ldw	r2,16(sp)
   84e0c:	b5bfff04 	addi	r22,r22,-4
   84e10:	2589883a 	add	r4,r4,r22
   84e14:	1585883a 	add	r2,r2,r22
   84e18:	d9000d15 	stw	r4,52(sp)
   84e1c:	d8800415 	stw	r2,16(sp)
   84e20:	a5a9883a 	add	r20,r20,r22
   84e24:	d8800417 	ldw	r2,16(sp)
   84e28:	0080050e 	bge	zero,r2,84e40 <_dtoa_r+0xb84>
   84e2c:	d9401417 	ldw	r5,80(sp)
   84e30:	100d883a 	mov	r6,r2
   84e34:	e009883a 	mov	r4,fp
   84e38:	00874c00 	call	874c0 <_lshift>
   84e3c:	d8801415 	stw	r2,80(sp)
   84e40:	d8c00d17 	ldw	r3,52(sp)
   84e44:	00c0050e 	bge	zero,r3,84e5c <_dtoa_r+0xba0>
   84e48:	b80b883a 	mov	r5,r23
   84e4c:	180d883a 	mov	r6,r3
   84e50:	e009883a 	mov	r4,fp
   84e54:	00874c00 	call	874c0 <_lshift>
   84e58:	102f883a 	mov	r23,r2
   84e5c:	d9000b17 	ldw	r4,44(sp)
   84e60:	2000c31e 	bne	r4,zero,85170 <_dtoa_r+0xeb4>
   84e64:	d9000617 	ldw	r4,24(sp)
   84e68:	0101520e 	bge	zero,r4,853b4 <_dtoa_r+0x10f8>
   84e6c:	05800044 	movi	r22,1
   84e70:	a8004d1e 	bne	r21,zero,84fa8 <_dtoa_r+0xcec>
   84e74:	0500050e 	bge	zero,r20,84e8c <_dtoa_r+0xbd0>
   84e78:	d9401617 	ldw	r5,88(sp)
   84e7c:	a00d883a 	mov	r6,r20
   84e80:	e009883a 	mov	r4,fp
   84e84:	00874c00 	call	874c0 <_lshift>
   84e88:	d8801615 	stw	r2,88(sp)
   84e8c:	d8801617 	ldw	r2,88(sp)
   84e90:	d8801515 	stw	r2,84(sp)
   84e94:	8801661e 	bne	r17,zero,85430 <_dtoa_r+0x1174>
   84e98:	94c0004c 	andi	r19,r18,1
   84e9c:	05800044 	movi	r22,1
   84ea0:	05400e44 	movi	r21,57
   84ea4:	d9001417 	ldw	r4,80(sp)
   84ea8:	b80b883a 	mov	r5,r23
   84eac:	05000044 	movi	r20,1
   84eb0:	00840900 	call	84090 <quorem>
   84eb4:	d9001417 	ldw	r4,80(sp)
   84eb8:	d9401517 	ldw	r5,84(sp)
   84ebc:	14800c04 	addi	r18,r2,48
   84ec0:	00875f80 	call	875f8 <__mcmp>
   84ec4:	d9801617 	ldw	r6,88(sp)
   84ec8:	e009883a 	mov	r4,fp
   84ecc:	b80b883a 	mov	r5,r23
   84ed0:	1023883a 	mov	r17,r2
   84ed4:	008765c0 	call	8765c <__mdiff>
   84ed8:	1021883a 	mov	r16,r2
   84edc:	10800317 	ldw	r2,12(r2)
   84ee0:	10006c26 	beq	r2,zero,85094 <_dtoa_r+0xdd8>
   84ee4:	800b883a 	mov	r5,r16
   84ee8:	e009883a 	mov	r4,fp
   84eec:	0086da80 	call	86da8 <_Bfree>
   84ef0:	a000031e 	bne	r20,zero,84f00 <_dtoa_r+0xc44>
   84ef4:	d9000317 	ldw	r4,12(sp)
   84ef8:	2000011e 	bne	r4,zero,84f00 <_dtoa_r+0xc44>
   84efc:	98005d26 	beq	r19,zero,85074 <_dtoa_r+0xdb8>
   84f00:	88004a16 	blt	r17,zero,8502c <_dtoa_r+0xd70>
   84f04:	8800031e 	bne	r17,zero,84f14 <_dtoa_r+0xc58>
   84f08:	d8c00317 	ldw	r3,12(sp)
   84f0c:	1800011e 	bne	r3,zero,84f14 <_dtoa_r+0xc58>
   84f10:	98004626 	beq	r19,zero,8502c <_dtoa_r+0xd70>
   84f14:	0501a916 	blt	zero,r20,855bc <_dtoa_r+0x1300>
   84f18:	d9001717 	ldw	r4,92(sp)
   84f1c:	24800005 	stb	r18,0(r4)
   84f20:	d8800617 	ldw	r2,24(sp)
   84f24:	21000044 	addi	r4,r4,1
   84f28:	d9001715 	stw	r4,92(sp)
   84f2c:	b0802926 	beq	r22,r2,84fd4 <_dtoa_r+0xd18>
   84f30:	d9401417 	ldw	r5,80(sp)
   84f34:	e009883a 	mov	r4,fp
   84f38:	01800284 	movi	r6,10
   84f3c:	000f883a 	mov	r7,zero
   84f40:	0086dcc0 	call	86dcc <_multadd>
   84f44:	d8c01517 	ldw	r3,84(sp)
   84f48:	d9001617 	ldw	r4,88(sp)
   84f4c:	d8801415 	stw	r2,80(sp)
   84f50:	19005526 	beq	r3,r4,850a8 <_dtoa_r+0xdec>
   84f54:	d9401517 	ldw	r5,84(sp)
   84f58:	e009883a 	mov	r4,fp
   84f5c:	01800284 	movi	r6,10
   84f60:	000f883a 	mov	r7,zero
   84f64:	0086dcc0 	call	86dcc <_multadd>
   84f68:	d9401617 	ldw	r5,88(sp)
   84f6c:	e009883a 	mov	r4,fp
   84f70:	01800284 	movi	r6,10
   84f74:	000f883a 	mov	r7,zero
   84f78:	d8801515 	stw	r2,84(sp)
   84f7c:	b5800044 	addi	r22,r22,1
   84f80:	0086dcc0 	call	86dcc <_multadd>
   84f84:	d8801615 	stw	r2,88(sp)
   84f88:	003fc606 	br	84ea4 <_dtoa_r+0xbe8>
   84f8c:	d9401417 	ldw	r5,80(sp)
   84f90:	e009883a 	mov	r4,fp
   84f94:	01800284 	movi	r6,10
   84f98:	000f883a 	mov	r7,zero
   84f9c:	0086dcc0 	call	86dcc <_multadd>
   84fa0:	d8801415 	stw	r2,80(sp)
   84fa4:	b5800044 	addi	r22,r22,1
   84fa8:	d9001417 	ldw	r4,80(sp)
   84fac:	b80b883a 	mov	r5,r23
   84fb0:	00840900 	call	84090 <quorem>
   84fb4:	14800c04 	addi	r18,r2,48
   84fb8:	d8801717 	ldw	r2,92(sp)
   84fbc:	14800005 	stb	r18,0(r2)
   84fc0:	d8801717 	ldw	r2,92(sp)
   84fc4:	d8c00617 	ldw	r3,24(sp)
   84fc8:	10800044 	addi	r2,r2,1
   84fcc:	d8801715 	stw	r2,92(sp)
   84fd0:	b0ffee16 	blt	r22,r3,84f8c <_dtoa_r+0xcd0>
   84fd4:	d9401417 	ldw	r5,80(sp)
   84fd8:	e009883a 	mov	r4,fp
   84fdc:	01800044 	movi	r6,1
   84fe0:	00874c00 	call	874c0 <_lshift>
   84fe4:	1009883a 	mov	r4,r2
   84fe8:	b80b883a 	mov	r5,r23
   84fec:	d8801415 	stw	r2,80(sp)
   84ff0:	00875f80 	call	875f8 <__mcmp>
   84ff4:	0081770e 	bge	zero,r2,855d4 <_dtoa_r+0x1318>
   84ff8:	d9001717 	ldw	r4,92(sp)
   84ffc:	00800e44 	movi	r2,57
   85000:	213fffc4 	addi	r4,r4,-1
   85004:	d9001715 	stw	r4,92(sp)
   85008:	20c00007 	ldb	r3,0(r4)
   8500c:	1880391e 	bne	r3,r2,850f4 <_dtoa_r+0xe38>
   85010:	d8801717 	ldw	r2,92(sp)
   85014:	d9001817 	ldw	r4,96(sp)
   85018:	113e3126 	beq	r2,r4,848e0 <_dtoa_r+0x624>
   8501c:	10bfffc4 	addi	r2,r2,-1
   85020:	d8801715 	stw	r2,92(sp)
   85024:	10800007 	ldb	r2,0(r2)
   85028:	003ff806 	br	8500c <_dtoa_r+0xd50>
   8502c:	05000c0e 	bge	zero,r20,85060 <_dtoa_r+0xda4>
   85030:	d9401417 	ldw	r5,80(sp)
   85034:	e009883a 	mov	r4,fp
   85038:	01800044 	movi	r6,1
   8503c:	00874c00 	call	874c0 <_lshift>
   85040:	1009883a 	mov	r4,r2
   85044:	b80b883a 	mov	r5,r23
   85048:	d8801415 	stw	r2,80(sp)
   8504c:	00875f80 	call	875f8 <__mcmp>
   85050:	00818a0e 	bge	zero,r2,8567c <_dtoa_r+0x13c0>
   85054:	94800044 	addi	r18,r18,1
   85058:	00800e84 	movi	r2,58
   8505c:	90815826 	beq	r18,r2,855c0 <_dtoa_r+0x1304>
   85060:	d9001717 	ldw	r4,92(sp)
   85064:	24800005 	stb	r18,0(r4)
   85068:	21000044 	addi	r4,r4,1
   8506c:	d9001715 	stw	r4,92(sp)
   85070:	003e2406 	br	84904 <_dtoa_r+0x648>
   85074:	95415226 	beq	r18,r21,855c0 <_dtoa_r+0x1304>
   85078:	0440010e 	bge	zero,r17,85080 <_dtoa_r+0xdc4>
   8507c:	94800044 	addi	r18,r18,1
   85080:	d8801717 	ldw	r2,92(sp)
   85084:	14800005 	stb	r18,0(r2)
   85088:	10800044 	addi	r2,r2,1
   8508c:	d8801715 	stw	r2,92(sp)
   85090:	003e1c06 	br	84904 <_dtoa_r+0x648>
   85094:	d9001417 	ldw	r4,80(sp)
   85098:	800b883a 	mov	r5,r16
   8509c:	00875f80 	call	875f8 <__mcmp>
   850a0:	1029883a 	mov	r20,r2
   850a4:	003f8f06 	br	84ee4 <_dtoa_r+0xc28>
   850a8:	200b883a 	mov	r5,r4
   850ac:	01800284 	movi	r6,10
   850b0:	e009883a 	mov	r4,fp
   850b4:	000f883a 	mov	r7,zero
   850b8:	0086dcc0 	call	86dcc <_multadd>
   850bc:	b5800044 	addi	r22,r22,1
   850c0:	d8801615 	stw	r2,88(sp)
   850c4:	d8801515 	stw	r2,84(sp)
   850c8:	003f7606 	br	84ea4 <_dtoa_r+0xbe8>
   850cc:	008000c4 	movi	r2,3
   850d0:	15bf5416 	blt	r2,r22,84e24 <_dtoa_r+0xb68>
   850d4:	d8c00d17 	ldw	r3,52(sp)
   850d8:	d9000417 	ldw	r4,16(sp)
   850dc:	b5800704 	addi	r22,r22,28
   850e0:	1d87883a 	add	r3,r3,r22
   850e4:	2589883a 	add	r4,r4,r22
   850e8:	d8c00d15 	stw	r3,52(sp)
   850ec:	d9000415 	stw	r4,16(sp)
   850f0:	003f4b06 	br	84e20 <_dtoa_r+0xb64>
   850f4:	d8c01717 	ldw	r3,92(sp)
   850f8:	18800003 	ldbu	r2,0(r3)
   850fc:	19000044 	addi	r4,r3,1
   85100:	d9001715 	stw	r4,92(sp)
   85104:	10800044 	addi	r2,r2,1
   85108:	18800005 	stb	r2,0(r3)
   8510c:	003dfd06 	br	84904 <_dtoa_r+0x648>
   85110:	d8800417 	ldw	r2,16(sp)
   85114:	d8c00917 	ldw	r3,36(sp)
   85118:	d8000e15 	stw	zero,56(sp)
   8511c:	10c5c83a 	sub	r2,r2,r3
   85120:	00c9c83a 	sub	r4,zero,r3
   85124:	d8800415 	stw	r2,16(sp)
   85128:	d9000515 	stw	r4,20(sp)
   8512c:	003d3b06 	br	8461c <_dtoa_r+0x360>
   85130:	0463c83a 	sub	r17,zero,r17
   85134:	dc400415 	stw	r17,16(sp)
   85138:	d8000d15 	stw	zero,52(sp)
   8513c:	003d3006 	br	84600 <_dtoa_r+0x344>
   85140:	d9000917 	ldw	r4,36(sp)
   85144:	008a22c0 	call	8a22c <__floatsidf>
   85148:	180b883a 	mov	r5,r3
   8514c:	800d883a 	mov	r6,r16
   85150:	880f883a 	mov	r7,r17
   85154:	1009883a 	mov	r4,r2
   85158:	0089ffc0 	call	89ffc <__nedf2>
   8515c:	103d0e26 	beq	r2,zero,84598 <_dtoa_r+0x2dc>
   85160:	d8800917 	ldw	r2,36(sp)
   85164:	10bfffc4 	addi	r2,r2,-1
   85168:	d8800915 	stw	r2,36(sp)
   8516c:	003d0a06 	br	84598 <_dtoa_r+0x2dc>
   85170:	d9001417 	ldw	r4,80(sp)
   85174:	b80b883a 	mov	r5,r23
   85178:	00875f80 	call	875f8 <__mcmp>
   8517c:	103f390e 	bge	r2,zero,84e64 <_dtoa_r+0xba8>
   85180:	d9401417 	ldw	r5,80(sp)
   85184:	e009883a 	mov	r4,fp
   85188:	01800284 	movi	r6,10
   8518c:	000f883a 	mov	r7,zero
   85190:	0086dcc0 	call	86dcc <_multadd>
   85194:	d8801415 	stw	r2,80(sp)
   85198:	d8800917 	ldw	r2,36(sp)
   8519c:	10bfffc4 	addi	r2,r2,-1
   851a0:	d8800915 	stw	r2,36(sp)
   851a4:	a8013926 	beq	r21,zero,8568c <_dtoa_r+0x13d0>
   851a8:	d8c00817 	ldw	r3,32(sp)
   851ac:	d8c00615 	stw	r3,24(sp)
   851b0:	003f2c06 	br	84e64 <_dtoa_r+0xba8>
   851b4:	b8800417 	ldw	r2,16(r23)
   851b8:	100490ba 	slli	r2,r2,2
   851bc:	15c5883a 	add	r2,r2,r23
   851c0:	11000417 	ldw	r4,16(r2)
   851c4:	0086fec0 	call	86fec <_hi0bits>
   851c8:	d9000d17 	ldw	r4,52(sp)
   851cc:	2085c83a 	sub	r2,r4,r2
   851d0:	003f0606 	br	84dec <_dtoa_r+0xb30>
   851d4:	d8800c17 	ldw	r2,48(sp)
   851d8:	1000a626 	beq	r2,zero,85474 <_dtoa_r+0x11b8>
   851dc:	d8c00617 	ldw	r3,24(sp)
   851e0:	01000274 	movhi	r4,9
   851e4:	211b2f04 	addi	r4,r4,27836
   851e8:	0005883a 	mov	r2,zero
   851ec:	180c90fa 	slli	r6,r3,3
   851f0:	00cff834 	movhi	r3,16352
   851f4:	18c00004 	addi	r3,r3,0
   851f8:	180b883a 	mov	r5,r3
   851fc:	310d883a 	add	r6,r6,r4
   85200:	32400117 	ldw	r9,4(r6)
   85204:	32000017 	ldw	r8,0(r6)
   85208:	1009883a 	mov	r4,r2
   8520c:	480f883a 	mov	r7,r9
   85210:	400d883a 	mov	r6,r8
   85214:	0089d200 	call	89d20 <__divdf3>
   85218:	d9801117 	ldw	r6,68(sp)
   8521c:	180b883a 	mov	r5,r3
   85220:	a00f883a 	mov	r7,r20
   85224:	1009883a 	mov	r4,r2
   85228:	00898a80 	call	898a8 <__subdf3>
   8522c:	002d883a 	mov	r22,zero
   85230:	d8801115 	stw	r2,68(sp)
   85234:	d8c01215 	stw	r3,72(sp)
   85238:	00001106 	br	85280 <_dtoa_r+0xfc4>
   8523c:	d9c01217 	ldw	r7,72(sp)
   85240:	d9801117 	ldw	r6,68(sp)
   85244:	04500934 	movhi	r17,16420
   85248:	8c400004 	addi	r17,r17,0
   8524c:	0021883a 	mov	r16,zero
   85250:	8009883a 	mov	r4,r16
   85254:	880b883a 	mov	r5,r17
   85258:	00899200 	call	89920 <__muldf3>
   8525c:	0009883a 	mov	r4,zero
   85260:	880b883a 	mov	r5,r17
   85264:	a00d883a 	mov	r6,r20
   85268:	a80f883a 	mov	r7,r21
   8526c:	d8801115 	stw	r2,68(sp)
   85270:	d8c01215 	stw	r3,72(sp)
   85274:	00899200 	call	89920 <__muldf3>
   85278:	1025883a 	mov	r18,r2
   8527c:	1827883a 	mov	r19,r3
   85280:	980b883a 	mov	r5,r19
   85284:	9009883a 	mov	r4,r18
   85288:	008a2fc0 	call	8a2fc <__fixdfsi>
   8528c:	1009883a 	mov	r4,r2
   85290:	102f883a 	mov	r23,r2
   85294:	008a22c0 	call	8a22c <__floatsidf>
   85298:	980b883a 	mov	r5,r19
   8529c:	180f883a 	mov	r7,r3
   852a0:	9009883a 	mov	r4,r18
   852a4:	100d883a 	mov	r6,r2
   852a8:	00898a80 	call	898a8 <__subdf3>
   852ac:	182b883a 	mov	r21,r3
   852b0:	d8c01717 	ldw	r3,92(sp)
   852b4:	1029883a 	mov	r20,r2
   852b8:	b8800c04 	addi	r2,r23,48
   852bc:	18800005 	stb	r2,0(r3)
   852c0:	d9801117 	ldw	r6,68(sp)
   852c4:	d9c01217 	ldw	r7,72(sp)
   852c8:	18c00044 	addi	r3,r3,1
   852cc:	a009883a 	mov	r4,r20
   852d0:	a80b883a 	mov	r5,r21
   852d4:	d8c01715 	stw	r3,92(sp)
   852d8:	008a1a00 	call	8a1a0 <__ltdf2>
   852dc:	103d9716 	blt	r2,zero,8493c <_dtoa_r+0x680>
   852e0:	0005883a 	mov	r2,zero
   852e4:	00cffc34 	movhi	r3,16368
   852e8:	18c00004 	addi	r3,r3,0
   852ec:	180b883a 	mov	r5,r3
   852f0:	1009883a 	mov	r4,r2
   852f4:	a00d883a 	mov	r6,r20
   852f8:	a80f883a 	mov	r7,r21
   852fc:	00898a80 	call	898a8 <__subdf3>
   85300:	d9801117 	ldw	r6,68(sp)
   85304:	d9c01217 	ldw	r7,72(sp)
   85308:	180b883a 	mov	r5,r3
   8530c:	1009883a 	mov	r4,r2
   85310:	008a1a00 	call	8a1a0 <__ltdf2>
   85314:	103e0216 	blt	r2,zero,84b20 <_dtoa_r+0x864>
   85318:	d9000617 	ldw	r4,24(sp)
   8531c:	b5800044 	addi	r22,r22,1
   85320:	b13fc616 	blt	r22,r4,8523c <_dtoa_r+0xf80>
   85324:	003da106 	br	849ac <_dtoa_r+0x6f0>
   85328:	d8c00617 	ldw	r3,24(sp)
   8532c:	d9000517 	ldw	r4,20(sp)
   85330:	1c7fffc4 	addi	r17,r3,-1
   85334:	2461c83a 	sub	r16,r4,r17
   85338:	2440070e 	bge	r4,r17,85358 <_dtoa_r+0x109c>
   8533c:	d8800e17 	ldw	r2,56(sp)
   85340:	8923c83a 	sub	r17,r17,r4
   85344:	2449883a 	add	r4,r4,r17
   85348:	1445883a 	add	r2,r2,r17
   8534c:	d9000515 	stw	r4,20(sp)
   85350:	d8800e15 	stw	r2,56(sp)
   85354:	0021883a 	mov	r16,zero
   85358:	dd800617 	ldw	r22,24(sp)
   8535c:	b03e560e 	bge	r22,zero,84cb8 <_dtoa_r+0x9fc>
   85360:	d8c00417 	ldw	r3,16(sp)
   85364:	1da9c83a 	sub	r20,r3,r22
   85368:	002d883a 	mov	r22,zero
   8536c:	003e5206 	br	84cb8 <_dtoa_r+0x9fc>
   85370:	d9401417 	ldw	r5,80(sp)
   85374:	d9800517 	ldw	r6,20(sp)
   85378:	e009883a 	mov	r4,fp
   8537c:	00873940 	call	87394 <_pow5mult>
   85380:	d8801415 	stw	r2,80(sp)
   85384:	003e7806 	br	84d68 <_dtoa_r+0xaac>
   85388:	0005883a 	mov	r2,zero
   8538c:	00d07c34 	movhi	r3,16880
   85390:	18c00004 	addi	r3,r3,0
   85394:	480b883a 	mov	r5,r9
   85398:	4009883a 	mov	r4,r8
   8539c:	180f883a 	mov	r7,r3
   853a0:	100d883a 	mov	r6,r2
   853a4:	008983c0 	call	8983c <__adddf3>
   853a8:	1011883a 	mov	r8,r2
   853ac:	1813883a 	mov	r9,r3
   853b0:	003c3906 	br	84498 <_dtoa_r+0x1dc>
   853b4:	d8c00317 	ldw	r3,12(sp)
   853b8:	00800084 	movi	r2,2
   853bc:	10feab0e 	bge	r2,r3,84e6c <_dtoa_r+0xbb0>
   853c0:	203e0416 	blt	r4,zero,84bd4 <_dtoa_r+0x918>
   853c4:	b80b883a 	mov	r5,r23
   853c8:	e009883a 	mov	r4,fp
   853cc:	01800144 	movi	r6,5
   853d0:	000f883a 	mov	r7,zero
   853d4:	0086dcc0 	call	86dcc <_multadd>
   853d8:	d9001417 	ldw	r4,80(sp)
   853dc:	100b883a 	mov	r5,r2
   853e0:	102f883a 	mov	r23,r2
   853e4:	00875f80 	call	875f8 <__mcmp>
   853e8:	00bd3d16 	blt	zero,r2,848e0 <_dtoa_r+0x624>
   853ec:	003df906 	br	84bd4 <_dtoa_r+0x918>
   853f0:	d8800917 	ldw	r2,36(sp)
   853f4:	d8c01817 	ldw	r3,96(sp)
   853f8:	10800044 	addi	r2,r2,1
   853fc:	d8800915 	stw	r2,36(sp)
   85400:	00800c04 	movi	r2,48
   85404:	18800005 	stb	r2,0(r3)
   85408:	d8c01717 	ldw	r3,92(sp)
   8540c:	18800003 	ldbu	r2,0(r3)
   85410:	19000044 	addi	r4,r3,1
   85414:	d9001715 	stw	r4,92(sp)
   85418:	10800044 	addi	r2,r2,1
   8541c:	18800005 	stb	r2,0(r3)
   85420:	003d4606 	br	8493c <_dtoa_r+0x680>
   85424:	d9401417 	ldw	r5,80(sp)
   85428:	880d883a 	mov	r6,r17
   8542c:	003fd206 	br	85378 <_dtoa_r+0x10bc>
   85430:	11400117 	ldw	r5,4(r2)
   85434:	e009883a 	mov	r4,fp
   85438:	0086cf80 	call	86cf8 <_Balloc>
   8543c:	d8c01517 	ldw	r3,84(sp)
   85440:	11000304 	addi	r4,r2,12
   85444:	d8801615 	stw	r2,88(sp)
   85448:	19800417 	ldw	r6,16(r3)
   8544c:	19400304 	addi	r5,r3,12
   85450:	300c90ba 	slli	r6,r6,2
   85454:	31800204 	addi	r6,r6,8
   85458:	0086a980 	call	86a98 <memcpy>
   8545c:	d9401617 	ldw	r5,88(sp)
   85460:	e009883a 	mov	r4,fp
   85464:	01800044 	movi	r6,1
   85468:	00874c00 	call	874c0 <_lshift>
   8546c:	d8801615 	stw	r2,88(sp)
   85470:	003e8906 	br	84e98 <_dtoa_r+0xbdc>
   85474:	d8c00617 	ldw	r3,24(sp)
   85478:	01000274 	movhi	r4,9
   8547c:	211b2f04 	addi	r4,r4,27836
   85480:	d9801117 	ldw	r6,68(sp)
   85484:	180a90fa 	slli	r5,r3,3
   85488:	a00f883a 	mov	r7,r20
   8548c:	05800044 	movi	r22,1
   85490:	290b883a 	add	r5,r5,r4
   85494:	28800017 	ldw	r2,0(r5)
   85498:	28c00117 	ldw	r3,4(r5)
   8549c:	1009883a 	mov	r4,r2
   854a0:	180b883a 	mov	r5,r3
   854a4:	00899200 	call	89920 <__muldf3>
   854a8:	d8801115 	stw	r2,68(sp)
   854ac:	d8c01215 	stw	r3,72(sp)
   854b0:	00000b06 	br	854e0 <_dtoa_r+0x1224>
   854b4:	0005883a 	mov	r2,zero
   854b8:	00d00934 	movhi	r3,16420
   854bc:	18c00004 	addi	r3,r3,0
   854c0:	800d883a 	mov	r6,r16
   854c4:	180b883a 	mov	r5,r3
   854c8:	880f883a 	mov	r7,r17
   854cc:	1009883a 	mov	r4,r2
   854d0:	00899200 	call	89920 <__muldf3>
   854d4:	1025883a 	mov	r18,r2
   854d8:	b5800044 	addi	r22,r22,1
   854dc:	1827883a 	mov	r19,r3
   854e0:	980b883a 	mov	r5,r19
   854e4:	9009883a 	mov	r4,r18
   854e8:	008a2fc0 	call	8a2fc <__fixdfsi>
   854ec:	1009883a 	mov	r4,r2
   854f0:	102f883a 	mov	r23,r2
   854f4:	008a22c0 	call	8a22c <__floatsidf>
   854f8:	980b883a 	mov	r5,r19
   854fc:	9009883a 	mov	r4,r18
   85500:	180f883a 	mov	r7,r3
   85504:	100d883a 	mov	r6,r2
   85508:	00898a80 	call	898a8 <__subdf3>
   8550c:	1823883a 	mov	r17,r3
   85510:	d8c01717 	ldw	r3,92(sp)
   85514:	1021883a 	mov	r16,r2
   85518:	b8800c04 	addi	r2,r23,48
   8551c:	18800005 	stb	r2,0(r3)
   85520:	d9000617 	ldw	r4,24(sp)
   85524:	18c00044 	addi	r3,r3,1
   85528:	d8c01715 	stw	r3,92(sp)
   8552c:	b13fe11e 	bne	r22,r4,854b4 <_dtoa_r+0x11f8>
   85530:	d9801117 	ldw	r6,68(sp)
   85534:	d9c01217 	ldw	r7,72(sp)
   85538:	0029883a 	mov	r20,zero
   8553c:	054ff834 	movhi	r21,16352
   85540:	ad400004 	addi	r21,r21,0
   85544:	a009883a 	mov	r4,r20
   85548:	a80b883a 	mov	r5,r21
   8554c:	008983c0 	call	8983c <__adddf3>
   85550:	180b883a 	mov	r5,r3
   85554:	1009883a 	mov	r4,r2
   85558:	800d883a 	mov	r6,r16
   8555c:	880f883a 	mov	r7,r17
   85560:	008a1a00 	call	8a1a0 <__ltdf2>
   85564:	103d6e16 	blt	r2,zero,84b20 <_dtoa_r+0x864>
   85568:	d9c01217 	ldw	r7,72(sp)
   8556c:	d9801117 	ldw	r6,68(sp)
   85570:	0009883a 	mov	r4,zero
   85574:	a80b883a 	mov	r5,r21
   85578:	00898a80 	call	898a8 <__subdf3>
   8557c:	180b883a 	mov	r5,r3
   85580:	800d883a 	mov	r6,r16
   85584:	880f883a 	mov	r7,r17
   85588:	1009883a 	mov	r4,r2
   8558c:	008a0880 	call	8a088 <__gtdf2>
   85590:	00bd060e 	bge	zero,r2,849ac <_dtoa_r+0x6f0>
   85594:	00c00c04 	movi	r3,48
   85598:	d8801717 	ldw	r2,92(sp)
   8559c:	10bfffc4 	addi	r2,r2,-1
   855a0:	d8801715 	stw	r2,92(sp)
   855a4:	10800007 	ldb	r2,0(r2)
   855a8:	10fffb26 	beq	r2,r3,85598 <_dtoa_r+0x12dc>
   855ac:	d8c01717 	ldw	r3,92(sp)
   855b0:	18c00044 	addi	r3,r3,1
   855b4:	d8c01715 	stw	r3,92(sp)
   855b8:	003ce006 	br	8493c <_dtoa_r+0x680>
   855bc:	9540151e 	bne	r18,r21,85614 <_dtoa_r+0x1358>
   855c0:	d8801717 	ldw	r2,92(sp)
   855c4:	15400005 	stb	r21,0(r2)
   855c8:	10800044 	addi	r2,r2,1
   855cc:	d8801715 	stw	r2,92(sp)
   855d0:	003e8906 	br	84ff8 <_dtoa_r+0xd3c>
   855d4:	1000021e 	bne	r2,zero,855e0 <_dtoa_r+0x1324>
   855d8:	9080004c 	andi	r2,r18,1
   855dc:	103e861e 	bne	r2,zero,84ff8 <_dtoa_r+0xd3c>
   855e0:	00c00c04 	movi	r3,48
   855e4:	d8801717 	ldw	r2,92(sp)
   855e8:	10bfffc4 	addi	r2,r2,-1
   855ec:	d8801715 	stw	r2,92(sp)
   855f0:	10800007 	ldb	r2,0(r2)
   855f4:	10fffb26 	beq	r2,r3,855e4 <_dtoa_r+0x1328>
   855f8:	d8c01717 	ldw	r3,92(sp)
   855fc:	18c00044 	addi	r3,r3,1
   85600:	d8c01715 	stw	r3,92(sp)
   85604:	003cbf06 	br	84904 <_dtoa_r+0x648>
   85608:	00800044 	movi	r2,1
   8560c:	d8802315 	stw	r2,140(sp)
   85610:	003d5606 	br	84b6c <_dtoa_r+0x8b0>
   85614:	d8c01717 	ldw	r3,92(sp)
   85618:	90800044 	addi	r2,r18,1
   8561c:	18800005 	stb	r2,0(r3)
   85620:	003ff606 	br	855fc <_dtoa_r+0x1340>
   85624:	d9000617 	ldw	r4,24(sp)
   85628:	013c860e 	bge	zero,r4,84844 <_dtoa_r+0x588>
   8562c:	d8800817 	ldw	r2,32(sp)
   85630:	00bcde0e 	bge	zero,r2,849ac <_dtoa_r+0x6f0>
   85634:	0005883a 	mov	r2,zero
   85638:	00d00934 	movhi	r3,16420
   8563c:	18c00004 	addi	r3,r3,0
   85640:	980f883a 	mov	r7,r19
   85644:	180b883a 	mov	r5,r3
   85648:	900d883a 	mov	r6,r18
   8564c:	1009883a 	mov	r4,r2
   85650:	00899200 	call	89920 <__muldf3>
   85654:	180b883a 	mov	r5,r3
   85658:	d8c00917 	ldw	r3,36(sp)
   8565c:	d9000817 	ldw	r4,32(sp)
   85660:	1025883a 	mov	r18,r2
   85664:	18ffffc4 	addi	r3,r3,-1
   85668:	2827883a 	mov	r19,r5
   8566c:	b5800044 	addi	r22,r22,1
   85670:	d8c00915 	stw	r3,36(sp)
   85674:	d9000615 	stw	r4,24(sp)
   85678:	003c7206 	br	84844 <_dtoa_r+0x588>
   8567c:	103e781e 	bne	r2,zero,85060 <_dtoa_r+0xda4>
   85680:	9080004c 	andi	r2,r18,1
   85684:	103e7626 	beq	r2,zero,85060 <_dtoa_r+0xda4>
   85688:	003e7206 	br	85054 <_dtoa_r+0xd98>
   8568c:	d9401617 	ldw	r5,88(sp)
   85690:	e009883a 	mov	r4,fp
   85694:	01800284 	movi	r6,10
   85698:	000f883a 	mov	r7,zero
   8569c:	0086dcc0 	call	86dcc <_multadd>
   856a0:	d8801615 	stw	r2,88(sp)
   856a4:	003ec006 	br	851a8 <_dtoa_r+0xeec>

000856a8 <fflush>:
   856a8:	defffc04 	addi	sp,sp,-16
   856ac:	dc400115 	stw	r17,4(sp)
   856b0:	dfc00315 	stw	ra,12(sp)
   856b4:	dc000215 	stw	r16,8(sp)
   856b8:	dc800015 	stw	r18,0(sp)
   856bc:	2023883a 	mov	r17,r4
   856c0:	20002826 	beq	r4,zero,85764 <fflush+0xbc>
   856c4:	d1200117 	ldw	r4,-32764(gp)
   856c8:	20800e17 	ldw	r2,56(r4)
   856cc:	10002326 	beq	r2,zero,8575c <fflush+0xb4>
   856d0:	88c0030f 	ldh	r3,12(r17)
   856d4:	1880020c 	andi	r2,r3,8
   856d8:	10001826 	beq	r2,zero,8573c <fflush+0x94>
   856dc:	8c800417 	ldw	r18,16(r17)
   856e0:	90001626 	beq	r18,zero,8573c <fflush+0x94>
   856e4:	88800017 	ldw	r2,0(r17)
   856e8:	18c000cc 	andi	r3,r3,3
   856ec:	8c800015 	stw	r18,0(r17)
   856f0:	14a1c83a 	sub	r16,r2,r18
   856f4:	0005883a 	mov	r2,zero
   856f8:	1800011e 	bne	r3,zero,85700 <fflush+0x58>
   856fc:	88800517 	ldw	r2,20(r17)
   85700:	88800215 	stw	r2,8(r17)
   85704:	04000d0e 	bge	zero,r16,8573c <fflush+0x94>
   85708:	88c00917 	ldw	r3,36(r17)
   8570c:	89000717 	ldw	r4,28(r17)
   85710:	900b883a 	mov	r5,r18
   85714:	800d883a 	mov	r6,r16
   85718:	183ee83a 	callr	r3
   8571c:	80a1c83a 	sub	r16,r16,r2
   85720:	90a5883a 	add	r18,r18,r2
   85724:	00bff716 	blt	zero,r2,85704 <fflush+0x5c>
   85728:	8880030b 	ldhu	r2,12(r17)
   8572c:	00ffffc4 	movi	r3,-1
   85730:	10801014 	ori	r2,r2,64
   85734:	8880030d 	sth	r2,12(r17)
   85738:	00000106 	br	85740 <fflush+0x98>
   8573c:	0007883a 	mov	r3,zero
   85740:	1805883a 	mov	r2,r3
   85744:	dfc00317 	ldw	ra,12(sp)
   85748:	dc000217 	ldw	r16,8(sp)
   8574c:	dc400117 	ldw	r17,4(sp)
   85750:	dc800017 	ldw	r18,0(sp)
   85754:	dec00404 	addi	sp,sp,16
   85758:	f800283a 	ret
   8575c:	008580c0 	call	8580c <__sinit>
   85760:	003fdb06 	br	856d0 <fflush+0x28>
   85764:	d1200117 	ldw	r4,-32764(gp)
   85768:	01400234 	movhi	r5,8
   8576c:	2955aa04 	addi	r5,r5,22184
   85770:	02000234 	movhi	r8,8
   85774:	42180204 	addi	r8,r8,24584
   85778:	dfc00317 	ldw	ra,12(sp)
   8577c:	dc000217 	ldw	r16,8(sp)
   85780:	dc400117 	ldw	r17,4(sp)
   85784:	dc800017 	ldw	r18,0(sp)
   85788:	dec00404 	addi	sp,sp,16
   8578c:	4000683a 	jmp	r8

00085790 <std>:
   85790:	00800274 	movhi	r2,9
   85794:	10a0f804 	addi	r2,r2,-31776
   85798:	20800b15 	stw	r2,44(r4)
   8579c:	00800274 	movhi	r2,9
   857a0:	10a0ba04 	addi	r2,r2,-32024
   857a4:	20800915 	stw	r2,36(r4)
   857a8:	00c00274 	movhi	r3,9
   857ac:	18e09e04 	addi	r3,r3,-32136
   857b0:	00800274 	movhi	r2,9
   857b4:	10a0da04 	addi	r2,r2,-31896
   857b8:	2140030d 	sth	r5,12(r4)
   857bc:	2180038d 	sth	r6,14(r4)
   857c0:	20c00815 	stw	r3,32(r4)
   857c4:	20800a15 	stw	r2,40(r4)
   857c8:	20000015 	stw	zero,0(r4)
   857cc:	20000115 	stw	zero,4(r4)
   857d0:	20000215 	stw	zero,8(r4)
   857d4:	20000415 	stw	zero,16(r4)
   857d8:	20000515 	stw	zero,20(r4)
   857dc:	20000615 	stw	zero,24(r4)
   857e0:	21000715 	stw	r4,28(r4)
   857e4:	f800283a 	ret

000857e8 <_cleanup_r>:
   857e8:	01400234 	movhi	r5,8
   857ec:	2955aa04 	addi	r5,r5,22184
   857f0:	02000234 	movhi	r8,8
   857f4:	42180204 	addi	r8,r8,24584
   857f8:	4000683a 	jmp	r8

000857fc <_cleanup>:
   857fc:	d1200117 	ldw	r4,-32764(gp)
   85800:	02000234 	movhi	r8,8
   85804:	4215fa04 	addi	r8,r8,22504
   85808:	4000683a 	jmp	r8

0008580c <__sinit>:
   8580c:	defffc04 	addi	sp,sp,-16
   85810:	dfc00315 	stw	ra,12(sp)
   85814:	dc400215 	stw	r17,8(sp)
   85818:	dcc00115 	stw	r19,4(sp)
   8581c:	dd400015 	stw	r21,0(sp)
   85820:	2023883a 	mov	r17,r4
   85824:	21000117 	ldw	r4,4(r4)
   85828:	00800234 	movhi	r2,8
   8582c:	1095fa04 	addi	r2,r2,22504
   85830:	00c000c4 	movi	r3,3
   85834:	05400044 	movi	r21,1
   85838:	89409a04 	addi	r5,r17,616
   8583c:	88800f15 	stw	r2,60(r17)
   85840:	88c09815 	stw	r3,608(r17)
   85844:	89409915 	stw	r5,612(r17)
   85848:	880f883a 	mov	r7,r17
   8584c:	8d400e15 	stw	r21,56(r17)
   85850:	88009715 	stw	zero,604(r17)
   85854:	01400104 	movi	r5,4
   85858:	000d883a 	mov	r6,zero
   8585c:	00857900 	call	85790 <std>
   85860:	89000217 	ldw	r4,8(r17)
   85864:	04c00284 	movi	r19,10
   85868:	a80d883a 	mov	r6,r21
   8586c:	980b883a 	mov	r5,r19
   85870:	880f883a 	mov	r7,r17
   85874:	00857900 	call	85790 <std>
   85878:	89000317 	ldw	r4,12(r17)
   8587c:	980b883a 	mov	r5,r19
   85880:	880f883a 	mov	r7,r17
   85884:	01800084 	movi	r6,2
   85888:	02000234 	movhi	r8,8
   8588c:	4215e404 	addi	r8,r8,22416
   85890:	dfc00317 	ldw	ra,12(sp)
   85894:	dc400217 	ldw	r17,8(sp)
   85898:	dcc00117 	ldw	r19,4(sp)
   8589c:	dd400017 	ldw	r21,0(sp)
   858a0:	dec00404 	addi	sp,sp,16
   858a4:	4000683a 	jmp	r8

000858a8 <_malloc_trim_r>:
   858a8:	defffb04 	addi	sp,sp,-20
   858ac:	dcc00015 	stw	r19,0(sp)
   858b0:	04c00274 	movhi	r19,9
   858b4:	9cdcf304 	addi	r19,r19,29644
   858b8:	dc000315 	stw	r16,12(sp)
   858bc:	dc400215 	stw	r17,8(sp)
   858c0:	dc800115 	stw	r18,4(sp)
   858c4:	2823883a 	mov	r17,r5
   858c8:	2021883a 	mov	r16,r4
   858cc:	dfc00415 	stw	ra,16(sp)
   858d0:	008b8a00 	call	8b8a0 <__malloc_lock>
   858d4:	98800217 	ldw	r2,8(r19)
   858d8:	8009883a 	mov	r4,r16
   858dc:	000b883a 	mov	r5,zero
   858e0:	10c00117 	ldw	r3,4(r2)
   858e4:	00bfff04 	movi	r2,-4
   858e8:	18a4703a 	and	r18,r3,r2
   858ec:	9463c83a 	sub	r17,r18,r17
   858f0:	8c43fbc4 	addi	r17,r17,4079
   858f4:	8822d33a 	srli	r17,r17,12
   858f8:	00840004 	movi	r2,4096
   858fc:	8c7fffc4 	addi	r17,r17,-1
   85900:	8822933a 	slli	r17,r17,12
   85904:	88800616 	blt	r17,r2,85920 <_malloc_trim_r+0x78>
   85908:	008822c0 	call	8822c <_sbrk_r>
   8590c:	98c00217 	ldw	r3,8(r19)
   85910:	8009883a 	mov	r4,r16
   85914:	044bc83a 	sub	r5,zero,r17
   85918:	1c87883a 	add	r3,r3,r18
   8591c:	18800926 	beq	r3,r2,85944 <_malloc_trim_r+0x9c>
   85920:	008b99c0 	call	8b99c <__malloc_unlock>
   85924:	0005883a 	mov	r2,zero
   85928:	dfc00417 	ldw	ra,16(sp)
   8592c:	dc000317 	ldw	r16,12(sp)
   85930:	dc400217 	ldw	r17,8(sp)
   85934:	dc800117 	ldw	r18,4(sp)
   85938:	dcc00017 	ldw	r19,0(sp)
   8593c:	dec00504 	addi	sp,sp,20
   85940:	f800283a 	ret
   85944:	8009883a 	mov	r4,r16
   85948:	008822c0 	call	8822c <_sbrk_r>
   8594c:	944dc83a 	sub	r6,r18,r17
   85950:	00ffffc4 	movi	r3,-1
   85954:	8009883a 	mov	r4,r16
   85958:	000b883a 	mov	r5,zero
   8595c:	01c00274 	movhi	r7,9
   85960:	39dce904 	addi	r7,r7,29604
   85964:	31800054 	ori	r6,r6,1
   85968:	10c00926 	beq	r2,r3,85990 <_malloc_trim_r+0xe8>
   8596c:	38800017 	ldw	r2,0(r7)
   85970:	98c00217 	ldw	r3,8(r19)
   85974:	8009883a 	mov	r4,r16
   85978:	1445c83a 	sub	r2,r2,r17
   8597c:	38800015 	stw	r2,0(r7)
   85980:	19800115 	stw	r6,4(r3)
   85984:	008b99c0 	call	8b99c <__malloc_unlock>
   85988:	00800044 	movi	r2,1
   8598c:	003fe606 	br	85928 <_malloc_trim_r+0x80>
   85990:	008822c0 	call	8822c <_sbrk_r>
   85994:	99400217 	ldw	r5,8(r19)
   85998:	100d883a 	mov	r6,r2
   8599c:	8009883a 	mov	r4,r16
   859a0:	1165c83a 	sub	r18,r2,r5
   859a4:	008003c4 	movi	r2,15
   859a8:	90c00054 	ori	r3,r18,1
   859ac:	14bfdc0e 	bge	r2,r18,85920 <_malloc_trim_r+0x78>
   859b0:	28c00115 	stw	r3,4(r5)
   859b4:	d0e00917 	ldw	r3,-32732(gp)
   859b8:	00800274 	movhi	r2,9
   859bc:	109ce904 	addi	r2,r2,29604
   859c0:	30c7c83a 	sub	r3,r6,r3
   859c4:	10c00015 	stw	r3,0(r2)
   859c8:	003fd506 	br	85920 <_malloc_trim_r+0x78>

000859cc <_free_r>:
   859cc:	defffd04 	addi	sp,sp,-12
   859d0:	dc000115 	stw	r16,4(sp)
   859d4:	dc400015 	stw	r17,0(sp)
   859d8:	dfc00215 	stw	ra,8(sp)
   859dc:	2821883a 	mov	r16,r5
   859e0:	2023883a 	mov	r17,r4
   859e4:	28003226 	beq	r5,zero,85ab0 <_free_r+0xe4>
   859e8:	008b8a00 	call	8b8a0 <__malloc_lock>
   859ec:	82bffe04 	addi	r10,r16,-8
   859f0:	51400117 	ldw	r5,4(r10)
   859f4:	00bfff84 	movi	r2,-2
   859f8:	03000274 	movhi	r12,9
   859fc:	631cf304 	addi	r12,r12,29644
   85a00:	2892703a 	and	r9,r5,r2
   85a04:	524d883a 	add	r6,r10,r9
   85a08:	30c00117 	ldw	r3,4(r6)
   85a0c:	61000217 	ldw	r4,8(r12)
   85a10:	00bfff04 	movi	r2,-4
   85a14:	1896703a 	and	r11,r3,r2
   85a18:	21804e26 	beq	r4,r6,85b54 <_free_r+0x188>
   85a1c:	2880004c 	andi	r2,r5,1
   85a20:	32c00115 	stw	r11,4(r6)
   85a24:	000b883a 	mov	r5,zero
   85a28:	1000091e 	bne	r2,zero,85a50 <_free_r+0x84>
   85a2c:	50c00017 	ldw	r3,0(r10)
   85a30:	60800204 	addi	r2,r12,8
   85a34:	50d5c83a 	sub	r10,r10,r3
   85a38:	51000217 	ldw	r4,8(r10)
   85a3c:	48d3883a 	add	r9,r9,r3
   85a40:	20807426 	beq	r4,r2,85c14 <_free_r+0x248>
   85a44:	52000317 	ldw	r8,12(r10)
   85a48:	41000215 	stw	r4,8(r8)
   85a4c:	22000315 	stw	r8,12(r4)
   85a50:	32c7883a 	add	r3,r6,r11
   85a54:	18800117 	ldw	r2,4(r3)
   85a58:	2808c03a 	cmpne	r4,r5,zero
   85a5c:	1080004c 	andi	r2,r2,1
   85a60:	1000061e 	bne	r2,zero,85a7c <_free_r+0xb0>
   85a64:	4ad3883a 	add	r9,r9,r11
   85a68:	20001626 	beq	r4,zero,85ac4 <_free_r+0xf8>
   85a6c:	30c00217 	ldw	r3,8(r6)
   85a70:	32000317 	ldw	r8,12(r6)
   85a74:	40c00215 	stw	r3,8(r8)
   85a78:	1a000315 	stw	r8,12(r3)
   85a7c:	48800054 	ori	r2,r9,1
   85a80:	5247883a 	add	r3,r10,r9
   85a84:	50800115 	stw	r2,4(r10)
   85a88:	1a400015 	stw	r9,0(r3)
   85a8c:	20001726 	beq	r4,zero,85aec <_free_r+0x120>
   85a90:	8809883a 	mov	r4,r17
   85a94:	02000274 	movhi	r8,9
   85a98:	422e6704 	addi	r8,r8,-18020
   85a9c:	dfc00217 	ldw	ra,8(sp)
   85aa0:	dc000117 	ldw	r16,4(sp)
   85aa4:	dc400017 	ldw	r17,0(sp)
   85aa8:	dec00304 	addi	sp,sp,12
   85aac:	4000683a 	jmp	r8
   85ab0:	dfc00217 	ldw	ra,8(sp)
   85ab4:	dc000117 	ldw	r16,4(sp)
   85ab8:	dc400017 	ldw	r17,0(sp)
   85abc:	dec00304 	addi	sp,sp,12
   85ac0:	f800283a 	ret
   85ac4:	30c00217 	ldw	r3,8(r6)
   85ac8:	00800274 	movhi	r2,9
   85acc:	109cf504 	addi	r2,r2,29652
   85ad0:	18bfe71e 	bne	r3,r2,85a70 <_free_r+0xa4>
   85ad4:	1a800315 	stw	r10,12(r3)
   85ad8:	1a800215 	stw	r10,8(r3)
   85adc:	01000044 	movi	r4,1
   85ae0:	50c00215 	stw	r3,8(r10)
   85ae4:	50c00315 	stw	r3,12(r10)
   85ae8:	003fe406 	br	85a7c <_free_r+0xb0>
   85aec:	00807fc4 	movi	r2,511
   85af0:	12402b36 	bltu	r2,r9,85ba0 <_free_r+0x1d4>
   85af4:	4806d0fa 	srli	r3,r9,3
   85af8:	01800274 	movhi	r6,9
   85afc:	319cf304 	addi	r6,r6,29644
   85b00:	00800044 	movi	r2,1
   85b04:	180890fa 	slli	r4,r3,3
   85b08:	1807d0ba 	srai	r3,r3,2
   85b0c:	31400117 	ldw	r5,4(r6)
   85b10:	2191883a 	add	r8,r4,r6
   85b14:	41c00217 	ldw	r7,8(r8)
   85b18:	10c4983a 	sll	r2,r2,r3
   85b1c:	52000315 	stw	r8,12(r10)
   85b20:	51c00215 	stw	r7,8(r10)
   85b24:	288ab03a 	or	r5,r5,r2
   85b28:	3a800315 	stw	r10,12(r7)
   85b2c:	31400115 	stw	r5,4(r6)
   85b30:	42800215 	stw	r10,8(r8)
   85b34:	8809883a 	mov	r4,r17
   85b38:	02000274 	movhi	r8,9
   85b3c:	422e6704 	addi	r8,r8,-18020
   85b40:	dfc00217 	ldw	ra,8(sp)
   85b44:	dc000117 	ldw	r16,4(sp)
   85b48:	dc400017 	ldw	r17,0(sp)
   85b4c:	dec00304 	addi	sp,sp,12
   85b50:	4000683a 	jmp	r8
   85b54:	2880004c 	andi	r2,r5,1
   85b58:	4ad3883a 	add	r9,r9,r11
   85b5c:	1000071e 	bne	r2,zero,85b7c <_free_r+0x1b0>
   85b60:	50c00017 	ldw	r3,0(r10)
   85b64:	50d5c83a 	sub	r10,r10,r3
   85b68:	52000317 	ldw	r8,12(r10)
   85b6c:	51c00217 	ldw	r7,8(r10)
   85b70:	48d3883a 	add	r9,r9,r3
   85b74:	41c00215 	stw	r7,8(r8)
   85b78:	3a000315 	stw	r8,12(r7)
   85b7c:	d0a00b17 	ldw	r2,-32724(gp)
   85b80:	48c00054 	ori	r3,r9,1
   85b84:	62800215 	stw	r10,8(r12)
   85b88:	50c00115 	stw	r3,4(r10)
   85b8c:	48bfc036 	bltu	r9,r2,85a90 <_free_r+0xc4>
   85b90:	d1600a17 	ldw	r5,-32728(gp)
   85b94:	8809883a 	mov	r4,r17
   85b98:	00858a80 	call	858a8 <_malloc_trim_r>
   85b9c:	003fbc06 	br	85a90 <_free_r+0xc4>
   85ba0:	4808d27a 	srli	r4,r9,9
   85ba4:	4806d0fa 	srli	r3,r9,3
   85ba8:	2000151e 	bne	r4,zero,85c00 <_free_r+0x234>
   85bac:	180490fa 	slli	r2,r3,3
   85bb0:	01400274 	movhi	r5,9
   85bb4:	295cf304 	addi	r5,r5,29644
   85bb8:	1311883a 	add	r8,r2,r12
   85bbc:	41c00217 	ldw	r7,8(r8)
   85bc0:	3a001e26 	beq	r7,r8,85c3c <_free_r+0x270>
   85bc4:	38800117 	ldw	r2,4(r7)
   85bc8:	00ffff04 	movi	r3,-4
   85bcc:	10c4703a 	and	r2,r2,r3
   85bd0:	4880052e 	bgeu	r9,r2,85be8 <_free_r+0x21c>
   85bd4:	39c00217 	ldw	r7,8(r7)
   85bd8:	3a000326 	beq	r7,r8,85be8 <_free_r+0x21c>
   85bdc:	38800117 	ldw	r2,4(r7)
   85be0:	10c4703a 	and	r2,r2,r3
   85be4:	48bffb36 	bltu	r9,r2,85bd4 <_free_r+0x208>
   85be8:	3a000317 	ldw	r8,12(r7)
   85bec:	52000315 	stw	r8,12(r10)
   85bf0:	51c00215 	stw	r7,8(r10)
   85bf4:	3a800315 	stw	r10,12(r7)
   85bf8:	42800215 	stw	r10,8(r8)
   85bfc:	003fcd06 	br	85b34 <_free_r+0x168>
   85c00:	00800104 	movi	r2,4
   85c04:	11000536 	bltu	r2,r4,85c1c <_free_r+0x250>
   85c08:	4804d1ba 	srli	r2,r9,6
   85c0c:	10c00e04 	addi	r3,r2,56
   85c10:	003fe606 	br	85bac <_free_r+0x1e0>
   85c14:	01400044 	movi	r5,1
   85c18:	003f8d06 	br	85a50 <_free_r+0x84>
   85c1c:	00800504 	movi	r2,20
   85c20:	20c016c4 	addi	r3,r4,91
   85c24:	113fe12e 	bgeu	r2,r4,85bac <_free_r+0x1e0>
   85c28:	00801504 	movi	r2,84
   85c2c:	11000a36 	bltu	r2,r4,85c58 <_free_r+0x28c>
   85c30:	4804d33a 	srli	r2,r9,12
   85c34:	10c01b84 	addi	r3,r2,110
   85c38:	003fdc06 	br	85bac <_free_r+0x1e0>
   85c3c:	1805d0ba 	srai	r2,r3,2
   85c40:	00c00044 	movi	r3,1
   85c44:	29000117 	ldw	r4,4(r5)
   85c48:	1886983a 	sll	r3,r3,r2
   85c4c:	20c8b03a 	or	r4,r4,r3
   85c50:	29000115 	stw	r4,4(r5)
   85c54:	003fe506 	br	85bec <_free_r+0x220>
   85c58:	00805504 	movi	r2,340
   85c5c:	11000336 	bltu	r2,r4,85c6c <_free_r+0x2a0>
   85c60:	4804d3fa 	srli	r2,r9,15
   85c64:	10c01dc4 	addi	r3,r2,119
   85c68:	003fd006 	br	85bac <_free_r+0x1e0>
   85c6c:	00815504 	movi	r2,1364
   85c70:	00c01f84 	movi	r3,126
   85c74:	113fcd36 	bltu	r2,r4,85bac <_free_r+0x1e0>
   85c78:	4804d4ba 	srli	r2,r9,18
   85c7c:	10c01f04 	addi	r3,r2,124
   85c80:	003fca06 	br	85bac <_free_r+0x1e0>

00085c84 <__sfvwrite>:
   85c84:	defff704 	addi	sp,sp,-36
   85c88:	dd000315 	stw	r20,12(sp)
   85c8c:	dd400215 	stw	r21,8(sp)
   85c90:	dfc00815 	stw	ra,32(sp)
   85c94:	dc000715 	stw	r16,28(sp)
   85c98:	dc400615 	stw	r17,24(sp)
   85c9c:	dc800515 	stw	r18,20(sp)
   85ca0:	dcc00415 	stw	r19,16(sp)
   85ca4:	dd800115 	stw	r22,4(sp)
   85ca8:	ddc00015 	stw	r23,0(sp)
   85cac:	2c000217 	ldw	r16,8(r5)
   85cb0:	282b883a 	mov	r21,r5
   85cb4:	2029883a 	mov	r20,r4
   85cb8:	0007883a 	mov	r3,zero
   85cbc:	80002426 	beq	r16,zero,85d50 <__sfvwrite+0xcc>
   85cc0:	20c0030b 	ldhu	r3,12(r4)
   85cc4:	1880020c 	andi	r2,r3,8
   85cc8:	10000226 	beq	r2,zero,85cd4 <__sfvwrite+0x50>
   85ccc:	20800417 	ldw	r2,16(r4)
   85cd0:	1000041e 	bne	r2,zero,85ce4 <__sfvwrite+0x60>
   85cd4:	0083f840 	call	83f84 <__swsetup>
   85cd8:	00ffffc4 	movi	r3,-1
   85cdc:	10001c1e 	bne	r2,zero,85d50 <__sfvwrite+0xcc>
   85ce0:	a0c0030b 	ldhu	r3,12(r20)
   85ce4:	193fffcc 	andi	r4,r3,65535
   85ce8:	2080008c 	andi	r2,r4,2
   85cec:	ac800017 	ldw	r18,0(r21)
   85cf0:	0021883a 	mov	r16,zero
   85cf4:	10002226 	beq	r2,zero,85d80 <__sfvwrite+0xfc>
   85cf8:	8000041e 	bne	r16,zero,85d0c <__sfvwrite+0x88>
   85cfc:	94000117 	ldw	r16,4(r18)
   85d00:	94c00017 	ldw	r19,0(r18)
   85d04:	94800204 	addi	r18,r18,8
   85d08:	803ffc26 	beq	r16,zero,85cfc <__sfvwrite+0x78>
   85d0c:	00810004 	movi	r2,1024
   85d10:	a1000717 	ldw	r4,28(r20)
   85d14:	800d883a 	mov	r6,r16
   85d18:	1400012e 	bgeu	r2,r16,85d20 <__sfvwrite+0x9c>
   85d1c:	100d883a 	mov	r6,r2
   85d20:	a0c00917 	ldw	r3,36(r20)
   85d24:	980b883a 	mov	r5,r19
   85d28:	183ee83a 	callr	r3
   85d2c:	1023883a 	mov	r17,r2
   85d30:	00806b0e 	bge	zero,r2,85ee0 <__sfvwrite+0x25c>
   85d34:	a8800217 	ldw	r2,8(r21)
   85d38:	9c67883a 	add	r19,r19,r17
   85d3c:	8461c83a 	sub	r16,r16,r17
   85d40:	1445c83a 	sub	r2,r2,r17
   85d44:	a8800215 	stw	r2,8(r21)
   85d48:	103feb1e 	bne	r2,zero,85cf8 <__sfvwrite+0x74>
   85d4c:	0007883a 	mov	r3,zero
   85d50:	1805883a 	mov	r2,r3
   85d54:	dfc00817 	ldw	ra,32(sp)
   85d58:	dc000717 	ldw	r16,28(sp)
   85d5c:	dc400617 	ldw	r17,24(sp)
   85d60:	dc800517 	ldw	r18,20(sp)
   85d64:	dcc00417 	ldw	r19,16(sp)
   85d68:	dd000317 	ldw	r20,12(sp)
   85d6c:	dd400217 	ldw	r21,8(sp)
   85d70:	dd800117 	ldw	r22,4(sp)
   85d74:	ddc00017 	ldw	r23,0(sp)
   85d78:	dec00904 	addi	sp,sp,36
   85d7c:	f800283a 	ret
   85d80:	2080004c 	andi	r2,r4,1
   85d84:	002f883a 	mov	r23,zero
   85d88:	1000461e 	bne	r2,zero,85ea4 <__sfvwrite+0x220>
   85d8c:	8000041e 	bne	r16,zero,85da0 <__sfvwrite+0x11c>
   85d90:	94000117 	ldw	r16,4(r18)
   85d94:	94c00017 	ldw	r19,0(r18)
   85d98:	94800204 	addi	r18,r18,8
   85d9c:	803ffc26 	beq	r16,zero,85d90 <__sfvwrite+0x10c>
   85da0:	18ffffcc 	andi	r3,r3,65535
   85da4:	1880800c 	andi	r2,r3,512
   85da8:	a4400217 	ldw	r17,8(r20)
   85dac:	10006226 	beq	r2,zero,85f38 <__sfvwrite+0x2b4>
   85db0:	8c00022e 	bgeu	r17,r16,85dbc <__sfvwrite+0x138>
   85db4:	1880200c 	andi	r2,r3,128
   85db8:	10004e1e 	bne	r2,zero,85ef4 <__sfvwrite+0x270>
   85dbc:	8440012e 	bgeu	r16,r17,85dc4 <__sfvwrite+0x140>
   85dc0:	8023883a 	mov	r17,r16
   85dc4:	a1000017 	ldw	r4,0(r20)
   85dc8:	880d883a 	mov	r6,r17
   85dcc:	980b883a 	mov	r5,r19
   85dd0:	0086b540 	call	86b54 <memmove>
   85dd4:	a0c00217 	ldw	r3,8(r20)
   85dd8:	a0800017 	ldw	r2,0(r20)
   85ddc:	1c47c83a 	sub	r3,r3,r17
   85de0:	1445883a 	add	r2,r2,r17
   85de4:	8023883a 	mov	r17,r16
   85de8:	a0c00215 	stw	r3,8(r20)
   85dec:	a0800015 	stw	r2,0(r20)
   85df0:	a8800217 	ldw	r2,8(r21)
   85df4:	9c67883a 	add	r19,r19,r17
   85df8:	8461c83a 	sub	r16,r16,r17
   85dfc:	1445c83a 	sub	r2,r2,r17
   85e00:	a8800215 	stw	r2,8(r21)
   85e04:	103fd126 	beq	r2,zero,85d4c <__sfvwrite+0xc8>
   85e08:	a0c0030b 	ldhu	r3,12(r20)
   85e0c:	003fdf06 	br	85d8c <__sfvwrite+0x108>
   85e10:	b804c03a 	cmpne	r2,r23,zero
   85e14:	1000091e 	bne	r2,zero,85e3c <__sfvwrite+0x1b8>
   85e18:	9809883a 	mov	r4,r19
   85e1c:	01400284 	movi	r5,10
   85e20:	800d883a 	mov	r6,r16
   85e24:	00869cc0 	call	869cc <memchr>
   85e28:	85800044 	addi	r22,r16,1
   85e2c:	10000226 	beq	r2,zero,85e38 <__sfvwrite+0x1b4>
   85e30:	14c5c83a 	sub	r2,r2,r19
   85e34:	15800044 	addi	r22,r2,1
   85e38:	05c00044 	movi	r23,1
   85e3c:	b00b883a 	mov	r5,r22
   85e40:	8580012e 	bgeu	r16,r22,85e48 <__sfvwrite+0x1c4>
   85e44:	800b883a 	mov	r5,r16
   85e48:	a0c00217 	ldw	r3,8(r20)
   85e4c:	a1c00517 	ldw	r7,20(r20)
   85e50:	a1000017 	ldw	r4,0(r20)
   85e54:	a0800417 	ldw	r2,16(r20)
   85e58:	19e3883a 	add	r17,r3,r7
   85e5c:	1100012e 	bgeu	r2,r4,85e64 <__sfvwrite+0x1e0>
   85e60:	89401616 	blt	r17,r5,85ebc <__sfvwrite+0x238>
   85e64:	29c04c16 	blt	r5,r7,85f98 <__sfvwrite+0x314>
   85e68:	a0c00917 	ldw	r3,36(r20)
   85e6c:	a1000717 	ldw	r4,28(r20)
   85e70:	380d883a 	mov	r6,r7
   85e74:	980b883a 	mov	r5,r19
   85e78:	183ee83a 	callr	r3
   85e7c:	1023883a 	mov	r17,r2
   85e80:	0080170e 	bge	zero,r2,85ee0 <__sfvwrite+0x25c>
   85e84:	b46dc83a 	sub	r22,r22,r17
   85e88:	b0005026 	beq	r22,zero,85fcc <__sfvwrite+0x348>
   85e8c:	a8800217 	ldw	r2,8(r21)
   85e90:	9c67883a 	add	r19,r19,r17
   85e94:	8461c83a 	sub	r16,r16,r17
   85e98:	1445c83a 	sub	r2,r2,r17
   85e9c:	a8800215 	stw	r2,8(r21)
   85ea0:	103faa26 	beq	r2,zero,85d4c <__sfvwrite+0xc8>
   85ea4:	803fda1e 	bne	r16,zero,85e10 <__sfvwrite+0x18c>
   85ea8:	94000117 	ldw	r16,4(r18)
   85eac:	94c00017 	ldw	r19,0(r18)
   85eb0:	94800204 	addi	r18,r18,8
   85eb4:	803ffc26 	beq	r16,zero,85ea8 <__sfvwrite+0x224>
   85eb8:	003fd706 	br	85e18 <__sfvwrite+0x194>
   85ebc:	980b883a 	mov	r5,r19
   85ec0:	880d883a 	mov	r6,r17
   85ec4:	0086b540 	call	86b54 <memmove>
   85ec8:	a0c00017 	ldw	r3,0(r20)
   85ecc:	a009883a 	mov	r4,r20
   85ed0:	1c47883a 	add	r3,r3,r17
   85ed4:	a0c00015 	stw	r3,0(r20)
   85ed8:	00856a80 	call	856a8 <fflush>
   85edc:	103fe926 	beq	r2,zero,85e84 <__sfvwrite+0x200>
   85ee0:	a080030b 	ldhu	r2,12(r20)
   85ee4:	00ffffc4 	movi	r3,-1
   85ee8:	10801014 	ori	r2,r2,64
   85eec:	a080030d 	sth	r2,12(r20)
   85ef0:	003f9706 	br	85d50 <__sfvwrite+0xcc>
   85ef4:	a0800417 	ldw	r2,16(r20)
   85ef8:	a0c00017 	ldw	r3,0(r20)
   85efc:	d1200117 	ldw	r4,-32764(gp)
   85f00:	100b883a 	mov	r5,r2
   85f04:	18a3c83a 	sub	r17,r3,r2
   85f08:	8c2d883a 	add	r22,r17,r16
   85f0c:	b00d883a 	mov	r6,r22
   85f10:	0087c640 	call	87c64 <_realloc_r>
   85f14:	1009883a 	mov	r4,r2
   85f18:	103ff126 	beq	r2,zero,85ee0 <__sfvwrite+0x25c>
   85f1c:	1445883a 	add	r2,r2,r17
   85f20:	8023883a 	mov	r17,r16
   85f24:	a0800015 	stw	r2,0(r20)
   85f28:	a5800515 	stw	r22,20(r20)
   85f2c:	a1000415 	stw	r4,16(r20)
   85f30:	a4000215 	stw	r16,8(r20)
   85f34:	003fa106 	br	85dbc <__sfvwrite+0x138>
   85f38:	a1000017 	ldw	r4,0(r20)
   85f3c:	a0800417 	ldw	r2,16(r20)
   85f40:	1100012e 	bgeu	r2,r4,85f48 <__sfvwrite+0x2c4>
   85f44:	8c002636 	bltu	r17,r16,85fe0 <__sfvwrite+0x35c>
   85f48:	a4400517 	ldw	r17,20(r20)
   85f4c:	84400836 	bltu	r16,r17,85f70 <__sfvwrite+0x2ec>
   85f50:	a0c00917 	ldw	r3,36(r20)
   85f54:	a1000717 	ldw	r4,28(r20)
   85f58:	880d883a 	mov	r6,r17
   85f5c:	980b883a 	mov	r5,r19
   85f60:	183ee83a 	callr	r3
   85f64:	1023883a 	mov	r17,r2
   85f68:	00bfa116 	blt	zero,r2,85df0 <__sfvwrite+0x16c>
   85f6c:	003fdc06 	br	85ee0 <__sfvwrite+0x25c>
   85f70:	a1000017 	ldw	r4,0(r20)
   85f74:	980b883a 	mov	r5,r19
   85f78:	800d883a 	mov	r6,r16
   85f7c:	0086b540 	call	86b54 <memmove>
   85f80:	a0c00217 	ldw	r3,8(r20)
   85f84:	a0800017 	ldw	r2,0(r20)
   85f88:	8023883a 	mov	r17,r16
   85f8c:	1c07c83a 	sub	r3,r3,r16
   85f90:	1405883a 	add	r2,r2,r16
   85f94:	003f9406 	br	85de8 <__sfvwrite+0x164>
   85f98:	a1000017 	ldw	r4,0(r20)
   85f9c:	2823883a 	mov	r17,r5
   85fa0:	880d883a 	mov	r6,r17
   85fa4:	980b883a 	mov	r5,r19
   85fa8:	0086b540 	call	86b54 <memmove>
   85fac:	a0c00217 	ldw	r3,8(r20)
   85fb0:	a0800017 	ldw	r2,0(r20)
   85fb4:	b46dc83a 	sub	r22,r22,r17
   85fb8:	1c47c83a 	sub	r3,r3,r17
   85fbc:	1445883a 	add	r2,r2,r17
   85fc0:	a0c00215 	stw	r3,8(r20)
   85fc4:	a0800015 	stw	r2,0(r20)
   85fc8:	b03fb01e 	bne	r22,zero,85e8c <__sfvwrite+0x208>
   85fcc:	a009883a 	mov	r4,r20
   85fd0:	00856a80 	call	856a8 <fflush>
   85fd4:	103fc21e 	bne	r2,zero,85ee0 <__sfvwrite+0x25c>
   85fd8:	002f883a 	mov	r23,zero
   85fdc:	003fab06 	br	85e8c <__sfvwrite+0x208>
   85fe0:	980b883a 	mov	r5,r19
   85fe4:	880d883a 	mov	r6,r17
   85fe8:	0086b540 	call	86b54 <memmove>
   85fec:	a0c00017 	ldw	r3,0(r20)
   85ff0:	a009883a 	mov	r4,r20
   85ff4:	1c47883a 	add	r3,r3,r17
   85ff8:	a0c00015 	stw	r3,0(r20)
   85ffc:	00856a80 	call	856a8 <fflush>
   86000:	103f7b26 	beq	r2,zero,85df0 <__sfvwrite+0x16c>
   86004:	003fb606 	br	85ee0 <__sfvwrite+0x25c>

00086008 <_fwalk>:
   86008:	d0a00117 	ldw	r2,-32764(gp)
   8600c:	defffa04 	addi	sp,sp,-24
   86010:	dcc00115 	stw	r19,4(sp)
   86014:	dd000015 	stw	r20,0(sp)
   86018:	dfc00515 	stw	ra,20(sp)
   8601c:	dc000415 	stw	r16,16(sp)
   86020:	dc400315 	stw	r17,12(sp)
   86024:	dc800215 	stw	r18,8(sp)
   86028:	2829883a 	mov	r20,r5
   8602c:	0027883a 	mov	r19,zero
   86030:	20801126 	beq	r4,r2,86078 <_fwalk+0x70>
   86034:	24809704 	addi	r18,r4,604
   86038:	90000f26 	beq	r18,zero,86078 <_fwalk+0x70>
   8603c:	94400117 	ldw	r17,4(r18)
   86040:	94000217 	ldw	r16,8(r18)
   86044:	8c7fffc4 	addi	r17,r17,-1
   86048:	88000816 	blt	r17,zero,8606c <_fwalk+0x64>
   8604c:	8080030f 	ldh	r2,12(r16)
   86050:	8009883a 	mov	r4,r16
   86054:	8c7fffc4 	addi	r17,r17,-1
   86058:	84001704 	addi	r16,r16,92
   8605c:	103ffa26 	beq	r2,zero,86048 <_fwalk+0x40>
   86060:	a03ee83a 	callr	r20
   86064:	98a6b03a 	or	r19,r19,r2
   86068:	883ff80e 	bge	r17,zero,8604c <_fwalk+0x44>
   8606c:	94800017 	ldw	r18,0(r18)
   86070:	903ff21e 	bne	r18,zero,8603c <_fwalk+0x34>
   86074:	d0a00117 	ldw	r2,-32764(gp)
   86078:	14809704 	addi	r18,r2,604
   8607c:	90000e26 	beq	r18,zero,860b8 <_fwalk+0xb0>
   86080:	94400117 	ldw	r17,4(r18)
   86084:	94000217 	ldw	r16,8(r18)
   86088:	8c7fffc4 	addi	r17,r17,-1
   8608c:	88000816 	blt	r17,zero,860b0 <_fwalk+0xa8>
   86090:	8080030f 	ldh	r2,12(r16)
   86094:	8009883a 	mov	r4,r16
   86098:	8c7fffc4 	addi	r17,r17,-1
   8609c:	84001704 	addi	r16,r16,92
   860a0:	103ffa26 	beq	r2,zero,8608c <_fwalk+0x84>
   860a4:	a03ee83a 	callr	r20
   860a8:	98a6b03a 	or	r19,r19,r2
   860ac:	883ff80e 	bge	r17,zero,86090 <_fwalk+0x88>
   860b0:	94800017 	ldw	r18,0(r18)
   860b4:	903ff21e 	bne	r18,zero,86080 <_fwalk+0x78>
   860b8:	9805883a 	mov	r2,r19
   860bc:	dfc00517 	ldw	ra,20(sp)
   860c0:	dc000417 	ldw	r16,16(sp)
   860c4:	dc400317 	ldw	r17,12(sp)
   860c8:	dc800217 	ldw	r18,8(sp)
   860cc:	dcc00117 	ldw	r19,4(sp)
   860d0:	dd000017 	ldw	r20,0(sp)
   860d4:	dec00604 	addi	sp,sp,24
   860d8:	f800283a 	ret

000860dc <_setlocale_r>:
   860dc:	defffc04 	addi	sp,sp,-16
   860e0:	dc000215 	stw	r16,8(sp)
   860e4:	dc400115 	stw	r17,4(sp)
   860e8:	dc800015 	stw	r18,0(sp)
   860ec:	2023883a 	mov	r17,r4
   860f0:	2825883a 	mov	r18,r5
   860f4:	dfc00315 	stw	ra,12(sp)
   860f8:	3021883a 	mov	r16,r6
   860fc:	3009883a 	mov	r4,r6
   86100:	01400274 	movhi	r5,9
   86104:	295a8404 	addi	r5,r5,27152
   86108:	30000726 	beq	r6,zero,86128 <_setlocale_r+0x4c>
   8610c:	00883f40 	call	883f4 <strcmp>
   86110:	8009883a 	mov	r4,r16
   86114:	01400274 	movhi	r5,9
   86118:	295af604 	addi	r5,r5,27608
   8611c:	10000b1e 	bne	r2,zero,8614c <_setlocale_r+0x70>
   86120:	8c000d15 	stw	r16,52(r17)
   86124:	8c800c15 	stw	r18,48(r17)
   86128:	00c00274 	movhi	r3,9
   8612c:	18da8404 	addi	r3,r3,27152
   86130:	1805883a 	mov	r2,r3
   86134:	dfc00317 	ldw	ra,12(sp)
   86138:	dc000217 	ldw	r16,8(sp)
   8613c:	dc400117 	ldw	r17,4(sp)
   86140:	dc800017 	ldw	r18,0(sp)
   86144:	dec00404 	addi	sp,sp,16
   86148:	f800283a 	ret
   8614c:	00883f40 	call	883f4 <strcmp>
   86150:	0007883a 	mov	r3,zero
   86154:	103ff61e 	bne	r2,zero,86130 <_setlocale_r+0x54>
   86158:	8c000d15 	stw	r16,52(r17)
   8615c:	8c800c15 	stw	r18,48(r17)
   86160:	003ff106 	br	86128 <_setlocale_r+0x4c>

00086164 <__locale_charset>:
   86164:	d0a00617 	ldw	r2,-32744(gp)
   86168:	f800283a 	ret

0008616c <_localeconv_r>:
   8616c:	00800274 	movhi	r2,9
   86170:	109b1104 	addi	r2,r2,27716
   86174:	f800283a 	ret

00086178 <setlocale>:
   86178:	2007883a 	mov	r3,r4
   8617c:	d1200117 	ldw	r4,-32764(gp)
   86180:	280d883a 	mov	r6,r5
   86184:	02000234 	movhi	r8,8
   86188:	42183704 	addi	r8,r8,24796
   8618c:	180b883a 	mov	r5,r3
   86190:	4000683a 	jmp	r8

00086194 <localeconv>:
   86194:	d1200117 	ldw	r4,-32764(gp)
   86198:	02000234 	movhi	r8,8
   8619c:	42185b04 	addi	r8,r8,24940
   861a0:	4000683a 	jmp	r8

000861a4 <__smakebuf>:
   861a4:	deffee04 	addi	sp,sp,-72
   861a8:	dc001015 	stw	r16,64(sp)
   861ac:	dfc01115 	stw	ra,68(sp)
   861b0:	dc400f15 	stw	r17,60(sp)
   861b4:	20c0030b 	ldhu	r3,12(r4)
   861b8:	2021883a 	mov	r16,r4
   861bc:	1880008c 	andi	r2,r3,2
   861c0:	10000a26 	beq	r2,zero,861ec <__smakebuf+0x48>
   861c4:	20c010c4 	addi	r3,r4,67
   861c8:	00800044 	movi	r2,1
   861cc:	20800515 	stw	r2,20(r4)
   861d0:	20c00415 	stw	r3,16(r4)
   861d4:	20c00015 	stw	r3,0(r4)
   861d8:	dfc01117 	ldw	ra,68(sp)
   861dc:	dc001017 	ldw	r16,64(sp)
   861e0:	dc400f17 	ldw	r17,60(sp)
   861e4:	dec01204 	addi	sp,sp,72
   861e8:	f800283a 	ret
   861ec:	2140038f 	ldh	r5,14(r4)
   861f0:	28001f16 	blt	r5,zero,86270 <__smakebuf+0xcc>
   861f4:	d1200117 	ldw	r4,-32764(gp)
   861f8:	d80d883a 	mov	r6,sp
   861fc:	008868c0 	call	8868c <_fstat_r>
   86200:	10001a16 	blt	r2,zero,8626c <__smakebuf+0xc8>
   86204:	d8800117 	ldw	r2,4(sp)
   86208:	00e00014 	movui	r3,32768
   8620c:	04410004 	movi	r17,1024
   86210:	10bc000c 	andi	r2,r2,61440
   86214:	11080020 	cmpeqi	r4,r2,8192
   86218:	10c02c26 	beq	r2,r3,862cc <__smakebuf+0x128>
   8621c:	8080030b 	ldhu	r2,12(r16)
   86220:	10820014 	ori	r2,r2,2048
   86224:	8080030d 	sth	r2,12(r16)
   86228:	20001426 	beq	r4,zero,8627c <__smakebuf+0xd8>
   8622c:	8100038f 	ldh	r4,14(r16)
   86230:	008ad440 	call	8ad44 <isatty>
   86234:	10001126 	beq	r2,zero,8627c <__smakebuf+0xd8>
   86238:	8080030b 	ldhu	r2,12(r16)
   8623c:	810010c4 	addi	r4,r16,67
   86240:	00c00044 	movi	r3,1
   86244:	10800094 	ori	r2,r2,2
   86248:	80c00515 	stw	r3,20(r16)
   8624c:	8080030d 	sth	r2,12(r16)
   86250:	81000415 	stw	r4,16(r16)
   86254:	81000015 	stw	r4,0(r16)
   86258:	dfc01117 	ldw	ra,68(sp)
   8625c:	dc001017 	ldw	r16,64(sp)
   86260:	dc400f17 	ldw	r17,60(sp)
   86264:	dec01204 	addi	sp,sp,72
   86268:	f800283a 	ret
   8626c:	80c0030b 	ldhu	r3,12(r16)
   86270:	18820014 	ori	r2,r3,2048
   86274:	04410004 	movi	r17,1024
   86278:	8080030d 	sth	r2,12(r16)
   8627c:	d1200117 	ldw	r4,-32764(gp)
   86280:	01410004 	movi	r5,1024
   86284:	00863140 	call	86314 <_malloc_r>
   86288:	100b883a 	mov	r5,r2
   8628c:	103fea26 	beq	r2,zero,86238 <__smakebuf+0x94>
   86290:	8080030b 	ldhu	r2,12(r16)
   86294:	d0e00117 	ldw	r3,-32764(gp)
   86298:	01000234 	movhi	r4,8
   8629c:	2115fa04 	addi	r4,r4,22504
   862a0:	10802014 	ori	r2,r2,128
   862a4:	19000f15 	stw	r4,60(r3)
   862a8:	84400515 	stw	r17,20(r16)
   862ac:	8080030d 	sth	r2,12(r16)
   862b0:	81400415 	stw	r5,16(r16)
   862b4:	81400015 	stw	r5,0(r16)
   862b8:	dfc01117 	ldw	ra,68(sp)
   862bc:	dc001017 	ldw	r16,64(sp)
   862c0:	dc400f17 	ldw	r17,60(sp)
   862c4:	dec01204 	addi	sp,sp,72
   862c8:	f800283a 	ret
   862cc:	80c00a17 	ldw	r3,40(r16)
   862d0:	00800274 	movhi	r2,9
   862d4:	10a0da04 	addi	r2,r2,-31896
   862d8:	18bfd01e 	bne	r3,r2,8621c <__smakebuf+0x78>
   862dc:	8080030b 	ldhu	r2,12(r16)
   862e0:	84401315 	stw	r17,76(r16)
   862e4:	1444b03a 	or	r2,r2,r17
   862e8:	003fce06 	br	86224 <__smakebuf+0x80>

000862ec <malloc>:
   862ec:	200b883a 	mov	r5,r4
   862f0:	d1200117 	ldw	r4,-32764(gp)
   862f4:	02000234 	movhi	r8,8
   862f8:	4218c504 	addi	r8,r8,25364
   862fc:	4000683a 	jmp	r8

00086300 <free>:
   86300:	200b883a 	mov	r5,r4
   86304:	d1200117 	ldw	r4,-32764(gp)
   86308:	02000234 	movhi	r8,8
   8630c:	42167304 	addi	r8,r8,22988
   86310:	4000683a 	jmp	r8

00086314 <_malloc_r>:
   86314:	defff504 	addi	sp,sp,-44
   86318:	28c002c4 	addi	r3,r5,11
   8631c:	00800584 	movi	r2,22
   86320:	dc400715 	stw	r17,28(sp)
   86324:	dc800615 	stw	r18,24(sp)
   86328:	dfc00a15 	stw	ra,40(sp)
   8632c:	df000915 	stw	fp,36(sp)
   86330:	dc000815 	stw	r16,32(sp)
   86334:	dcc00515 	stw	r19,20(sp)
   86338:	dd000415 	stw	r20,16(sp)
   8633c:	dd400315 	stw	r21,12(sp)
   86340:	dd800215 	stw	r22,8(sp)
   86344:	ddc00115 	stw	r23,4(sp)
   86348:	2025883a 	mov	r18,r4
   8634c:	04400404 	movi	r17,16
   86350:	10c0032e 	bgeu	r2,r3,86360 <_malloc_r+0x4c>
   86354:	00bffe04 	movi	r2,-8
   86358:	18a2703a 	and	r17,r3,r2
   8635c:	88000116 	blt	r17,zero,86364 <_malloc_r+0x50>
   86360:	89400d2e 	bgeu	r17,r5,86398 <_malloc_r+0x84>
   86364:	0005883a 	mov	r2,zero
   86368:	dfc00a17 	ldw	ra,40(sp)
   8636c:	df000917 	ldw	fp,36(sp)
   86370:	dc000817 	ldw	r16,32(sp)
   86374:	dc400717 	ldw	r17,28(sp)
   86378:	dc800617 	ldw	r18,24(sp)
   8637c:	dcc00517 	ldw	r19,20(sp)
   86380:	dd000417 	ldw	r20,16(sp)
   86384:	dd400317 	ldw	r21,12(sp)
   86388:	dd800217 	ldw	r22,8(sp)
   8638c:	ddc00117 	ldw	r23,4(sp)
   86390:	dec00b04 	addi	sp,sp,44
   86394:	f800283a 	ret
   86398:	9009883a 	mov	r4,r18
   8639c:	008b8a00 	call	8b8a0 <__malloc_lock>
   863a0:	00807dc4 	movi	r2,503
   863a4:	14401536 	bltu	r2,r17,863fc <_malloc_r+0xe8>
   863a8:	03400274 	movhi	r13,9
   863ac:	6b5cf304 	addi	r13,r13,29644
   863b0:	8b4d883a 	add	r6,r17,r13
   863b4:	34000317 	ldw	r16,12(r6)
   863b8:	8812d0fa 	srli	r9,r17,3
   863bc:	81803e26 	beq	r16,r6,864b8 <_malloc_r+0x1a4>
   863c0:	80c00117 	ldw	r3,4(r16)
   863c4:	00bfff04 	movi	r2,-4
   863c8:	82000317 	ldw	r8,12(r16)
   863cc:	1886703a 	and	r3,r3,r2
   863d0:	80cb883a 	add	r5,r16,r3
   863d4:	28800117 	ldw	r2,4(r5)
   863d8:	81c00217 	ldw	r7,8(r16)
   863dc:	9009883a 	mov	r4,r18
   863e0:	10800054 	ori	r2,r2,1
   863e4:	41c00215 	stw	r7,8(r8)
   863e8:	28800115 	stw	r2,4(r5)
   863ec:	3a000315 	stw	r8,12(r7)
   863f0:	008b99c0 	call	8b99c <__malloc_unlock>
   863f4:	80800204 	addi	r2,r16,8
   863f8:	003fdb06 	br	86368 <_malloc_r+0x54>
   863fc:	8806d27a 	srli	r3,r17,9
   86400:	8812d0fa 	srli	r9,r17,3
   86404:	18000926 	beq	r3,zero,8642c <_malloc_r+0x118>
   86408:	00800104 	movi	r2,4
   8640c:	10c02f2e 	bgeu	r2,r3,864cc <_malloc_r+0x1b8>
   86410:	00800504 	movi	r2,20
   86414:	1a4016c4 	addi	r9,r3,91
   86418:	10c0042e 	bgeu	r2,r3,8642c <_malloc_r+0x118>
   8641c:	00801504 	movi	r2,84
   86420:	10c11536 	bltu	r2,r3,86878 <_malloc_r+0x564>
   86424:	8804d33a 	srli	r2,r17,12
   86428:	12401b84 	addi	r9,r2,110
   8642c:	480490fa 	slli	r2,r9,3
   86430:	03400274 	movhi	r13,9
   86434:	6b5cf304 	addi	r13,r13,29644
   86438:	134b883a 	add	r5,r2,r13
   8643c:	2c000317 	ldw	r16,12(r5)
   86440:	81400926 	beq	r16,r5,86468 <_malloc_r+0x154>
   86444:	01ffff04 	movi	r7,-4
   86448:	018003c4 	movi	r6,15
   8644c:	80800117 	ldw	r2,4(r16)
   86450:	11c6703a 	and	r3,r2,r7
   86454:	1c49c83a 	sub	r4,r3,r17
   86458:	3100aa16 	blt	r6,r4,86704 <_malloc_r+0x3f0>
   8645c:	2000690e 	bge	r4,zero,86604 <_malloc_r+0x2f0>
   86460:	84000317 	ldw	r16,12(r16)
   86464:	817ff91e 	bne	r16,r5,8644c <_malloc_r+0x138>
   86468:	4a400044 	addi	r9,r9,1
   8646c:	03000274 	movhi	r12,9
   86470:	631cf504 	addi	r12,r12,29652
   86474:	64000217 	ldw	r16,8(r12)
   86478:	83002826 	beq	r16,r12,8651c <_malloc_r+0x208>
   8647c:	80800117 	ldw	r2,4(r16)
   86480:	00ffff04 	movi	r3,-4
   86484:	10c6703a 	and	r3,r2,r3
   86488:	1c49c83a 	sub	r4,r3,r17
   8648c:	008003c4 	movi	r2,15
   86490:	11006616 	blt	r2,r4,8662c <_malloc_r+0x318>
   86494:	63000315 	stw	r12,12(r12)
   86498:	63000215 	stw	r12,8(r12)
   8649c:	20000e16 	blt	r4,zero,864d8 <_malloc_r+0x1c4>
   864a0:	80c7883a 	add	r3,r16,r3
   864a4:	18800117 	ldw	r2,4(r3)
   864a8:	9009883a 	mov	r4,r18
   864ac:	10800054 	ori	r2,r2,1
   864b0:	18800115 	stw	r2,4(r3)
   864b4:	003fce06 	br	863f0 <_malloc_r+0xdc>
   864b8:	81800204 	addi	r6,r16,8
   864bc:	34000317 	ldw	r16,12(r6)
   864c0:	81bfbf1e 	bne	r16,r6,863c0 <_malloc_r+0xac>
   864c4:	4a400084 	addi	r9,r9,2
   864c8:	003fe806 	br	8646c <_malloc_r+0x158>
   864cc:	8804d1ba 	srli	r2,r17,6
   864d0:	12400e04 	addi	r9,r2,56
   864d4:	003fd506 	br	8642c <_malloc_r+0x118>
   864d8:	00807fc4 	movi	r2,511
   864dc:	10c09436 	bltu	r2,r3,86730 <_malloc_r+0x41c>
   864e0:	1808d0fa 	srli	r4,r3,3
   864e4:	61bffe04 	addi	r6,r12,-8
   864e8:	00800044 	movi	r2,1
   864ec:	200a90fa 	slli	r5,r4,3
   864f0:	2007d0ba 	srai	r3,r4,2
   864f4:	31000117 	ldw	r4,4(r6)
   864f8:	2991883a 	add	r8,r5,r6
   864fc:	41c00217 	ldw	r7,8(r8)
   86500:	10c4983a 	sll	r2,r2,r3
   86504:	82000315 	stw	r8,12(r16)
   86508:	81c00215 	stw	r7,8(r16)
   8650c:	2088b03a 	or	r4,r4,r2
   86510:	3c000315 	stw	r16,12(r7)
   86514:	31000115 	stw	r4,4(r6)
   86518:	44000215 	stw	r16,8(r8)
   8651c:	4807883a 	mov	r3,r9
   86520:	4800a616 	blt	r9,zero,867bc <_malloc_r+0x4a8>
   86524:	1807d0ba 	srai	r3,r3,2
   86528:	03400274 	movhi	r13,9
   8652c:	6b5cf304 	addi	r13,r13,29644
   86530:	00800044 	movi	r2,1
   86534:	10ce983a 	sll	r7,r2,r3
   86538:	69000117 	ldw	r4,4(r13)
   8653c:	21c04836 	bltu	r4,r7,86660 <_malloc_r+0x34c>
   86540:	21c4703a 	and	r2,r4,r7
   86544:	10000a1e 	bne	r2,zero,86570 <_malloc_r+0x25c>
   86548:	39cf883a 	add	r7,r7,r7
   8654c:	00bfff04 	movi	r2,-4
   86550:	4884703a 	and	r2,r9,r2
   86554:	21c6703a 	and	r3,r4,r7
   86558:	12400104 	addi	r9,r2,4
   8655c:	1800041e 	bne	r3,zero,86570 <_malloc_r+0x25c>
   86560:	39cf883a 	add	r7,r7,r7
   86564:	4a400104 	addi	r9,r9,4
   86568:	21c4703a 	and	r2,r4,r7
   8656c:	103ffc26 	beq	r2,zero,86560 <_malloc_r+0x24c>
   86570:	480490fa 	slli	r2,r9,3
   86574:	4817883a 	mov	r11,r9
   86578:	134d883a 	add	r6,r2,r13
   8657c:	300b883a 	mov	r5,r6
   86580:	2c000317 	ldw	r16,12(r5)
   86584:	81400926 	beq	r16,r5,865ac <_malloc_r+0x298>
   86588:	02bfff04 	movi	r10,-4
   8658c:	020003c4 	movi	r8,15
   86590:	80800117 	ldw	r2,4(r16)
   86594:	1286703a 	and	r3,r2,r10
   86598:	1c49c83a 	sub	r4,r3,r17
   8659c:	41008016 	blt	r8,r4,867a0 <_malloc_r+0x48c>
   865a0:	2000180e 	bge	r4,zero,86604 <_malloc_r+0x2f0>
   865a4:	84000317 	ldw	r16,12(r16)
   865a8:	817ff91e 	bne	r16,r5,86590 <_malloc_r+0x27c>
   865ac:	4a400044 	addi	r9,r9,1
   865b0:	488000cc 	andi	r2,r9,3
   865b4:	29400204 	addi	r5,r5,8
   865b8:	103ff11e 	bne	r2,zero,86580 <_malloc_r+0x26c>
   865bc:	588000cc 	andi	r2,r11,3
   865c0:	31bffe04 	addi	r6,r6,-8
   865c4:	5affffc4 	addi	r11,r11,-1
   865c8:	1000e526 	beq	r2,zero,86960 <_malloc_r+0x64c>
   865cc:	30800217 	ldw	r2,8(r6)
   865d0:	11bffa26 	beq	r2,r6,865bc <_malloc_r+0x2a8>
   865d4:	03400274 	movhi	r13,9
   865d8:	6b5cf304 	addi	r13,r13,29644
   865dc:	39cf883a 	add	r7,r7,r7
   865e0:	68c00117 	ldw	r3,4(r13)
   865e4:	19c01e36 	bltu	r3,r7,86660 <_malloc_r+0x34c>
   865e8:	3800031e 	bne	r7,zero,865f8 <_malloc_r+0x2e4>
   865ec:	00001c06 	br	86660 <_malloc_r+0x34c>
   865f0:	39cf883a 	add	r7,r7,r7
   865f4:	4a400104 	addi	r9,r9,4
   865f8:	19c4703a 	and	r2,r3,r7
   865fc:	103ffc26 	beq	r2,zero,865f0 <_malloc_r+0x2dc>
   86600:	003fdb06 	br	86570 <_malloc_r+0x25c>
   86604:	80c7883a 	add	r3,r16,r3
   86608:	18800117 	ldw	r2,4(r3)
   8660c:	82000317 	ldw	r8,12(r16)
   86610:	81c00217 	ldw	r7,8(r16)
   86614:	10800054 	ori	r2,r2,1
   86618:	9009883a 	mov	r4,r18
   8661c:	18800115 	stw	r2,4(r3)
   86620:	41c00215 	stw	r7,8(r8)
   86624:	3a000315 	stw	r8,12(r7)
   86628:	003f7106 	br	863f0 <_malloc_r+0xdc>
   8662c:	88800054 	ori	r2,r17,1
   86630:	844b883a 	add	r5,r16,r17
   86634:	80800115 	stw	r2,4(r16)
   86638:	2905883a 	add	r2,r5,r4
   8663c:	20c00054 	ori	r3,r4,1
   86640:	61400315 	stw	r5,12(r12)
   86644:	61400215 	stw	r5,8(r12)
   86648:	11000015 	stw	r4,0(r2)
   8664c:	9009883a 	mov	r4,r18
   86650:	2b000215 	stw	r12,8(r5)
   86654:	28c00115 	stw	r3,4(r5)
   86658:	2b000315 	stw	r12,12(r5)
   8665c:	003f6406 	br	863f0 <_malloc_r+0xdc>
   86660:	6d400217 	ldw	r21,8(r13)
   86664:	00bfff04 	movi	r2,-4
   86668:	a8c00117 	ldw	r3,4(r21)
   8666c:	18ac703a 	and	r22,r3,r2
   86670:	b449c83a 	sub	r4,r22,r17
   86674:	b4400236 	bltu	r22,r17,86680 <_malloc_r+0x36c>
   86678:	008003c4 	movi	r2,15
   8667c:	11002316 	blt	r2,r4,8670c <_malloc_r+0x3f8>
   86680:	d0a00a17 	ldw	r2,-32728(gp)
   86684:	073fffc4 	movi	fp,-1
   86688:	b02f883a 	mov	r23,r22
   8668c:	8887883a 	add	r3,r17,r2
   86690:	d0a00917 	ldw	r2,-32732(gp)
   86694:	ada7883a 	add	r19,r21,r22
   86698:	1d000404 	addi	r20,r3,16
   8669c:	17000326 	beq	r2,fp,866ac <_malloc_r+0x398>
   866a0:	18c403c4 	addi	r3,r3,4111
   866a4:	00bc0004 	movi	r2,-4096
   866a8:	18a8703a 	and	r20,r3,r2
   866ac:	9009883a 	mov	r4,r18
   866b0:	a00b883a 	mov	r5,r20
   866b4:	db400015 	stw	r13,0(sp)
   866b8:	008822c0 	call	8822c <_sbrk_r>
   866bc:	1021883a 	mov	r16,r2
   866c0:	db400017 	ldw	r13,0(sp)
   866c4:	17000426 	beq	r2,fp,866d8 <_malloc_r+0x3c4>
   866c8:	14c03e2e 	bgeu	r2,r19,867c4 <_malloc_r+0x4b0>
   866cc:	00800274 	movhi	r2,9
   866d0:	109cf304 	addi	r2,r2,29644
   866d4:	a8803b26 	beq	r21,r2,867c4 <_malloc_r+0x4b0>
   866d8:	68800217 	ldw	r2,8(r13)
   866dc:	013fff04 	movi	r4,-4
   866e0:	10c00117 	ldw	r3,4(r2)
   866e4:	1906703a 	and	r3,r3,r4
   866e8:	1c49c83a 	sub	r4,r3,r17
   866ec:	1c400236 	bltu	r3,r17,866f8 <_malloc_r+0x3e4>
   866f0:	008003c4 	movi	r2,15
   866f4:	11000516 	blt	r2,r4,8670c <_malloc_r+0x3f8>
   866f8:	9009883a 	mov	r4,r18
   866fc:	008b99c0 	call	8b99c <__malloc_unlock>
   86700:	003f1806 	br	86364 <_malloc_r+0x50>
   86704:	4a7fffc4 	addi	r9,r9,-1
   86708:	003f5706 	br	86468 <_malloc_r+0x154>
   8670c:	6c000217 	ldw	r16,8(r13)
   86710:	88800054 	ori	r2,r17,1
   86714:	21000054 	ori	r4,r4,1
   86718:	8447883a 	add	r3,r16,r17
   8671c:	80800115 	stw	r2,4(r16)
   86720:	19000115 	stw	r4,4(r3)
   86724:	9009883a 	mov	r4,r18
   86728:	68c00215 	stw	r3,8(r13)
   8672c:	003f3006 	br	863f0 <_malloc_r+0xdc>
   86730:	180ad27a 	srli	r5,r3,9
   86734:	1808d0fa 	srli	r4,r3,3
   86738:	28000426 	beq	r5,zero,8674c <_malloc_r+0x438>
   8673c:	00800104 	movi	r2,4
   86740:	11405836 	bltu	r2,r5,868a4 <_malloc_r+0x590>
   86744:	1804d1ba 	srli	r2,r3,6
   86748:	11000e04 	addi	r4,r2,56
   8674c:	200490fa 	slli	r2,r4,3
   86750:	01400274 	movhi	r5,9
   86754:	295cf304 	addi	r5,r5,29644
   86758:	1351883a 	add	r8,r2,r13
   8675c:	41c00217 	ldw	r7,8(r8)
   86760:	3a006d26 	beq	r7,r8,86918 <_malloc_r+0x604>
   86764:	38800117 	ldw	r2,4(r7)
   86768:	013fff04 	movi	r4,-4
   8676c:	1104703a 	and	r2,r2,r4
   86770:	1880052e 	bgeu	r3,r2,86788 <_malloc_r+0x474>
   86774:	39c00217 	ldw	r7,8(r7)
   86778:	3a000326 	beq	r7,r8,86788 <_malloc_r+0x474>
   8677c:	38800117 	ldw	r2,4(r7)
   86780:	1104703a 	and	r2,r2,r4
   86784:	18bffb36 	bltu	r3,r2,86774 <_malloc_r+0x460>
   86788:	3a000317 	ldw	r8,12(r7)
   8678c:	82000315 	stw	r8,12(r16)
   86790:	81c00215 	stw	r7,8(r16)
   86794:	3c000315 	stw	r16,12(r7)
   86798:	44000215 	stw	r16,8(r8)
   8679c:	003f5f06 	br	8651c <_malloc_r+0x208>
   867a0:	82000317 	ldw	r8,12(r16)
   867a4:	81c00217 	ldw	r7,8(r16)
   867a8:	88800054 	ori	r2,r17,1
   867ac:	844b883a 	add	r5,r16,r17
   867b0:	41c00215 	stw	r7,8(r8)
   867b4:	3a000315 	stw	r8,12(r7)
   867b8:	003f9e06 	br	86634 <_malloc_r+0x320>
   867bc:	48c000c4 	addi	r3,r9,3
   867c0:	003f5806 	br	86524 <_malloc_r+0x210>
   867c4:	07000274 	movhi	fp,9
   867c8:	e71ce904 	addi	fp,fp,29604
   867cc:	e0800017 	ldw	r2,0(fp)
   867d0:	1505883a 	add	r2,r2,r20
   867d4:	e0800015 	stw	r2,0(fp)
   867d8:	84c05826 	beq	r16,r19,8693c <_malloc_r+0x628>
   867dc:	d0e00917 	ldw	r3,-32732(gp)
   867e0:	00bfffc4 	movi	r2,-1
   867e4:	18805326 	beq	r3,r2,86934 <_malloc_r+0x620>
   867e8:	e0800017 	ldw	r2,0(fp)
   867ec:	84c7c83a 	sub	r3,r16,r19
   867f0:	10c5883a 	add	r2,r2,r3
   867f4:	e0800015 	stw	r2,0(fp)
   867f8:	80c001cc 	andi	r3,r16,7
   867fc:	0027883a 	mov	r19,zero
   86800:	18000326 	beq	r3,zero,86810 <_malloc_r+0x4fc>
   86804:	00800204 	movi	r2,8
   86808:	10e7c83a 	sub	r19,r2,r3
   8680c:	84e1883a 	add	r16,r16,r19
   86810:	8505883a 	add	r2,r16,r20
   86814:	1083ffcc 	andi	r2,r2,4095
   86818:	00c40004 	movi	r3,4096
   8681c:	1887c83a 	sub	r3,r3,r2
   86820:	98e7883a 	add	r19,r19,r3
   86824:	9009883a 	mov	r4,r18
   86828:	980b883a 	mov	r5,r19
   8682c:	db400015 	stw	r13,0(sp)
   86830:	008822c0 	call	8822c <_sbrk_r>
   86834:	1007883a 	mov	r3,r2
   86838:	00bfffc4 	movi	r2,-1
   8683c:	db400017 	ldw	r13,0(sp)
   86840:	18804e26 	beq	r3,r2,8697c <_malloc_r+0x668>
   86844:	e0800017 	ldw	r2,0(fp)
   86848:	1c07c83a 	sub	r3,r3,r16
   8684c:	1cc9883a 	add	r4,r3,r19
   86850:	14c5883a 	add	r2,r2,r19
   86854:	e0800015 	stw	r2,0(fp)
   86858:	6c000215 	stw	r16,8(r13)
   8685c:	20800054 	ori	r2,r4,1
   86860:	ab404426 	beq	r21,r13,86974 <_malloc_r+0x660>
   86864:	014003c4 	movi	r5,15
   86868:	2d801636 	bltu	r5,r22,868c4 <_malloc_r+0x5b0>
   8686c:	00800044 	movi	r2,1
   86870:	80800115 	stw	r2,4(r16)
   86874:	003f9806 	br	866d8 <_malloc_r+0x3c4>
   86878:	00805504 	movi	r2,340
   8687c:	10c00336 	bltu	r2,r3,8688c <_malloc_r+0x578>
   86880:	8804d3fa 	srli	r2,r17,15
   86884:	12401dc4 	addi	r9,r2,119
   86888:	003ee806 	br	8642c <_malloc_r+0x118>
   8688c:	00815504 	movi	r2,1364
   86890:	02401f84 	movi	r9,126
   86894:	10fee536 	bltu	r2,r3,8642c <_malloc_r+0x118>
   86898:	8804d4ba 	srli	r2,r17,18
   8689c:	12401f04 	addi	r9,r2,124
   868a0:	003ee206 	br	8642c <_malloc_r+0x118>
   868a4:	00800504 	movi	r2,20
   868a8:	290016c4 	addi	r4,r5,91
   868ac:	117fa72e 	bgeu	r2,r5,8674c <_malloc_r+0x438>
   868b0:	00801504 	movi	r2,84
   868b4:	11403a36 	bltu	r2,r5,869a0 <_malloc_r+0x68c>
   868b8:	1804d33a 	srli	r2,r3,12
   868bc:	11001b84 	addi	r4,r2,110
   868c0:	003fa206 	br	8674c <_malloc_r+0x438>
   868c4:	80800115 	stw	r2,4(r16)
   868c8:	a8800117 	ldw	r2,4(r21)
   868cc:	00fffe04 	movi	r3,-8
   868d0:	b13ffd04 	addi	r4,r22,-12
   868d4:	20ee703a 	and	r23,r4,r3
   868d8:	1080004c 	andi	r2,r2,1
   868dc:	15c4b03a 	or	r2,r2,r23
   868e0:	a8800115 	stw	r2,4(r21)
   868e4:	adc7883a 	add	r3,r21,r23
   868e8:	00800144 	movi	r2,5
   868ec:	18800215 	stw	r2,8(r3)
   868f0:	18800115 	stw	r2,4(r3)
   868f4:	2dc02436 	bltu	r5,r23,86988 <_malloc_r+0x674>
   868f8:	e0c00017 	ldw	r3,0(fp)
   868fc:	d0a00817 	ldw	r2,-32736(gp)
   86900:	10c0012e 	bgeu	r2,r3,86908 <_malloc_r+0x5f4>
   86904:	d0e00815 	stw	r3,-32736(gp)
   86908:	d0a00717 	ldw	r2,-32740(gp)
   8690c:	10ff722e 	bgeu	r2,r3,866d8 <_malloc_r+0x3c4>
   86910:	d0e00715 	stw	r3,-32740(gp)
   86914:	003f7006 	br	866d8 <_malloc_r+0x3c4>
   86918:	2005d0ba 	srai	r2,r4,2
   8691c:	00c00044 	movi	r3,1
   86920:	29000117 	ldw	r4,4(r5)
   86924:	1886983a 	sll	r3,r3,r2
   86928:	20c8b03a 	or	r4,r4,r3
   8692c:	29000115 	stw	r4,4(r5)
   86930:	003f9606 	br	8678c <_malloc_r+0x478>
   86934:	d4200915 	stw	r16,-32732(gp)
   86938:	003faf06 	br	867f8 <_malloc_r+0x4e4>
   8693c:	8083ffcc 	andi	r2,r16,4095
   86940:	103fa61e 	bne	r2,zero,867dc <_malloc_r+0x4c8>
   86944:	00800274 	movhi	r2,9
   86948:	109cf304 	addi	r2,r2,29644
   8694c:	10c00217 	ldw	r3,8(r2)
   86950:	a5c9883a 	add	r4,r20,r23
   86954:	20800054 	ori	r2,r4,1
   86958:	18800115 	stw	r2,4(r3)
   8695c:	003fe606 	br	868f8 <_malloc_r+0x5e4>
   86960:	68800117 	ldw	r2,4(r13)
   86964:	01c6303a 	nor	r3,zero,r7
   86968:	10c4703a 	and	r2,r2,r3
   8696c:	68800115 	stw	r2,4(r13)
   86970:	003f1806 	br	865d4 <_malloc_r+0x2c0>
   86974:	80800115 	stw	r2,4(r16)
   86978:	003fdf06 	br	868f8 <_malloc_r+0x5e4>
   8697c:	0027883a 	mov	r19,zero
   86980:	8007883a 	mov	r3,r16
   86984:	003faf06 	br	86844 <_malloc_r+0x530>
   86988:	a9400204 	addi	r5,r21,8
   8698c:	9009883a 	mov	r4,r18
   86990:	db400015 	stw	r13,0(sp)
   86994:	00859cc0 	call	859cc <_free_r>
   86998:	db400017 	ldw	r13,0(sp)
   8699c:	003fd606 	br	868f8 <_malloc_r+0x5e4>
   869a0:	00805504 	movi	r2,340
   869a4:	11400336 	bltu	r2,r5,869b4 <_malloc_r+0x6a0>
   869a8:	1804d3fa 	srli	r2,r3,15
   869ac:	11001dc4 	addi	r4,r2,119
   869b0:	003f6606 	br	8674c <_malloc_r+0x438>
   869b4:	00815504 	movi	r2,1364
   869b8:	01001f84 	movi	r4,126
   869bc:	117f6336 	bltu	r2,r5,8674c <_malloc_r+0x438>
   869c0:	1804d4ba 	srli	r2,r3,18
   869c4:	11001f04 	addi	r4,r2,124
   869c8:	003f6006 	br	8674c <_malloc_r+0x438>

000869cc <memchr>:
   869cc:	020000c4 	movi	r8,3
   869d0:	29403fcc 	andi	r5,r5,255
   869d4:	4180022e 	bgeu	r8,r6,869e0 <memchr+0x14>
   869d8:	2204703a 	and	r2,r4,r8
   869dc:	10000b26 	beq	r2,zero,86a0c <memchr+0x40>
   869e0:	31bfffc4 	addi	r6,r6,-1
   869e4:	00bfffc4 	movi	r2,-1
   869e8:	30800626 	beq	r6,r2,86a04 <memchr+0x38>
   869ec:	1007883a 	mov	r3,r2
   869f0:	20800003 	ldbu	r2,0(r4)
   869f4:	31bfffc4 	addi	r6,r6,-1
   869f8:	11402526 	beq	r2,r5,86a90 <memchr+0xc4>
   869fc:	21000044 	addi	r4,r4,1
   86a00:	30fffb1e 	bne	r6,r3,869f0 <memchr+0x24>
   86a04:	0005883a 	mov	r2,zero
   86a08:	f800283a 	ret
   86a0c:	200f883a 	mov	r7,r4
   86a10:	0013883a 	mov	r9,zero
   86a14:	0007883a 	mov	r3,zero
   86a18:	4804923a 	slli	r2,r9,8
   86a1c:	18c00044 	addi	r3,r3,1
   86a20:	1153883a 	add	r9,r2,r5
   86a24:	40fffc2e 	bgeu	r8,r3,86a18 <memchr+0x4c>
   86a28:	028000c4 	movi	r10,3
   86a2c:	5180162e 	bgeu	r10,r6,86a88 <memchr+0xbc>
   86a30:	033fbff4 	movhi	r12,65279
   86a34:	633fbfc4 	addi	r12,r12,-257
   86a38:	02e02074 	movhi	r11,32897
   86a3c:	5ae02004 	addi	r11,r11,-32640
   86a40:	38800017 	ldw	r2,0(r7)
   86a44:	1244f03a 	xor	r2,r2,r9
   86a48:	0086303a 	nor	r3,zero,r2
   86a4c:	1305883a 	add	r2,r2,r12
   86a50:	10c4703a 	and	r2,r2,r3
   86a54:	12c4703a 	and	r2,r2,r11
   86a58:	10000826 	beq	r2,zero,86a7c <memchr+0xb0>
   86a5c:	3809883a 	mov	r4,r7
   86a60:	0007883a 	mov	r3,zero
   86a64:	020000c4 	movi	r8,3
   86a68:	20800003 	ldbu	r2,0(r4)
   86a6c:	18c00044 	addi	r3,r3,1
   86a70:	11400726 	beq	r2,r5,86a90 <memchr+0xc4>
   86a74:	21000044 	addi	r4,r4,1
   86a78:	40fffb2e 	bgeu	r8,r3,86a68 <memchr+0x9c>
   86a7c:	31bfff04 	addi	r6,r6,-4
   86a80:	39c00104 	addi	r7,r7,4
   86a84:	51bfee36 	bltu	r10,r6,86a40 <memchr+0x74>
   86a88:	3809883a 	mov	r4,r7
   86a8c:	003fd406 	br	869e0 <memchr+0x14>
   86a90:	2005883a 	mov	r2,r4
   86a94:	f800283a 	ret

00086a98 <memcpy>:
   86a98:	020003c4 	movi	r8,15
   86a9c:	2007883a 	mov	r3,r4
   86aa0:	4180032e 	bgeu	r8,r6,86ab0 <memcpy+0x18>
   86aa4:	2904b03a 	or	r2,r5,r4
   86aa8:	108000cc 	andi	r2,r2,3
   86aac:	10000c26 	beq	r2,zero,86ae0 <memcpy+0x48>
   86ab0:	31bfffc4 	addi	r6,r6,-1
   86ab4:	00bfffc4 	movi	r2,-1
   86ab8:	30800726 	beq	r6,r2,86ad8 <memcpy+0x40>
   86abc:	100f883a 	mov	r7,r2
   86ac0:	28800003 	ldbu	r2,0(r5)
   86ac4:	31bfffc4 	addi	r6,r6,-1
   86ac8:	29400044 	addi	r5,r5,1
   86acc:	18800005 	stb	r2,0(r3)
   86ad0:	18c00044 	addi	r3,r3,1
   86ad4:	31fffa1e 	bne	r6,r7,86ac0 <memcpy+0x28>
   86ad8:	2005883a 	mov	r2,r4
   86adc:	f800283a 	ret
   86ae0:	200f883a 	mov	r7,r4
   86ae4:	28800017 	ldw	r2,0(r5)
   86ae8:	29400104 	addi	r5,r5,4
   86aec:	31bffc04 	addi	r6,r6,-16
   86af0:	38800015 	stw	r2,0(r7)
   86af4:	28c00017 	ldw	r3,0(r5)
   86af8:	39c00104 	addi	r7,r7,4
   86afc:	29400104 	addi	r5,r5,4
   86b00:	38c00015 	stw	r3,0(r7)
   86b04:	28800017 	ldw	r2,0(r5)
   86b08:	39c00104 	addi	r7,r7,4
   86b0c:	29400104 	addi	r5,r5,4
   86b10:	38800015 	stw	r2,0(r7)
   86b14:	28c00017 	ldw	r3,0(r5)
   86b18:	39c00104 	addi	r7,r7,4
   86b1c:	29400104 	addi	r5,r5,4
   86b20:	38c00015 	stw	r3,0(r7)
   86b24:	39c00104 	addi	r7,r7,4
   86b28:	41bfee36 	bltu	r8,r6,86ae4 <memcpy+0x4c>
   86b2c:	00c000c4 	movi	r3,3
   86b30:	1980062e 	bgeu	r3,r6,86b4c <memcpy+0xb4>
   86b34:	28800017 	ldw	r2,0(r5)
   86b38:	31bfff04 	addi	r6,r6,-4
   86b3c:	29400104 	addi	r5,r5,4
   86b40:	38800015 	stw	r2,0(r7)
   86b44:	39c00104 	addi	r7,r7,4
   86b48:	19bffa36 	bltu	r3,r6,86b34 <memcpy+0x9c>
   86b4c:	3807883a 	mov	r3,r7
   86b50:	003fd706 	br	86ab0 <memcpy+0x18>

00086b54 <memmove>:
   86b54:	2811883a 	mov	r8,r5
   86b58:	2007883a 	mov	r3,r4
   86b5c:	300f883a 	mov	r7,r6
   86b60:	29000f2e 	bgeu	r5,r4,86ba0 <memmove+0x4c>
   86b64:	2985883a 	add	r2,r5,r6
   86b68:	20800d2e 	bgeu	r4,r2,86ba0 <memmove+0x4c>
   86b6c:	2187883a 	add	r3,r4,r6
   86b70:	31ffffc4 	addi	r7,r6,-1
   86b74:	01bfffc4 	movi	r6,-1
   86b78:	100b883a 	mov	r5,r2
   86b7c:	39800626 	beq	r7,r6,86b98 <memmove+0x44>
   86b80:	297fffc4 	addi	r5,r5,-1
   86b84:	28800003 	ldbu	r2,0(r5)
   86b88:	18ffffc4 	addi	r3,r3,-1
   86b8c:	39ffffc4 	addi	r7,r7,-1
   86b90:	18800005 	stb	r2,0(r3)
   86b94:	39bffa1e 	bne	r7,r6,86b80 <memmove+0x2c>
   86b98:	2005883a 	mov	r2,r4
   86b9c:	f800283a 	ret
   86ba0:	024003c4 	movi	r9,15
   86ba4:	49800c36 	bltu	r9,r6,86bd8 <memmove+0x84>
   86ba8:	39ffffc4 	addi	r7,r7,-1
   86bac:	00bfffc4 	movi	r2,-1
   86bb0:	38bff926 	beq	r7,r2,86b98 <memmove+0x44>
   86bb4:	100d883a 	mov	r6,r2
   86bb8:	28800003 	ldbu	r2,0(r5)
   86bbc:	39ffffc4 	addi	r7,r7,-1
   86bc0:	29400044 	addi	r5,r5,1
   86bc4:	18800005 	stb	r2,0(r3)
   86bc8:	18c00044 	addi	r3,r3,1
   86bcc:	39bffa1e 	bne	r7,r6,86bb8 <memmove+0x64>
   86bd0:	2005883a 	mov	r2,r4
   86bd4:	f800283a 	ret
   86bd8:	4104b03a 	or	r2,r8,r4
   86bdc:	108000cc 	andi	r2,r2,3
   86be0:	103ff11e 	bne	r2,zero,86ba8 <memmove+0x54>
   86be4:	400b883a 	mov	r5,r8
   86be8:	200d883a 	mov	r6,r4
   86bec:	28800017 	ldw	r2,0(r5)
   86bf0:	29400104 	addi	r5,r5,4
   86bf4:	39fffc04 	addi	r7,r7,-16
   86bf8:	30800015 	stw	r2,0(r6)
   86bfc:	28c00017 	ldw	r3,0(r5)
   86c00:	31800104 	addi	r6,r6,4
   86c04:	29400104 	addi	r5,r5,4
   86c08:	30c00015 	stw	r3,0(r6)
   86c0c:	28800017 	ldw	r2,0(r5)
   86c10:	31800104 	addi	r6,r6,4
   86c14:	29400104 	addi	r5,r5,4
   86c18:	30800015 	stw	r2,0(r6)
   86c1c:	28c00017 	ldw	r3,0(r5)
   86c20:	31800104 	addi	r6,r6,4
   86c24:	29400104 	addi	r5,r5,4
   86c28:	30c00015 	stw	r3,0(r6)
   86c2c:	31800104 	addi	r6,r6,4
   86c30:	49ffee36 	bltu	r9,r7,86bec <memmove+0x98>
   86c34:	00c000c4 	movi	r3,3
   86c38:	19c0062e 	bgeu	r3,r7,86c54 <memmove+0x100>
   86c3c:	28800017 	ldw	r2,0(r5)
   86c40:	39ffff04 	addi	r7,r7,-4
   86c44:	29400104 	addi	r5,r5,4
   86c48:	30800015 	stw	r2,0(r6)
   86c4c:	31800104 	addi	r6,r6,4
   86c50:	19fffa36 	bltu	r3,r7,86c3c <memmove+0xe8>
   86c54:	3007883a 	mov	r3,r6
   86c58:	003fd306 	br	86ba8 <memmove+0x54>

00086c5c <memset>:
   86c5c:	008000c4 	movi	r2,3
   86c60:	29403fcc 	andi	r5,r5,255
   86c64:	2007883a 	mov	r3,r4
   86c68:	11801a2e 	bgeu	r2,r6,86cd4 <memset+0x78>
   86c6c:	2084703a 	and	r2,r4,r2
   86c70:	1000181e 	bne	r2,zero,86cd4 <memset+0x78>
   86c74:	2806923a 	slli	r3,r5,8
   86c78:	200f883a 	mov	r7,r4
   86c7c:	1946b03a 	or	r3,r3,r5
   86c80:	1804943a 	slli	r2,r3,16
   86c84:	1886b03a 	or	r3,r3,r2
   86c88:	008003c4 	movi	r2,15
   86c8c:	11800a2e 	bgeu	r2,r6,86cb8 <memset+0x5c>
   86c90:	38c00015 	stw	r3,0(r7)
   86c94:	39c00104 	addi	r7,r7,4
   86c98:	38c00015 	stw	r3,0(r7)
   86c9c:	39c00104 	addi	r7,r7,4
   86ca0:	38c00015 	stw	r3,0(r7)
   86ca4:	39c00104 	addi	r7,r7,4
   86ca8:	38c00015 	stw	r3,0(r7)
   86cac:	31bffc04 	addi	r6,r6,-16
   86cb0:	39c00104 	addi	r7,r7,4
   86cb4:	11bff636 	bltu	r2,r6,86c90 <memset+0x34>
   86cb8:	008000c4 	movi	r2,3
   86cbc:	1180042e 	bgeu	r2,r6,86cd0 <memset+0x74>
   86cc0:	38c00015 	stw	r3,0(r7)
   86cc4:	31bfff04 	addi	r6,r6,-4
   86cc8:	39c00104 	addi	r7,r7,4
   86ccc:	11bffc36 	bltu	r2,r6,86cc0 <memset+0x64>
   86cd0:	3807883a 	mov	r3,r7
   86cd4:	31bfffc4 	addi	r6,r6,-1
   86cd8:	00bfffc4 	movi	r2,-1
   86cdc:	30800426 	beq	r6,r2,86cf0 <memset+0x94>
   86ce0:	19400005 	stb	r5,0(r3)
   86ce4:	31bfffc4 	addi	r6,r6,-1
   86ce8:	18c00044 	addi	r3,r3,1
   86cec:	30bffc1e 	bne	r6,r2,86ce0 <memset+0x84>
   86cf0:	2005883a 	mov	r2,r4
   86cf4:	f800283a 	ret

00086cf8 <_Balloc>:
   86cf8:	defffc04 	addi	sp,sp,-16
   86cfc:	dc000215 	stw	r16,8(sp)
   86d00:	dc400115 	stw	r17,4(sp)
   86d04:	dfc00315 	stw	ra,12(sp)
   86d08:	dc800015 	stw	r18,0(sp)
   86d0c:	20c01317 	ldw	r3,76(r4)
   86d10:	2823883a 	mov	r17,r5
   86d14:	2021883a 	mov	r16,r4
   86d18:	01800404 	movi	r6,16
   86d1c:	01400104 	movi	r5,4
   86d20:	18001426 	beq	r3,zero,86d74 <_Balloc+0x7c>
   86d24:	01400044 	movi	r5,1
   86d28:	880490ba 	slli	r2,r17,2
   86d2c:	2c64983a 	sll	r18,r5,r17
   86d30:	8009883a 	mov	r4,r16
   86d34:	10cf883a 	add	r7,r2,r3
   86d38:	900c90ba 	slli	r6,r18,2
   86d3c:	38c00017 	ldw	r3,0(r7)
   86d40:	31800504 	addi	r6,r6,20
   86d44:	18001126 	beq	r3,zero,86d8c <_Balloc+0x94>
   86d48:	18800017 	ldw	r2,0(r3)
   86d4c:	38800015 	stw	r2,0(r7)
   86d50:	18000415 	stw	zero,16(r3)
   86d54:	18000315 	stw	zero,12(r3)
   86d58:	1805883a 	mov	r2,r3
   86d5c:	dfc00317 	ldw	ra,12(sp)
   86d60:	dc000217 	ldw	r16,8(sp)
   86d64:	dc400117 	ldw	r17,4(sp)
   86d68:	dc800017 	ldw	r18,0(sp)
   86d6c:	dec00404 	addi	sp,sp,16
   86d70:	f800283a 	ret
   86d74:	008856c0 	call	8856c <_calloc_r>
   86d78:	1007883a 	mov	r3,r2
   86d7c:	80801315 	stw	r2,76(r16)
   86d80:	0005883a 	mov	r2,zero
   86d84:	183fe71e 	bne	r3,zero,86d24 <_Balloc+0x2c>
   86d88:	003ff406 	br	86d5c <_Balloc+0x64>
   86d8c:	008856c0 	call	8856c <_calloc_r>
   86d90:	1007883a 	mov	r3,r2
   86d94:	0005883a 	mov	r2,zero
   86d98:	183ff026 	beq	r3,zero,86d5c <_Balloc+0x64>
   86d9c:	1c400115 	stw	r17,4(r3)
   86da0:	1c800215 	stw	r18,8(r3)
   86da4:	003fea06 	br	86d50 <_Balloc+0x58>

00086da8 <_Bfree>:
   86da8:	28000726 	beq	r5,zero,86dc8 <_Bfree+0x20>
   86dac:	28800117 	ldw	r2,4(r5)
   86db0:	21001317 	ldw	r4,76(r4)
   86db4:	100490ba 	slli	r2,r2,2
   86db8:	1105883a 	add	r2,r2,r4
   86dbc:	10c00017 	ldw	r3,0(r2)
   86dc0:	28c00015 	stw	r3,0(r5)
   86dc4:	11400015 	stw	r5,0(r2)
   86dc8:	f800283a 	ret

00086dcc <_multadd>:
   86dcc:	defff604 	addi	sp,sp,-40
   86dd0:	df000815 	stw	fp,32(sp)
   86dd4:	dc800515 	stw	r18,20(sp)
   86dd8:	dcc00415 	stw	r19,16(sp)
   86ddc:	dd000315 	stw	r20,12(sp)
   86de0:	dd400215 	stw	r21,8(sp)
   86de4:	ddc00015 	stw	r23,0(sp)
   86de8:	dfc00915 	stw	ra,36(sp)
   86dec:	dc000715 	stw	r16,28(sp)
   86df0:	dc400615 	stw	r17,24(sp)
   86df4:	dd800115 	stw	r22,4(sp)
   86df8:	2d800417 	ldw	r22,16(r5)
   86dfc:	282f883a 	mov	r23,r5
   86e00:	2039883a 	mov	fp,r4
   86e04:	302b883a 	mov	r21,r6
   86e08:	3829883a 	mov	r20,r7
   86e0c:	2c800504 	addi	r18,r5,20
   86e10:	0027883a 	mov	r19,zero
   86e14:	94400017 	ldw	r17,0(r18)
   86e18:	a80b883a 	mov	r5,r21
   86e1c:	9cc00044 	addi	r19,r19,1
   86e20:	893fffcc 	andi	r4,r17,65535
   86e24:	0081aec0 	call	81aec <__mulsi3>
   86e28:	8808d43a 	srli	r4,r17,16
   86e2c:	1521883a 	add	r16,r2,r20
   86e30:	a80b883a 	mov	r5,r21
   86e34:	0081aec0 	call	81aec <__mulsi3>
   86e38:	8008d43a 	srli	r4,r16,16
   86e3c:	843fffcc 	andi	r16,r16,65535
   86e40:	1105883a 	add	r2,r2,r4
   86e44:	1006943a 	slli	r3,r2,16
   86e48:	1028d43a 	srli	r20,r2,16
   86e4c:	1c07883a 	add	r3,r3,r16
   86e50:	90c00015 	stw	r3,0(r18)
   86e54:	94800104 	addi	r18,r18,4
   86e58:	9dbfee16 	blt	r19,r22,86e14 <_multadd+0x48>
   86e5c:	a0000726 	beq	r20,zero,86e7c <_multadd+0xb0>
   86e60:	b8800217 	ldw	r2,8(r23)
   86e64:	b080120e 	bge	r22,r2,86eb0 <_multadd+0xe4>
   86e68:	b00490ba 	slli	r2,r22,2
   86e6c:	b5800044 	addi	r22,r22,1
   86e70:	bd800415 	stw	r22,16(r23)
   86e74:	15c5883a 	add	r2,r2,r23
   86e78:	15000515 	stw	r20,20(r2)
   86e7c:	b805883a 	mov	r2,r23
   86e80:	dfc00917 	ldw	ra,36(sp)
   86e84:	df000817 	ldw	fp,32(sp)
   86e88:	dc000717 	ldw	r16,28(sp)
   86e8c:	dc400617 	ldw	r17,24(sp)
   86e90:	dc800517 	ldw	r18,20(sp)
   86e94:	dcc00417 	ldw	r19,16(sp)
   86e98:	dd000317 	ldw	r20,12(sp)
   86e9c:	dd400217 	ldw	r21,8(sp)
   86ea0:	dd800117 	ldw	r22,4(sp)
   86ea4:	ddc00017 	ldw	r23,0(sp)
   86ea8:	dec00a04 	addi	sp,sp,40
   86eac:	f800283a 	ret
   86eb0:	b9400117 	ldw	r5,4(r23)
   86eb4:	e009883a 	mov	r4,fp
   86eb8:	29400044 	addi	r5,r5,1
   86ebc:	0086cf80 	call	86cf8 <_Balloc>
   86ec0:	b9800417 	ldw	r6,16(r23)
   86ec4:	b9400304 	addi	r5,r23,12
   86ec8:	11000304 	addi	r4,r2,12
   86ecc:	300c90ba 	slli	r6,r6,2
   86ed0:	1023883a 	mov	r17,r2
   86ed4:	31800204 	addi	r6,r6,8
   86ed8:	0086a980 	call	86a98 <memcpy>
   86edc:	b80b883a 	mov	r5,r23
   86ee0:	e009883a 	mov	r4,fp
   86ee4:	0086da80 	call	86da8 <_Bfree>
   86ee8:	882f883a 	mov	r23,r17
   86eec:	003fde06 	br	86e68 <_multadd+0x9c>

00086ef0 <_s2b>:
   86ef0:	defffa04 	addi	sp,sp,-24
   86ef4:	dc000415 	stw	r16,16(sp)
   86ef8:	dc800215 	stw	r18,8(sp)
   86efc:	2821883a 	mov	r16,r5
   86f00:	2025883a 	mov	r18,r4
   86f04:	01400244 	movi	r5,9
   86f08:	39000204 	addi	r4,r7,8
   86f0c:	dcc00115 	stw	r19,4(sp)
   86f10:	dd000015 	stw	r20,0(sp)
   86f14:	dfc00515 	stw	ra,20(sp)
   86f18:	dc400315 	stw	r17,12(sp)
   86f1c:	3827883a 	mov	r19,r7
   86f20:	3029883a 	mov	r20,r6
   86f24:	0081a300 	call	81a30 <__divsi3>
   86f28:	00c00044 	movi	r3,1
   86f2c:	000b883a 	mov	r5,zero
   86f30:	1880030e 	bge	r3,r2,86f40 <_s2b+0x50>
   86f34:	18c7883a 	add	r3,r3,r3
   86f38:	29400044 	addi	r5,r5,1
   86f3c:	18bffd16 	blt	r3,r2,86f34 <_s2b+0x44>
   86f40:	9009883a 	mov	r4,r18
   86f44:	0086cf80 	call	86cf8 <_Balloc>
   86f48:	1009883a 	mov	r4,r2
   86f4c:	d8800617 	ldw	r2,24(sp)
   86f50:	00c00044 	movi	r3,1
   86f54:	04400244 	movi	r17,9
   86f58:	20800515 	stw	r2,20(r4)
   86f5c:	20c00415 	stw	r3,16(r4)
   86f60:	8d00170e 	bge	r17,r20,86fc0 <_s2b+0xd0>
   86f64:	8461883a 	add	r16,r16,r17
   86f68:	81c00007 	ldb	r7,0(r16)
   86f6c:	200b883a 	mov	r5,r4
   86f70:	01800284 	movi	r6,10
   86f74:	9009883a 	mov	r4,r18
   86f78:	39fff404 	addi	r7,r7,-48
   86f7c:	0086dcc0 	call	86dcc <_multadd>
   86f80:	8c400044 	addi	r17,r17,1
   86f84:	1009883a 	mov	r4,r2
   86f88:	84000044 	addi	r16,r16,1
   86f8c:	8d3ff616 	blt	r17,r20,86f68 <_s2b+0x78>
   86f90:	84000044 	addi	r16,r16,1
   86f94:	8cc00c0e 	bge	r17,r19,86fc8 <_s2b+0xd8>
   86f98:	81c00007 	ldb	r7,0(r16)
   86f9c:	200b883a 	mov	r5,r4
   86fa0:	01800284 	movi	r6,10
   86fa4:	9009883a 	mov	r4,r18
   86fa8:	39fff404 	addi	r7,r7,-48
   86fac:	0086dcc0 	call	86dcc <_multadd>
   86fb0:	1009883a 	mov	r4,r2
   86fb4:	8c400044 	addi	r17,r17,1
   86fb8:	84000044 	addi	r16,r16,1
   86fbc:	003ff506 	br	86f94 <_s2b+0xa4>
   86fc0:	84000284 	addi	r16,r16,10
   86fc4:	8cfff416 	blt	r17,r19,86f98 <_s2b+0xa8>
   86fc8:	2005883a 	mov	r2,r4
   86fcc:	dfc00517 	ldw	ra,20(sp)
   86fd0:	dc000417 	ldw	r16,16(sp)
   86fd4:	dc400317 	ldw	r17,12(sp)
   86fd8:	dc800217 	ldw	r18,8(sp)
   86fdc:	dcc00117 	ldw	r19,4(sp)
   86fe0:	dd000017 	ldw	r20,0(sp)
   86fe4:	dec00604 	addi	sp,sp,24
   86fe8:	f800283a 	ret

00086fec <_hi0bits>:
   86fec:	20bfffec 	andhi	r2,r4,65535
   86ff0:	0007883a 	mov	r3,zero
   86ff4:	1000021e 	bne	r2,zero,87000 <_hi0bits+0x14>
   86ff8:	2008943a 	slli	r4,r4,16
   86ffc:	00c00404 	movi	r3,16
   87000:	20bfc02c 	andhi	r2,r4,65280
   87004:	1000021e 	bne	r2,zero,87010 <_hi0bits+0x24>
   87008:	2008923a 	slli	r4,r4,8
   8700c:	18c00204 	addi	r3,r3,8
   87010:	20bc002c 	andhi	r2,r4,61440
   87014:	1000021e 	bne	r2,zero,87020 <_hi0bits+0x34>
   87018:	2008913a 	slli	r4,r4,4
   8701c:	18c00104 	addi	r3,r3,4
   87020:	20b0002c 	andhi	r2,r4,49152
   87024:	1000021e 	bne	r2,zero,87030 <_hi0bits+0x44>
   87028:	200890ba 	slli	r4,r4,2
   8702c:	18c00084 	addi	r3,r3,2
   87030:	20000416 	blt	r4,zero,87044 <_hi0bits+0x58>
   87034:	2090002c 	andhi	r2,r4,16384
   87038:	18c00044 	addi	r3,r3,1
   8703c:	01000804 	movi	r4,32
   87040:	10000126 	beq	r2,zero,87048 <_hi0bits+0x5c>
   87044:	1809883a 	mov	r4,r3
   87048:	2005883a 	mov	r2,r4
   8704c:	f800283a 	ret

00087050 <_lo0bits>:
   87050:	20c00017 	ldw	r3,0(r4)
   87054:	188001cc 	andi	r2,r3,7
   87058:	10000a26 	beq	r2,zero,87084 <_lo0bits+0x34>
   8705c:	1880004c 	andi	r2,r3,1
   87060:	000b883a 	mov	r5,zero
   87064:	1000051e 	bne	r2,zero,8707c <_lo0bits+0x2c>
   87068:	1880008c 	andi	r2,r3,2
   8706c:	10002126 	beq	r2,zero,870f4 <_lo0bits+0xa4>
   87070:	1804d07a 	srli	r2,r3,1
   87074:	01400044 	movi	r5,1
   87078:	20800015 	stw	r2,0(r4)
   8707c:	2805883a 	mov	r2,r5
   87080:	f800283a 	ret
   87084:	18bfffcc 	andi	r2,r3,65535
   87088:	000d883a 	mov	r6,zero
   8708c:	10001626 	beq	r2,zero,870e8 <_lo0bits+0x98>
   87090:	18803fcc 	andi	r2,r3,255
   87094:	1000021e 	bne	r2,zero,870a0 <_lo0bits+0x50>
   87098:	1806d23a 	srli	r3,r3,8
   8709c:	31800204 	addi	r6,r6,8
   870a0:	188003cc 	andi	r2,r3,15
   870a4:	1000021e 	bne	r2,zero,870b0 <_lo0bits+0x60>
   870a8:	1806d13a 	srli	r3,r3,4
   870ac:	31800104 	addi	r6,r6,4
   870b0:	188000cc 	andi	r2,r3,3
   870b4:	1000021e 	bne	r2,zero,870c0 <_lo0bits+0x70>
   870b8:	1806d0ba 	srli	r3,r3,2
   870bc:	31800084 	addi	r6,r6,2
   870c0:	1880004c 	andi	r2,r3,1
   870c4:	1000041e 	bne	r2,zero,870d8 <_lo0bits+0x88>
   870c8:	1806d07a 	srli	r3,r3,1
   870cc:	31800044 	addi	r6,r6,1
   870d0:	01400804 	movi	r5,32
   870d4:	183fe926 	beq	r3,zero,8707c <_lo0bits+0x2c>
   870d8:	300b883a 	mov	r5,r6
   870dc:	2805883a 	mov	r2,r5
   870e0:	20c00015 	stw	r3,0(r4)
   870e4:	f800283a 	ret
   870e8:	1806d43a 	srli	r3,r3,16
   870ec:	01800404 	movi	r6,16
   870f0:	003fe706 	br	87090 <_lo0bits+0x40>
   870f4:	1804d0ba 	srli	r2,r3,2
   870f8:	01400084 	movi	r5,2
   870fc:	20800015 	stw	r2,0(r4)
   87100:	003fde06 	br	8707c <_lo0bits+0x2c>

00087104 <_i2b>:
   87104:	defffd04 	addi	sp,sp,-12
   87108:	dc000115 	stw	r16,4(sp)
   8710c:	04000044 	movi	r16,1
   87110:	dc800015 	stw	r18,0(sp)
   87114:	2825883a 	mov	r18,r5
   87118:	800b883a 	mov	r5,r16
   8711c:	dfc00215 	stw	ra,8(sp)
   87120:	0086cf80 	call	86cf8 <_Balloc>
   87124:	14000415 	stw	r16,16(r2)
   87128:	14800515 	stw	r18,20(r2)
   8712c:	dfc00217 	ldw	ra,8(sp)
   87130:	dc000117 	ldw	r16,4(sp)
   87134:	dc800017 	ldw	r18,0(sp)
   87138:	dec00304 	addi	sp,sp,12
   8713c:	f800283a 	ret

00087140 <_multiply>:
   87140:	deffee04 	addi	sp,sp,-72
   87144:	dc000f15 	stw	r16,60(sp)
   87148:	dfc01115 	stw	ra,68(sp)
   8714c:	df001015 	stw	fp,64(sp)
   87150:	dc400e15 	stw	r17,56(sp)
   87154:	dc800d15 	stw	r18,52(sp)
   87158:	dcc00c15 	stw	r19,48(sp)
   8715c:	dd000b15 	stw	r20,44(sp)
   87160:	dd400a15 	stw	r21,40(sp)
   87164:	dd800915 	stw	r22,36(sp)
   87168:	ddc00815 	stw	r23,32(sp)
   8716c:	2c800417 	ldw	r18,16(r5)
   87170:	34400417 	ldw	r17,16(r6)
   87174:	2821883a 	mov	r16,r5
   87178:	9440050e 	bge	r18,r17,87190 <_multiply+0x50>
   8717c:	8825883a 	mov	r18,r17
   87180:	2c400417 	ldw	r17,16(r5)
   87184:	3021883a 	mov	r16,r6
   87188:	d9400015 	stw	r5,0(sp)
   8718c:	280d883a 	mov	r6,r5
   87190:	80800217 	ldw	r2,8(r16)
   87194:	9447883a 	add	r3,r18,r17
   87198:	d8c00115 	stw	r3,4(sp)
   8719c:	81400117 	ldw	r5,4(r16)
   871a0:	10c0010e 	bge	r2,r3,871a8 <_multiply+0x68>
   871a4:	29400044 	addi	r5,r5,1
   871a8:	d9800715 	stw	r6,28(sp)
   871ac:	0086cf80 	call	86cf8 <_Balloc>
   871b0:	d8800015 	stw	r2,0(sp)
   871b4:	d8800117 	ldw	r2,4(sp)
   871b8:	d8c00017 	ldw	r3,0(sp)
   871bc:	d9800717 	ldw	r6,28(sp)
   871c0:	100490ba 	slli	r2,r2,2
   871c4:	18c00504 	addi	r3,r3,20
   871c8:	d8c00615 	stw	r3,24(sp)
   871cc:	d8800515 	stw	r2,20(sp)
   871d0:	10c5883a 	add	r2,r2,r3
   871d4:	1827883a 	mov	r19,r3
   871d8:	d8800215 	stw	r2,8(sp)
   871dc:	1880042e 	bgeu	r3,r2,871f0 <_multiply+0xb0>
   871e0:	d8c00217 	ldw	r3,8(sp)
   871e4:	98000015 	stw	zero,0(r19)
   871e8:	9cc00104 	addi	r19,r19,4
   871ec:	98fffc36 	bltu	r19,r3,871e0 <_multiply+0xa0>
   871f0:	880490ba 	slli	r2,r17,2
   871f4:	900690ba 	slli	r3,r18,2
   871f8:	35c00504 	addi	r23,r6,20
   871fc:	15c5883a 	add	r2,r2,r23
   87200:	84000504 	addi	r16,r16,20
   87204:	d8800315 	stw	r2,12(sp)
   87208:	1c39883a 	add	fp,r3,r16
   8720c:	d8800617 	ldw	r2,24(sp)
   87210:	d8c00317 	ldw	r3,12(sp)
   87214:	dc000215 	stw	r16,8(sp)
   87218:	d8800415 	stw	r2,16(sp)
   8721c:	b8c0402e 	bgeu	r23,r3,87320 <_multiply+0x1e0>
   87220:	b8800017 	ldw	r2,0(r23)
   87224:	15bfffcc 	andi	r22,r2,65535
   87228:	b0001a26 	beq	r22,zero,87294 <_multiply+0x154>
   8722c:	dcc00217 	ldw	r19,8(sp)
   87230:	dc800417 	ldw	r18,16(sp)
   87234:	002b883a 	mov	r21,zero
   87238:	9c400017 	ldw	r17,0(r19)
   8723c:	b00b883a 	mov	r5,r22
   87240:	9cc00104 	addi	r19,r19,4
   87244:	893fffcc 	andi	r4,r17,65535
   87248:	0081aec0 	call	81aec <__mulsi3>
   8724c:	94000017 	ldw	r16,0(r18)
   87250:	8808d43a 	srli	r4,r17,16
   87254:	b00b883a 	mov	r5,r22
   87258:	80ffffcc 	andi	r3,r16,65535
   8725c:	10c5883a 	add	r2,r2,r3
   87260:	1563883a 	add	r17,r2,r21
   87264:	8020d43a 	srli	r16,r16,16
   87268:	882ad43a 	srli	r21,r17,16
   8726c:	0081aec0 	call	81aec <__mulsi3>
   87270:	1405883a 	add	r2,r2,r16
   87274:	9440000d 	sth	r17,0(r18)
   87278:	1563883a 	add	r17,r2,r21
   8727c:	9440008d 	sth	r17,2(r18)
   87280:	882ad43a 	srli	r21,r17,16
   87284:	94800104 	addi	r18,r18,4
   87288:	9f3feb36 	bltu	r19,fp,87238 <_multiply+0xf8>
   8728c:	95400015 	stw	r21,0(r18)
   87290:	b8800017 	ldw	r2,0(r23)
   87294:	102cd43a 	srli	r22,r2,16
   87298:	b0001b26 	beq	r22,zero,87308 <_multiply+0x1c8>
   8729c:	dc800417 	ldw	r18,16(sp)
   872a0:	dcc00217 	ldw	r19,8(sp)
   872a4:	002b883a 	mov	r21,zero
   872a8:	94400017 	ldw	r17,0(r18)
   872ac:	8829883a 	mov	r20,r17
   872b0:	9c000017 	ldw	r16,0(r19)
   872b4:	b00b883a 	mov	r5,r22
   872b8:	9cc00104 	addi	r19,r19,4
   872bc:	813fffcc 	andi	r4,r16,65535
   872c0:	0081aec0 	call	81aec <__mulsi3>
   872c4:	a006d43a 	srli	r3,r20,16
   872c8:	8008d43a 	srli	r4,r16,16
   872cc:	9440000d 	sth	r17,0(r18)
   872d0:	10c5883a 	add	r2,r2,r3
   872d4:	1563883a 	add	r17,r2,r21
   872d8:	9440008d 	sth	r17,2(r18)
   872dc:	b00b883a 	mov	r5,r22
   872e0:	94800104 	addi	r18,r18,4
   872e4:	0081aec0 	call	81aec <__mulsi3>
   872e8:	95000017 	ldw	r20,0(r18)
   872ec:	882ad43a 	srli	r21,r17,16
   872f0:	a0ffffcc 	andi	r3,r20,65535
   872f4:	10c5883a 	add	r2,r2,r3
   872f8:	1563883a 	add	r17,r2,r21
   872fc:	882ad43a 	srli	r21,r17,16
   87300:	9f3feb36 	bltu	r19,fp,872b0 <_multiply+0x170>
   87304:	94400015 	stw	r17,0(r18)
   87308:	d8800417 	ldw	r2,16(sp)
   8730c:	bdc00104 	addi	r23,r23,4
   87310:	10800104 	addi	r2,r2,4
   87314:	d8800415 	stw	r2,16(sp)
   87318:	d8c00317 	ldw	r3,12(sp)
   8731c:	b8ffc036 	bltu	r23,r3,87220 <_multiply+0xe0>
   87320:	d8800517 	ldw	r2,20(sp)
   87324:	d8c00617 	ldw	r3,24(sp)
   87328:	10e5883a 	add	r18,r2,r3
   8732c:	d8800117 	ldw	r2,4(sp)
   87330:	0080080e 	bge	zero,r2,87354 <_multiply+0x214>
   87334:	94bfff04 	addi	r18,r18,-4
   87338:	90800017 	ldw	r2,0(r18)
   8733c:	1000051e 	bne	r2,zero,87354 <_multiply+0x214>
   87340:	d8c00117 	ldw	r3,4(sp)
   87344:	94bfff04 	addi	r18,r18,-4
   87348:	18ffffc4 	addi	r3,r3,-1
   8734c:	d8c00115 	stw	r3,4(sp)
   87350:	00fff916 	blt	zero,r3,87338 <_multiply+0x1f8>
   87354:	d8800117 	ldw	r2,4(sp)
   87358:	d8c00017 	ldw	r3,0(sp)
   8735c:	18800415 	stw	r2,16(r3)
   87360:	1805883a 	mov	r2,r3
   87364:	dfc01117 	ldw	ra,68(sp)
   87368:	df001017 	ldw	fp,64(sp)
   8736c:	dc000f17 	ldw	r16,60(sp)
   87370:	dc400e17 	ldw	r17,56(sp)
   87374:	dc800d17 	ldw	r18,52(sp)
   87378:	dcc00c17 	ldw	r19,48(sp)
   8737c:	dd000b17 	ldw	r20,44(sp)
   87380:	dd400a17 	ldw	r21,40(sp)
   87384:	dd800917 	ldw	r22,36(sp)
   87388:	ddc00817 	ldw	r23,32(sp)
   8738c:	dec01204 	addi	sp,sp,72
   87390:	f800283a 	ret

00087394 <_pow5mult>:
   87394:	defffa04 	addi	sp,sp,-24
   87398:	308000cc 	andi	r2,r6,3
   8739c:	dc800215 	stw	r18,8(sp)
   873a0:	dcc00115 	stw	r19,4(sp)
   873a4:	dd000015 	stw	r20,0(sp)
   873a8:	dfc00515 	stw	ra,20(sp)
   873ac:	dc000415 	stw	r16,16(sp)
   873b0:	dc400315 	stw	r17,12(sp)
   873b4:	3025883a 	mov	r18,r6
   873b8:	2027883a 	mov	r19,r4
   873bc:	2829883a 	mov	r20,r5
   873c0:	10002a1e 	bne	r2,zero,8746c <_pow5mult+0xd8>
   873c4:	9025d0ba 	srai	r18,r18,2
   873c8:	90001f26 	beq	r18,zero,87448 <_pow5mult+0xb4>
   873cc:	9c001217 	ldw	r16,72(r19)
   873d0:	80003426 	beq	r16,zero,874a4 <_pow5mult+0x110>
   873d4:	9080004c 	andi	r2,r18,1
   873d8:	800d883a 	mov	r6,r16
   873dc:	9809883a 	mov	r4,r19
   873e0:	a00b883a 	mov	r5,r20
   873e4:	9025d07a 	srai	r18,r18,1
   873e8:	10000d1e 	bne	r2,zero,87420 <_pow5mult+0x8c>
   873ec:	800b883a 	mov	r5,r16
   873f0:	800d883a 	mov	r6,r16
   873f4:	9809883a 	mov	r4,r19
   873f8:	90001326 	beq	r18,zero,87448 <_pow5mult+0xb4>
   873fc:	80800017 	ldw	r2,0(r16)
   87400:	10002326 	beq	r2,zero,87490 <_pow5mult+0xfc>
   87404:	1021883a 	mov	r16,r2
   87408:	9080004c 	andi	r2,r18,1
   8740c:	800d883a 	mov	r6,r16
   87410:	9809883a 	mov	r4,r19
   87414:	a00b883a 	mov	r5,r20
   87418:	9025d07a 	srai	r18,r18,1
   8741c:	103ff326 	beq	r2,zero,873ec <_pow5mult+0x58>
   87420:	00871400 	call	87140 <_multiply>
   87424:	a00b883a 	mov	r5,r20
   87428:	9809883a 	mov	r4,r19
   8742c:	1023883a 	mov	r17,r2
   87430:	0086da80 	call	86da8 <_Bfree>
   87434:	8829883a 	mov	r20,r17
   87438:	800b883a 	mov	r5,r16
   8743c:	800d883a 	mov	r6,r16
   87440:	9809883a 	mov	r4,r19
   87444:	903fed1e 	bne	r18,zero,873fc <_pow5mult+0x68>
   87448:	a005883a 	mov	r2,r20
   8744c:	dfc00517 	ldw	ra,20(sp)
   87450:	dc000417 	ldw	r16,16(sp)
   87454:	dc400317 	ldw	r17,12(sp)
   87458:	dc800217 	ldw	r18,8(sp)
   8745c:	dcc00117 	ldw	r19,4(sp)
   87460:	dd000017 	ldw	r20,0(sp)
   87464:	dec00604 	addi	sp,sp,24
   87468:	f800283a 	ret
   8746c:	100490ba 	slli	r2,r2,2
   87470:	00c00274 	movhi	r3,9
   87474:	18db6204 	addi	r3,r3,28040
   87478:	000f883a 	mov	r7,zero
   8747c:	10c5883a 	add	r2,r2,r3
   87480:	11800017 	ldw	r6,0(r2)
   87484:	0086dcc0 	call	86dcc <_multadd>
   87488:	1029883a 	mov	r20,r2
   8748c:	003fcd06 	br	873c4 <_pow5mult+0x30>
   87490:	00871400 	call	87140 <_multiply>
   87494:	80800015 	stw	r2,0(r16)
   87498:	1021883a 	mov	r16,r2
   8749c:	10000015 	stw	zero,0(r2)
   874a0:	003fd906 	br	87408 <_pow5mult+0x74>
   874a4:	9809883a 	mov	r4,r19
   874a8:	01409c44 	movi	r5,625
   874ac:	00871040 	call	87104 <_i2b>
   874b0:	98801215 	stw	r2,72(r19)
   874b4:	1021883a 	mov	r16,r2
   874b8:	10000015 	stw	zero,0(r2)
   874bc:	003fc506 	br	873d4 <_pow5mult+0x40>

000874c0 <_lshift>:
   874c0:	defff904 	addi	sp,sp,-28
   874c4:	dc000515 	stw	r16,20(sp)
   874c8:	dc400415 	stw	r17,16(sp)
   874cc:	dc800315 	stw	r18,12(sp)
   874d0:	dcc00215 	stw	r19,8(sp)
   874d4:	dd400015 	stw	r21,0(sp)
   874d8:	dfc00615 	stw	ra,24(sp)
   874dc:	dd000115 	stw	r20,4(sp)
   874e0:	28800417 	ldw	r2,16(r5)
   874e4:	3021d17a 	srai	r16,r6,5
   874e8:	28c00217 	ldw	r3,8(r5)
   874ec:	2827883a 	mov	r19,r5
   874f0:	1405883a 	add	r2,r2,r16
   874f4:	14800044 	addi	r18,r2,1
   874f8:	3023883a 	mov	r17,r6
   874fc:	202b883a 	mov	r21,r4
   87500:	29400117 	ldw	r5,4(r5)
   87504:	1c80030e 	bge	r3,r18,87514 <_lshift+0x54>
   87508:	18c7883a 	add	r3,r3,r3
   8750c:	29400044 	addi	r5,r5,1
   87510:	1cbffd16 	blt	r3,r18,87508 <_lshift+0x48>
   87514:	a809883a 	mov	r4,r21
   87518:	0086cf80 	call	86cf8 <_Balloc>
   8751c:	1029883a 	mov	r20,r2
   87520:	11800504 	addi	r6,r2,20
   87524:	0007883a 	mov	r3,zero
   87528:	0400040e 	bge	zero,r16,8753c <_lshift+0x7c>
   8752c:	18c00044 	addi	r3,r3,1
   87530:	30000015 	stw	zero,0(r6)
   87534:	31800104 	addi	r6,r6,4
   87538:	1c3ffc16 	blt	r3,r16,8752c <_lshift+0x6c>
   8753c:	98800417 	ldw	r2,16(r19)
   87540:	99000504 	addi	r4,r19,20
   87544:	8c4007cc 	andi	r17,r17,31
   87548:	100490ba 	slli	r2,r2,2
   8754c:	110f883a 	add	r7,r2,r4
   87550:	88001e26 	beq	r17,zero,875cc <_lshift+0x10c>
   87554:	00800804 	movi	r2,32
   87558:	144bc83a 	sub	r5,r2,r17
   8755c:	0007883a 	mov	r3,zero
   87560:	20800017 	ldw	r2,0(r4)
   87564:	1444983a 	sll	r2,r2,r17
   87568:	10c4b03a 	or	r2,r2,r3
   8756c:	30800015 	stw	r2,0(r6)
   87570:	20c00017 	ldw	r3,0(r4)
   87574:	21000104 	addi	r4,r4,4
   87578:	31800104 	addi	r6,r6,4
   8757c:	1946d83a 	srl	r3,r3,r5
   87580:	21fff736 	bltu	r4,r7,87560 <_lshift+0xa0>
   87584:	30c00015 	stw	r3,0(r6)
   87588:	18000126 	beq	r3,zero,87590 <_lshift+0xd0>
   8758c:	94800044 	addi	r18,r18,1
   87590:	90bfffc4 	addi	r2,r18,-1
   87594:	a0800415 	stw	r2,16(r20)
   87598:	a809883a 	mov	r4,r21
   8759c:	980b883a 	mov	r5,r19
   875a0:	0086da80 	call	86da8 <_Bfree>
   875a4:	a005883a 	mov	r2,r20
   875a8:	dfc00617 	ldw	ra,24(sp)
   875ac:	dc000517 	ldw	r16,20(sp)
   875b0:	dc400417 	ldw	r17,16(sp)
   875b4:	dc800317 	ldw	r18,12(sp)
   875b8:	dcc00217 	ldw	r19,8(sp)
   875bc:	dd000117 	ldw	r20,4(sp)
   875c0:	dd400017 	ldw	r21,0(sp)
   875c4:	dec00704 	addi	sp,sp,28
   875c8:	f800283a 	ret
   875cc:	20800017 	ldw	r2,0(r4)
   875d0:	21000104 	addi	r4,r4,4
   875d4:	30800015 	stw	r2,0(r6)
   875d8:	31800104 	addi	r6,r6,4
   875dc:	21ffec2e 	bgeu	r4,r7,87590 <_lshift+0xd0>
   875e0:	20800017 	ldw	r2,0(r4)
   875e4:	21000104 	addi	r4,r4,4
   875e8:	30800015 	stw	r2,0(r6)
   875ec:	31800104 	addi	r6,r6,4
   875f0:	21fff636 	bltu	r4,r7,875cc <_lshift+0x10c>
   875f4:	003fe606 	br	87590 <_lshift+0xd0>

000875f8 <__mcmp>:
   875f8:	20800417 	ldw	r2,16(r4)
   875fc:	28c00417 	ldw	r3,16(r5)
   87600:	10c5c83a 	sub	r2,r2,r3
   87604:	100d883a 	mov	r6,r2
   87608:	10000c1e 	bne	r2,zero,8763c <__mcmp+0x44>
   8760c:	180690ba 	slli	r3,r3,2
   87610:	21000504 	addi	r4,r4,20
   87614:	28800504 	addi	r2,r5,20
   87618:	1885883a 	add	r2,r3,r2
   8761c:	1907883a 	add	r3,r3,r4
   87620:	18ffff04 	addi	r3,r3,-4
   87624:	10bfff04 	addi	r2,r2,-4
   87628:	19800017 	ldw	r6,0(r3)
   8762c:	11400017 	ldw	r5,0(r2)
   87630:	3140041e 	bne	r6,r5,87644 <__mcmp+0x4c>
   87634:	20fffa36 	bltu	r4,r3,87620 <__mcmp+0x28>
   87638:	000d883a 	mov	r6,zero
   8763c:	3005883a 	mov	r2,r6
   87640:	f800283a 	ret
   87644:	00bfffc4 	movi	r2,-1
   87648:	31400136 	bltu	r6,r5,87650 <__mcmp+0x58>
   8764c:	00800044 	movi	r2,1
   87650:	100d883a 	mov	r6,r2
   87654:	3005883a 	mov	r2,r6
   87658:	f800283a 	ret

0008765c <__mdiff>:
   8765c:	defffb04 	addi	sp,sp,-20
   87660:	dc400215 	stw	r17,8(sp)
   87664:	2823883a 	mov	r17,r5
   87668:	dcc00015 	stw	r19,0(sp)
   8766c:	300b883a 	mov	r5,r6
   87670:	2027883a 	mov	r19,r4
   87674:	8809883a 	mov	r4,r17
   87678:	dc800115 	stw	r18,4(sp)
   8767c:	dfc00415 	stw	ra,16(sp)
   87680:	dc000315 	stw	r16,12(sp)
   87684:	3025883a 	mov	r18,r6
   87688:	00875f80 	call	875f8 <__mcmp>
   8768c:	10004026 	beq	r2,zero,87790 <__mdiff+0x134>
   87690:	10004e16 	blt	r2,zero,877cc <__mdiff+0x170>
   87694:	0021883a 	mov	r16,zero
   87698:	89400117 	ldw	r5,4(r17)
   8769c:	9809883a 	mov	r4,r19
   876a0:	0086cf80 	call	86cf8 <_Balloc>
   876a4:	1019883a 	mov	r12,r2
   876a8:	8a800417 	ldw	r10,16(r17)
   876ac:	90800417 	ldw	r2,16(r18)
   876b0:	8a000504 	addi	r8,r17,20
   876b4:	500690ba 	slli	r3,r10,2
   876b8:	100490ba 	slli	r2,r2,2
   876bc:	91800504 	addi	r6,r18,20
   876c0:	64000315 	stw	r16,12(r12)
   876c4:	1a1b883a 	add	r13,r3,r8
   876c8:	1197883a 	add	r11,r2,r6
   876cc:	61c00504 	addi	r7,r12,20
   876d0:	0013883a 	mov	r9,zero
   876d4:	41000017 	ldw	r4,0(r8)
   876d8:	31400017 	ldw	r5,0(r6)
   876dc:	31800104 	addi	r6,r6,4
   876e0:	20bfffcc 	andi	r2,r4,65535
   876e4:	28ffffcc 	andi	r3,r5,65535
   876e8:	10c5c83a 	sub	r2,r2,r3
   876ec:	1245883a 	add	r2,r2,r9
   876f0:	2008d43a 	srli	r4,r4,16
   876f4:	280ad43a 	srli	r5,r5,16
   876f8:	1013d43a 	srai	r9,r2,16
   876fc:	3880000d 	sth	r2,0(r7)
   87700:	2149c83a 	sub	r4,r4,r5
   87704:	2247883a 	add	r3,r4,r9
   87708:	38c0008d 	sth	r3,2(r7)
   8770c:	42000104 	addi	r8,r8,4
   87710:	39c00104 	addi	r7,r7,4
   87714:	1813d43a 	srai	r9,r3,16
   87718:	32ffee36 	bltu	r6,r11,876d4 <__mdiff+0x78>
   8771c:	43400c2e 	bgeu	r8,r13,87750 <__mdiff+0xf4>
   87720:	40c00017 	ldw	r3,0(r8)
   87724:	42000104 	addi	r8,r8,4
   87728:	18bfffcc 	andi	r2,r3,65535
   8772c:	1245883a 	add	r2,r2,r9
   87730:	1013d43a 	srai	r9,r2,16
   87734:	1806d43a 	srli	r3,r3,16
   87738:	3880000d 	sth	r2,0(r7)
   8773c:	1a47883a 	add	r3,r3,r9
   87740:	38c0008d 	sth	r3,2(r7)
   87744:	1813d43a 	srai	r9,r3,16
   87748:	39c00104 	addi	r7,r7,4
   8774c:	437ff436 	bltu	r8,r13,87720 <__mdiff+0xc4>
   87750:	39ffff04 	addi	r7,r7,-4
   87754:	38800017 	ldw	r2,0(r7)
   87758:	1000041e 	bne	r2,zero,8776c <__mdiff+0x110>
   8775c:	39ffff04 	addi	r7,r7,-4
   87760:	38800017 	ldw	r2,0(r7)
   87764:	52bfffc4 	addi	r10,r10,-1
   87768:	103ffc26 	beq	r2,zero,8775c <__mdiff+0x100>
   8776c:	6005883a 	mov	r2,r12
   87770:	62800415 	stw	r10,16(r12)
   87774:	dfc00417 	ldw	ra,16(sp)
   87778:	dc000317 	ldw	r16,12(sp)
   8777c:	dc400217 	ldw	r17,8(sp)
   87780:	dc800117 	ldw	r18,4(sp)
   87784:	dcc00017 	ldw	r19,0(sp)
   87788:	dec00504 	addi	sp,sp,20
   8778c:	f800283a 	ret
   87790:	9809883a 	mov	r4,r19
   87794:	000b883a 	mov	r5,zero
   87798:	0086cf80 	call	86cf8 <_Balloc>
   8779c:	1019883a 	mov	r12,r2
   877a0:	00800044 	movi	r2,1
   877a4:	60800415 	stw	r2,16(r12)
   877a8:	6005883a 	mov	r2,r12
   877ac:	60000515 	stw	zero,20(r12)
   877b0:	dfc00417 	ldw	ra,16(sp)
   877b4:	dc000317 	ldw	r16,12(sp)
   877b8:	dc400217 	ldw	r17,8(sp)
   877bc:	dc800117 	ldw	r18,4(sp)
   877c0:	dcc00017 	ldw	r19,0(sp)
   877c4:	dec00504 	addi	sp,sp,20
   877c8:	f800283a 	ret
   877cc:	8819883a 	mov	r12,r17
   877d0:	04000044 	movi	r16,1
   877d4:	9023883a 	mov	r17,r18
   877d8:	6025883a 	mov	r18,r12
   877dc:	003fae06 	br	87698 <__mdiff+0x3c>

000877e0 <_ulp>:
   877e0:	295ffc2c 	andhi	r5,r5,32752
   877e4:	013f3034 	movhi	r4,64704
   877e8:	21000004 	addi	r4,r4,0
   877ec:	290b883a 	add	r5,r5,r4
   877f0:	0145c83a 	sub	r2,zero,r5
   877f4:	000d883a 	mov	r6,zero
   877f8:	280f883a 	mov	r7,r5
   877fc:	0140030e 	bge	zero,r5,8780c <_ulp+0x2c>
   87800:	3005883a 	mov	r2,r6
   87804:	3807883a 	mov	r3,r7
   87808:	f800283a 	ret
   8780c:	100bd53a 	srai	r5,r2,20
   87810:	008004c4 	movi	r2,19
   87814:	01000044 	movi	r4,1
   87818:	11400c0e 	bge	r2,r5,8784c <_ulp+0x6c>
   8781c:	008007c4 	movi	r2,31
   87820:	297ffb04 	addi	r5,r5,-20
   87824:	1147c83a 	sub	r3,r2,r5
   87828:	00800784 	movi	r2,30
   8782c:	000f883a 	mov	r7,zero
   87830:	11400216 	blt	r2,r5,8783c <_ulp+0x5c>
   87834:	00800044 	movi	r2,1
   87838:	10c8983a 	sll	r4,r2,r3
   8783c:	200d883a 	mov	r6,r4
   87840:	3005883a 	mov	r2,r6
   87844:	3807883a 	mov	r3,r7
   87848:	f800283a 	ret
   8784c:	00800234 	movhi	r2,8
   87850:	10800004 	addi	r2,r2,0
   87854:	114fd83a 	sra	r7,r2,r5
   87858:	000d883a 	mov	r6,zero
   8785c:	3005883a 	mov	r2,r6
   87860:	3807883a 	mov	r3,r7
   87864:	f800283a 	ret

00087868 <_b2d>:
   87868:	defff904 	addi	sp,sp,-28
   8786c:	dc000515 	stw	r16,20(sp)
   87870:	dc400415 	stw	r17,16(sp)
   87874:	dd400015 	stw	r21,0(sp)
   87878:	dfc00615 	stw	ra,24(sp)
   8787c:	dc800315 	stw	r18,12(sp)
   87880:	dcc00215 	stw	r19,8(sp)
   87884:	dd000115 	stw	r20,4(sp)
   87888:	20800417 	ldw	r2,16(r4)
   8788c:	25400504 	addi	r21,r4,20
   87890:	2823883a 	mov	r17,r5
   87894:	100490ba 	slli	r2,r2,2
   87898:	1561883a 	add	r16,r2,r21
   8789c:	843fff04 	addi	r16,r16,-4
   878a0:	85000017 	ldw	r20,0(r16)
   878a4:	a009883a 	mov	r4,r20
   878a8:	0086fec0 	call	86fec <_hi0bits>
   878ac:	100b883a 	mov	r5,r2
   878b0:	00800804 	movi	r2,32
   878b4:	1145c83a 	sub	r2,r2,r5
   878b8:	00c00284 	movi	r3,10
   878bc:	88800015 	stw	r2,0(r17)
   878c0:	1940240e 	bge	r3,r5,87954 <_b2d+0xec>
   878c4:	0009883a 	mov	r4,zero
   878c8:	ac001136 	bltu	r21,r16,87910 <_b2d+0xa8>
   878cc:	297ffd44 	addi	r5,r5,-11
   878d0:	28001326 	beq	r5,zero,87920 <_b2d+0xb8>
   878d4:	00800804 	movi	r2,32
   878d8:	1145c83a 	sub	r2,r2,r5
   878dc:	a146983a 	sll	r3,r20,r5
   878e0:	2084d83a 	srl	r2,r4,r2
   878e4:	0029883a 	mov	r20,zero
   878e8:	1886b03a 	or	r3,r3,r2
   878ec:	1ccffc34 	orhi	r19,r3,16368
   878f0:	ac00012e 	bgeu	r21,r16,878f8 <_b2d+0x90>
   878f4:	853fff17 	ldw	r20,-4(r16)
   878f8:	00800804 	movi	r2,32
   878fc:	1145c83a 	sub	r2,r2,r5
   87900:	a084d83a 	srl	r2,r20,r2
   87904:	2146983a 	sll	r3,r4,r5
   87908:	18a4b03a 	or	r18,r3,r2
   8790c:	00000606 	br	87928 <_b2d+0xc0>
   87910:	843fff04 	addi	r16,r16,-4
   87914:	297ffd44 	addi	r5,r5,-11
   87918:	81000017 	ldw	r4,0(r16)
   8791c:	283fed1e 	bne	r5,zero,878d4 <_b2d+0x6c>
   87920:	a4cffc34 	orhi	r19,r20,16368
   87924:	2025883a 	mov	r18,r4
   87928:	9005883a 	mov	r2,r18
   8792c:	9807883a 	mov	r3,r19
   87930:	dfc00617 	ldw	ra,24(sp)
   87934:	dc000517 	ldw	r16,20(sp)
   87938:	dc400417 	ldw	r17,16(sp)
   8793c:	dc800317 	ldw	r18,12(sp)
   87940:	dcc00217 	ldw	r19,8(sp)
   87944:	dd000117 	ldw	r20,4(sp)
   87948:	dd400017 	ldw	r21,0(sp)
   8794c:	dec00704 	addi	sp,sp,28
   87950:	f800283a 	ret
   87954:	008002c4 	movi	r2,11
   87958:	1145c83a 	sub	r2,r2,r5
   8795c:	a084d83a 	srl	r2,r20,r2
   87960:	0009883a 	mov	r4,zero
   87964:	14cffc34 	orhi	r19,r2,16368
   87968:	ac00012e 	bgeu	r21,r16,87970 <_b2d+0x108>
   8796c:	813fff17 	ldw	r4,-4(r16)
   87970:	00c002c4 	movi	r3,11
   87974:	1947c83a 	sub	r3,r3,r5
   87978:	28800544 	addi	r2,r5,21
   8797c:	a084983a 	sll	r2,r20,r2
   87980:	20c6d83a 	srl	r3,r4,r3
   87984:	18a4b03a 	or	r18,r3,r2
   87988:	003fe706 	br	87928 <_b2d+0xc0>

0008798c <_d2b>:
   8798c:	defff404 	addi	sp,sp,-48
   87990:	dd000515 	stw	r20,20(sp)
   87994:	05000044 	movi	r20,1
   87998:	dc000915 	stw	r16,36(sp)
   8799c:	2821883a 	mov	r16,r5
   879a0:	a00b883a 	mov	r5,r20
   879a4:	df000a15 	stw	fp,40(sp)
   879a8:	dc400815 	stw	r17,32(sp)
   879ac:	dc800715 	stw	r18,28(sp)
   879b0:	3023883a 	mov	r17,r6
   879b4:	dcc00615 	stw	r19,24(sp)
   879b8:	dd400415 	stw	r21,16(sp)
   879bc:	dd800315 	stw	r22,12(sp)
   879c0:	ddc00215 	stw	r23,8(sp)
   879c4:	dfc00b15 	stw	ra,44(sp)
   879c8:	382f883a 	mov	r23,r7
   879cc:	df000c17 	ldw	fp,48(sp)
   879d0:	0086cf80 	call	86cf8 <_Balloc>
   879d4:	1027883a 	mov	r19,r2
   879d8:	00e00034 	movhi	r3,32768
   879dc:	18ffffc4 	addi	r3,r3,-1
   879e0:	00800434 	movhi	r2,16
   879e4:	10bfffc4 	addi	r2,r2,-1
   879e8:	8888703a 	and	r4,r17,r2
   879ec:	1c62703a 	and	r17,r3,r17
   879f0:	882cd53a 	srli	r22,r17,20
   879f4:	9c800504 	addi	r18,r19,20
   879f8:	b02b003a 	cmpeq	r21,r22,zero
   879fc:	a800011e 	bne	r21,zero,87a04 <_d2b+0x78>
   87a00:	21000434 	orhi	r4,r4,16
   87a04:	d9000115 	stw	r4,4(sp)
   87a08:	80002226 	beq	r16,zero,87a94 <_d2b+0x108>
   87a0c:	d809883a 	mov	r4,sp
   87a10:	dc000015 	stw	r16,0(sp)
   87a14:	00870500 	call	87050 <_lo0bits>
   87a18:	100d883a 	mov	r6,r2
   87a1c:	10002f1e 	bne	r2,zero,87adc <_d2b+0x150>
   87a20:	d8800017 	ldw	r2,0(sp)
   87a24:	90800015 	stw	r2,0(r18)
   87a28:	d9000117 	ldw	r4,4(sp)
   87a2c:	2005003a 	cmpeq	r2,r4,zero
   87a30:	00c00084 	movi	r3,2
   87a34:	1885c83a 	sub	r2,r3,r2
   87a38:	100b883a 	mov	r5,r2
   87a3c:	91000115 	stw	r4,4(r18)
   87a40:	98800415 	stw	r2,16(r19)
   87a44:	a8001b1e 	bne	r21,zero,87ab4 <_d2b+0x128>
   87a48:	b185883a 	add	r2,r22,r6
   87a4c:	10bef344 	addi	r2,r2,-1075
   87a50:	00c00d44 	movi	r3,53
   87a54:	b8800015 	stw	r2,0(r23)
   87a58:	1987c83a 	sub	r3,r3,r6
   87a5c:	e0c00015 	stw	r3,0(fp)
   87a60:	9805883a 	mov	r2,r19
   87a64:	dfc00b17 	ldw	ra,44(sp)
   87a68:	df000a17 	ldw	fp,40(sp)
   87a6c:	dc000917 	ldw	r16,36(sp)
   87a70:	dc400817 	ldw	r17,32(sp)
   87a74:	dc800717 	ldw	r18,28(sp)
   87a78:	dcc00617 	ldw	r19,24(sp)
   87a7c:	dd000517 	ldw	r20,20(sp)
   87a80:	dd400417 	ldw	r21,16(sp)
   87a84:	dd800317 	ldw	r22,12(sp)
   87a88:	ddc00217 	ldw	r23,8(sp)
   87a8c:	dec00c04 	addi	sp,sp,48
   87a90:	f800283a 	ret
   87a94:	d9000104 	addi	r4,sp,4
   87a98:	00870500 	call	87050 <_lo0bits>
   87a9c:	d8c00117 	ldw	r3,4(sp)
   87aa0:	9d000415 	stw	r20,16(r19)
   87aa4:	a00b883a 	mov	r5,r20
   87aa8:	90c00015 	stw	r3,0(r18)
   87aac:	11800804 	addi	r6,r2,32
   87ab0:	a83fe526 	beq	r21,zero,87a48 <_d2b+0xbc>
   87ab4:	280490ba 	slli	r2,r5,2
   87ab8:	30fef384 	addi	r3,r6,-1074
   87abc:	2820917a 	slli	r16,r5,5
   87ac0:	1485883a 	add	r2,r2,r18
   87ac4:	113fff17 	ldw	r4,-4(r2)
   87ac8:	b8c00015 	stw	r3,0(r23)
   87acc:	0086fec0 	call	86fec <_hi0bits>
   87ad0:	80a1c83a 	sub	r16,r16,r2
   87ad4:	e4000015 	stw	r16,0(fp)
   87ad8:	003fe106 	br	87a60 <_d2b+0xd4>
   87adc:	00c00804 	movi	r3,32
   87ae0:	1887c83a 	sub	r3,r3,r2
   87ae4:	d8800117 	ldw	r2,4(sp)
   87ae8:	d9000017 	ldw	r4,0(sp)
   87aec:	10c4983a 	sll	r2,r2,r3
   87af0:	1104b03a 	or	r2,r2,r4
   87af4:	90800015 	stw	r2,0(r18)
   87af8:	d8c00117 	ldw	r3,4(sp)
   87afc:	1988d83a 	srl	r4,r3,r6
   87b00:	d9000115 	stw	r4,4(sp)
   87b04:	003fc906 	br	87a2c <_d2b+0xa0>

00087b08 <_ratio>:
   87b08:	defff904 	addi	sp,sp,-28
   87b0c:	dc400515 	stw	r17,20(sp)
   87b10:	2823883a 	mov	r17,r5
   87b14:	d80b883a 	mov	r5,sp
   87b18:	dfc00615 	stw	ra,24(sp)
   87b1c:	dc800415 	stw	r18,16(sp)
   87b20:	dcc00315 	stw	r19,12(sp)
   87b24:	2025883a 	mov	r18,r4
   87b28:	dd000215 	stw	r20,8(sp)
   87b2c:	00878680 	call	87868 <_b2d>
   87b30:	8809883a 	mov	r4,r17
   87b34:	d9400104 	addi	r5,sp,4
   87b38:	1027883a 	mov	r19,r2
   87b3c:	1829883a 	mov	r20,r3
   87b40:	00878680 	call	87868 <_b2d>
   87b44:	89000417 	ldw	r4,16(r17)
   87b48:	91c00417 	ldw	r7,16(r18)
   87b4c:	d9800117 	ldw	r6,4(sp)
   87b50:	1813883a 	mov	r9,r3
   87b54:	390fc83a 	sub	r7,r7,r4
   87b58:	1009883a 	mov	r4,r2
   87b5c:	d8800017 	ldw	r2,0(sp)
   87b60:	380e917a 	slli	r7,r7,5
   87b64:	2011883a 	mov	r8,r4
   87b68:	1185c83a 	sub	r2,r2,r6
   87b6c:	11c5883a 	add	r2,r2,r7
   87b70:	100c953a 	slli	r6,r2,20
   87b74:	00800d0e 	bge	zero,r2,87bac <_ratio+0xa4>
   87b78:	3529883a 	add	r20,r6,r20
   87b7c:	a00b883a 	mov	r5,r20
   87b80:	480f883a 	mov	r7,r9
   87b84:	9809883a 	mov	r4,r19
   87b88:	400d883a 	mov	r6,r8
   87b8c:	0089d200 	call	89d20 <__divdf3>
   87b90:	dfc00617 	ldw	ra,24(sp)
   87b94:	dc400517 	ldw	r17,20(sp)
   87b98:	dc800417 	ldw	r18,16(sp)
   87b9c:	dcc00317 	ldw	r19,12(sp)
   87ba0:	dd000217 	ldw	r20,8(sp)
   87ba4:	dec00704 	addi	sp,sp,28
   87ba8:	f800283a 	ret
   87bac:	1993c83a 	sub	r9,r3,r6
   87bb0:	003ff206 	br	87b7c <_ratio+0x74>

00087bb4 <_mprec_log10>:
   87bb4:	defffe04 	addi	sp,sp,-8
   87bb8:	008005c4 	movi	r2,23
   87bbc:	dc000015 	stw	r16,0(sp)
   87bc0:	dfc00115 	stw	ra,4(sp)
   87bc4:	2021883a 	mov	r16,r4
   87bc8:	0011883a 	mov	r8,zero
   87bcc:	024ffc34 	movhi	r9,16368
   87bd0:	4a400004 	addi	r9,r9,0
   87bd4:	11000e16 	blt	r2,r4,87c10 <_mprec_log10+0x5c>
   87bd8:	200490fa 	slli	r2,r4,3
   87bdc:	01400274 	movhi	r5,9
   87be0:	295b3104 	addi	r5,r5,27844
   87be4:	1145883a 	add	r2,r2,r5
   87be8:	10c00017 	ldw	r3,0(r2)
   87bec:	11000117 	ldw	r4,4(r2)
   87bf0:	180d883a 	mov	r6,r3
   87bf4:	200f883a 	mov	r7,r4
   87bf8:	3807883a 	mov	r3,r7
   87bfc:	3005883a 	mov	r2,r6
   87c00:	dfc00117 	ldw	ra,4(sp)
   87c04:	dc000017 	ldw	r16,0(sp)
   87c08:	dec00204 	addi	sp,sp,8
   87c0c:	f800283a 	ret
   87c10:	04000c0e 	bge	zero,r16,87c44 <_mprec_log10+0x90>
   87c14:	0005883a 	mov	r2,zero
   87c18:	00d00934 	movhi	r3,16420
   87c1c:	18c00004 	addi	r3,r3,0
   87c20:	480b883a 	mov	r5,r9
   87c24:	4009883a 	mov	r4,r8
   87c28:	180f883a 	mov	r7,r3
   87c2c:	100d883a 	mov	r6,r2
   87c30:	00899200 	call	89920 <__muldf3>
   87c34:	843fffc4 	addi	r16,r16,-1
   87c38:	1011883a 	mov	r8,r2
   87c3c:	1813883a 	mov	r9,r3
   87c40:	043ff416 	blt	zero,r16,87c14 <_mprec_log10+0x60>
   87c44:	400d883a 	mov	r6,r8
   87c48:	480f883a 	mov	r7,r9
   87c4c:	3807883a 	mov	r3,r7
   87c50:	3005883a 	mov	r2,r6
   87c54:	dfc00117 	ldw	ra,4(sp)
   87c58:	dc000017 	ldw	r16,0(sp)
   87c5c:	dec00204 	addi	sp,sp,8
   87c60:	f800283a 	ret

00087c64 <_realloc_r>:
   87c64:	defff404 	addi	sp,sp,-48
   87c68:	dc400815 	stw	r17,32(sp)
   87c6c:	dd800315 	stw	r22,12(sp)
   87c70:	dfc00b15 	stw	ra,44(sp)
   87c74:	df000a15 	stw	fp,40(sp)
   87c78:	dc000915 	stw	r16,36(sp)
   87c7c:	dc800715 	stw	r18,28(sp)
   87c80:	dcc00615 	stw	r19,24(sp)
   87c84:	dd000515 	stw	r20,20(sp)
   87c88:	dd400415 	stw	r21,16(sp)
   87c8c:	ddc00215 	stw	r23,8(sp)
   87c90:	2823883a 	mov	r17,r5
   87c94:	202d883a 	mov	r22,r4
   87c98:	28007826 	beq	r5,zero,87e7c <_realloc_r+0x218>
   87c9c:	2c3ffe04 	addi	r16,r5,-8
   87ca0:	d9800115 	stw	r6,4(sp)
   87ca4:	008b8a00 	call	8b8a0 <__malloc_lock>
   87ca8:	81400117 	ldw	r5,4(r16)
   87cac:	d9800117 	ldw	r6,4(sp)
   87cb0:	00bfff04 	movi	r2,-4
   87cb4:	28a4703a 	and	r18,r5,r2
   87cb8:	30c002c4 	addi	r3,r6,11
   87cbc:	00800584 	movi	r2,22
   87cc0:	8027883a 	mov	r19,r16
   87cc4:	9013883a 	mov	r9,r18
   87cc8:	05000404 	movi	r20,16
   87ccc:	10c05b36 	bltu	r2,r3,87e3c <_realloc_r+0x1d8>
   87cd0:	a1805d36 	bltu	r20,r6,87e48 <_realloc_r+0x1e4>
   87cd4:	9500a80e 	bge	r18,r20,87f78 <_realloc_r+0x314>
   87cd8:	07000274 	movhi	fp,9
   87cdc:	e71cf304 	addi	fp,fp,29644
   87ce0:	e2000217 	ldw	r8,8(fp)
   87ce4:	8489883a 	add	r4,r16,r18
   87ce8:	e015883a 	mov	r10,fp
   87cec:	4100c326 	beq	r8,r4,87ffc <_realloc_r+0x398>
   87cf0:	21c00117 	ldw	r7,4(r4)
   87cf4:	00bfff84 	movi	r2,-2
   87cf8:	3884703a 	and	r2,r7,r2
   87cfc:	1105883a 	add	r2,r2,r4
   87d00:	10c00117 	ldw	r3,4(r2)
   87d04:	18c0004c 	andi	r3,r3,1
   87d08:	1800b91e 	bne	r3,zero,87ff0 <_realloc_r+0x38c>
   87d0c:	00bfff04 	movi	r2,-4
   87d10:	388e703a 	and	r7,r7,r2
   87d14:	4100c526 	beq	r8,r4,8802c <_realloc_r+0x3c8>
   87d18:	3c85883a 	add	r2,r7,r18
   87d1c:	1500bd0e 	bge	r2,r20,88014 <_realloc_r+0x3b0>
   87d20:	2880004c 	andi	r2,r5,1
   87d24:	10000e1e 	bne	r2,zero,87d60 <_realloc_r+0xfc>
   87d28:	80800017 	ldw	r2,0(r16)
   87d2c:	80afc83a 	sub	r23,r16,r2
   87d30:	b8c00117 	ldw	r3,4(r23)
   87d34:	00bfff04 	movi	r2,-4
   87d38:	188a703a 	and	r5,r3,r2
   87d3c:	20000526 	beq	r4,zero,87d54 <_realloc_r+0xf0>
   87d40:	e0800217 	ldw	r2,8(fp)
   87d44:	1100cf26 	beq	r2,r4,88084 <_realloc_r+0x420>
   87d48:	3945883a 	add	r2,r7,r5
   87d4c:	1485883a 	add	r2,r2,r18
   87d50:	1500590e 	bge	r2,r20,87eb8 <_realloc_r+0x254>
   87d54:	b8000226 	beq	r23,zero,87d60 <_realloc_r+0xfc>
   87d58:	2c87883a 	add	r3,r5,r18
   87d5c:	1d00c10e 	bge	r3,r20,88064 <_realloc_r+0x400>
   87d60:	300b883a 	mov	r5,r6
   87d64:	b009883a 	mov	r4,r22
   87d68:	00863140 	call	86314 <_malloc_r>
   87d6c:	102b883a 	mov	r21,r2
   87d70:	10010d26 	beq	r2,zero,881a8 <_realloc_r+0x544>
   87d74:	98800117 	ldw	r2,4(r19)
   87d78:	00ffff84 	movi	r3,-2
   87d7c:	ac3ffe04 	addi	r16,r21,-8
   87d80:	10c4703a 	and	r2,r2,r3
   87d84:	14c5883a 	add	r2,r2,r19
   87d88:	8080fd26 	beq	r16,r2,88180 <_realloc_r+0x51c>
   87d8c:	91bfff04 	addi	r6,r18,-4
   87d90:	00800904 	movi	r2,36
   87d94:	11809b36 	bltu	r2,r6,88004 <_realloc_r+0x3a0>
   87d98:	008004c4 	movi	r2,19
   87d9c:	880b883a 	mov	r5,r17
   87da0:	a809883a 	mov	r4,r21
   87da4:	1180162e 	bgeu	r2,r6,87e00 <_realloc_r+0x19c>
   87da8:	88800017 	ldw	r2,0(r17)
   87dac:	89400204 	addi	r5,r17,8
   87db0:	a9000204 	addi	r4,r21,8
   87db4:	a8800015 	stw	r2,0(r21)
   87db8:	88c00117 	ldw	r3,4(r17)
   87dbc:	008006c4 	movi	r2,27
   87dc0:	a8c00115 	stw	r3,4(r21)
   87dc4:	11800e2e 	bgeu	r2,r6,87e00 <_realloc_r+0x19c>
   87dc8:	28800017 	ldw	r2,0(r5)
   87dcc:	89400404 	addi	r5,r17,16
   87dd0:	20800015 	stw	r2,0(r4)
   87dd4:	88c00317 	ldw	r3,12(r17)
   87dd8:	008008c4 	movi	r2,35
   87ddc:	a9000404 	addi	r4,r21,16
   87de0:	a8c00315 	stw	r3,12(r21)
   87de4:	1180062e 	bgeu	r2,r6,87e00 <_realloc_r+0x19c>
   87de8:	28800017 	ldw	r2,0(r5)
   87dec:	89400604 	addi	r5,r17,24
   87df0:	20800015 	stw	r2,0(r4)
   87df4:	88c00517 	ldw	r3,20(r17)
   87df8:	a9000604 	addi	r4,r21,24
   87dfc:	a8c00515 	stw	r3,20(r21)
   87e00:	28800017 	ldw	r2,0(r5)
   87e04:	29400104 	addi	r5,r5,4
   87e08:	20800015 	stw	r2,0(r4)
   87e0c:	28c00017 	ldw	r3,0(r5)
   87e10:	21000104 	addi	r4,r4,4
   87e14:	20c00015 	stw	r3,0(r4)
   87e18:	28800117 	ldw	r2,4(r5)
   87e1c:	20800115 	stw	r2,4(r4)
   87e20:	b009883a 	mov	r4,r22
   87e24:	880b883a 	mov	r5,r17
   87e28:	00859cc0 	call	859cc <_free_r>
   87e2c:	b009883a 	mov	r4,r22
   87e30:	008b99c0 	call	8b99c <__malloc_unlock>
   87e34:	a805883a 	mov	r2,r21
   87e38:	00000406 	br	87e4c <_realloc_r+0x1e8>
   87e3c:	00bffe04 	movi	r2,-8
   87e40:	18a8703a 	and	r20,r3,r2
   87e44:	a03fa20e 	bge	r20,zero,87cd0 <_realloc_r+0x6c>
   87e48:	0005883a 	mov	r2,zero
   87e4c:	dfc00b17 	ldw	ra,44(sp)
   87e50:	df000a17 	ldw	fp,40(sp)
   87e54:	dc000917 	ldw	r16,36(sp)
   87e58:	dc400817 	ldw	r17,32(sp)
   87e5c:	dc800717 	ldw	r18,28(sp)
   87e60:	dcc00617 	ldw	r19,24(sp)
   87e64:	dd000517 	ldw	r20,20(sp)
   87e68:	dd400417 	ldw	r21,16(sp)
   87e6c:	dd800317 	ldw	r22,12(sp)
   87e70:	ddc00217 	ldw	r23,8(sp)
   87e74:	dec00c04 	addi	sp,sp,48
   87e78:	f800283a 	ret
   87e7c:	300b883a 	mov	r5,r6
   87e80:	02000234 	movhi	r8,8
   87e84:	4218c504 	addi	r8,r8,25364
   87e88:	dfc00b17 	ldw	ra,44(sp)
   87e8c:	df000a17 	ldw	fp,40(sp)
   87e90:	dc000917 	ldw	r16,36(sp)
   87e94:	dc400817 	ldw	r17,32(sp)
   87e98:	dc800717 	ldw	r18,28(sp)
   87e9c:	dcc00617 	ldw	r19,24(sp)
   87ea0:	dd000517 	ldw	r20,20(sp)
   87ea4:	dd400417 	ldw	r21,16(sp)
   87ea8:	dd800317 	ldw	r22,12(sp)
   87eac:	ddc00217 	ldw	r23,8(sp)
   87eb0:	dec00c04 	addi	sp,sp,48
   87eb4:	4000683a 	jmp	r8
   87eb8:	21400217 	ldw	r5,8(r4)
   87ebc:	21000317 	ldw	r4,12(r4)
   87ec0:	b821883a 	mov	r16,r23
   87ec4:	49bfff04 	addi	r6,r9,-4
   87ec8:	21400215 	stw	r5,8(r4)
   87ecc:	29000315 	stw	r4,12(r5)
   87ed0:	b9000317 	ldw	r4,12(r23)
   87ed4:	b9400217 	ldw	r5,8(r23)
   87ed8:	1025883a 	mov	r18,r2
   87edc:	21400215 	stw	r5,8(r4)
   87ee0:	29000315 	stw	r4,12(r5)
   87ee4:	00800904 	movi	r2,36
   87ee8:	85400204 	addi	r21,r16,8
   87eec:	1180a036 	bltu	r2,r6,88170 <_realloc_r+0x50c>
   87ef0:	008004c4 	movi	r2,19
   87ef4:	880f883a 	mov	r7,r17
   87ef8:	a809883a 	mov	r4,r21
   87efc:	1180162e 	bgeu	r2,r6,87f58 <_realloc_r+0x2f4>
   87f00:	88800017 	ldw	r2,0(r17)
   87f04:	89c00204 	addi	r7,r17,8
   87f08:	81000404 	addi	r4,r16,16
   87f0c:	a8800015 	stw	r2,0(r21)
   87f10:	88c00117 	ldw	r3,4(r17)
   87f14:	008006c4 	movi	r2,27
   87f18:	80c00315 	stw	r3,12(r16)
   87f1c:	11800e2e 	bgeu	r2,r6,87f58 <_realloc_r+0x2f4>
   87f20:	38800017 	ldw	r2,0(r7)
   87f24:	89c00404 	addi	r7,r17,16
   87f28:	20800015 	stw	r2,0(r4)
   87f2c:	88c00317 	ldw	r3,12(r17)
   87f30:	008008c4 	movi	r2,35
   87f34:	81000604 	addi	r4,r16,24
   87f38:	80c00515 	stw	r3,20(r16)
   87f3c:	1180062e 	bgeu	r2,r6,87f58 <_realloc_r+0x2f4>
   87f40:	38800017 	ldw	r2,0(r7)
   87f44:	89c00604 	addi	r7,r17,24
   87f48:	20800015 	stw	r2,0(r4)
   87f4c:	88c00517 	ldw	r3,20(r17)
   87f50:	81000804 	addi	r4,r16,32
   87f54:	80c00715 	stw	r3,28(r16)
   87f58:	38800017 	ldw	r2,0(r7)
   87f5c:	39c00104 	addi	r7,r7,4
   87f60:	20800015 	stw	r2,0(r4)
   87f64:	38c00017 	ldw	r3,0(r7)
   87f68:	21000104 	addi	r4,r4,4
   87f6c:	20c00015 	stw	r3,0(r4)
   87f70:	38800117 	ldw	r2,4(r7)
   87f74:	20800115 	stw	r2,4(r4)
   87f78:	950dc83a 	sub	r6,r18,r20
   87f7c:	008003c4 	movi	r2,15
   87f80:	11800c36 	bltu	r2,r6,87fb4 <_realloc_r+0x350>
   87f84:	80800117 	ldw	r2,4(r16)
   87f88:	8489883a 	add	r4,r16,r18
   87f8c:	1080004c 	andi	r2,r2,1
   87f90:	1484b03a 	or	r2,r2,r18
   87f94:	80800115 	stw	r2,4(r16)
   87f98:	20c00117 	ldw	r3,4(r4)
   87f9c:	18c00054 	ori	r3,r3,1
   87fa0:	20c00115 	stw	r3,4(r4)
   87fa4:	b009883a 	mov	r4,r22
   87fa8:	008b99c0 	call	8b99c <__malloc_unlock>
   87fac:	80800204 	addi	r2,r16,8
   87fb0:	003fa606 	br	87e4c <_realloc_r+0x1e8>
   87fb4:	80800117 	ldw	r2,4(r16)
   87fb8:	850b883a 	add	r5,r16,r20
   87fbc:	31000054 	ori	r4,r6,1
   87fc0:	1080004c 	andi	r2,r2,1
   87fc4:	1504b03a 	or	r2,r2,r20
   87fc8:	80800115 	stw	r2,4(r16)
   87fcc:	29000115 	stw	r4,4(r5)
   87fd0:	2987883a 	add	r3,r5,r6
   87fd4:	18800117 	ldw	r2,4(r3)
   87fd8:	29400204 	addi	r5,r5,8
   87fdc:	b009883a 	mov	r4,r22
   87fe0:	10800054 	ori	r2,r2,1
   87fe4:	18800115 	stw	r2,4(r3)
   87fe8:	00859cc0 	call	859cc <_free_r>
   87fec:	003fed06 	br	87fa4 <_realloc_r+0x340>
   87ff0:	0009883a 	mov	r4,zero
   87ff4:	000f883a 	mov	r7,zero
   87ff8:	003f4906 	br	87d20 <_realloc_r+0xbc>
   87ffc:	21c00117 	ldw	r7,4(r4)
   88000:	003f4206 	br	87d0c <_realloc_r+0xa8>
   88004:	a809883a 	mov	r4,r21
   88008:	880b883a 	mov	r5,r17
   8800c:	0086a980 	call	86a98 <memcpy>
   88010:	003f8306 	br	87e20 <_realloc_r+0x1bc>
   88014:	21400217 	ldw	r5,8(r4)
   88018:	21000317 	ldw	r4,12(r4)
   8801c:	1025883a 	mov	r18,r2
   88020:	21400215 	stw	r5,8(r4)
   88024:	29000315 	stw	r4,12(r5)
   88028:	003fd306 	br	87f78 <_realloc_r+0x314>
   8802c:	3c87883a 	add	r3,r7,r18
   88030:	a0800404 	addi	r2,r20,16
   88034:	18bf3a16 	blt	r3,r2,87d20 <_realloc_r+0xbc>
   88038:	1d05c83a 	sub	r2,r3,r20
   8803c:	850b883a 	add	r5,r16,r20
   88040:	10800054 	ori	r2,r2,1
   88044:	28800115 	stw	r2,4(r5)
   88048:	80c00117 	ldw	r3,4(r16)
   8804c:	51400215 	stw	r5,8(r10)
   88050:	b009883a 	mov	r4,r22
   88054:	18c0004c 	andi	r3,r3,1
   88058:	1d0ab03a 	or	r5,r3,r20
   8805c:	81400115 	stw	r5,4(r16)
   88060:	003fd106 	br	87fa8 <_realloc_r+0x344>
   88064:	b9000317 	ldw	r4,12(r23)
   88068:	b9400217 	ldw	r5,8(r23)
   8806c:	b821883a 	mov	r16,r23
   88070:	49bfff04 	addi	r6,r9,-4
   88074:	1825883a 	mov	r18,r3
   88078:	21400215 	stw	r5,8(r4)
   8807c:	29000315 	stw	r4,12(r5)
   88080:	003f9806 	br	87ee4 <_realloc_r+0x280>
   88084:	3945883a 	add	r2,r7,r5
   88088:	1485883a 	add	r2,r2,r18
   8808c:	a0c00404 	addi	r3,r20,16
   88090:	d8800015 	stw	r2,0(sp)
   88094:	10ff2f16 	blt	r2,r3,87d54 <_realloc_r+0xf0>
   88098:	b9000317 	ldw	r4,12(r23)
   8809c:	b9400217 	ldw	r5,8(r23)
   880a0:	49bfff04 	addi	r6,r9,-4
   880a4:	00800904 	movi	r2,36
   880a8:	21400215 	stw	r5,8(r4)
   880ac:	29000315 	stw	r4,12(r5)
   880b0:	bd400204 	addi	r21,r23,8
   880b4:	11803836 	bltu	r2,r6,88198 <_realloc_r+0x534>
   880b8:	008004c4 	movi	r2,19
   880bc:	880f883a 	mov	r7,r17
   880c0:	a809883a 	mov	r4,r21
   880c4:	1180162e 	bgeu	r2,r6,88120 <_realloc_r+0x4bc>
   880c8:	88800017 	ldw	r2,0(r17)
   880cc:	89c00204 	addi	r7,r17,8
   880d0:	b9000404 	addi	r4,r23,16
   880d4:	a8800015 	stw	r2,0(r21)
   880d8:	88c00117 	ldw	r3,4(r17)
   880dc:	008006c4 	movi	r2,27
   880e0:	b8c00315 	stw	r3,12(r23)
   880e4:	11800e2e 	bgeu	r2,r6,88120 <_realloc_r+0x4bc>
   880e8:	38800017 	ldw	r2,0(r7)
   880ec:	89c00404 	addi	r7,r17,16
   880f0:	20800015 	stw	r2,0(r4)
   880f4:	88c00317 	ldw	r3,12(r17)
   880f8:	008008c4 	movi	r2,35
   880fc:	b9000604 	addi	r4,r23,24
   88100:	b8c00515 	stw	r3,20(r23)
   88104:	1180062e 	bgeu	r2,r6,88120 <_realloc_r+0x4bc>
   88108:	38800017 	ldw	r2,0(r7)
   8810c:	89c00604 	addi	r7,r17,24
   88110:	20800015 	stw	r2,0(r4)
   88114:	88c00517 	ldw	r3,20(r17)
   88118:	b9000804 	addi	r4,r23,32
   8811c:	b8c00715 	stw	r3,28(r23)
   88120:	38800017 	ldw	r2,0(r7)
   88124:	39c00104 	addi	r7,r7,4
   88128:	20800015 	stw	r2,0(r4)
   8812c:	38c00017 	ldw	r3,0(r7)
   88130:	21000104 	addi	r4,r4,4
   88134:	20c00015 	stw	r3,0(r4)
   88138:	38800117 	ldw	r2,4(r7)
   8813c:	20800115 	stw	r2,4(r4)
   88140:	d8c00017 	ldw	r3,0(sp)
   88144:	bd0b883a 	add	r5,r23,r20
   88148:	b009883a 	mov	r4,r22
   8814c:	1d05c83a 	sub	r2,r3,r20
   88150:	10800054 	ori	r2,r2,1
   88154:	28800115 	stw	r2,4(r5)
   88158:	b8c00117 	ldw	r3,4(r23)
   8815c:	e1400215 	stw	r5,8(fp)
   88160:	18c0004c 	andi	r3,r3,1
   88164:	1d06b03a 	or	r3,r3,r20
   88168:	b8c00115 	stw	r3,4(r23)
   8816c:	003f3006 	br	87e30 <_realloc_r+0x1cc>
   88170:	a809883a 	mov	r4,r21
   88174:	880b883a 	mov	r5,r17
   88178:	0086a980 	call	86a98 <memcpy>
   8817c:	003f7e06 	br	87f78 <_realloc_r+0x314>
   88180:	80800117 	ldw	r2,4(r16)
   88184:	00ffff04 	movi	r3,-4
   88188:	9821883a 	mov	r16,r19
   8818c:	10c4703a 	and	r2,r2,r3
   88190:	90a5883a 	add	r18,r18,r2
   88194:	003f7806 	br	87f78 <_realloc_r+0x314>
   88198:	880b883a 	mov	r5,r17
   8819c:	a809883a 	mov	r4,r21
   881a0:	0086a980 	call	86a98 <memcpy>
   881a4:	003fe606 	br	88140 <_realloc_r+0x4dc>
   881a8:	b009883a 	mov	r4,r22
   881ac:	008b99c0 	call	8b99c <__malloc_unlock>
   881b0:	003f2506 	br	87e48 <_realloc_r+0x1e4>

000881b4 <isinf>:
   881b4:	200d883a 	mov	r6,r4
   881b8:	0109c83a 	sub	r4,zero,r4
   881bc:	2188b03a 	or	r4,r4,r6
   881c0:	2008d7fa 	srli	r4,r4,31
   881c4:	00a00034 	movhi	r2,32768
   881c8:	10bfffc4 	addi	r2,r2,-1
   881cc:	288a703a 	and	r5,r5,r2
   881d0:	290ab03a 	or	r5,r5,r4
   881d4:	009ffc34 	movhi	r2,32752
   881d8:	10800004 	addi	r2,r2,0
   881dc:	114bc83a 	sub	r5,r2,r5
   881e0:	0145c83a 	sub	r2,zero,r5
   881e4:	1144b03a 	or	r2,r2,r5
   881e8:	1004d7fa 	srli	r2,r2,31
   881ec:	00c00044 	movi	r3,1
   881f0:	1885c83a 	sub	r2,r3,r2
   881f4:	f800283a 	ret

000881f8 <isnan>:
   881f8:	200d883a 	mov	r6,r4
   881fc:	0109c83a 	sub	r4,zero,r4
   88200:	2188b03a 	or	r4,r4,r6
   88204:	2008d7fa 	srli	r4,r4,31
   88208:	00e00034 	movhi	r3,32768
   8820c:	18ffffc4 	addi	r3,r3,-1
   88210:	28c4703a 	and	r2,r5,r3
   88214:	1104b03a 	or	r2,r2,r4
   88218:	00dffc34 	movhi	r3,32752
   8821c:	18c00004 	addi	r3,r3,0
   88220:	1885c83a 	sub	r2,r3,r2
   88224:	1004d7fa 	srli	r2,r2,31
   88228:	f800283a 	ret

0008822c <_sbrk_r>:
   8822c:	defffe04 	addi	sp,sp,-8
   88230:	dc000015 	stw	r16,0(sp)
   88234:	2021883a 	mov	r16,r4
   88238:	2809883a 	mov	r4,r5
   8823c:	dfc00115 	stw	ra,4(sp)
   88240:	d026f415 	stw	zero,-25648(gp)
   88244:	008b5800 	call	8b580 <sbrk>
   88248:	1007883a 	mov	r3,r2
   8824c:	00bfffc4 	movi	r2,-1
   88250:	18800526 	beq	r3,r2,88268 <_sbrk_r+0x3c>
   88254:	1805883a 	mov	r2,r3
   88258:	dfc00117 	ldw	ra,4(sp)
   8825c:	dc000017 	ldw	r16,0(sp)
   88260:	dec00204 	addi	sp,sp,8
   88264:	f800283a 	ret
   88268:	d0a6f417 	ldw	r2,-25648(gp)
   8826c:	103ff926 	beq	r2,zero,88254 <_sbrk_r+0x28>
   88270:	80800015 	stw	r2,0(r16)
   88274:	003ff706 	br	88254 <_sbrk_r+0x28>

00088278 <__sread>:
   88278:	defffe04 	addi	sp,sp,-8
   8827c:	dc000015 	stw	r16,0(sp)
   88280:	dfc00115 	stw	ra,4(sp)
   88284:	2021883a 	mov	r16,r4
   88288:	2807883a 	mov	r3,r5
   8828c:	d1200117 	ldw	r4,-32764(gp)
   88290:	8140038f 	ldh	r5,14(r16)
   88294:	300f883a 	mov	r7,r6
   88298:	180d883a 	mov	r6,r3
   8829c:	00887500 	call	88750 <_read_r>
   882a0:	1007883a 	mov	r3,r2
   882a4:	10000816 	blt	r2,zero,882c8 <__sread+0x50>
   882a8:	80801417 	ldw	r2,80(r16)
   882ac:	10c5883a 	add	r2,r2,r3
   882b0:	80801415 	stw	r2,80(r16)
   882b4:	1805883a 	mov	r2,r3
   882b8:	dfc00117 	ldw	ra,4(sp)
   882bc:	dc000017 	ldw	r16,0(sp)
   882c0:	dec00204 	addi	sp,sp,8
   882c4:	f800283a 	ret
   882c8:	8080030b 	ldhu	r2,12(r16)
   882cc:	10bbffcc 	andi	r2,r2,61439
   882d0:	8080030d 	sth	r2,12(r16)
   882d4:	1805883a 	mov	r2,r3
   882d8:	dfc00117 	ldw	ra,4(sp)
   882dc:	dc000017 	ldw	r16,0(sp)
   882e0:	dec00204 	addi	sp,sp,8
   882e4:	f800283a 	ret

000882e8 <__swrite>:
   882e8:	defffc04 	addi	sp,sp,-16
   882ec:	dc000215 	stw	r16,8(sp)
   882f0:	dc400115 	stw	r17,4(sp)
   882f4:	dc800015 	stw	r18,0(sp)
   882f8:	dfc00315 	stw	ra,12(sp)
   882fc:	20c0030b 	ldhu	r3,12(r4)
   88300:	3025883a 	mov	r18,r6
   88304:	2021883a 	mov	r16,r4
   88308:	1880400c 	andi	r2,r3,256
   8830c:	01c00084 	movi	r7,2
   88310:	2823883a 	mov	r17,r5
   88314:	000d883a 	mov	r6,zero
   88318:	10000e1e 	bne	r2,zero,88354 <__swrite+0x6c>
   8831c:	8140038f 	ldh	r5,14(r16)
   88320:	d1200117 	ldw	r4,-32764(gp)
   88324:	18bbffcc 	andi	r2,r3,61439
   88328:	880d883a 	mov	r6,r17
   8832c:	900f883a 	mov	r7,r18
   88330:	02000274 	movhi	r8,9
   88334:	42214204 	addi	r8,r8,-31480
   88338:	8080030d 	sth	r2,12(r16)
   8833c:	dfc00317 	ldw	ra,12(sp)
   88340:	dc000217 	ldw	r16,8(sp)
   88344:	dc400117 	ldw	r17,4(sp)
   88348:	dc800017 	ldw	r18,0(sp)
   8834c:	dec00404 	addi	sp,sp,16
   88350:	4000683a 	jmp	r8
   88354:	d1200117 	ldw	r4,-32764(gp)
   88358:	8140038f 	ldh	r5,14(r16)
   8835c:	00886ec0 	call	886ec <_lseek_r>
   88360:	80c0030b 	ldhu	r3,12(r16)
   88364:	003fed06 	br	8831c <__swrite+0x34>

00088368 <__sseek>:
   88368:	defffe04 	addi	sp,sp,-8
   8836c:	dc000015 	stw	r16,0(sp)
   88370:	dfc00115 	stw	ra,4(sp)
   88374:	2021883a 	mov	r16,r4
   88378:	2807883a 	mov	r3,r5
   8837c:	d1200117 	ldw	r4,-32764(gp)
   88380:	8140038f 	ldh	r5,14(r16)
   88384:	300f883a 	mov	r7,r6
   88388:	180d883a 	mov	r6,r3
   8838c:	00886ec0 	call	886ec <_lseek_r>
   88390:	1007883a 	mov	r3,r2
   88394:	00bfffc4 	movi	r2,-1
   88398:	18800926 	beq	r3,r2,883c0 <__sseek+0x58>
   8839c:	8080030b 	ldhu	r2,12(r16)
   883a0:	80c01415 	stw	r3,80(r16)
   883a4:	10840014 	ori	r2,r2,4096
   883a8:	8080030d 	sth	r2,12(r16)
   883ac:	1805883a 	mov	r2,r3
   883b0:	dfc00117 	ldw	ra,4(sp)
   883b4:	dc000017 	ldw	r16,0(sp)
   883b8:	dec00204 	addi	sp,sp,8
   883bc:	f800283a 	ret
   883c0:	8080030b 	ldhu	r2,12(r16)
   883c4:	10bbffcc 	andi	r2,r2,61439
   883c8:	8080030d 	sth	r2,12(r16)
   883cc:	1805883a 	mov	r2,r3
   883d0:	dfc00117 	ldw	ra,4(sp)
   883d4:	dc000017 	ldw	r16,0(sp)
   883d8:	dec00204 	addi	sp,sp,8
   883dc:	f800283a 	ret

000883e0 <__sclose>:
   883e0:	2140038f 	ldh	r5,14(r4)
   883e4:	d1200117 	ldw	r4,-32764(gp)
   883e8:	02000274 	movhi	r8,9
   883ec:	42218c04 	addi	r8,r8,-31184
   883f0:	4000683a 	jmp	r8

000883f4 <strcmp>:
   883f4:	2144b03a 	or	r2,r4,r5
   883f8:	108000cc 	andi	r2,r2,3
   883fc:	1000031e 	bne	r2,zero,8840c <strcmp+0x18>
   88400:	20c00017 	ldw	r3,0(r4)
   88404:	28800017 	ldw	r2,0(r5)
   88408:	18801626 	beq	r3,r2,88464 <strcmp+0x70>
   8840c:	20c00003 	ldbu	r3,0(r4)
   88410:	19803fcc 	andi	r6,r3,255
   88414:	3180201c 	xori	r6,r6,128
   88418:	31bfe004 	addi	r6,r6,-128
   8841c:	30000c26 	beq	r6,zero,88450 <strcmp+0x5c>
   88420:	29c00003 	ldbu	r7,0(r5)
   88424:	38803fcc 	andi	r2,r7,255
   88428:	1080201c 	xori	r2,r2,128
   8842c:	10bfe004 	addi	r2,r2,-128
   88430:	3080081e 	bne	r6,r2,88454 <strcmp+0x60>
   88434:	21000044 	addi	r4,r4,1
   88438:	20c00003 	ldbu	r3,0(r4)
   8843c:	29400044 	addi	r5,r5,1
   88440:	19803fcc 	andi	r6,r3,255
   88444:	3180201c 	xori	r6,r6,128
   88448:	31bfe004 	addi	r6,r6,-128
   8844c:	303ff41e 	bne	r6,zero,88420 <strcmp+0x2c>
   88450:	29c00003 	ldbu	r7,0(r5)
   88454:	18c03fcc 	andi	r3,r3,255
   88458:	38803fcc 	andi	r2,r7,255
   8845c:	1885c83a 	sub	r2,r3,r2
   88460:	f800283a 	ret
   88464:	180d883a 	mov	r6,r3
   88468:	023fbff4 	movhi	r8,65279
   8846c:	423fbfc4 	addi	r8,r8,-257
   88470:	01e02074 	movhi	r7,32897
   88474:	39e02004 	addi	r7,r7,-32640
   88478:	0186303a 	nor	r3,zero,r6
   8847c:	3205883a 	add	r2,r6,r8
   88480:	10c4703a 	and	r2,r2,r3
   88484:	11c4703a 	and	r2,r2,r7
   88488:	21000104 	addi	r4,r4,4
   8848c:	29400104 	addi	r5,r5,4
   88490:	1000041e 	bne	r2,zero,884a4 <strcmp+0xb0>
   88494:	21800017 	ldw	r6,0(r4)
   88498:	28800017 	ldw	r2,0(r5)
   8849c:	30bff626 	beq	r6,r2,88478 <strcmp+0x84>
   884a0:	003fda06 	br	8840c <strcmp+0x18>
   884a4:	0005883a 	mov	r2,zero
   884a8:	f800283a 	ret

000884ac <strlen>:
   884ac:	208000cc 	andi	r2,r4,3
   884b0:	200f883a 	mov	r7,r4
   884b4:	1000101e 	bne	r2,zero,884f8 <strlen+0x4c>
   884b8:	20800017 	ldw	r2,0(r4)
   884bc:	01bfbff4 	movhi	r6,65279
   884c0:	31bfbfc4 	addi	r6,r6,-257
   884c4:	01602074 	movhi	r5,32897
   884c8:	29602004 	addi	r5,r5,-32640
   884cc:	00000206 	br	884d8 <strlen+0x2c>
   884d0:	21000104 	addi	r4,r4,4
   884d4:	20800017 	ldw	r2,0(r4)
   884d8:	0086303a 	nor	r3,zero,r2
   884dc:	1185883a 	add	r2,r2,r6
   884e0:	10c4703a 	and	r2,r2,r3
   884e4:	1144703a 	and	r2,r2,r5
   884e8:	103ff926 	beq	r2,zero,884d0 <strlen+0x24>
   884ec:	20800007 	ldb	r2,0(r4)
   884f0:	10000326 	beq	r2,zero,88500 <strlen+0x54>
   884f4:	21000044 	addi	r4,r4,1
   884f8:	20800007 	ldb	r2,0(r4)
   884fc:	103ffd1e 	bne	r2,zero,884f4 <strlen+0x48>
   88500:	21c5c83a 	sub	r2,r4,r7
   88504:	f800283a 	ret

00088508 <_write_r>:
   88508:	defffe04 	addi	sp,sp,-8
   8850c:	dc000015 	stw	r16,0(sp)
   88510:	2021883a 	mov	r16,r4
   88514:	2809883a 	mov	r4,r5
   88518:	300b883a 	mov	r5,r6
   8851c:	380d883a 	mov	r6,r7
   88520:	dfc00115 	stw	ra,4(sp)
   88524:	d026f415 	stw	zero,-25648(gp)
   88528:	008b6400 	call	8b640 <write>
   8852c:	1007883a 	mov	r3,r2
   88530:	00bfffc4 	movi	r2,-1
   88534:	18800526 	beq	r3,r2,8854c <_write_r+0x44>
   88538:	1805883a 	mov	r2,r3
   8853c:	dfc00117 	ldw	ra,4(sp)
   88540:	dc000017 	ldw	r16,0(sp)
   88544:	dec00204 	addi	sp,sp,8
   88548:	f800283a 	ret
   8854c:	d0a6f417 	ldw	r2,-25648(gp)
   88550:	103ff926 	beq	r2,zero,88538 <_write_r+0x30>
   88554:	80800015 	stw	r2,0(r16)
   88558:	1805883a 	mov	r2,r3
   8855c:	dfc00117 	ldw	ra,4(sp)
   88560:	dc000017 	ldw	r16,0(sp)
   88564:	dec00204 	addi	sp,sp,8
   88568:	f800283a 	ret

0008856c <_calloc_r>:
   8856c:	defffe04 	addi	sp,sp,-8
   88570:	dc400015 	stw	r17,0(sp)
   88574:	2023883a 	mov	r17,r4
   88578:	2809883a 	mov	r4,r5
   8857c:	300b883a 	mov	r5,r6
   88580:	dfc00115 	stw	ra,4(sp)
   88584:	0081aec0 	call	81aec <__mulsi3>
   88588:	100b883a 	mov	r5,r2
   8858c:	8809883a 	mov	r4,r17
   88590:	00863140 	call	86314 <_malloc_r>
   88594:	1023883a 	mov	r17,r2
   88598:	0005883a 	mov	r2,zero
   8859c:	88001e26 	beq	r17,zero,88618 <_calloc_r+0xac>
   885a0:	88bfff17 	ldw	r2,-4(r17)
   885a4:	00ffff04 	movi	r3,-4
   885a8:	8809883a 	mov	r4,r17
   885ac:	10c4703a 	and	r2,r2,r3
   885b0:	10cf883a 	add	r7,r2,r3
   885b4:	00800904 	movi	r2,36
   885b8:	380d883a 	mov	r6,r7
   885bc:	000b883a 	mov	r5,zero
   885c0:	11c01936 	bltu	r2,r7,88628 <_calloc_r+0xbc>
   885c4:	008004c4 	movi	r2,19
   885c8:	8807883a 	mov	r3,r17
   885cc:	11c00d2e 	bgeu	r2,r7,88604 <_calloc_r+0x98>
   885d0:	008006c4 	movi	r2,27
   885d4:	88000015 	stw	zero,0(r17)
   885d8:	88000115 	stw	zero,4(r17)
   885dc:	88c00204 	addi	r3,r17,8
   885e0:	11c0082e 	bgeu	r2,r7,88604 <_calloc_r+0x98>
   885e4:	18000015 	stw	zero,0(r3)
   885e8:	008008c4 	movi	r2,35
   885ec:	88c00404 	addi	r3,r17,16
   885f0:	88000315 	stw	zero,12(r17)
   885f4:	11c0032e 	bgeu	r2,r7,88604 <_calloc_r+0x98>
   885f8:	18000015 	stw	zero,0(r3)
   885fc:	88000515 	stw	zero,20(r17)
   88600:	88c00604 	addi	r3,r17,24
   88604:	18000015 	stw	zero,0(r3)
   88608:	18c00104 	addi	r3,r3,4
   8860c:	18000115 	stw	zero,4(r3)
   88610:	18000015 	stw	zero,0(r3)
   88614:	8805883a 	mov	r2,r17
   88618:	dfc00117 	ldw	ra,4(sp)
   8861c:	dc400017 	ldw	r17,0(sp)
   88620:	dec00204 	addi	sp,sp,8
   88624:	f800283a 	ret
   88628:	0086c5c0 	call	86c5c <memset>
   8862c:	003ff906 	br	88614 <_calloc_r+0xa8>

00088630 <_close_r>:
   88630:	defffe04 	addi	sp,sp,-8
   88634:	dc000015 	stw	r16,0(sp)
   88638:	2021883a 	mov	r16,r4
   8863c:	2809883a 	mov	r4,r5
   88640:	dfc00115 	stw	ra,4(sp)
   88644:	d026f415 	stw	zero,-25648(gp)
   88648:	008a9180 	call	8a918 <close>
   8864c:	1007883a 	mov	r3,r2
   88650:	00bfffc4 	movi	r2,-1
   88654:	18800526 	beq	r3,r2,8866c <_close_r+0x3c>
   88658:	1805883a 	mov	r2,r3
   8865c:	dfc00117 	ldw	ra,4(sp)
   88660:	dc000017 	ldw	r16,0(sp)
   88664:	dec00204 	addi	sp,sp,8
   88668:	f800283a 	ret
   8866c:	d0a6f417 	ldw	r2,-25648(gp)
   88670:	103ff926 	beq	r2,zero,88658 <_close_r+0x28>
   88674:	80800015 	stw	r2,0(r16)
   88678:	1805883a 	mov	r2,r3
   8867c:	dfc00117 	ldw	ra,4(sp)
   88680:	dc000017 	ldw	r16,0(sp)
   88684:	dec00204 	addi	sp,sp,8
   88688:	f800283a 	ret

0008868c <_fstat_r>:
   8868c:	defffe04 	addi	sp,sp,-8
   88690:	dc000015 	stw	r16,0(sp)
   88694:	2021883a 	mov	r16,r4
   88698:	2809883a 	mov	r4,r5
   8869c:	300b883a 	mov	r5,r6
   886a0:	dfc00115 	stw	ra,4(sp)
   886a4:	d026f415 	stw	zero,-25648(gp)
   886a8:	008aa840 	call	8aa84 <fstat>
   886ac:	1007883a 	mov	r3,r2
   886b0:	00bfffc4 	movi	r2,-1
   886b4:	18800526 	beq	r3,r2,886cc <_fstat_r+0x40>
   886b8:	1805883a 	mov	r2,r3
   886bc:	dfc00117 	ldw	ra,4(sp)
   886c0:	dc000017 	ldw	r16,0(sp)
   886c4:	dec00204 	addi	sp,sp,8
   886c8:	f800283a 	ret
   886cc:	d0a6f417 	ldw	r2,-25648(gp)
   886d0:	103ff926 	beq	r2,zero,886b8 <_fstat_r+0x2c>
   886d4:	80800015 	stw	r2,0(r16)
   886d8:	1805883a 	mov	r2,r3
   886dc:	dfc00117 	ldw	ra,4(sp)
   886e0:	dc000017 	ldw	r16,0(sp)
   886e4:	dec00204 	addi	sp,sp,8
   886e8:	f800283a 	ret

000886ec <_lseek_r>:
   886ec:	defffe04 	addi	sp,sp,-8
   886f0:	dc000015 	stw	r16,0(sp)
   886f4:	2021883a 	mov	r16,r4
   886f8:	2809883a 	mov	r4,r5
   886fc:	300b883a 	mov	r5,r6
   88700:	380d883a 	mov	r6,r7
   88704:	dfc00115 	stw	ra,4(sp)
   88708:	d026f415 	stw	zero,-25648(gp)
   8870c:	008af300 	call	8af30 <lseek>
   88710:	1007883a 	mov	r3,r2
   88714:	00bfffc4 	movi	r2,-1
   88718:	18800526 	beq	r3,r2,88730 <_lseek_r+0x44>
   8871c:	1805883a 	mov	r2,r3
   88720:	dfc00117 	ldw	ra,4(sp)
   88724:	dc000017 	ldw	r16,0(sp)
   88728:	dec00204 	addi	sp,sp,8
   8872c:	f800283a 	ret
   88730:	d0a6f417 	ldw	r2,-25648(gp)
   88734:	103ff926 	beq	r2,zero,8871c <_lseek_r+0x30>
   88738:	80800015 	stw	r2,0(r16)
   8873c:	1805883a 	mov	r2,r3
   88740:	dfc00117 	ldw	ra,4(sp)
   88744:	dc000017 	ldw	r16,0(sp)
   88748:	dec00204 	addi	sp,sp,8
   8874c:	f800283a 	ret

00088750 <_read_r>:
   88750:	defffe04 	addi	sp,sp,-8
   88754:	dc000015 	stw	r16,0(sp)
   88758:	2021883a 	mov	r16,r4
   8875c:	2809883a 	mov	r4,r5
   88760:	300b883a 	mov	r5,r6
   88764:	380d883a 	mov	r6,r7
   88768:	dfc00115 	stw	ra,4(sp)
   8876c:	d026f415 	stw	zero,-25648(gp)
   88770:	008b3a40 	call	8b3a4 <read>
   88774:	1007883a 	mov	r3,r2
   88778:	00bfffc4 	movi	r2,-1
   8877c:	18800526 	beq	r3,r2,88794 <_read_r+0x44>
   88780:	1805883a 	mov	r2,r3
   88784:	dfc00117 	ldw	ra,4(sp)
   88788:	dc000017 	ldw	r16,0(sp)
   8878c:	dec00204 	addi	sp,sp,8
   88790:	f800283a 	ret
   88794:	d0a6f417 	ldw	r2,-25648(gp)
   88798:	103ff926 	beq	r2,zero,88780 <_read_r+0x30>
   8879c:	80800015 	stw	r2,0(r16)
   887a0:	1805883a 	mov	r2,r3
   887a4:	dfc00117 	ldw	ra,4(sp)
   887a8:	dc000017 	ldw	r16,0(sp)
   887ac:	dec00204 	addi	sp,sp,8
   887b0:	f800283a 	ret

000887b4 <__muldi3>:
   887b4:	defff404 	addi	sp,sp,-48
   887b8:	dc400a15 	stw	r17,40(sp)
   887bc:	ddc00615 	stw	r23,24(sp)
   887c0:	247fffcc 	andi	r17,r4,65535
   887c4:	35ffffcc 	andi	r23,r6,65535
   887c8:	d9000015 	stw	r4,0(sp)
   887cc:	d9400115 	stw	r5,4(sp)
   887d0:	8809883a 	mov	r4,r17
   887d4:	b80b883a 	mov	r5,r23
   887d8:	d9800215 	stw	r6,8(sp)
   887dc:	d9c00315 	stw	r7,12(sp)
   887e0:	dfc00b15 	stw	ra,44(sp)
   887e4:	dcc00915 	stw	r19,36(sp)
   887e8:	dd000815 	stw	r20,32(sp)
   887ec:	dd400715 	stw	r21,28(sp)
   887f0:	3028d43a 	srli	r20,r6,16
   887f4:	0081aec0 	call	81aec <__mulsi3>
   887f8:	1027883a 	mov	r19,r2
   887fc:	d8800017 	ldw	r2,0(sp)
   88800:	8809883a 	mov	r4,r17
   88804:	a00b883a 	mov	r5,r20
   88808:	102ad43a 	srli	r21,r2,16
   8880c:	0081aec0 	call	81aec <__mulsi3>
   88810:	b80b883a 	mov	r5,r23
   88814:	a809883a 	mov	r4,r21
   88818:	1023883a 	mov	r17,r2
   8881c:	0081aec0 	call	81aec <__mulsi3>
   88820:	a809883a 	mov	r4,r21
   88824:	a00b883a 	mov	r5,r20
   88828:	102f883a 	mov	r23,r2
   8882c:	0081aec0 	call	81aec <__mulsi3>
   88830:	98ffffcc 	andi	r3,r19,65535
   88834:	9826d43a 	srli	r19,r19,16
   88838:	100d883a 	mov	r6,r2
   8883c:	d9000017 	ldw	r4,0(sp)
   88840:	8ce3883a 	add	r17,r17,r19
   88844:	8de3883a 	add	r17,r17,r23
   88848:	8804943a 	slli	r2,r17,16
   8884c:	d9400317 	ldw	r5,12(sp)
   88850:	880ed43a 	srli	r7,r17,16
   88854:	10c7883a 	add	r3,r2,r3
   88858:	1811883a 	mov	r8,r3
   8885c:	8dc0032e 	bgeu	r17,r23,8886c <__muldi3+0xb8>
   88860:	00800074 	movhi	r2,1
   88864:	10800004 	addi	r2,r2,0
   88868:	308d883a 	add	r6,r6,r2
   8886c:	39ab883a 	add	r21,r7,r6
   88870:	da000415 	stw	r8,16(sp)
   88874:	da400515 	stw	r9,20(sp)
   88878:	0081aec0 	call	81aec <__mulsi3>
   8887c:	d9000117 	ldw	r4,4(sp)
   88880:	d9400217 	ldw	r5,8(sp)
   88884:	1023883a 	mov	r17,r2
   88888:	0081aec0 	call	81aec <__mulsi3>
   8888c:	da000417 	ldw	r8,16(sp)
   88890:	88a3883a 	add	r17,r17,r2
   88894:	8d4f883a 	add	r7,r17,r21
   88898:	4005883a 	mov	r2,r8
   8889c:	3807883a 	mov	r3,r7
   888a0:	dfc00b17 	ldw	ra,44(sp)
   888a4:	dc400a17 	ldw	r17,40(sp)
   888a8:	dcc00917 	ldw	r19,36(sp)
   888ac:	dd000817 	ldw	r20,32(sp)
   888b0:	dd400717 	ldw	r21,28(sp)
   888b4:	ddc00617 	ldw	r23,24(sp)
   888b8:	dec00c04 	addi	sp,sp,48
   888bc:	f800283a 	ret

000888c0 <__negdi2>:
   888c0:	280f883a 	mov	r7,r5
   888c4:	010bc83a 	sub	r5,zero,r4
   888c8:	2808c03a 	cmpne	r4,r5,zero
   888cc:	01d3c83a 	sub	r9,zero,r7
   888d0:	4913c83a 	sub	r9,r9,r4
   888d4:	2805883a 	mov	r2,r5
   888d8:	4807883a 	mov	r3,r9
   888dc:	f800283a 	ret

000888e0 <__udivdi3>:
   888e0:	defff604 	addi	sp,sp,-40
   888e4:	dc400615 	stw	r17,24(sp)
   888e8:	dc800515 	stw	r18,20(sp)
   888ec:	dd000315 	stw	r20,12(sp)
   888f0:	ddc00015 	stw	r23,0(sp)
   888f4:	dfc00915 	stw	ra,36(sp)
   888f8:	df000815 	stw	fp,32(sp)
   888fc:	dc000715 	stw	r16,28(sp)
   88900:	dcc00415 	stw	r19,16(sp)
   88904:	dd400215 	stw	r21,8(sp)
   88908:	dd800115 	stw	r22,4(sp)
   8890c:	3019883a 	mov	r12,r6
   88910:	3823883a 	mov	r17,r7
   88914:	202f883a 	mov	r23,r4
   88918:	2825883a 	mov	r18,r5
   8891c:	3029883a 	mov	r20,r6
   88920:	3800471e 	bne	r7,zero,88a40 <__udivdi3+0x160>
   88924:	29806c2e 	bgeu	r5,r6,88ad8 <__udivdi3+0x1f8>
   88928:	00bfffd4 	movui	r2,65535
   8892c:	1181202e 	bgeu	r2,r6,88db0 <__udivdi3+0x4d0>
   88930:	00804034 	movhi	r2,256
   88934:	10bfffc4 	addi	r2,r2,-1
   88938:	01c00404 	movi	r7,16
   8893c:	1180012e 	bgeu	r2,r6,88944 <__udivdi3+0x64>
   88940:	01c00604 	movi	r7,24
   88944:	61c4d83a 	srl	r2,r12,r7
   88948:	01000274 	movhi	r4,9
   8894c:	211b6b04 	addi	r4,r4,28076
   88950:	01400804 	movi	r5,32
   88954:	1105883a 	add	r2,r2,r4
   88958:	10c00003 	ldbu	r3,0(r2)
   8895c:	19c7883a 	add	r3,r3,r7
   88960:	28cfc83a 	sub	r7,r5,r3
   88964:	38000626 	beq	r7,zero,88980 <__udivdi3+0xa0>
   88968:	29c5c83a 	sub	r2,r5,r7
   8896c:	b884d83a 	srl	r2,r23,r2
   88970:	91c6983a 	sll	r3,r18,r7
   88974:	b9ee983a 	sll	r23,r23,r7
   88978:	a1e8983a 	sll	r20,r20,r7
   8897c:	18a4b03a 	or	r18,r3,r2
   88980:	a020d43a 	srli	r16,r20,16
   88984:	9009883a 	mov	r4,r18
   88988:	a57fffcc 	andi	r21,r20,65535
   8898c:	800b883a 	mov	r5,r16
   88990:	0081adc0 	call	81adc <__umodsi3>
   88994:	9009883a 	mov	r4,r18
   88998:	800b883a 	mov	r5,r16
   8899c:	1023883a 	mov	r17,r2
   889a0:	0081acc0 	call	81acc <__udivsi3>
   889a4:	1009883a 	mov	r4,r2
   889a8:	a80b883a 	mov	r5,r21
   889ac:	1025883a 	mov	r18,r2
   889b0:	0081aec0 	call	81aec <__mulsi3>
   889b4:	1009883a 	mov	r4,r2
   889b8:	8806943a 	slli	r3,r17,16
   889bc:	b804d43a 	srli	r2,r23,16
   889c0:	18a2b03a 	or	r17,r3,r2
   889c4:	8900042e 	bgeu	r17,r4,889d8 <__udivdi3+0xf8>
   889c8:	8d23883a 	add	r17,r17,r20
   889cc:	94bfffc4 	addi	r18,r18,-1
   889d0:	8d000136 	bltu	r17,r20,889d8 <__udivdi3+0xf8>
   889d4:	89013836 	bltu	r17,r4,88eb8 <__udivdi3+0x5d8>
   889d8:	8923c83a 	sub	r17,r17,r4
   889dc:	800b883a 	mov	r5,r16
   889e0:	8809883a 	mov	r4,r17
   889e4:	0081adc0 	call	81adc <__umodsi3>
   889e8:	800b883a 	mov	r5,r16
   889ec:	8809883a 	mov	r4,r17
   889f0:	1027883a 	mov	r19,r2
   889f4:	0081acc0 	call	81acc <__udivsi3>
   889f8:	1009883a 	mov	r4,r2
   889fc:	a80b883a 	mov	r5,r21
   88a00:	1021883a 	mov	r16,r2
   88a04:	0081aec0 	call	81aec <__mulsi3>
   88a08:	9806943a 	slli	r3,r19,16
   88a0c:	1009883a 	mov	r4,r2
   88a10:	b8bfffcc 	andi	r2,r23,65535
   88a14:	18a6b03a 	or	r19,r3,r2
   88a18:	9900052e 	bgeu	r19,r4,88a30 <__udivdi3+0x150>
   88a1c:	9d27883a 	add	r19,r19,r20
   88a20:	843fffc4 	addi	r16,r16,-1
   88a24:	9d000236 	bltu	r19,r20,88a30 <__udivdi3+0x150>
   88a28:	9900012e 	bgeu	r19,r4,88a30 <__udivdi3+0x150>
   88a2c:	843fffc4 	addi	r16,r16,-1
   88a30:	9004943a 	slli	r2,r18,16
   88a34:	002b883a 	mov	r21,zero
   88a38:	1424b03a 	or	r18,r2,r16
   88a3c:	00000306 	br	88a4c <__udivdi3+0x16c>
   88a40:	29c0102e 	bgeu	r5,r7,88a84 <__udivdi3+0x1a4>
   88a44:	0025883a 	mov	r18,zero
   88a48:	002b883a 	mov	r21,zero
   88a4c:	9005883a 	mov	r2,r18
   88a50:	a807883a 	mov	r3,r21
   88a54:	dfc00917 	ldw	ra,36(sp)
   88a58:	df000817 	ldw	fp,32(sp)
   88a5c:	dc000717 	ldw	r16,28(sp)
   88a60:	dc400617 	ldw	r17,24(sp)
   88a64:	dc800517 	ldw	r18,20(sp)
   88a68:	dcc00417 	ldw	r19,16(sp)
   88a6c:	dd000317 	ldw	r20,12(sp)
   88a70:	dd400217 	ldw	r21,8(sp)
   88a74:	dd800117 	ldw	r22,4(sp)
   88a78:	ddc00017 	ldw	r23,0(sp)
   88a7c:	dec00a04 	addi	sp,sp,40
   88a80:	f800283a 	ret
   88a84:	00bfffd4 	movui	r2,65535
   88a88:	11c05f2e 	bgeu	r2,r7,88c08 <__udivdi3+0x328>
   88a8c:	00804034 	movhi	r2,256
   88a90:	10bfffc4 	addi	r2,r2,-1
   88a94:	01400404 	movi	r5,16
   88a98:	11c0012e 	bgeu	r2,r7,88aa0 <__udivdi3+0x1c0>
   88a9c:	01400604 	movi	r5,24
   88aa0:	8944d83a 	srl	r2,r17,r5
   88aa4:	01000274 	movhi	r4,9
   88aa8:	211b6b04 	addi	r4,r4,28076
   88aac:	01800804 	movi	r6,32
   88ab0:	1105883a 	add	r2,r2,r4
   88ab4:	10c00003 	ldbu	r3,0(r2)
   88ab8:	1947883a 	add	r3,r3,r5
   88abc:	30cfc83a 	sub	r7,r6,r3
   88ac0:	38005d1e 	bne	r7,zero,88c38 <__udivdi3+0x358>
   88ac4:	8c800236 	bltu	r17,r18,88ad0 <__udivdi3+0x1f0>
   88ac8:	0025883a 	mov	r18,zero
   88acc:	bd3fde36 	bltu	r23,r20,88a48 <__udivdi3+0x168>
   88ad0:	04800044 	movi	r18,1
   88ad4:	003fdc06 	br	88a48 <__udivdi3+0x168>
   88ad8:	30003f26 	beq	r6,zero,88bd8 <__udivdi3+0x2f8>
   88adc:	00bfffd4 	movui	r2,65535
   88ae0:	15004336 	bltu	r2,r20,88bf0 <__udivdi3+0x310>
   88ae4:	00803fc4 	movi	r2,255
   88ae8:	150b803a 	cmpltu	r5,r2,r20
   88aec:	280a90fa 	slli	r5,r5,3
   88af0:	a144d83a 	srl	r2,r20,r5
   88af4:	01000274 	movhi	r4,9
   88af8:	211b6b04 	addi	r4,r4,28076
   88afc:	01800804 	movi	r6,32
   88b00:	1105883a 	add	r2,r2,r4
   88b04:	10c00003 	ldbu	r3,0(r2)
   88b08:	1947883a 	add	r3,r3,r5
   88b0c:	30cfc83a 	sub	r7,r6,r3
   88b10:	3800ab1e 	bne	r7,zero,88dc0 <__udivdi3+0x4e0>
   88b14:	a02cd43a 	srli	r22,r20,16
   88b18:	9525c83a 	sub	r18,r18,r20
   88b1c:	05400044 	movi	r21,1
   88b20:	a73fffcc 	andi	fp,r20,65535
   88b24:	9009883a 	mov	r4,r18
   88b28:	b00b883a 	mov	r5,r22
   88b2c:	0081adc0 	call	81adc <__umodsi3>
   88b30:	9009883a 	mov	r4,r18
   88b34:	b00b883a 	mov	r5,r22
   88b38:	1023883a 	mov	r17,r2
   88b3c:	0081acc0 	call	81acc <__udivsi3>
   88b40:	1009883a 	mov	r4,r2
   88b44:	e00b883a 	mov	r5,fp
   88b48:	1025883a 	mov	r18,r2
   88b4c:	0081aec0 	call	81aec <__mulsi3>
   88b50:	1009883a 	mov	r4,r2
   88b54:	8806943a 	slli	r3,r17,16
   88b58:	b804d43a 	srli	r2,r23,16
   88b5c:	18a2b03a 	or	r17,r3,r2
   88b60:	8900042e 	bgeu	r17,r4,88b74 <__udivdi3+0x294>
   88b64:	8d23883a 	add	r17,r17,r20
   88b68:	94bfffc4 	addi	r18,r18,-1
   88b6c:	8d000136 	bltu	r17,r20,88b74 <__udivdi3+0x294>
   88b70:	8900d436 	bltu	r17,r4,88ec4 <__udivdi3+0x5e4>
   88b74:	8923c83a 	sub	r17,r17,r4
   88b78:	8809883a 	mov	r4,r17
   88b7c:	b00b883a 	mov	r5,r22
   88b80:	0081adc0 	call	81adc <__umodsi3>
   88b84:	8809883a 	mov	r4,r17
   88b88:	b00b883a 	mov	r5,r22
   88b8c:	1027883a 	mov	r19,r2
   88b90:	0081acc0 	call	81acc <__udivsi3>
   88b94:	1009883a 	mov	r4,r2
   88b98:	e00b883a 	mov	r5,fp
   88b9c:	1021883a 	mov	r16,r2
   88ba0:	0081aec0 	call	81aec <__mulsi3>
   88ba4:	9806943a 	slli	r3,r19,16
   88ba8:	1009883a 	mov	r4,r2
   88bac:	b8bfffcc 	andi	r2,r23,65535
   88bb0:	18a6b03a 	or	r19,r3,r2
   88bb4:	9900052e 	bgeu	r19,r4,88bcc <__udivdi3+0x2ec>
   88bb8:	9d27883a 	add	r19,r19,r20
   88bbc:	843fffc4 	addi	r16,r16,-1
   88bc0:	9d000236 	bltu	r19,r20,88bcc <__udivdi3+0x2ec>
   88bc4:	9900012e 	bgeu	r19,r4,88bcc <__udivdi3+0x2ec>
   88bc8:	843fffc4 	addi	r16,r16,-1
   88bcc:	9004943a 	slli	r2,r18,16
   88bd0:	1424b03a 	or	r18,r2,r16
   88bd4:	003f9d06 	br	88a4c <__udivdi3+0x16c>
   88bd8:	01000044 	movi	r4,1
   88bdc:	000b883a 	mov	r5,zero
   88be0:	0081acc0 	call	81acc <__udivsi3>
   88be4:	1029883a 	mov	r20,r2
   88be8:	00bfffd4 	movui	r2,65535
   88bec:	153fbd2e 	bgeu	r2,r20,88ae4 <__udivdi3+0x204>
   88bf0:	00804034 	movhi	r2,256
   88bf4:	10bfffc4 	addi	r2,r2,-1
   88bf8:	01400404 	movi	r5,16
   88bfc:	153fbc2e 	bgeu	r2,r20,88af0 <__udivdi3+0x210>
   88c00:	01400604 	movi	r5,24
   88c04:	003fba06 	br	88af0 <__udivdi3+0x210>
   88c08:	00803fc4 	movi	r2,255
   88c0c:	11cb803a 	cmpltu	r5,r2,r7
   88c10:	280a90fa 	slli	r5,r5,3
   88c14:	01000274 	movhi	r4,9
   88c18:	211b6b04 	addi	r4,r4,28076
   88c1c:	01800804 	movi	r6,32
   88c20:	8944d83a 	srl	r2,r17,r5
   88c24:	1105883a 	add	r2,r2,r4
   88c28:	10c00003 	ldbu	r3,0(r2)
   88c2c:	1947883a 	add	r3,r3,r5
   88c30:	30cfc83a 	sub	r7,r6,r3
   88c34:	383fa326 	beq	r7,zero,88ac4 <__udivdi3+0x1e4>
   88c38:	31c9c83a 	sub	r4,r6,r7
   88c3c:	89c6983a 	sll	r3,r17,r7
   88c40:	a104d83a 	srl	r2,r20,r4
   88c44:	9126d83a 	srl	r19,r18,r4
   88c48:	b90cd83a 	srl	r6,r23,r4
   88c4c:	18a2b03a 	or	r17,r3,r2
   88c50:	882ad43a 	srli	r21,r17,16
   88c54:	91c4983a 	sll	r2,r18,r7
   88c58:	9809883a 	mov	r4,r19
   88c5c:	a80b883a 	mov	r5,r21
   88c60:	11a4b03a 	or	r18,r2,r6
   88c64:	b9ee983a 	sll	r23,r23,r7
   88c68:	a1e8983a 	sll	r20,r20,r7
   88c6c:	0081adc0 	call	81adc <__umodsi3>
   88c70:	9809883a 	mov	r4,r19
   88c74:	a80b883a 	mov	r5,r21
   88c78:	1021883a 	mov	r16,r2
   88c7c:	8f3fffcc 	andi	fp,r17,65535
   88c80:	0081acc0 	call	81acc <__udivsi3>
   88c84:	1009883a 	mov	r4,r2
   88c88:	e00b883a 	mov	r5,fp
   88c8c:	1027883a 	mov	r19,r2
   88c90:	0081aec0 	call	81aec <__mulsi3>
   88c94:	100d883a 	mov	r6,r2
   88c98:	8006943a 	slli	r3,r16,16
   88c9c:	9004d43a 	srli	r2,r18,16
   88ca0:	18a0b03a 	or	r16,r3,r2
   88ca4:	8180062e 	bgeu	r16,r6,88cc0 <__udivdi3+0x3e0>
   88ca8:	8461883a 	add	r16,r16,r17
   88cac:	9cffffc4 	addi	r19,r19,-1
   88cb0:	84400336 	bltu	r16,r17,88cc0 <__udivdi3+0x3e0>
   88cb4:	8180022e 	bgeu	r16,r6,88cc0 <__udivdi3+0x3e0>
   88cb8:	9cffffc4 	addi	r19,r19,-1
   88cbc:	8461883a 	add	r16,r16,r17
   88cc0:	81a1c83a 	sub	r16,r16,r6
   88cc4:	8009883a 	mov	r4,r16
   88cc8:	a80b883a 	mov	r5,r21
   88ccc:	0081adc0 	call	81adc <__umodsi3>
   88cd0:	8009883a 	mov	r4,r16
   88cd4:	a80b883a 	mov	r5,r21
   88cd8:	102d883a 	mov	r22,r2
   88cdc:	0081acc0 	call	81acc <__udivsi3>
   88ce0:	1009883a 	mov	r4,r2
   88ce4:	e00b883a 	mov	r5,fp
   88ce8:	1021883a 	mov	r16,r2
   88cec:	0081aec0 	call	81aec <__mulsi3>
   88cf0:	b006943a 	slli	r3,r22,16
   88cf4:	100d883a 	mov	r6,r2
   88cf8:	90bfffcc 	andi	r2,r18,65535
   88cfc:	18acb03a 	or	r22,r3,r2
   88d00:	b180032e 	bgeu	r22,r6,88d10 <__udivdi3+0x430>
   88d04:	b46d883a 	add	r22,r22,r17
   88d08:	843fffc4 	addi	r16,r16,-1
   88d0c:	b440662e 	bgeu	r22,r17,88ea8 <__udivdi3+0x5c8>
   88d10:	9804943a 	slli	r2,r19,16
   88d14:	a4ffffcc 	andi	r19,r20,65535
   88d18:	a02ad43a 	srli	r21,r20,16
   88d1c:	1424b03a 	or	r18,r2,r16
   88d20:	947fffcc 	andi	r17,r18,65535
   88d24:	8809883a 	mov	r4,r17
   88d28:	980b883a 	mov	r5,r19
   88d2c:	b1adc83a 	sub	r22,r22,r6
   88d30:	0081aec0 	call	81aec <__mulsi3>
   88d34:	8809883a 	mov	r4,r17
   88d38:	9022d43a 	srli	r17,r18,16
   88d3c:	a80b883a 	mov	r5,r21
   88d40:	1029883a 	mov	r20,r2
   88d44:	0081aec0 	call	81aec <__mulsi3>
   88d48:	980b883a 	mov	r5,r19
   88d4c:	8809883a 	mov	r4,r17
   88d50:	1021883a 	mov	r16,r2
   88d54:	0081aec0 	call	81aec <__mulsi3>
   88d58:	a80b883a 	mov	r5,r21
   88d5c:	8809883a 	mov	r4,r17
   88d60:	1027883a 	mov	r19,r2
   88d64:	0081aec0 	call	81aec <__mulsi3>
   88d68:	100b883a 	mov	r5,r2
   88d6c:	a004d43a 	srli	r2,r20,16
   88d70:	80a1883a 	add	r16,r16,r2
   88d74:	84e1883a 	add	r16,r16,r19
   88d78:	84c0032e 	bgeu	r16,r19,88d88 <__udivdi3+0x4a8>
   88d7c:	00800074 	movhi	r2,1
   88d80:	10800004 	addi	r2,r2,0
   88d84:	288b883a 	add	r5,r5,r2
   88d88:	8004d43a 	srli	r2,r16,16
   88d8c:	8008943a 	slli	r4,r16,16
   88d90:	a0ffffcc 	andi	r3,r20,65535
   88d94:	1145883a 	add	r2,r2,r5
   88d98:	20c7883a 	add	r3,r4,r3
   88d9c:	b0800236 	bltu	r22,r2,88da8 <__udivdi3+0x4c8>
   88da0:	15bf291e 	bne	r2,r22,88a48 <__udivdi3+0x168>
   88da4:	b8ff282e 	bgeu	r23,r3,88a48 <__udivdi3+0x168>
   88da8:	94bfffc4 	addi	r18,r18,-1
   88dac:	003f2606 	br	88a48 <__udivdi3+0x168>
   88db0:	00803fc4 	movi	r2,255
   88db4:	118f803a 	cmpltu	r7,r2,r6
   88db8:	380e90fa 	slli	r7,r7,3
   88dbc:	003ee106 	br	88944 <__udivdi3+0x64>
   88dc0:	a1e8983a 	sll	r20,r20,r7
   88dc4:	31c9c83a 	sub	r4,r6,r7
   88dc8:	9126d83a 	srl	r19,r18,r4
   88dcc:	a02cd43a 	srli	r22,r20,16
   88dd0:	b906d83a 	srl	r3,r23,r4
   88dd4:	91c4983a 	sll	r2,r18,r7
   88dd8:	9809883a 	mov	r4,r19
   88ddc:	b00b883a 	mov	r5,r22
   88de0:	10e4b03a 	or	r18,r2,r3
   88de4:	b9ee983a 	sll	r23,r23,r7
   88de8:	0081adc0 	call	81adc <__umodsi3>
   88dec:	9809883a 	mov	r4,r19
   88df0:	b00b883a 	mov	r5,r22
   88df4:	1021883a 	mov	r16,r2
   88df8:	a73fffcc 	andi	fp,r20,65535
   88dfc:	0081acc0 	call	81acc <__udivsi3>
   88e00:	1009883a 	mov	r4,r2
   88e04:	e00b883a 	mov	r5,fp
   88e08:	1027883a 	mov	r19,r2
   88e0c:	0081aec0 	call	81aec <__mulsi3>
   88e10:	1011883a 	mov	r8,r2
   88e14:	8006943a 	slli	r3,r16,16
   88e18:	9004d43a 	srli	r2,r18,16
   88e1c:	18a0b03a 	or	r16,r3,r2
   88e20:	8200062e 	bgeu	r16,r8,88e3c <__udivdi3+0x55c>
   88e24:	8521883a 	add	r16,r16,r20
   88e28:	9cffffc4 	addi	r19,r19,-1
   88e2c:	85000336 	bltu	r16,r20,88e3c <__udivdi3+0x55c>
   88e30:	8200022e 	bgeu	r16,r8,88e3c <__udivdi3+0x55c>
   88e34:	9cffffc4 	addi	r19,r19,-1
   88e38:	8521883a 	add	r16,r16,r20
   88e3c:	8221c83a 	sub	r16,r16,r8
   88e40:	8009883a 	mov	r4,r16
   88e44:	b00b883a 	mov	r5,r22
   88e48:	0081adc0 	call	81adc <__umodsi3>
   88e4c:	8009883a 	mov	r4,r16
   88e50:	b00b883a 	mov	r5,r22
   88e54:	1023883a 	mov	r17,r2
   88e58:	0081acc0 	call	81acc <__udivsi3>
   88e5c:	1009883a 	mov	r4,r2
   88e60:	e00b883a 	mov	r5,fp
   88e64:	1021883a 	mov	r16,r2
   88e68:	0081aec0 	call	81aec <__mulsi3>
   88e6c:	8806943a 	slli	r3,r17,16
   88e70:	1011883a 	mov	r8,r2
   88e74:	90bfffcc 	andi	r2,r18,65535
   88e78:	18a2b03a 	or	r17,r3,r2
   88e7c:	8a00062e 	bgeu	r17,r8,88e98 <__udivdi3+0x5b8>
   88e80:	8d23883a 	add	r17,r17,r20
   88e84:	843fffc4 	addi	r16,r16,-1
   88e88:	8d000336 	bltu	r17,r20,88e98 <__udivdi3+0x5b8>
   88e8c:	8a00022e 	bgeu	r17,r8,88e98 <__udivdi3+0x5b8>
   88e90:	843fffc4 	addi	r16,r16,-1
   88e94:	8d23883a 	add	r17,r17,r20
   88e98:	9804943a 	slli	r2,r19,16
   88e9c:	8a25c83a 	sub	r18,r17,r8
   88ea0:	142ab03a 	or	r21,r2,r16
   88ea4:	003f1f06 	br	88b24 <__udivdi3+0x244>
   88ea8:	b1bf992e 	bgeu	r22,r6,88d10 <__udivdi3+0x430>
   88eac:	b46d883a 	add	r22,r22,r17
   88eb0:	843fffc4 	addi	r16,r16,-1
   88eb4:	003f9606 	br	88d10 <__udivdi3+0x430>
   88eb8:	94bfffc4 	addi	r18,r18,-1
   88ebc:	8d23883a 	add	r17,r17,r20
   88ec0:	003ec506 	br	889d8 <__udivdi3+0xf8>
   88ec4:	94bfffc4 	addi	r18,r18,-1
   88ec8:	8d23883a 	add	r17,r17,r20
   88ecc:	003f2906 	br	88b74 <__udivdi3+0x294>

00088ed0 <__umoddi3>:
   88ed0:	deffee04 	addi	sp,sp,-72
   88ed4:	2015883a 	mov	r10,r4
   88ed8:	0009883a 	mov	r4,zero
   88edc:	df001015 	stw	fp,64(sp)
   88ee0:	dc000f15 	stw	r16,60(sp)
   88ee4:	dd000b15 	stw	r20,44(sp)
   88ee8:	dd800915 	stw	r22,36(sp)
   88eec:	dfc01115 	stw	ra,68(sp)
   88ef0:	dc400e15 	stw	r17,56(sp)
   88ef4:	dc800d15 	stw	r18,52(sp)
   88ef8:	dcc00c15 	stw	r19,48(sp)
   88efc:	dd400a15 	stw	r21,40(sp)
   88f00:	ddc00815 	stw	r23,32(sp)
   88f04:	3019883a 	mov	r12,r6
   88f08:	3829883a 	mov	r20,r7
   88f0c:	d9000215 	stw	r4,8(sp)
   88f10:	2821883a 	mov	r16,r5
   88f14:	d9000315 	stw	r4,12(sp)
   88f18:	302d883a 	mov	r22,r6
   88f1c:	5039883a 	mov	fp,r10
   88f20:	3800391e 	bne	r7,zero,89008 <__umoddi3+0x138>
   88f24:	2980662e 	bgeu	r5,r6,890c0 <__umoddi3+0x1f0>
   88f28:	00bfffd4 	movui	r2,65535
   88f2c:	1180b72e 	bgeu	r2,r6,8920c <__umoddi3+0x33c>
   88f30:	00804034 	movhi	r2,256
   88f34:	10bfffc4 	addi	r2,r2,-1
   88f38:	01c00404 	movi	r7,16
   88f3c:	1180012e 	bgeu	r2,r6,88f44 <__umoddi3+0x74>
   88f40:	01c00604 	movi	r7,24
   88f44:	61c4d83a 	srl	r2,r12,r7
   88f48:	01000274 	movhi	r4,9
   88f4c:	211b6b04 	addi	r4,r4,28076
   88f50:	01400804 	movi	r5,32
   88f54:	1105883a 	add	r2,r2,r4
   88f58:	10c00003 	ldbu	r3,0(r2)
   88f5c:	19c7883a 	add	r3,r3,r7
   88f60:	28c7c83a 	sub	r3,r5,r3
   88f64:	d8c00515 	stw	r3,20(sp)
   88f68:	18000726 	beq	r3,zero,88f88 <__umoddi3+0xb8>
   88f6c:	28c5c83a 	sub	r2,r5,r3
   88f70:	d9400517 	ldw	r5,20(sp)
   88f74:	e084d83a 	srl	r2,fp,r2
   88f78:	80c6983a 	sll	r3,r16,r3
   88f7c:	b16c983a 	sll	r22,r22,r5
   88f80:	e178983a 	sll	fp,fp,r5
   88f84:	18a0b03a 	or	r16,r3,r2
   88f88:	b024d43a 	srli	r18,r22,16
   88f8c:	8009883a 	mov	r4,r16
   88f90:	b53fffcc 	andi	r20,r22,65535
   88f94:	900b883a 	mov	r5,r18
   88f98:	0081adc0 	call	81adc <__umodsi3>
   88f9c:	8009883a 	mov	r4,r16
   88fa0:	900b883a 	mov	r5,r18
   88fa4:	1023883a 	mov	r17,r2
   88fa8:	0081acc0 	call	81acc <__udivsi3>
   88fac:	1009883a 	mov	r4,r2
   88fb0:	a00b883a 	mov	r5,r20
   88fb4:	0081aec0 	call	81aec <__mulsi3>
   88fb8:	100b883a 	mov	r5,r2
   88fbc:	8806943a 	slli	r3,r17,16
   88fc0:	e004d43a 	srli	r2,fp,16
   88fc4:	18a2b03a 	or	r17,r3,r2
   88fc8:	8940042e 	bgeu	r17,r5,88fdc <__umoddi3+0x10c>
   88fcc:	8da3883a 	add	r17,r17,r22
   88fd0:	8d800236 	bltu	r17,r22,88fdc <__umoddi3+0x10c>
   88fd4:	8940012e 	bgeu	r17,r5,88fdc <__umoddi3+0x10c>
   88fd8:	8da3883a 	add	r17,r17,r22
   88fdc:	8963c83a 	sub	r17,r17,r5
   88fe0:	8809883a 	mov	r4,r17
   88fe4:	900b883a 	mov	r5,r18
   88fe8:	0081adc0 	call	81adc <__umodsi3>
   88fec:	8809883a 	mov	r4,r17
   88ff0:	900b883a 	mov	r5,r18
   88ff4:	1027883a 	mov	r19,r2
   88ff8:	0081acc0 	call	81acc <__udivsi3>
   88ffc:	1009883a 	mov	r4,r2
   89000:	a00b883a 	mov	r5,r20
   89004:	00005d06 	br	8917c <__umoddi3+0x2ac>
   89008:	29c0142e 	bgeu	r5,r7,8905c <__umoddi3+0x18c>
   8900c:	da800215 	stw	r10,8(sp)
   89010:	d9400315 	stw	r5,12(sp)
   89014:	da800015 	stw	r10,0(sp)
   89018:	d9400115 	stw	r5,4(sp)
   8901c:	d9000017 	ldw	r4,0(sp)
   89020:	d9400117 	ldw	r5,4(sp)
   89024:	2005883a 	mov	r2,r4
   89028:	2807883a 	mov	r3,r5
   8902c:	dfc01117 	ldw	ra,68(sp)
   89030:	df001017 	ldw	fp,64(sp)
   89034:	dc000f17 	ldw	r16,60(sp)
   89038:	dc400e17 	ldw	r17,56(sp)
   8903c:	dc800d17 	ldw	r18,52(sp)
   89040:	dcc00c17 	ldw	r19,48(sp)
   89044:	dd000b17 	ldw	r20,44(sp)
   89048:	dd400a17 	ldw	r21,40(sp)
   8904c:	dd800917 	ldw	r22,36(sp)
   89050:	ddc00817 	ldw	r23,32(sp)
   89054:	dec01204 	addi	sp,sp,72
   89058:	f800283a 	ret
   8905c:	00bfffd4 	movui	r2,65535
   89060:	11c0662e 	bgeu	r2,r7,891fc <__umoddi3+0x32c>
   89064:	00804034 	movhi	r2,256
   89068:	10bfffc4 	addi	r2,r2,-1
   8906c:	01400404 	movi	r5,16
   89070:	11c0012e 	bgeu	r2,r7,89078 <__umoddi3+0x1a8>
   89074:	01400604 	movi	r5,24
   89078:	a144d83a 	srl	r2,r20,r5
   8907c:	01000274 	movhi	r4,9
   89080:	211b6b04 	addi	r4,r4,28076
   89084:	01800804 	movi	r6,32
   89088:	1105883a 	add	r2,r2,r4
   8908c:	10c00003 	ldbu	r3,0(r2)
   89090:	1947883a 	add	r3,r3,r5
   89094:	30c7c83a 	sub	r3,r6,r3
   89098:	d8c00515 	stw	r3,20(sp)
   8909c:	1800651e 	bne	r3,zero,89234 <__umoddi3+0x364>
   890a0:	a4005e36 	bltu	r20,r16,8921c <__umoddi3+0x34c>
   890a4:	e5805d2e 	bgeu	fp,r22,8921c <__umoddi3+0x34c>
   890a8:	d83fdc26 	beq	sp,zero,8901c <__umoddi3+0x14c>
   890ac:	df000215 	stw	fp,8(sp)
   890b0:	dc000315 	stw	r16,12(sp)
   890b4:	dc000115 	stw	r16,4(sp)
   890b8:	df000015 	stw	fp,0(sp)
   890bc:	003fd706 	br	8901c <__umoddi3+0x14c>
   890c0:	30004226 	beq	r6,zero,891cc <__umoddi3+0x2fc>
   890c4:	00bfffd4 	movui	r2,65535
   890c8:	15804636 	bltu	r2,r22,891e4 <__umoddi3+0x314>
   890cc:	00803fc4 	movi	r2,255
   890d0:	158b803a 	cmpltu	r5,r2,r22
   890d4:	280a90fa 	slli	r5,r5,3
   890d8:	b144d83a 	srl	r2,r22,r5
   890dc:	01000274 	movhi	r4,9
   890e0:	211b6b04 	addi	r4,r4,28076
   890e4:	01800804 	movi	r6,32
   890e8:	1105883a 	add	r2,r2,r4
   890ec:	10c00003 	ldbu	r3,0(r2)
   890f0:	1947883a 	add	r3,r3,r5
   890f4:	30c7c83a 	sub	r3,r6,r3
   890f8:	d8c00515 	stw	r3,20(sp)
   890fc:	1800c61e 	bne	r3,zero,89418 <__umoddi3+0x548>
   89100:	b028d43a 	srli	r20,r22,16
   89104:	85a1c83a 	sub	r16,r16,r22
   89108:	b57fffcc 	andi	r21,r22,65535
   8910c:	8009883a 	mov	r4,r16
   89110:	a00b883a 	mov	r5,r20
   89114:	0081adc0 	call	81adc <__umodsi3>
   89118:	8009883a 	mov	r4,r16
   8911c:	a00b883a 	mov	r5,r20
   89120:	1023883a 	mov	r17,r2
   89124:	0081acc0 	call	81acc <__udivsi3>
   89128:	1009883a 	mov	r4,r2
   8912c:	a80b883a 	mov	r5,r21
   89130:	0081aec0 	call	81aec <__mulsi3>
   89134:	100b883a 	mov	r5,r2
   89138:	8806943a 	slli	r3,r17,16
   8913c:	e004d43a 	srli	r2,fp,16
   89140:	18a2b03a 	or	r17,r3,r2
   89144:	8940032e 	bgeu	r17,r5,89154 <__umoddi3+0x284>
   89148:	8da3883a 	add	r17,r17,r22
   8914c:	8d800136 	bltu	r17,r22,89154 <__umoddi3+0x284>
   89150:	8940ec36 	bltu	r17,r5,89504 <__umoddi3+0x634>
   89154:	8963c83a 	sub	r17,r17,r5
   89158:	8809883a 	mov	r4,r17
   8915c:	a00b883a 	mov	r5,r20
   89160:	0081adc0 	call	81adc <__umodsi3>
   89164:	8809883a 	mov	r4,r17
   89168:	a00b883a 	mov	r5,r20
   8916c:	1027883a 	mov	r19,r2
   89170:	0081acc0 	call	81acc <__udivsi3>
   89174:	1009883a 	mov	r4,r2
   89178:	a80b883a 	mov	r5,r21
   8917c:	0081aec0 	call	81aec <__mulsi3>
   89180:	9806943a 	slli	r3,r19,16
   89184:	100b883a 	mov	r5,r2
   89188:	e0bfffcc 	andi	r2,fp,65535
   8918c:	18a6b03a 	or	r19,r3,r2
   89190:	9940042e 	bgeu	r19,r5,891a4 <__umoddi3+0x2d4>
   89194:	9da7883a 	add	r19,r19,r22
   89198:	9d800236 	bltu	r19,r22,891a4 <__umoddi3+0x2d4>
   8919c:	9940012e 	bgeu	r19,r5,891a4 <__umoddi3+0x2d4>
   891a0:	9da7883a 	add	r19,r19,r22
   891a4:	9979c83a 	sub	fp,r19,r5
   891a8:	d83f9c26 	beq	sp,zero,8901c <__umoddi3+0x14c>
   891ac:	d9400517 	ldw	r5,20(sp)
   891b0:	000d883a 	mov	r6,zero
   891b4:	d8000115 	stw	zero,4(sp)
   891b8:	e178d83a 	srl	fp,fp,r5
   891bc:	d9800315 	stw	r6,12(sp)
   891c0:	df000215 	stw	fp,8(sp)
   891c4:	df000015 	stw	fp,0(sp)
   891c8:	003f9406 	br	8901c <__umoddi3+0x14c>
   891cc:	01000044 	movi	r4,1
   891d0:	000b883a 	mov	r5,zero
   891d4:	0081acc0 	call	81acc <__udivsi3>
   891d8:	102d883a 	mov	r22,r2
   891dc:	00bfffd4 	movui	r2,65535
   891e0:	15bfba2e 	bgeu	r2,r22,890cc <__umoddi3+0x1fc>
   891e4:	00804034 	movhi	r2,256
   891e8:	10bfffc4 	addi	r2,r2,-1
   891ec:	01400404 	movi	r5,16
   891f0:	15bfb92e 	bgeu	r2,r22,890d8 <__umoddi3+0x208>
   891f4:	01400604 	movi	r5,24
   891f8:	003fb706 	br	890d8 <__umoddi3+0x208>
   891fc:	00803fc4 	movi	r2,255
   89200:	11cb803a 	cmpltu	r5,r2,r7
   89204:	280a90fa 	slli	r5,r5,3
   89208:	003f9b06 	br	89078 <__umoddi3+0x1a8>
   8920c:	00803fc4 	movi	r2,255
   89210:	118f803a 	cmpltu	r7,r2,r6
   89214:	380e90fa 	slli	r7,r7,3
   89218:	003f4a06 	br	88f44 <__umoddi3+0x74>
   8921c:	e589c83a 	sub	r4,fp,r22
   89220:	e105803a 	cmpltu	r2,fp,r4
   89224:	8507c83a 	sub	r3,r16,r20
   89228:	18a1c83a 	sub	r16,r3,r2
   8922c:	2039883a 	mov	fp,r4
   89230:	003f9d06 	br	890a8 <__umoddi3+0x1d8>
   89234:	d8800517 	ldw	r2,20(sp)
   89238:	d9000517 	ldw	r4,20(sp)
   8923c:	308dc83a 	sub	r6,r6,r2
   89240:	a086983a 	sll	r3,r20,r2
   89244:	b184d83a 	srl	r2,r22,r6
   89248:	d9800415 	stw	r6,16(sp)
   8924c:	d9400417 	ldw	r5,16(sp)
   89250:	18a8b03a 	or	r20,r3,r2
   89254:	81a4d83a 	srl	r18,r16,r6
   89258:	a026d43a 	srli	r19,r20,16
   8925c:	810c983a 	sll	r6,r16,r4
   89260:	e144d83a 	srl	r2,fp,r5
   89264:	9009883a 	mov	r4,r18
   89268:	980b883a 	mov	r5,r19
   8926c:	30a0b03a 	or	r16,r6,r2
   89270:	0081adc0 	call	81adc <__umodsi3>
   89274:	9009883a 	mov	r4,r18
   89278:	980b883a 	mov	r5,r19
   8927c:	1023883a 	mov	r17,r2
   89280:	a5ffffcc 	andi	r23,r20,65535
   89284:	0081acc0 	call	81acc <__udivsi3>
   89288:	1009883a 	mov	r4,r2
   8928c:	b80b883a 	mov	r5,r23
   89290:	102b883a 	mov	r21,r2
   89294:	0081aec0 	call	81aec <__mulsi3>
   89298:	100d883a 	mov	r6,r2
   8929c:	8806943a 	slli	r3,r17,16
   892a0:	8004d43a 	srli	r2,r16,16
   892a4:	d9000517 	ldw	r4,20(sp)
   892a8:	18a2b03a 	or	r17,r3,r2
   892ac:	b12c983a 	sll	r22,r22,r4
   892b0:	e138983a 	sll	fp,fp,r4
   892b4:	8980062e 	bgeu	r17,r6,892d0 <__umoddi3+0x400>
   892b8:	8d23883a 	add	r17,r17,r20
   892bc:	ad7fffc4 	addi	r21,r21,-1
   892c0:	8d000336 	bltu	r17,r20,892d0 <__umoddi3+0x400>
   892c4:	8980022e 	bgeu	r17,r6,892d0 <__umoddi3+0x400>
   892c8:	ad7fffc4 	addi	r21,r21,-1
   892cc:	8d23883a 	add	r17,r17,r20
   892d0:	89a3c83a 	sub	r17,r17,r6
   892d4:	8809883a 	mov	r4,r17
   892d8:	980b883a 	mov	r5,r19
   892dc:	0081adc0 	call	81adc <__umodsi3>
   892e0:	8809883a 	mov	r4,r17
   892e4:	980b883a 	mov	r5,r19
   892e8:	d8800615 	stw	r2,24(sp)
   892ec:	0081acc0 	call	81acc <__udivsi3>
   892f0:	1009883a 	mov	r4,r2
   892f4:	b80b883a 	mov	r5,r23
   892f8:	1025883a 	mov	r18,r2
   892fc:	0081aec0 	call	81aec <__mulsi3>
   89300:	d9400617 	ldw	r5,24(sp)
   89304:	100d883a 	mov	r6,r2
   89308:	80bfffcc 	andi	r2,r16,65535
   8930c:	2806943a 	slli	r3,r5,16
   89310:	1886b03a 	or	r3,r3,r2
   89314:	d8c00615 	stw	r3,24(sp)
   89318:	1980042e 	bgeu	r3,r6,8932c <__umoddi3+0x45c>
   8931c:	1d07883a 	add	r3,r3,r20
   89320:	d8c00615 	stw	r3,24(sp)
   89324:	94bfffc4 	addi	r18,r18,-1
   89328:	1d00782e 	bgeu	r3,r20,8950c <__umoddi3+0x63c>
   8932c:	a822943a 	slli	r17,r21,16
   89330:	d8800617 	ldw	r2,24(sp)
   89334:	b02ed43a 	srli	r23,r22,16
   89338:	8ca2b03a 	or	r17,r17,r18
   8933c:	8cffffcc 	andi	r19,r17,65535
   89340:	b57fffcc 	andi	r21,r22,65535
   89344:	8822d43a 	srli	r17,r17,16
   89348:	1185c83a 	sub	r2,r2,r6
   8934c:	9809883a 	mov	r4,r19
   89350:	a80b883a 	mov	r5,r21
   89354:	d8800615 	stw	r2,24(sp)
   89358:	0081aec0 	call	81aec <__mulsi3>
   8935c:	9809883a 	mov	r4,r19
   89360:	b80b883a 	mov	r5,r23
   89364:	d8800715 	stw	r2,28(sp)
   89368:	0081aec0 	call	81aec <__mulsi3>
   8936c:	8809883a 	mov	r4,r17
   89370:	a80b883a 	mov	r5,r21
   89374:	1025883a 	mov	r18,r2
   89378:	0081aec0 	call	81aec <__mulsi3>
   8937c:	b80b883a 	mov	r5,r23
   89380:	8809883a 	mov	r4,r17
   89384:	1027883a 	mov	r19,r2
   89388:	0081aec0 	call	81aec <__mulsi3>
   8938c:	d8c00717 	ldw	r3,28(sp)
   89390:	100b883a 	mov	r5,r2
   89394:	dc000617 	ldw	r16,24(sp)
   89398:	1804d43a 	srli	r2,r3,16
   8939c:	90a5883a 	add	r18,r18,r2
   893a0:	94e5883a 	add	r18,r18,r19
   893a4:	94c0032e 	bgeu	r18,r19,893b4 <__umoddi3+0x4e4>
   893a8:	00800074 	movhi	r2,1
   893ac:	10800004 	addi	r2,r2,0
   893b0:	288b883a 	add	r5,r5,r2
   893b4:	9004d43a 	srli	r2,r18,16
   893b8:	d9800717 	ldw	r6,28(sp)
   893bc:	9008943a 	slli	r4,r18,16
   893c0:	1145883a 	add	r2,r2,r5
   893c4:	30ffffcc 	andi	r3,r6,65535
   893c8:	20d1883a 	add	r8,r4,r3
   893cc:	80804736 	bltu	r16,r2,894ec <__umoddi3+0x61c>
   893d0:	14004526 	beq	r2,r16,894e8 <__umoddi3+0x618>
   893d4:	d83f1126 	beq	sp,zero,8901c <__umoddi3+0x14c>
   893d8:	d9400617 	ldw	r5,24(sp)
   893dc:	e207c83a 	sub	r3,fp,r8
   893e0:	d9800417 	ldw	r6,16(sp)
   893e4:	2889c83a 	sub	r4,r5,r2
   893e8:	e0c5803a 	cmpltu	r2,fp,r3
   893ec:	20a1c83a 	sub	r16,r4,r2
   893f0:	d8800517 	ldw	r2,20(sp)
   893f4:	818a983a 	sll	r5,r16,r6
   893f8:	1886d83a 	srl	r3,r3,r2
   893fc:	8084d83a 	srl	r2,r16,r2
   89400:	28cab03a 	or	r5,r5,r3
   89404:	d9400215 	stw	r5,8(sp)
   89408:	d8800315 	stw	r2,12(sp)
   8940c:	d8800115 	stw	r2,4(sp)
   89410:	d9400015 	stw	r5,0(sp)
   89414:	003f0106 	br	8901c <__umoddi3+0x14c>
   89418:	d8800517 	ldw	r2,20(sp)
   8941c:	b0ac983a 	sll	r22,r22,r2
   89420:	308dc83a 	sub	r6,r6,r2
   89424:	81a4d83a 	srl	r18,r16,r6
   89428:	b028d43a 	srli	r20,r22,16
   8942c:	e186d83a 	srl	r3,fp,r6
   89430:	8084983a 	sll	r2,r16,r2
   89434:	9009883a 	mov	r4,r18
   89438:	a00b883a 	mov	r5,r20
   8943c:	10e0b03a 	or	r16,r2,r3
   89440:	0081adc0 	call	81adc <__umodsi3>
   89444:	9009883a 	mov	r4,r18
   89448:	a00b883a 	mov	r5,r20
   8944c:	1023883a 	mov	r17,r2
   89450:	b57fffcc 	andi	r21,r22,65535
   89454:	0081acc0 	call	81acc <__udivsi3>
   89458:	1009883a 	mov	r4,r2
   8945c:	a80b883a 	mov	r5,r21
   89460:	0081aec0 	call	81aec <__mulsi3>
   89464:	100b883a 	mov	r5,r2
   89468:	8806943a 	slli	r3,r17,16
   8946c:	8004d43a 	srli	r2,r16,16
   89470:	d9000517 	ldw	r4,20(sp)
   89474:	18a2b03a 	or	r17,r3,r2
   89478:	e138983a 	sll	fp,fp,r4
   8947c:	8940042e 	bgeu	r17,r5,89490 <__umoddi3+0x5c0>
   89480:	8da3883a 	add	r17,r17,r22
   89484:	8d800236 	bltu	r17,r22,89490 <__umoddi3+0x5c0>
   89488:	8940012e 	bgeu	r17,r5,89490 <__umoddi3+0x5c0>
   8948c:	8da3883a 	add	r17,r17,r22
   89490:	8963c83a 	sub	r17,r17,r5
   89494:	8809883a 	mov	r4,r17
   89498:	a00b883a 	mov	r5,r20
   8949c:	0081adc0 	call	81adc <__umodsi3>
   894a0:	8809883a 	mov	r4,r17
   894a4:	a00b883a 	mov	r5,r20
   894a8:	1025883a 	mov	r18,r2
   894ac:	0081acc0 	call	81acc <__udivsi3>
   894b0:	1009883a 	mov	r4,r2
   894b4:	a80b883a 	mov	r5,r21
   894b8:	0081aec0 	call	81aec <__mulsi3>
   894bc:	9006943a 	slli	r3,r18,16
   894c0:	100b883a 	mov	r5,r2
   894c4:	80bfffcc 	andi	r2,r16,65535
   894c8:	18a4b03a 	or	r18,r3,r2
   894cc:	9140042e 	bgeu	r18,r5,894e0 <__umoddi3+0x610>
   894d0:	95a5883a 	add	r18,r18,r22
   894d4:	95800236 	bltu	r18,r22,894e0 <__umoddi3+0x610>
   894d8:	9140012e 	bgeu	r18,r5,894e0 <__umoddi3+0x610>
   894dc:	95a5883a 	add	r18,r18,r22
   894e0:	9161c83a 	sub	r16,r18,r5
   894e4:	003f0906 	br	8910c <__umoddi3+0x23c>
   894e8:	e23fba2e 	bgeu	fp,r8,893d4 <__umoddi3+0x504>
   894ec:	4589c83a 	sub	r4,r8,r22
   894f0:	1507c83a 	sub	r3,r2,r20
   894f4:	4105803a 	cmpltu	r2,r8,r4
   894f8:	1885c83a 	sub	r2,r3,r2
   894fc:	2011883a 	mov	r8,r4
   89500:	003fb406 	br	893d4 <__umoddi3+0x504>
   89504:	8da3883a 	add	r17,r17,r22
   89508:	003f1206 	br	89154 <__umoddi3+0x284>
   8950c:	19bf872e 	bgeu	r3,r6,8932c <__umoddi3+0x45c>
   89510:	1d07883a 	add	r3,r3,r20
   89514:	94bfffc4 	addi	r18,r18,-1
   89518:	d8c00615 	stw	r3,24(sp)
   8951c:	003f8306 	br	8932c <__umoddi3+0x45c>

00089520 <_fpadd_parts>:
   89520:	defffc04 	addi	sp,sp,-16
   89524:	dc000215 	stw	r16,8(sp)
   89528:	dfc00315 	stw	ra,12(sp)
   8952c:	dc400115 	stw	r17,4(sp)
   89530:	dc800015 	stw	r18,0(sp)
   89534:	20c00017 	ldw	r3,0(r4)
   89538:	00800044 	movi	r2,1
   8953c:	3021883a 	mov	r16,r6
   89540:	2019883a 	mov	r12,r4
   89544:	281b883a 	mov	r13,r5
   89548:	200d883a 	mov	r6,r4
   8954c:	10c05d2e 	bgeu	r2,r3,896c4 <_fpadd_parts+0x1a4>
   89550:	29000017 	ldw	r4,0(r5)
   89554:	280d883a 	mov	r6,r5
   89558:	11005a2e 	bgeu	r2,r4,896c4 <_fpadd_parts+0x1a4>
   8955c:	18800118 	cmpnei	r2,r3,4
   89560:	10005f26 	beq	r2,zero,896e0 <_fpadd_parts+0x1c0>
   89564:	20800118 	cmpnei	r2,r4,4
   89568:	280d883a 	mov	r6,r5
   8956c:	10005526 	beq	r2,zero,896c4 <_fpadd_parts+0x1a4>
   89570:	20800098 	cmpnei	r2,r4,2
   89574:	10007b26 	beq	r2,zero,89764 <_fpadd_parts+0x244>
   89578:	18800098 	cmpnei	r2,r3,2
   8957c:	280d883a 	mov	r6,r5
   89580:	10005026 	beq	r2,zero,896c4 <_fpadd_parts+0x1a4>
   89584:	63c00217 	ldw	r15,8(r12)
   89588:	2b800217 	ldw	r14,8(r5)
   8958c:	62800317 	ldw	r10,12(r12)
   89590:	2a000317 	ldw	r8,12(r5)
   89594:	7b87c83a 	sub	r3,r15,r14
   89598:	62c00417 	ldw	r11,16(r12)
   8959c:	2a400417 	ldw	r9,16(r5)
   895a0:	18009716 	blt	r3,zero,89800 <_fpadd_parts+0x2e0>
   895a4:	00800fc4 	movi	r2,63
   895a8:	10c0500e 	bge	r2,r3,896ec <_fpadd_parts+0x1cc>
   895ac:	73c0900e 	bge	r14,r15,897f0 <_fpadd_parts+0x2d0>
   895b0:	0011883a 	mov	r8,zero
   895b4:	0013883a 	mov	r9,zero
   895b8:	61400117 	ldw	r5,4(r12)
   895bc:	68800117 	ldw	r2,4(r13)
   895c0:	28808126 	beq	r5,r2,897c8 <_fpadd_parts+0x2a8>
   895c4:	28007c26 	beq	r5,zero,897b8 <_fpadd_parts+0x298>
   895c8:	4285c83a 	sub	r2,r8,r10
   895cc:	4089803a 	cmpltu	r4,r8,r2
   895d0:	4ac7c83a 	sub	r3,r9,r11
   895d4:	1909c83a 	sub	r4,r3,r4
   895d8:	100d883a 	mov	r6,r2
   895dc:	20008a16 	blt	r4,zero,89808 <_fpadd_parts+0x2e8>
   895e0:	7823883a 	mov	r17,r15
   895e4:	781d883a 	mov	r14,r15
   895e8:	81000415 	stw	r4,16(r16)
   895ec:	80000115 	stw	zero,4(r16)
   895f0:	80800315 	stw	r2,12(r16)
   895f4:	80800317 	ldw	r2,12(r16)
   895f8:	80c00417 	ldw	r3,16(r16)
   895fc:	013fffc4 	movi	r4,-1
   89600:	110f883a 	add	r7,r2,r4
   89604:	388d803a 	cmpltu	r6,r7,r2
   89608:	1911883a 	add	r8,r3,r4
   8960c:	02440034 	movhi	r9,4096
   89610:	4a7fffc4 	addi	r9,r9,-1
   89614:	3211883a 	add	r8,r6,r8
   89618:	4a001536 	bltu	r9,r8,89670 <_fpadd_parts+0x150>
   8961c:	42408426 	beq	r8,r9,89830 <_fpadd_parts+0x310>
   89620:	481f883a 	mov	r15,r9
   89624:	04bfff84 	movi	r18,-2
   89628:	80800317 	ldw	r2,12(r16)
   8962c:	80c00417 	ldw	r3,16(r16)
   89630:	013fffc4 	movi	r4,-1
   89634:	1091883a 	add	r8,r2,r2
   89638:	1016d7fa 	srli	r11,r2,31
   8963c:	18d5883a 	add	r10,r3,r3
   89640:	4119883a 	add	r12,r8,r4
   89644:	6205803a 	cmpltu	r2,r12,r8
   89648:	5a92b03a 	or	r9,r11,r10
   8964c:	491b883a 	add	r13,r9,r4
   89650:	7123883a 	add	r17,r14,r4
   89654:	135b883a 	add	r13,r2,r13
   89658:	881d883a 	mov	r14,r17
   8965c:	82000315 	stw	r8,12(r16)
   89660:	82400415 	stw	r9,16(r16)
   89664:	7b400236 	bltu	r15,r13,89670 <_fpadd_parts+0x150>
   89668:	7b7fef1e 	bne	r15,r13,89628 <_fpadd_parts+0x108>
   8966c:	933fee2e 	bgeu	r18,r12,89628 <_fpadd_parts+0x108>
   89670:	83400417 	ldw	r13,16(r16)
   89674:	008000c4 	movi	r2,3
   89678:	00c80034 	movhi	r3,8192
   8967c:	18ffffc4 	addi	r3,r3,-1
   89680:	83000317 	ldw	r12,12(r16)
   89684:	80800015 	stw	r2,0(r16)
   89688:	1b40482e 	bgeu	r3,r13,897ac <_fpadd_parts+0x28c>
   8968c:	01800044 	movi	r6,1
   89690:	6184d83a 	srl	r2,r12,r6
   89694:	680697fa 	slli	r3,r13,31
   89698:	6992d83a 	srl	r9,r13,r6
   8969c:	1890b03a 	or	r8,r3,r2
   896a0:	6184703a 	and	r2,r12,r6
   896a4:	0007883a 	mov	r3,zero
   896a8:	718d883a 	add	r6,r14,r6
   896ac:	1208b03a 	or	r4,r2,r8
   896b0:	1a4ab03a 	or	r5,r3,r9
   896b4:	81800215 	stw	r6,8(r16)
   896b8:	81400415 	stw	r5,16(r16)
   896bc:	81000315 	stw	r4,12(r16)
   896c0:	800d883a 	mov	r6,r16
   896c4:	3005883a 	mov	r2,r6
   896c8:	dfc00317 	ldw	ra,12(sp)
   896cc:	dc000217 	ldw	r16,8(sp)
   896d0:	dc400117 	ldw	r17,4(sp)
   896d4:	dc800017 	ldw	r18,0(sp)
   896d8:	dec00404 	addi	sp,sp,16
   896dc:	f800283a 	ret
   896e0:	20c01a26 	beq	r4,r3,8974c <_fpadd_parts+0x22c>
   896e4:	600d883a 	mov	r6,r12
   896e8:	003ff606 	br	896c4 <_fpadd_parts+0x1a4>
   896ec:	73c00b0e 	bge	r14,r15,8971c <_fpadd_parts+0x1fc>
   896f0:	480697fa 	slli	r3,r9,31
   896f4:	4004d07a 	srli	r2,r8,1
   896f8:	01000044 	movi	r4,1
   896fc:	490ed83a 	srl	r7,r9,r4
   89700:	188cb03a 	or	r6,r3,r2
   89704:	4104703a 	and	r2,r8,r4
   89708:	0007883a 	mov	r3,zero
   8970c:	711d883a 	add	r14,r14,r4
   89710:	1190b03a 	or	r8,r2,r6
   89714:	19d2b03a 	or	r9,r3,r7
   89718:	003ff406 	br	896ec <_fpadd_parts+0x1cc>
   8971c:	7bbfa60e 	bge	r15,r14,895b8 <_fpadd_parts+0x98>
   89720:	580697fa 	slli	r3,r11,31
   89724:	5004d07a 	srli	r2,r10,1
   89728:	01000044 	movi	r4,1
   8972c:	590ed83a 	srl	r7,r11,r4
   89730:	188cb03a 	or	r6,r3,r2
   89734:	5104703a 	and	r2,r10,r4
   89738:	0007883a 	mov	r3,zero
   8973c:	791f883a 	add	r15,r15,r4
   89740:	1194b03a 	or	r10,r2,r6
   89744:	19d6b03a 	or	r11,r3,r7
   89748:	003ff406 	br	8971c <_fpadd_parts+0x1fc>
   8974c:	28c00117 	ldw	r3,4(r5)
   89750:	60800117 	ldw	r2,4(r12)
   89754:	01800274 	movhi	r6,9
   89758:	319b6604 	addi	r6,r6,28056
   8975c:	10ffd91e 	bne	r2,r3,896c4 <_fpadd_parts+0x1a4>
   89760:	003fe006 	br	896e4 <_fpadd_parts+0x1c4>
   89764:	600d883a 	mov	r6,r12
   89768:	193fd61e 	bne	r3,r4,896c4 <_fpadd_parts+0x1a4>
   8976c:	60800017 	ldw	r2,0(r12)
   89770:	60c00117 	ldw	r3,4(r12)
   89774:	61000217 	ldw	r4,8(r12)
   89778:	80800015 	stw	r2,0(r16)
   8977c:	60800317 	ldw	r2,12(r12)
   89780:	80c00115 	stw	r3,4(r16)
   89784:	60c00417 	ldw	r3,16(r12)
   89788:	81000215 	stw	r4,8(r16)
   8978c:	80800315 	stw	r2,12(r16)
   89790:	80c00415 	stw	r3,16(r16)
   89794:	60800117 	ldw	r2,4(r12)
   89798:	28c00117 	ldw	r3,4(r5)
   8979c:	800d883a 	mov	r6,r16
   897a0:	10c4703a 	and	r2,r2,r3
   897a4:	80800115 	stw	r2,4(r16)
   897a8:	003fc606 	br	896c4 <_fpadd_parts+0x1a4>
   897ac:	800d883a 	mov	r6,r16
   897b0:	84400215 	stw	r17,8(r16)
   897b4:	003fc306 	br	896c4 <_fpadd_parts+0x1a4>
   897b8:	5205c83a 	sub	r2,r10,r8
   897bc:	5089803a 	cmpltu	r4,r10,r2
   897c0:	5a47c83a 	sub	r3,r11,r9
   897c4:	003f8306 	br	895d4 <_fpadd_parts+0xb4>
   897c8:	5205883a 	add	r2,r10,r8
   897cc:	1289803a 	cmpltu	r4,r2,r10
   897d0:	5a47883a 	add	r3,r11,r9
   897d4:	20c9883a 	add	r4,r4,r3
   897d8:	7823883a 	mov	r17,r15
   897dc:	781d883a 	mov	r14,r15
   897e0:	81400115 	stw	r5,4(r16)
   897e4:	80800315 	stw	r2,12(r16)
   897e8:	81000415 	stw	r4,16(r16)
   897ec:	003fa006 	br	89670 <_fpadd_parts+0x150>
   897f0:	0015883a 	mov	r10,zero
   897f4:	701f883a 	mov	r15,r14
   897f8:	0017883a 	mov	r11,zero
   897fc:	003f6e06 	br	895b8 <_fpadd_parts+0x98>
   89800:	00c7c83a 	sub	r3,zero,r3
   89804:	003f6706 	br	895a4 <_fpadd_parts+0x84>
   89808:	00800044 	movi	r2,1
   8980c:	200b883a 	mov	r5,r4
   89810:	80800115 	stw	r2,4(r16)
   89814:	3009883a 	mov	r4,r6
   89818:	7823883a 	mov	r17,r15
   8981c:	00888c00 	call	888c0 <__negdi2>
   89820:	881d883a 	mov	r14,r17
   89824:	80c00415 	stw	r3,16(r16)
   89828:	80800315 	stw	r2,12(r16)
   8982c:	003f7106 	br	895f4 <_fpadd_parts+0xd4>
   89830:	00bfff84 	movi	r2,-2
   89834:	11ff7a2e 	bgeu	r2,r7,89620 <_fpadd_parts+0x100>
   89838:	003f8d06 	br	89670 <_fpadd_parts+0x150>

0008983c <__adddf3>:
   8983c:	deffeb04 	addi	sp,sp,-84
   89840:	2011883a 	mov	r8,r4
   89844:	dc401315 	stw	r17,76(sp)
   89848:	d9401015 	stw	r5,64(sp)
   8984c:	d9000f04 	addi	r4,sp,60
   89850:	d80b883a 	mov	r5,sp
   89854:	dc400504 	addi	r17,sp,20
   89858:	dfc01415 	stw	ra,80(sp)
   8985c:	d9c01215 	stw	r7,72(sp)
   89860:	da000f15 	stw	r8,60(sp)
   89864:	d9801115 	stw	r6,68(sp)
   89868:	008a68c0 	call	8a68c <__unpack_d>
   8986c:	d9001104 	addi	r4,sp,68
   89870:	880b883a 	mov	r5,r17
   89874:	008a68c0 	call	8a68c <__unpack_d>
   89878:	d9800a04 	addi	r6,sp,40
   8987c:	d809883a 	mov	r4,sp
   89880:	880b883a 	mov	r5,r17
   89884:	00895200 	call	89520 <_fpadd_parts>
   89888:	1009883a 	mov	r4,r2
   8988c:	008a3fc0 	call	8a3fc <__pack_d>
   89890:	1009883a 	mov	r4,r2
   89894:	2005883a 	mov	r2,r4
   89898:	dfc01417 	ldw	ra,80(sp)
   8989c:	dc401317 	ldw	r17,76(sp)
   898a0:	dec01504 	addi	sp,sp,84
   898a4:	f800283a 	ret

000898a8 <__subdf3>:
   898a8:	deffeb04 	addi	sp,sp,-84
   898ac:	2011883a 	mov	r8,r4
   898b0:	dc401315 	stw	r17,76(sp)
   898b4:	d9401015 	stw	r5,64(sp)
   898b8:	d9000f04 	addi	r4,sp,60
   898bc:	d80b883a 	mov	r5,sp
   898c0:	dc400504 	addi	r17,sp,20
   898c4:	dfc01415 	stw	ra,80(sp)
   898c8:	d9c01215 	stw	r7,72(sp)
   898cc:	da000f15 	stw	r8,60(sp)
   898d0:	d9801115 	stw	r6,68(sp)
   898d4:	008a68c0 	call	8a68c <__unpack_d>
   898d8:	d9001104 	addi	r4,sp,68
   898dc:	880b883a 	mov	r5,r17
   898e0:	008a68c0 	call	8a68c <__unpack_d>
   898e4:	d8800617 	ldw	r2,24(sp)
   898e8:	880b883a 	mov	r5,r17
   898ec:	d809883a 	mov	r4,sp
   898f0:	d9800a04 	addi	r6,sp,40
   898f4:	1080005c 	xori	r2,r2,1
   898f8:	d8800615 	stw	r2,24(sp)
   898fc:	00895200 	call	89520 <_fpadd_parts>
   89900:	1009883a 	mov	r4,r2
   89904:	008a3fc0 	call	8a3fc <__pack_d>
   89908:	1009883a 	mov	r4,r2
   8990c:	2005883a 	mov	r2,r4
   89910:	dfc01417 	ldw	ra,80(sp)
   89914:	dc401317 	ldw	r17,76(sp)
   89918:	dec01504 	addi	sp,sp,84
   8991c:	f800283a 	ret

00089920 <__muldf3>:
   89920:	deffe004 	addi	sp,sp,-128
   89924:	2011883a 	mov	r8,r4
   89928:	df001e15 	stw	fp,120(sp)
   8992c:	d9401015 	stw	r5,64(sp)
   89930:	d9000f04 	addi	r4,sp,60
   89934:	d80b883a 	mov	r5,sp
   89938:	df000504 	addi	fp,sp,20
   8993c:	dfc01f15 	stw	ra,124(sp)
   89940:	ddc01715 	stw	r23,92(sp)
   89944:	d9c01215 	stw	r7,72(sp)
   89948:	da000f15 	stw	r8,60(sp)
   8994c:	d9801115 	stw	r6,68(sp)
   89950:	dc001d15 	stw	r16,116(sp)
   89954:	dc401c15 	stw	r17,112(sp)
   89958:	dc801b15 	stw	r18,108(sp)
   8995c:	dcc01a15 	stw	r19,104(sp)
   89960:	dd001915 	stw	r20,100(sp)
   89964:	dd401815 	stw	r21,96(sp)
   89968:	008a68c0 	call	8a68c <__unpack_d>
   8996c:	d9001104 	addi	r4,sp,68
   89970:	e00b883a 	mov	r5,fp
   89974:	008a68c0 	call	8a68c <__unpack_d>
   89978:	d8c00017 	ldw	r3,0(sp)
   8997c:	05c00044 	movi	r23,1
   89980:	b8c00e2e 	bgeu	r23,r3,899bc <__muldf3+0x9c>
   89984:	e1000017 	ldw	r4,0(fp)
   89988:	b9000636 	bltu	r23,r4,899a4 <__muldf3+0x84>
   8998c:	d8c00617 	ldw	r3,24(sp)
   89990:	d8800117 	ldw	r2,4(sp)
   89994:	e009883a 	mov	r4,fp
   89998:	10c4c03a 	cmpne	r2,r2,r3
   8999c:	d8800615 	stw	r2,24(sp)
   899a0:	00000b06 	br	899d0 <__muldf3+0xb0>
   899a4:	18800118 	cmpnei	r2,r3,4
   899a8:	1000171e 	bne	r2,zero,89a08 <__muldf3+0xe8>
   899ac:	20800098 	cmpnei	r2,r4,2
   899b0:	01000274 	movhi	r4,9
   899b4:	211b6604 	addi	r4,r4,28056
   899b8:	10000526 	beq	r2,zero,899d0 <__muldf3+0xb0>
   899bc:	d8800117 	ldw	r2,4(sp)
   899c0:	d8c00617 	ldw	r3,24(sp)
   899c4:	d809883a 	mov	r4,sp
   899c8:	10c4c03a 	cmpne	r2,r2,r3
   899cc:	d8800115 	stw	r2,4(sp)
   899d0:	008a3fc0 	call	8a3fc <__pack_d>
   899d4:	1009883a 	mov	r4,r2
   899d8:	2005883a 	mov	r2,r4
   899dc:	dfc01f17 	ldw	ra,124(sp)
   899e0:	df001e17 	ldw	fp,120(sp)
   899e4:	dc001d17 	ldw	r16,116(sp)
   899e8:	dc401c17 	ldw	r17,112(sp)
   899ec:	dc801b17 	ldw	r18,108(sp)
   899f0:	dcc01a17 	ldw	r19,104(sp)
   899f4:	dd001917 	ldw	r20,100(sp)
   899f8:	dd401817 	ldw	r21,96(sp)
   899fc:	ddc01717 	ldw	r23,92(sp)
   89a00:	dec02004 	addi	sp,sp,128
   89a04:	f800283a 	ret
   89a08:	20800118 	cmpnei	r2,r4,4
   89a0c:	10009a26 	beq	r2,zero,89c78 <__muldf3+0x358>
   89a10:	18800098 	cmpnei	r2,r3,2
   89a14:	103fe926 	beq	r2,zero,899bc <__muldf3+0x9c>
   89a18:	20800098 	cmpnei	r2,r4,2
   89a1c:	103fdb26 	beq	r2,zero,8998c <__muldf3+0x6c>
   89a20:	dc000317 	ldw	r16,12(sp)
   89a24:	dc800817 	ldw	r18,32(sp)
   89a28:	0013883a 	mov	r9,zero
   89a2c:	0007883a 	mov	r3,zero
   89a30:	dcc00917 	ldw	r19,36(sp)
   89a34:	480f883a 	mov	r7,r9
   89a38:	9009883a 	mov	r4,r18
   89a3c:	800d883a 	mov	r6,r16
   89a40:	180b883a 	mov	r5,r3
   89a44:	00887b40 	call	887b4 <__muldi3>
   89a48:	dc400417 	ldw	r17,16(sp)
   89a4c:	0013883a 	mov	r9,zero
   89a50:	0017883a 	mov	r11,zero
   89a54:	480b883a 	mov	r5,r9
   89a58:	580f883a 	mov	r7,r11
   89a5c:	9809883a 	mov	r4,r19
   89a60:	800d883a 	mov	r6,r16
   89a64:	dc401315 	stw	r17,76(sp)
   89a68:	d8801515 	stw	r2,84(sp)
   89a6c:	d8c01615 	stw	r3,88(sp)
   89a70:	00887b40 	call	887b4 <__muldi3>
   89a74:	d9401317 	ldw	r5,76(sp)
   89a78:	0017883a 	mov	r11,zero
   89a7c:	0013883a 	mov	r9,zero
   89a80:	2811883a 	mov	r8,r5
   89a84:	0009883a 	mov	r4,zero
   89a88:	580b883a 	mov	r5,r11
   89a8c:	400d883a 	mov	r6,r8
   89a90:	480f883a 	mov	r7,r9
   89a94:	d9001415 	stw	r4,80(sp)
   89a98:	9009883a 	mov	r4,r18
   89a9c:	9829883a 	mov	r20,r19
   89aa0:	1025883a 	mov	r18,r2
   89aa4:	1827883a 	mov	r19,r3
   89aa8:	00887b40 	call	887b4 <__muldi3>
   89aac:	d9801317 	ldw	r6,76(sp)
   89ab0:	1009883a 	mov	r4,r2
   89ab4:	180b883a 	mov	r5,r3
   89ab8:	0013883a 	mov	r9,zero
   89abc:	0007883a 	mov	r3,zero
   89ac0:	2021883a 	mov	r16,r4
   89ac4:	2823883a 	mov	r17,r5
   89ac8:	a009883a 	mov	r4,r20
   89acc:	480b883a 	mov	r5,r9
   89ad0:	180f883a 	mov	r7,r3
   89ad4:	00887b40 	call	887b4 <__muldi3>
   89ad8:	9409883a 	add	r4,r18,r16
   89adc:	2491803a 	cmpltu	r8,r4,r18
   89ae0:	9c4b883a 	add	r5,r19,r17
   89ae4:	4151883a 	add	r8,r8,r5
   89ae8:	2013883a 	mov	r9,r4
   89aec:	4015883a 	mov	r10,r8
   89af0:	101f883a 	mov	r15,r2
   89af4:	0017883a 	mov	r11,zero
   89af8:	1821883a 	mov	r16,r3
   89afc:	0019883a 	mov	r12,zero
   89b00:	44c0622e 	bgeu	r8,r19,89c8c <__muldf3+0x36c>
   89b04:	0005883a 	mov	r2,zero
   89b08:	5889883a 	add	r4,r11,r2
   89b0c:	22cd803a 	cmpltu	r6,r4,r11
   89b10:	35cd883a 	add	r6,r6,r23
   89b14:	2017883a 	mov	r11,r4
   89b18:	3019883a 	mov	r12,r6
   89b1c:	d9001517 	ldw	r4,84(sp)
   89b20:	d9801617 	ldw	r6,88(sp)
   89b24:	0025883a 	mov	r18,zero
   89b28:	2485883a 	add	r2,r4,r18
   89b2c:	200b883a 	mov	r5,r4
   89b30:	3247883a 	add	r3,r6,r9
   89b34:	1109803a 	cmpltu	r4,r2,r4
   89b38:	20c9883a 	add	r4,r4,r3
   89b3c:	101b883a 	mov	r13,r2
   89b40:	201d883a 	mov	r14,r4
   89b44:	21806236 	bltu	r4,r6,89cd0 <__muldf3+0x3b0>
   89b48:	33806026 	beq	r6,r14,89ccc <__muldf3+0x3ac>
   89b4c:	53c5883a 	add	r2,r10,r15
   89b50:	000b883a 	mov	r5,zero
   89b54:	128d803a 	cmpltu	r6,r2,r10
   89b58:	2c07883a 	add	r3,r5,r16
   89b5c:	5889883a 	add	r4,r11,r2
   89b60:	30c7883a 	add	r3,r6,r3
   89b64:	d8800217 	ldw	r2,8(sp)
   89b68:	e1c00217 	ldw	r7,8(fp)
   89b6c:	60cb883a 	add	r5,r12,r3
   89b70:	e2000117 	ldw	r8,4(fp)
   89b74:	d8c00117 	ldw	r3,4(sp)
   89b78:	22cd803a 	cmpltu	r6,r4,r11
   89b7c:	11c5883a 	add	r2,r2,r7
   89b80:	15000104 	addi	r20,r2,4
   89b84:	314d883a 	add	r6,r6,r5
   89b88:	1a06c03a 	cmpne	r3,r3,r8
   89b8c:	00880034 	movhi	r2,8192
   89b90:	10bfffc4 	addi	r2,r2,-1
   89b94:	2013883a 	mov	r9,r4
   89b98:	3015883a 	mov	r10,r6
   89b9c:	6817883a 	mov	r11,r13
   89ba0:	d8c00b15 	stw	r3,44(sp)
   89ba4:	7019883a 	mov	r12,r14
   89ba8:	a027883a 	mov	r19,r20
   89bac:	1180182e 	bgeu	r2,r6,89c10 <__muldf3+0x2f0>
   89bb0:	1011883a 	mov	r8,r2
   89bb4:	5804d07a 	srli	r2,r11,1
   89bb8:	600697fa 	slli	r3,r12,31
   89bbc:	4808d07a 	srli	r4,r9,1
   89bc0:	500a97fa 	slli	r5,r10,31
   89bc4:	500ed07a 	srli	r7,r10,1
   89bc8:	189eb03a 	or	r15,r3,r2
   89bcc:	00800044 	movi	r2,1
   89bd0:	290cb03a 	or	r6,r5,r4
   89bd4:	a0a9883a 	add	r20,r20,r2
   89bd8:	4888703a 	and	r4,r9,r2
   89bdc:	6020d07a 	srli	r16,r12,1
   89be0:	001b883a 	mov	r13,zero
   89be4:	03a00034 	movhi	r14,32768
   89be8:	73800004 	addi	r14,r14,0
   89bec:	3013883a 	mov	r9,r6
   89bf0:	3815883a 	mov	r10,r7
   89bf4:	a027883a 	mov	r19,r20
   89bf8:	20000426 	beq	r4,zero,89c0c <__muldf3+0x2ec>
   89bfc:	7b62b03a 	or	r17,r15,r13
   89c00:	83a4b03a 	or	r18,r16,r14
   89c04:	8817883a 	mov	r11,r17
   89c08:	9019883a 	mov	r12,r18
   89c0c:	42bfe936 	bltu	r8,r10,89bb4 <__muldf3+0x294>
   89c10:	00840034 	movhi	r2,4096
   89c14:	10bfffc4 	addi	r2,r2,-1
   89c18:	12801f36 	bltu	r2,r10,89c98 <__muldf3+0x378>
   89c1c:	101f883a 	mov	r15,r2
   89c20:	00000306 	br	89c30 <__muldf3+0x310>
   89c24:	6817883a 	mov	r11,r13
   89c28:	7019883a 	mov	r12,r14
   89c2c:	7a801a36 	bltu	r15,r10,89c98 <__muldf3+0x378>
   89c30:	5806d7fa 	srli	r3,r11,31
   89c34:	6305883a 	add	r2,r12,r12
   89c38:	480ed7fa 	srli	r7,r9,31
   89c3c:	528d883a 	add	r6,r10,r10
   89c40:	01000044 	movi	r4,1
   89c44:	189cb03a 	or	r14,r3,r2
   89c48:	4904983a 	sll	r2,r9,r4
   89c4c:	3986b03a 	or	r3,r7,r6
   89c50:	99bfffc4 	addi	r6,r19,-1
   89c54:	5adb883a 	add	r13,r11,r11
   89c58:	3027883a 	mov	r19,r6
   89c5c:	1013883a 	mov	r9,r2
   89c60:	1815883a 	mov	r10,r3
   89c64:	110eb03a 	or	r7,r2,r4
   89c68:	3029883a 	mov	r20,r6
   89c6c:	603fed0e 	bge	r12,zero,89c24 <__muldf3+0x304>
   89c70:	3813883a 	mov	r9,r7
   89c74:	003feb06 	br	89c24 <__muldf3+0x304>
   89c78:	18800098 	cmpnei	r2,r3,2
   89c7c:	01000274 	movhi	r4,9
   89c80:	211b6604 	addi	r4,r4,28056
   89c84:	103f411e 	bne	r2,zero,8998c <__muldf3+0x6c>
   89c88:	003f5106 	br	899d0 <__muldf3+0xb0>
   89c8c:	9a3fa31e 	bne	r19,r8,89b1c <__muldf3+0x1fc>
   89c90:	24bfa22e 	bgeu	r4,r18,89b1c <__muldf3+0x1fc>
   89c94:	003f9b06 	br	89b04 <__muldf3+0x1e4>
   89c98:	00803fc4 	movi	r2,255
   89c9c:	488c703a 	and	r6,r9,r2
   89ca0:	00802004 	movi	r2,128
   89ca4:	0007883a 	mov	r3,zero
   89ca8:	000f883a 	mov	r7,zero
   89cac:	dd000c15 	stw	r20,48(sp)
   89cb0:	30800e26 	beq	r6,r2,89cec <__muldf3+0x3cc>
   89cb4:	008000c4 	movi	r2,3
   89cb8:	d9000a04 	addi	r4,sp,40
   89cbc:	da800e15 	stw	r10,56(sp)
   89cc0:	d8800a15 	stw	r2,40(sp)
   89cc4:	da400d15 	stw	r9,52(sp)
   89cc8:	003f4106 	br	899d0 <__muldf3+0xb0>
   89ccc:	697f9f2e 	bgeu	r13,r5,89b4c <__muldf3+0x22c>
   89cd0:	00800044 	movi	r2,1
   89cd4:	5889883a 	add	r4,r11,r2
   89cd8:	22cd803a 	cmpltu	r6,r4,r11
   89cdc:	330d883a 	add	r6,r6,r12
   89ce0:	2017883a 	mov	r11,r4
   89ce4:	3019883a 	mov	r12,r6
   89ce8:	003f9806 	br	89b4c <__muldf3+0x22c>
   89cec:	383ff11e 	bne	r7,zero,89cb4 <__muldf3+0x394>
   89cf0:	01004004 	movi	r4,256
   89cf4:	4904703a 	and	r2,r9,r4
   89cf8:	10c4b03a 	or	r2,r2,r3
   89cfc:	1000021e 	bne	r2,zero,89d08 <__muldf3+0x3e8>
   89d00:	5b04b03a 	or	r2,r11,r12
   89d04:	103feb26 	beq	r2,zero,89cb4 <__muldf3+0x394>
   89d08:	4989883a 	add	r4,r9,r6
   89d0c:	224d803a 	cmpltu	r6,r4,r9
   89d10:	328d883a 	add	r6,r6,r10
   89d14:	2013883a 	mov	r9,r4
   89d18:	3015883a 	mov	r10,r6
   89d1c:	003fe506 	br	89cb4 <__muldf3+0x394>

00089d20 <__divdf3>:
   89d20:	deffea04 	addi	sp,sp,-88
   89d24:	2011883a 	mov	r8,r4
   89d28:	dc001415 	stw	r16,80(sp)
   89d2c:	d9400b15 	stw	r5,44(sp)
   89d30:	d9000a04 	addi	r4,sp,40
   89d34:	d80b883a 	mov	r5,sp
   89d38:	dc000504 	addi	r16,sp,20
   89d3c:	dfc01515 	stw	ra,84(sp)
   89d40:	d9c00d15 	stw	r7,52(sp)
   89d44:	da000a15 	stw	r8,40(sp)
   89d48:	d9800c15 	stw	r6,48(sp)
   89d4c:	dc401315 	stw	r17,76(sp)
   89d50:	dc801215 	stw	r18,72(sp)
   89d54:	dcc01115 	stw	r19,68(sp)
   89d58:	dd001015 	stw	r20,64(sp)
   89d5c:	dd400f15 	stw	r21,60(sp)
   89d60:	dd800e15 	stw	r22,56(sp)
   89d64:	008a68c0 	call	8a68c <__unpack_d>
   89d68:	d9000c04 	addi	r4,sp,48
   89d6c:	800b883a 	mov	r5,r16
   89d70:	008a68c0 	call	8a68c <__unpack_d>
   89d74:	d9400017 	ldw	r5,0(sp)
   89d78:	00800044 	movi	r2,1
   89d7c:	d83f883a 	mov	ra,sp
   89d80:	d809883a 	mov	r4,sp
   89d84:	11404c2e 	bgeu	r2,r5,89eb8 <__divdf3+0x198>
   89d88:	81800017 	ldw	r6,0(r16)
   89d8c:	8009883a 	mov	r4,r16
   89d90:	1180492e 	bgeu	r2,r6,89eb8 <__divdf3+0x198>
   89d94:	d8c00117 	ldw	r3,4(sp)
   89d98:	d9000617 	ldw	r4,24(sp)
   89d9c:	28800120 	cmpeqi	r2,r5,4
   89da0:	1906f03a 	xor	r3,r3,r4
   89da4:	d8c00115 	stw	r3,4(sp)
   89da8:	1000501e 	bne	r2,zero,89eec <__divdf3+0x1cc>
   89dac:	288000a0 	cmpeqi	r2,r5,2
   89db0:	10004e1e 	bne	r2,zero,89eec <__divdf3+0x1cc>
   89db4:	30800118 	cmpnei	r2,r6,4
   89db8:	10005726 	beq	r2,zero,89f18 <__divdf3+0x1f8>
   89dbc:	30800098 	cmpnei	r2,r6,2
   89dc0:	10005a26 	beq	r2,zero,89f2c <__divdf3+0x20c>
   89dc4:	d8c00217 	ldw	r3,8(sp)
   89dc8:	d8800717 	ldw	r2,28(sp)
   89dcc:	da000417 	ldw	r8,16(sp)
   89dd0:	dd800917 	ldw	r22,36(sp)
   89dd4:	d9c00317 	ldw	r7,12(sp)
   89dd8:	dd400817 	ldw	r21,32(sp)
   89ddc:	1893c83a 	sub	r9,r3,r2
   89de0:	4580472e 	bgeu	r8,r22,89f00 <__divdf3+0x1e0>
   89de4:	39c5883a 	add	r2,r7,r7
   89de8:	11cd803a 	cmpltu	r6,r2,r7
   89dec:	4207883a 	add	r3,r8,r8
   89df0:	30cd883a 	add	r6,r6,r3
   89df4:	493fffc4 	addi	r4,r9,-1
   89df8:	100f883a 	mov	r7,r2
   89dfc:	3011883a 	mov	r8,r6
   89e00:	d9000215 	stw	r4,8(sp)
   89e04:	0009883a 	mov	r4,zero
   89e08:	01440034 	movhi	r5,4096
   89e0c:	29400004 	addi	r5,r5,0
   89e10:	2144b03a 	or	r2,r4,r5
   89e14:	0027883a 	mov	r19,zero
   89e18:	0029883a 	mov	r20,zero
   89e1c:	1000111e 	bne	r2,zero,89e64 <__divdf3+0x144>
   89e20:	00001c06 	br	89e94 <__divdf3+0x174>
   89e24:	6827883a 	mov	r19,r13
   89e28:	7029883a 	mov	r20,r14
   89e2c:	580f883a 	mov	r7,r11
   89e30:	1011883a 	mov	r8,r2
   89e34:	2820d07a 	srli	r16,r5,1
   89e38:	39d3883a 	add	r9,r7,r7
   89e3c:	30deb03a 	or	r15,r6,r3
   89e40:	49c5803a 	cmpltu	r2,r9,r7
   89e44:	4215883a 	add	r10,r8,r8
   89e48:	1285883a 	add	r2,r2,r10
   89e4c:	7c06b03a 	or	r3,r15,r16
   89e50:	7809883a 	mov	r4,r15
   89e54:	800b883a 	mov	r5,r16
   89e58:	480f883a 	mov	r7,r9
   89e5c:	1011883a 	mov	r8,r2
   89e60:	18000c26 	beq	r3,zero,89e94 <__divdf3+0x174>
   89e64:	280c97fa 	slli	r6,r5,31
   89e68:	2006d07a 	srli	r3,r4,1
   89e6c:	45bff136 	bltu	r8,r22,89e34 <__divdf3+0x114>
   89e70:	3d57c83a 	sub	r11,r7,r21
   89e74:	3ac5803a 	cmpltu	r2,r7,r11
   89e78:	4599c83a 	sub	r12,r8,r22
   89e7c:	991ab03a 	or	r13,r19,r4
   89e80:	a15cb03a 	or	r14,r20,r5
   89e84:	6085c83a 	sub	r2,r12,r2
   89e88:	b23fe61e 	bne	r22,r8,89e24 <__divdf3+0x104>
   89e8c:	3d7fe936 	bltu	r7,r21,89e34 <__divdf3+0x114>
   89e90:	003fe406 	br	89e24 <__divdf3+0x104>
   89e94:	00803fc4 	movi	r2,255
   89e98:	9892703a 	and	r9,r19,r2
   89e9c:	00802004 	movi	r2,128
   89ea0:	0007883a 	mov	r3,zero
   89ea4:	0015883a 	mov	r10,zero
   89ea8:	48802426 	beq	r9,r2,89f3c <__divdf3+0x21c>
   89eac:	fd000415 	stw	r20,16(ra)
   89eb0:	fcc00315 	stw	r19,12(ra)
   89eb4:	f809883a 	mov	r4,ra
   89eb8:	008a3fc0 	call	8a3fc <__pack_d>
   89ebc:	1009883a 	mov	r4,r2
   89ec0:	2005883a 	mov	r2,r4
   89ec4:	dfc01517 	ldw	ra,84(sp)
   89ec8:	dc001417 	ldw	r16,80(sp)
   89ecc:	dc401317 	ldw	r17,76(sp)
   89ed0:	dc801217 	ldw	r18,72(sp)
   89ed4:	dcc01117 	ldw	r19,68(sp)
   89ed8:	dd001017 	ldw	r20,64(sp)
   89edc:	dd400f17 	ldw	r21,60(sp)
   89ee0:	dd800e17 	ldw	r22,56(sp)
   89ee4:	dec01604 	addi	sp,sp,88
   89ee8:	f800283a 	ret
   89eec:	01000274 	movhi	r4,9
   89ef0:	211b6604 	addi	r4,r4,28056
   89ef4:	29bff026 	beq	r5,r6,89eb8 <__divdf3+0x198>
   89ef8:	d809883a 	mov	r4,sp
   89efc:	003fee06 	br	89eb8 <__divdf3+0x198>
   89f00:	b2000226 	beq	r22,r8,89f0c <__divdf3+0x1ec>
   89f04:	da400215 	stw	r9,8(sp)
   89f08:	003fbe06 	br	89e04 <__divdf3+0xe4>
   89f0c:	3d7fb536 	bltu	r7,r21,89de4 <__divdf3+0xc4>
   89f10:	da400215 	stw	r9,8(sp)
   89f14:	003fbb06 	br	89e04 <__divdf3+0xe4>
   89f18:	d809883a 	mov	r4,sp
   89f1c:	d8000315 	stw	zero,12(sp)
   89f20:	d8000415 	stw	zero,16(sp)
   89f24:	d8000215 	stw	zero,8(sp)
   89f28:	003fe306 	br	89eb8 <__divdf3+0x198>
   89f2c:	00800104 	movi	r2,4
   89f30:	d809883a 	mov	r4,sp
   89f34:	d8800015 	stw	r2,0(sp)
   89f38:	003fdf06 	br	89eb8 <__divdf3+0x198>
   89f3c:	503fdb1e 	bne	r10,zero,89eac <__divdf3+0x18c>
   89f40:	01004004 	movi	r4,256
   89f44:	9904703a 	and	r2,r19,r4
   89f48:	10c4b03a 	or	r2,r2,r3
   89f4c:	1000021e 	bne	r2,zero,89f58 <__divdf3+0x238>
   89f50:	3a04b03a 	or	r2,r7,r8
   89f54:	103fd526 	beq	r2,zero,89eac <__divdf3+0x18c>
   89f58:	9a49883a 	add	r4,r19,r9
   89f5c:	24cd803a 	cmpltu	r6,r4,r19
   89f60:	350d883a 	add	r6,r6,r20
   89f64:	2027883a 	mov	r19,r4
   89f68:	3029883a 	mov	r20,r6
   89f6c:	003fcf06 	br	89eac <__divdf3+0x18c>

00089f70 <__eqdf2>:
   89f70:	defff004 	addi	sp,sp,-64
   89f74:	2005883a 	mov	r2,r4
   89f78:	dc000e15 	stw	r16,56(sp)
   89f7c:	d9400b15 	stw	r5,44(sp)
   89f80:	d9000a04 	addi	r4,sp,40
   89f84:	d80b883a 	mov	r5,sp
   89f88:	dc000504 	addi	r16,sp,20
   89f8c:	d8800a15 	stw	r2,40(sp)
   89f90:	d9800c15 	stw	r6,48(sp)
   89f94:	dfc00f15 	stw	ra,60(sp)
   89f98:	d9c00d15 	stw	r7,52(sp)
   89f9c:	008a68c0 	call	8a68c <__unpack_d>
   89fa0:	d9000c04 	addi	r4,sp,48
   89fa4:	800b883a 	mov	r5,r16
   89fa8:	008a68c0 	call	8a68c <__unpack_d>
   89fac:	d8800017 	ldw	r2,0(sp)
   89fb0:	00c00044 	movi	r3,1
   89fb4:	180d883a 	mov	r6,r3
   89fb8:	1880042e 	bgeu	r3,r2,89fcc <__eqdf2+0x5c>
   89fbc:	80800017 	ldw	r2,0(r16)
   89fc0:	800b883a 	mov	r5,r16
   89fc4:	d809883a 	mov	r4,sp
   89fc8:	18800536 	bltu	r3,r2,89fe0 <__eqdf2+0x70>
   89fcc:	3005883a 	mov	r2,r6
   89fd0:	dfc00f17 	ldw	ra,60(sp)
   89fd4:	dc000e17 	ldw	r16,56(sp)
   89fd8:	dec01004 	addi	sp,sp,64
   89fdc:	f800283a 	ret
   89fe0:	008a7b40 	call	8a7b4 <__fpcmp_parts_d>
   89fe4:	100d883a 	mov	r6,r2
   89fe8:	3005883a 	mov	r2,r6
   89fec:	dfc00f17 	ldw	ra,60(sp)
   89ff0:	dc000e17 	ldw	r16,56(sp)
   89ff4:	dec01004 	addi	sp,sp,64
   89ff8:	f800283a 	ret

00089ffc <__nedf2>:
   89ffc:	defff004 	addi	sp,sp,-64
   8a000:	2005883a 	mov	r2,r4
   8a004:	dc000e15 	stw	r16,56(sp)
   8a008:	d9400b15 	stw	r5,44(sp)
   8a00c:	d9000a04 	addi	r4,sp,40
   8a010:	d80b883a 	mov	r5,sp
   8a014:	dc000504 	addi	r16,sp,20
   8a018:	d8800a15 	stw	r2,40(sp)
   8a01c:	d9800c15 	stw	r6,48(sp)
   8a020:	dfc00f15 	stw	ra,60(sp)
   8a024:	d9c00d15 	stw	r7,52(sp)
   8a028:	008a68c0 	call	8a68c <__unpack_d>
   8a02c:	d9000c04 	addi	r4,sp,48
   8a030:	800b883a 	mov	r5,r16
   8a034:	008a68c0 	call	8a68c <__unpack_d>
   8a038:	d8800017 	ldw	r2,0(sp)
   8a03c:	00c00044 	movi	r3,1
   8a040:	180d883a 	mov	r6,r3
   8a044:	1880042e 	bgeu	r3,r2,8a058 <__nedf2+0x5c>
   8a048:	80800017 	ldw	r2,0(r16)
   8a04c:	800b883a 	mov	r5,r16
   8a050:	d809883a 	mov	r4,sp
   8a054:	18800536 	bltu	r3,r2,8a06c <__nedf2+0x70>
   8a058:	3005883a 	mov	r2,r6
   8a05c:	dfc00f17 	ldw	ra,60(sp)
   8a060:	dc000e17 	ldw	r16,56(sp)
   8a064:	dec01004 	addi	sp,sp,64
   8a068:	f800283a 	ret
   8a06c:	008a7b40 	call	8a7b4 <__fpcmp_parts_d>
   8a070:	100d883a 	mov	r6,r2
   8a074:	3005883a 	mov	r2,r6
   8a078:	dfc00f17 	ldw	ra,60(sp)
   8a07c:	dc000e17 	ldw	r16,56(sp)
   8a080:	dec01004 	addi	sp,sp,64
   8a084:	f800283a 	ret

0008a088 <__gtdf2>:
   8a088:	defff004 	addi	sp,sp,-64
   8a08c:	2005883a 	mov	r2,r4
   8a090:	dc000e15 	stw	r16,56(sp)
   8a094:	d9400b15 	stw	r5,44(sp)
   8a098:	d9000a04 	addi	r4,sp,40
   8a09c:	d80b883a 	mov	r5,sp
   8a0a0:	dc000504 	addi	r16,sp,20
   8a0a4:	d8800a15 	stw	r2,40(sp)
   8a0a8:	d9800c15 	stw	r6,48(sp)
   8a0ac:	dfc00f15 	stw	ra,60(sp)
   8a0b0:	d9c00d15 	stw	r7,52(sp)
   8a0b4:	008a68c0 	call	8a68c <__unpack_d>
   8a0b8:	d9000c04 	addi	r4,sp,48
   8a0bc:	800b883a 	mov	r5,r16
   8a0c0:	008a68c0 	call	8a68c <__unpack_d>
   8a0c4:	d8800017 	ldw	r2,0(sp)
   8a0c8:	00c00044 	movi	r3,1
   8a0cc:	01bfffc4 	movi	r6,-1
   8a0d0:	1880042e 	bgeu	r3,r2,8a0e4 <__gtdf2+0x5c>
   8a0d4:	80800017 	ldw	r2,0(r16)
   8a0d8:	800b883a 	mov	r5,r16
   8a0dc:	d809883a 	mov	r4,sp
   8a0e0:	18800536 	bltu	r3,r2,8a0f8 <__gtdf2+0x70>
   8a0e4:	3005883a 	mov	r2,r6
   8a0e8:	dfc00f17 	ldw	ra,60(sp)
   8a0ec:	dc000e17 	ldw	r16,56(sp)
   8a0f0:	dec01004 	addi	sp,sp,64
   8a0f4:	f800283a 	ret
   8a0f8:	008a7b40 	call	8a7b4 <__fpcmp_parts_d>
   8a0fc:	100d883a 	mov	r6,r2
   8a100:	3005883a 	mov	r2,r6
   8a104:	dfc00f17 	ldw	ra,60(sp)
   8a108:	dc000e17 	ldw	r16,56(sp)
   8a10c:	dec01004 	addi	sp,sp,64
   8a110:	f800283a 	ret

0008a114 <__gedf2>:
   8a114:	defff004 	addi	sp,sp,-64
   8a118:	2005883a 	mov	r2,r4
   8a11c:	dc000e15 	stw	r16,56(sp)
   8a120:	d9400b15 	stw	r5,44(sp)
   8a124:	d9000a04 	addi	r4,sp,40
   8a128:	d80b883a 	mov	r5,sp
   8a12c:	dc000504 	addi	r16,sp,20
   8a130:	d8800a15 	stw	r2,40(sp)
   8a134:	d9800c15 	stw	r6,48(sp)
   8a138:	dfc00f15 	stw	ra,60(sp)
   8a13c:	d9c00d15 	stw	r7,52(sp)
   8a140:	008a68c0 	call	8a68c <__unpack_d>
   8a144:	d9000c04 	addi	r4,sp,48
   8a148:	800b883a 	mov	r5,r16
   8a14c:	008a68c0 	call	8a68c <__unpack_d>
   8a150:	d8800017 	ldw	r2,0(sp)
   8a154:	00c00044 	movi	r3,1
   8a158:	01bfffc4 	movi	r6,-1
   8a15c:	1880042e 	bgeu	r3,r2,8a170 <__gedf2+0x5c>
   8a160:	80800017 	ldw	r2,0(r16)
   8a164:	800b883a 	mov	r5,r16
   8a168:	d809883a 	mov	r4,sp
   8a16c:	18800536 	bltu	r3,r2,8a184 <__gedf2+0x70>
   8a170:	3005883a 	mov	r2,r6
   8a174:	dfc00f17 	ldw	ra,60(sp)
   8a178:	dc000e17 	ldw	r16,56(sp)
   8a17c:	dec01004 	addi	sp,sp,64
   8a180:	f800283a 	ret
   8a184:	008a7b40 	call	8a7b4 <__fpcmp_parts_d>
   8a188:	100d883a 	mov	r6,r2
   8a18c:	3005883a 	mov	r2,r6
   8a190:	dfc00f17 	ldw	ra,60(sp)
   8a194:	dc000e17 	ldw	r16,56(sp)
   8a198:	dec01004 	addi	sp,sp,64
   8a19c:	f800283a 	ret

0008a1a0 <__ltdf2>:
   8a1a0:	defff004 	addi	sp,sp,-64
   8a1a4:	2005883a 	mov	r2,r4
   8a1a8:	dc000e15 	stw	r16,56(sp)
   8a1ac:	d9400b15 	stw	r5,44(sp)
   8a1b0:	d9000a04 	addi	r4,sp,40
   8a1b4:	d80b883a 	mov	r5,sp
   8a1b8:	dc000504 	addi	r16,sp,20
   8a1bc:	d8800a15 	stw	r2,40(sp)
   8a1c0:	d9800c15 	stw	r6,48(sp)
   8a1c4:	dfc00f15 	stw	ra,60(sp)
   8a1c8:	d9c00d15 	stw	r7,52(sp)
   8a1cc:	008a68c0 	call	8a68c <__unpack_d>
   8a1d0:	d9000c04 	addi	r4,sp,48
   8a1d4:	800b883a 	mov	r5,r16
   8a1d8:	008a68c0 	call	8a68c <__unpack_d>
   8a1dc:	d8800017 	ldw	r2,0(sp)
   8a1e0:	00c00044 	movi	r3,1
   8a1e4:	180d883a 	mov	r6,r3
   8a1e8:	1880042e 	bgeu	r3,r2,8a1fc <__ltdf2+0x5c>
   8a1ec:	80800017 	ldw	r2,0(r16)
   8a1f0:	800b883a 	mov	r5,r16
   8a1f4:	d809883a 	mov	r4,sp
   8a1f8:	18800536 	bltu	r3,r2,8a210 <__ltdf2+0x70>
   8a1fc:	3005883a 	mov	r2,r6
   8a200:	dfc00f17 	ldw	ra,60(sp)
   8a204:	dc000e17 	ldw	r16,56(sp)
   8a208:	dec01004 	addi	sp,sp,64
   8a20c:	f800283a 	ret
   8a210:	008a7b40 	call	8a7b4 <__fpcmp_parts_d>
   8a214:	100d883a 	mov	r6,r2
   8a218:	3005883a 	mov	r2,r6
   8a21c:	dfc00f17 	ldw	ra,60(sp)
   8a220:	dc000e17 	ldw	r16,56(sp)
   8a224:	dec01004 	addi	sp,sp,64
   8a228:	f800283a 	ret

0008a22c <__floatsidf>:
   8a22c:	2006d7fa 	srli	r3,r4,31
   8a230:	defffa04 	addi	sp,sp,-24
   8a234:	dfc00515 	stw	ra,20(sp)
   8a238:	d8c00115 	stw	r3,4(sp)
   8a23c:	20000b1e 	bne	r4,zero,8a26c <__floatsidf+0x40>
   8a240:	00800084 	movi	r2,2
   8a244:	d8800015 	stw	r2,0(sp)
   8a248:	d809883a 	mov	r4,sp
   8a24c:	008a3fc0 	call	8a3fc <__pack_d>
   8a250:	100d883a 	mov	r6,r2
   8a254:	180f883a 	mov	r7,r3
   8a258:	3807883a 	mov	r3,r7
   8a25c:	3005883a 	mov	r2,r6
   8a260:	dfc00517 	ldw	ra,20(sp)
   8a264:	dec00604 	addi	sp,sp,24
   8a268:	f800283a 	ret
   8a26c:	02c00f04 	movi	r11,60
   8a270:	008000c4 	movi	r2,3
   8a274:	d8800015 	stw	r2,0(sp)
   8a278:	5815883a 	mov	r10,r11
   8a27c:	18000426 	beq	r3,zero,8a290 <__floatsidf+0x64>
   8a280:	00a00034 	movhi	r2,32768
   8a284:	10800004 	addi	r2,r2,0
   8a288:	20801726 	beq	r4,r2,8a2e8 <__floatsidf+0xbc>
   8a28c:	0109c83a 	sub	r4,zero,r4
   8a290:	2007d7fa 	srai	r3,r4,31
   8a294:	03040034 	movhi	r12,4096
   8a298:	633fffc4 	addi	r12,r12,-1
   8a29c:	d9000315 	stw	r4,12(sp)
   8a2a0:	d8c00415 	stw	r3,16(sp)
   8a2a4:	da400417 	ldw	r9,16(sp)
   8a2a8:	62400d36 	bltu	r12,r9,8a2e0 <__floatsidf+0xb4>
   8a2ac:	d8800317 	ldw	r2,12(sp)
   8a2b0:	d8c00417 	ldw	r3,16(sp)
   8a2b4:	51bfffc4 	addi	r6,r10,-1
   8a2b8:	3015883a 	mov	r10,r6
   8a2bc:	3017883a 	mov	r11,r6
   8a2c0:	100ed7fa 	srli	r7,r2,31
   8a2c4:	18cd883a 	add	r6,r3,r3
   8a2c8:	1089883a 	add	r4,r2,r2
   8a2cc:	398ab03a 	or	r5,r7,r6
   8a2d0:	2813883a 	mov	r9,r5
   8a2d4:	d9000315 	stw	r4,12(sp)
   8a2d8:	d9400415 	stw	r5,16(sp)
   8a2dc:	627ff32e 	bgeu	r12,r9,8a2ac <__floatsidf+0x80>
   8a2e0:	dac00215 	stw	r11,8(sp)
   8a2e4:	003fd806 	br	8a248 <__floatsidf+0x1c>
   8a2e8:	000d883a 	mov	r6,zero
   8a2ec:	01f07834 	movhi	r7,49632
   8a2f0:	39c00004 	addi	r7,r7,0
   8a2f4:	dac00215 	stw	r11,8(sp)
   8a2f8:	003fd706 	br	8a258 <__floatsidf+0x2c>

0008a2fc <__fixdfsi>:
   8a2fc:	defff804 	addi	sp,sp,-32
   8a300:	2005883a 	mov	r2,r4
   8a304:	d9400615 	stw	r5,24(sp)
   8a308:	d9000504 	addi	r4,sp,20
   8a30c:	d80b883a 	mov	r5,sp
   8a310:	d8800515 	stw	r2,20(sp)
   8a314:	dfc00715 	stw	ra,28(sp)
   8a318:	008a68c0 	call	8a68c <__unpack_d>
   8a31c:	d8c00017 	ldw	r3,0(sp)
   8a320:	000b883a 	mov	r5,zero
   8a324:	18800098 	cmpnei	r2,r3,2
   8a328:	10000f26 	beq	r2,zero,8a368 <__fixdfsi+0x6c>
   8a32c:	00800044 	movi	r2,1
   8a330:	10c00d2e 	bgeu	r2,r3,8a368 <__fixdfsi+0x6c>
   8a334:	18800118 	cmpnei	r2,r3,4
   8a338:	10000526 	beq	r2,zero,8a350 <__fixdfsi+0x54>
   8a33c:	d9000217 	ldw	r4,8(sp)
   8a340:	000b883a 	mov	r5,zero
   8a344:	20000816 	blt	r4,zero,8a368 <__fixdfsi+0x6c>
   8a348:	00800784 	movi	r2,30
   8a34c:	11000a0e 	bge	r2,r4,8a378 <__fixdfsi+0x7c>
   8a350:	d8800117 	ldw	r2,4(sp)
   8a354:	00e00034 	movhi	r3,32768
   8a358:	18c00004 	addi	r3,r3,0
   8a35c:	1000011e 	bne	r2,zero,8a364 <__fixdfsi+0x68>
   8a360:	18ffffc4 	addi	r3,r3,-1
   8a364:	180b883a 	mov	r5,r3
   8a368:	2805883a 	mov	r2,r5
   8a36c:	dfc00717 	ldw	ra,28(sp)
   8a370:	dec00804 	addi	sp,sp,32
   8a374:	f800283a 	ret
   8a378:	d8800317 	ldw	r2,12(sp)
   8a37c:	d8c00417 	ldw	r3,16(sp)
   8a380:	01800f04 	movi	r6,60
   8a384:	310dc83a 	sub	r6,r6,r4
   8a388:	180b883a 	mov	r5,r3
   8a38c:	1009883a 	mov	r4,r2
   8a390:	008a3ac0 	call	8a3ac <__lshrdi3>
   8a394:	1007883a 	mov	r3,r2
   8a398:	d8800117 	ldw	r2,4(sp)
   8a39c:	103ff126 	beq	r2,zero,8a364 <__fixdfsi+0x68>
   8a3a0:	00c7c83a 	sub	r3,zero,r3
   8a3a4:	180b883a 	mov	r5,r3
   8a3a8:	003fef06 	br	8a368 <__fixdfsi+0x6c>

0008a3ac <__lshrdi3>:
   8a3ac:	00800804 	movi	r2,32
   8a3b0:	119bc83a 	sub	r13,r2,r6
   8a3b4:	2013883a 	mov	r9,r4
   8a3b8:	2005883a 	mov	r2,r4
   8a3bc:	2815883a 	mov	r10,r5
   8a3c0:	30000826 	beq	r6,zero,8a3e4 <__lshrdi3+0x38>
   8a3c4:	1186d83a 	srl	r3,r2,r6
   8a3c8:	0349c83a 	sub	r4,zero,r13
   8a3cc:	2b44983a 	sll	r2,r5,r13
   8a3d0:	0340070e 	bge	zero,r13,8a3f0 <__lshrdi3+0x44>
   8a3d4:	2998d83a 	srl	r12,r5,r6
   8a3d8:	1896b03a 	or	r11,r3,r2
   8a3dc:	5813883a 	mov	r9,r11
   8a3e0:	6015883a 	mov	r10,r12
   8a3e4:	5007883a 	mov	r3,r10
   8a3e8:	4805883a 	mov	r2,r9
   8a3ec:	f800283a 	ret
   8a3f0:	2916d83a 	srl	r11,r5,r4
   8a3f4:	0019883a 	mov	r12,zero
   8a3f8:	003ff806 	br	8a3dc <__lshrdi3+0x30>

0008a3fc <__pack_d>:
   8a3fc:	defff604 	addi	sp,sp,-40
   8a400:	dcc00415 	stw	r19,16(sp)
   8a404:	dd000315 	stw	r20,12(sp)
   8a408:	dd400215 	stw	r21,8(sp)
   8a40c:	dfc00915 	stw	ra,36(sp)
   8a410:	df000815 	stw	fp,32(sp)
   8a414:	dc000715 	stw	r16,28(sp)
   8a418:	dc400615 	stw	r17,24(sp)
   8a41c:	dc800515 	stw	r18,20(sp)
   8a420:	dd800115 	stw	r22,4(sp)
   8a424:	ddc00015 	stw	r23,0(sp)
   8a428:	20c00017 	ldw	r3,0(r4)
   8a42c:	05000044 	movi	r20,1
   8a430:	24000317 	ldw	r16,12(r4)
   8a434:	0027883a 	mov	r19,zero
   8a438:	24400417 	ldw	r17,16(r4)
   8a43c:	25c00117 	ldw	r23,4(r4)
   8a440:	002b883a 	mov	r21,zero
   8a444:	a0c02636 	bltu	r20,r3,8a4e0 <__pack_d+0xe4>
   8a448:	0005883a 	mov	r2,zero
   8a44c:	00c00234 	movhi	r3,8
   8a450:	18c00004 	addi	r3,r3,0
   8a454:	8088b03a 	or	r4,r16,r2
   8a458:	88cab03a 	or	r5,r17,r3
   8a45c:	2021883a 	mov	r16,r4
   8a460:	2823883a 	mov	r17,r5
   8a464:	0541ffc4 	movi	r21,2047
   8a468:	a941ffcc 	andi	r5,r21,2047
   8a46c:	00c00434 	movhi	r3,16
   8a470:	18ffffc4 	addi	r3,r3,-1
   8a474:	88c6703a 	and	r3,r17,r3
   8a478:	280a953a 	slli	r5,r5,20
   8a47c:	993ffc2c 	andhi	r4,r19,65520
   8a480:	20e6b03a 	or	r19,r4,r3
   8a484:	00a00434 	movhi	r2,32784
   8a488:	10bfffc4 	addi	r2,r2,-1
   8a48c:	b80697fa 	slli	r3,r23,31
   8a490:	9884703a 	and	r2,r19,r2
   8a494:	1166b03a 	or	r19,r2,r5
   8a498:	01e00034 	movhi	r7,32768
   8a49c:	39ffffc4 	addi	r7,r7,-1
   8a4a0:	99ce703a 	and	r7,r19,r7
   8a4a4:	38ceb03a 	or	r7,r7,r3
   8a4a8:	8005883a 	mov	r2,r16
   8a4ac:	3807883a 	mov	r3,r7
   8a4b0:	dfc00917 	ldw	ra,36(sp)
   8a4b4:	df000817 	ldw	fp,32(sp)
   8a4b8:	dc000717 	ldw	r16,28(sp)
   8a4bc:	dc400617 	ldw	r17,24(sp)
   8a4c0:	dc800517 	ldw	r18,20(sp)
   8a4c4:	dcc00417 	ldw	r19,16(sp)
   8a4c8:	dd000317 	ldw	r20,12(sp)
   8a4cc:	dd400217 	ldw	r21,8(sp)
   8a4d0:	dd800117 	ldw	r22,4(sp)
   8a4d4:	ddc00017 	ldw	r23,0(sp)
   8a4d8:	dec00a04 	addi	sp,sp,40
   8a4dc:	f800283a 	ret
   8a4e0:	18800118 	cmpnei	r2,r3,4
   8a4e4:	10003926 	beq	r2,zero,8a5cc <__pack_d+0x1d0>
   8a4e8:	18800098 	cmpnei	r2,r3,2
   8a4ec:	10003b26 	beq	r2,zero,8a5dc <__pack_d+0x1e0>
   8a4f0:	8444b03a 	or	r2,r16,r17
   8a4f4:	103fdc26 	beq	r2,zero,8a468 <__pack_d+0x6c>
   8a4f8:	21000217 	ldw	r4,8(r4)
   8a4fc:	01bf0084 	movi	r6,-1022
   8a500:	2180300e 	bge	r4,r6,8a5c4 <__pack_d+0x1c8>
   8a504:	312dc83a 	sub	r22,r6,r4
   8a508:	00800e04 	movi	r2,56
   8a50c:	15804e16 	blt	r2,r22,8a648 <__pack_d+0x24c>
   8a510:	a009883a 	mov	r4,r20
   8a514:	000b883a 	mov	r5,zero
   8a518:	b00d883a 	mov	r6,r22
   8a51c:	008a8c80 	call	8a8c8 <__ashldi3>
   8a520:	01bfffc4 	movi	r6,-1
   8a524:	1189883a 	add	r4,r2,r6
   8a528:	2095803a 	cmpltu	r10,r4,r2
   8a52c:	198b883a 	add	r5,r3,r6
   8a530:	514b883a 	add	r5,r10,r5
   8a534:	2404703a 	and	r2,r4,r16
   8a538:	2c46703a 	and	r3,r5,r17
   8a53c:	10c4b03a 	or	r2,r2,r3
   8a540:	0039883a 	mov	fp,zero
   8a544:	10000126 	beq	r2,zero,8a54c <__pack_d+0x150>
   8a548:	a039883a 	mov	fp,r20
   8a54c:	880b883a 	mov	r5,r17
   8a550:	8009883a 	mov	r4,r16
   8a554:	b00d883a 	mov	r6,r22
   8a558:	008a3ac0 	call	8a3ac <__lshrdi3>
   8a55c:	000b883a 	mov	r5,zero
   8a560:	1720b03a 	or	r16,r2,fp
   8a564:	1962b03a 	or	r17,r3,r5
   8a568:	00803fc4 	movi	r2,255
   8a56c:	808c703a 	and	r6,r16,r2
   8a570:	00802004 	movi	r2,128
   8a574:	0007883a 	mov	r3,zero
   8a578:	000f883a 	mov	r7,zero
   8a57c:	30803526 	beq	r6,r2,8a654 <__pack_d+0x258>
   8a580:	00801fc4 	movi	r2,127
   8a584:	8089883a 	add	r4,r16,r2
   8a588:	240d803a 	cmpltu	r6,r4,r16
   8a58c:	344d883a 	add	r6,r6,r17
   8a590:	2021883a 	mov	r16,r4
   8a594:	3023883a 	mov	r17,r6
   8a598:	00840034 	movhi	r2,4096
   8a59c:	10bfffc4 	addi	r2,r2,-1
   8a5a0:	1440012e 	bgeu	r2,r17,8a5a8 <__pack_d+0x1ac>
   8a5a4:	05400044 	movi	r21,1
   8a5a8:	880a963a 	slli	r5,r17,24
   8a5ac:	8008d23a 	srli	r4,r16,8
   8a5b0:	8806d23a 	srli	r3,r17,8
   8a5b4:	2904b03a 	or	r2,r5,r4
   8a5b8:	1021883a 	mov	r16,r2
   8a5bc:	1823883a 	mov	r17,r3
   8a5c0:	003fa906 	br	8a468 <__pack_d+0x6c>
   8a5c4:	0080ffc4 	movi	r2,1023
   8a5c8:	1100070e 	bge	r2,r4,8a5e8 <__pack_d+0x1ec>
   8a5cc:	0021883a 	mov	r16,zero
   8a5d0:	0541ffc4 	movi	r21,2047
   8a5d4:	0023883a 	mov	r17,zero
   8a5d8:	003fa306 	br	8a468 <__pack_d+0x6c>
   8a5dc:	0021883a 	mov	r16,zero
   8a5e0:	0023883a 	mov	r17,zero
   8a5e4:	003fa006 	br	8a468 <__pack_d+0x6c>
   8a5e8:	00803fc4 	movi	r2,255
   8a5ec:	808e703a 	and	r7,r16,r2
   8a5f0:	00802004 	movi	r2,128
   8a5f4:	0007883a 	mov	r3,zero
   8a5f8:	0011883a 	mov	r8,zero
   8a5fc:	2540ffc4 	addi	r21,r4,1023
   8a600:	38801b26 	beq	r7,r2,8a670 <__pack_d+0x274>
   8a604:	00801fc4 	movi	r2,127
   8a608:	8089883a 	add	r4,r16,r2
   8a60c:	240d803a 	cmpltu	r6,r4,r16
   8a610:	344d883a 	add	r6,r6,r17
   8a614:	2021883a 	mov	r16,r4
   8a618:	3023883a 	mov	r17,r6
   8a61c:	00880034 	movhi	r2,8192
   8a620:	10bfffc4 	addi	r2,r2,-1
   8a624:	147fe02e 	bgeu	r2,r17,8a5a8 <__pack_d+0x1ac>
   8a628:	880a97fa 	slli	r5,r17,31
   8a62c:	8008d07a 	srli	r4,r16,1
   8a630:	8806d07a 	srli	r3,r17,1
   8a634:	ad400044 	addi	r21,r21,1
   8a638:	2904b03a 	or	r2,r5,r4
   8a63c:	1021883a 	mov	r16,r2
   8a640:	1823883a 	mov	r17,r3
   8a644:	003fd806 	br	8a5a8 <__pack_d+0x1ac>
   8a648:	0021883a 	mov	r16,zero
   8a64c:	0023883a 	mov	r17,zero
   8a650:	003fc506 	br	8a568 <__pack_d+0x16c>
   8a654:	383fca1e 	bne	r7,zero,8a580 <__pack_d+0x184>
   8a658:	01004004 	movi	r4,256
   8a65c:	8104703a 	and	r2,r16,r4
   8a660:	10c4b03a 	or	r2,r2,r3
   8a664:	103fcc26 	beq	r2,zero,8a598 <__pack_d+0x19c>
   8a668:	3005883a 	mov	r2,r6
   8a66c:	003fc506 	br	8a584 <__pack_d+0x188>
   8a670:	403fe41e 	bne	r8,zero,8a604 <__pack_d+0x208>
   8a674:	01004004 	movi	r4,256
   8a678:	8104703a 	and	r2,r16,r4
   8a67c:	10c4b03a 	or	r2,r2,r3
   8a680:	103fe626 	beq	r2,zero,8a61c <__pack_d+0x220>
   8a684:	3805883a 	mov	r2,r7
   8a688:	003fdf06 	br	8a608 <__pack_d+0x20c>

0008a68c <__unpack_d>:
   8a68c:	21800117 	ldw	r6,4(r4)
   8a690:	00800434 	movhi	r2,16
   8a694:	10bfffc4 	addi	r2,r2,-1
   8a698:	22400017 	ldw	r9,0(r4)
   8a69c:	3010d53a 	srli	r8,r6,20
   8a6a0:	3006d7fa 	srli	r3,r6,31
   8a6a4:	2817883a 	mov	r11,r5
   8a6a8:	4201ffcc 	andi	r8,r8,2047
   8a6ac:	28c00115 	stw	r3,4(r5)
   8a6b0:	3094703a 	and	r10,r6,r2
   8a6b4:	4000051e 	bne	r8,zero,8a6cc <__unpack_d+0x40>
   8a6b8:	4a84b03a 	or	r2,r9,r10
   8a6bc:	1000151e 	bne	r2,zero,8a714 <__unpack_d+0x88>
   8a6c0:	00800084 	movi	r2,2
   8a6c4:	58800015 	stw	r2,0(r11)
   8a6c8:	f800283a 	ret
   8a6cc:	0081ffc4 	movi	r2,2047
   8a6d0:	40802a26 	beq	r8,r2,8a77c <__unpack_d+0xf0>
   8a6d4:	480ad63a 	srli	r5,r9,24
   8a6d8:	5008923a 	slli	r4,r10,8
   8a6dc:	480c923a 	slli	r6,r9,8
   8a6e0:	0005883a 	mov	r2,zero
   8a6e4:	290eb03a 	or	r7,r5,r4
   8a6e8:	00c40034 	movhi	r3,4096
   8a6ec:	18c00004 	addi	r3,r3,0
   8a6f0:	3088b03a 	or	r4,r6,r2
   8a6f4:	423f0044 	addi	r8,r8,-1023
   8a6f8:	38cab03a 	or	r5,r7,r3
   8a6fc:	008000c4 	movi	r2,3
   8a700:	59400415 	stw	r5,16(r11)
   8a704:	5a000215 	stw	r8,8(r11)
   8a708:	58800015 	stw	r2,0(r11)
   8a70c:	59000315 	stw	r4,12(r11)
   8a710:	f800283a 	ret
   8a714:	5008923a 	slli	r4,r10,8
   8a718:	480ad63a 	srli	r5,r9,24
   8a71c:	4804923a 	slli	r2,r9,8
   8a720:	01bf0084 	movi	r6,-1022
   8a724:	2906b03a 	or	r3,r5,r4
   8a728:	02040034 	movhi	r8,4096
   8a72c:	423fffc4 	addi	r8,r8,-1
   8a730:	010000c4 	movi	r4,3
   8a734:	1815883a 	mov	r10,r3
   8a738:	59000015 	stw	r4,0(r11)
   8a73c:	1013883a 	mov	r9,r2
   8a740:	300f883a 	mov	r7,r6
   8a744:	42800936 	bltu	r8,r10,8a76c <__unpack_d+0xe0>
   8a748:	480ad7fa 	srli	r5,r9,31
   8a74c:	5289883a 	add	r4,r10,r10
   8a750:	4a45883a 	add	r2,r9,r9
   8a754:	31bfffc4 	addi	r6,r6,-1
   8a758:	2906b03a 	or	r3,r5,r4
   8a75c:	300f883a 	mov	r7,r6
   8a760:	1013883a 	mov	r9,r2
   8a764:	1815883a 	mov	r10,r3
   8a768:	42bff72e 	bgeu	r8,r10,8a748 <__unpack_d+0xbc>
   8a76c:	5a800415 	stw	r10,16(r11)
   8a770:	59c00215 	stw	r7,8(r11)
   8a774:	5a400315 	stw	r9,12(r11)
   8a778:	f800283a 	ret
   8a77c:	4a84b03a 	or	r2,r9,r10
   8a780:	1000021e 	bne	r2,zero,8a78c <__unpack_d+0x100>
   8a784:	00800104 	movi	r2,4
   8a788:	003fce06 	br	8a6c4 <__unpack_d+0x38>
   8a78c:	5004d4fa 	srli	r2,r10,19
   8a790:	1080004c 	andi	r2,r2,1
   8a794:	10000426 	beq	r2,zero,8a7a8 <__unpack_d+0x11c>
   8a798:	00800044 	movi	r2,1
   8a79c:	28800015 	stw	r2,0(r5)
   8a7a0:	5a800415 	stw	r10,16(r11)
   8a7a4:	003ff306 	br	8a774 <__unpack_d+0xe8>
   8a7a8:	28000015 	stw	zero,0(r5)
   8a7ac:	5a800415 	stw	r10,16(r11)
   8a7b0:	003ff006 	br	8a774 <__unpack_d+0xe8>

0008a7b4 <__fpcmp_parts_d>:
   8a7b4:	20c00017 	ldw	r3,0(r4)
   8a7b8:	00800044 	movi	r2,1
   8a7bc:	10c0022e 	bgeu	r2,r3,8a7c8 <__fpcmp_parts_d+0x14>
   8a7c0:	29800017 	ldw	r6,0(r5)
   8a7c4:	11800136 	bltu	r2,r6,8a7cc <__fpcmp_parts_d+0x18>
   8a7c8:	f800283a 	ret
   8a7cc:	18800118 	cmpnei	r2,r3,4
   8a7d0:	10001126 	beq	r2,zero,8a818 <__fpcmp_parts_d+0x64>
   8a7d4:	18800118 	cmpnei	r2,r3,4
   8a7d8:	10001426 	beq	r2,zero,8a82c <__fpcmp_parts_d+0x78>
   8a7dc:	30800118 	cmpnei	r2,r6,4
   8a7e0:	10002f26 	beq	r2,zero,8a8a0 <__fpcmp_parts_d+0xec>
   8a7e4:	18800098 	cmpnei	r2,r3,2
   8a7e8:	10003226 	beq	r2,zero,8a8b4 <__fpcmp_parts_d+0x100>
   8a7ec:	18800098 	cmpnei	r2,r3,2
   8a7f0:	10002b26 	beq	r2,zero,8a8a0 <__fpcmp_parts_d+0xec>
   8a7f4:	30800098 	cmpnei	r2,r6,2
   8a7f8:	10000c26 	beq	r2,zero,8a82c <__fpcmp_parts_d+0x78>
   8a7fc:	22000117 	ldw	r8,4(r4)
   8a800:	28800117 	ldw	r2,4(r5)
   8a804:	40800f26 	beq	r8,r2,8a844 <__fpcmp_parts_d+0x90>
   8a808:	00bfffc4 	movi	r2,-1
   8a80c:	403fee1e 	bne	r8,zero,8a7c8 <__fpcmp_parts_d+0x14>
   8a810:	00800044 	movi	r2,1
   8a814:	f800283a 	ret
   8a818:	30ffee1e 	bne	r6,r3,8a7d4 <__fpcmp_parts_d+0x20>
   8a81c:	28c00117 	ldw	r3,4(r5)
   8a820:	20800117 	ldw	r2,4(r4)
   8a824:	1885c83a 	sub	r2,r3,r2
   8a828:	f800283a 	ret
   8a82c:	20800117 	ldw	r2,4(r4)
   8a830:	00ffffc4 	movi	r3,-1
   8a834:	1000011e 	bne	r2,zero,8a83c <__fpcmp_parts_d+0x88>
   8a838:	00c00044 	movi	r3,1
   8a83c:	1805883a 	mov	r2,r3
   8a840:	f800283a 	ret
   8a844:	20c00217 	ldw	r3,8(r4)
   8a848:	28800217 	ldw	r2,8(r5)
   8a84c:	10ffee16 	blt	r2,r3,8a808 <__fpcmp_parts_d+0x54>
   8a850:	18800f16 	blt	r3,r2,8a890 <__fpcmp_parts_d+0xdc>
   8a854:	21c00417 	ldw	r7,16(r4)
   8a858:	28c00417 	ldw	r3,16(r5)
   8a85c:	21800317 	ldw	r6,12(r4)
   8a860:	28800317 	ldw	r2,12(r5)
   8a864:	19ffe836 	bltu	r3,r7,8a808 <__fpcmp_parts_d+0x54>
   8a868:	38c01526 	beq	r7,r3,8a8c0 <__fpcmp_parts_d+0x10c>
   8a86c:	29c00417 	ldw	r7,16(r5)
   8a870:	20c00417 	ldw	r3,16(r4)
   8a874:	29800317 	ldw	r6,12(r5)
   8a878:	20800317 	ldw	r2,12(r4)
   8a87c:	19c00436 	bltu	r3,r7,8a890 <__fpcmp_parts_d+0xdc>
   8a880:	38c00226 	beq	r7,r3,8a88c <__fpcmp_parts_d+0xd8>
   8a884:	0005883a 	mov	r2,zero
   8a888:	f800283a 	ret
   8a88c:	11bffd2e 	bgeu	r2,r6,8a884 <__fpcmp_parts_d+0xd0>
   8a890:	00800044 	movi	r2,1
   8a894:	403fcc1e 	bne	r8,zero,8a7c8 <__fpcmp_parts_d+0x14>
   8a898:	00bfffc4 	movi	r2,-1
   8a89c:	f800283a 	ret
   8a8a0:	28800117 	ldw	r2,4(r5)
   8a8a4:	00c00044 	movi	r3,1
   8a8a8:	103fe41e 	bne	r2,zero,8a83c <__fpcmp_parts_d+0x88>
   8a8ac:	00ffffc4 	movi	r3,-1
   8a8b0:	003fe206 	br	8a83c <__fpcmp_parts_d+0x88>
   8a8b4:	0005883a 	mov	r2,zero
   8a8b8:	30ffcc1e 	bne	r6,r3,8a7ec <__fpcmp_parts_d+0x38>
   8a8bc:	f800283a 	ret
   8a8c0:	11bfea2e 	bgeu	r2,r6,8a86c <__fpcmp_parts_d+0xb8>
   8a8c4:	003fd006 	br	8a808 <__fpcmp_parts_d+0x54>

0008a8c8 <__ashldi3>:
   8a8c8:	00800804 	movi	r2,32
   8a8cc:	119bc83a 	sub	r13,r2,r6
   8a8d0:	2013883a 	mov	r9,r4
   8a8d4:	2005883a 	mov	r2,r4
   8a8d8:	2815883a 	mov	r10,r5
   8a8dc:	30000826 	beq	r6,zero,8a900 <__ashldi3+0x38>
   8a8e0:	0349c83a 	sub	r4,zero,r13
   8a8e4:	2986983a 	sll	r3,r5,r6
   8a8e8:	1344d83a 	srl	r2,r2,r13
   8a8ec:	0340070e 	bge	zero,r13,8a90c <__ashldi3+0x44>
   8a8f0:	4996983a 	sll	r11,r9,r6
   8a8f4:	1898b03a 	or	r12,r3,r2
   8a8f8:	5813883a 	mov	r9,r11
   8a8fc:	6015883a 	mov	r10,r12
   8a900:	5007883a 	mov	r3,r10
   8a904:	4805883a 	mov	r2,r9
   8a908:	f800283a 	ret
   8a90c:	4918983a 	sll	r12,r9,r4
   8a910:	0017883a 	mov	r11,zero
   8a914:	003ff806 	br	8a8f8 <__ashldi3+0x30>

0008a918 <close>:
   8a918:	defff804 	addi	sp,sp,-32
   8a91c:	dfc00715 	stw	ra,28(sp)
   8a920:	df000615 	stw	fp,24(sp)
   8a924:	df000604 	addi	fp,sp,24
   8a928:	e13ffa15 	stw	r4,-24(fp)
   8a92c:	e0bffa17 	ldw	r2,-24(fp)
   8a930:	1004803a 	cmplt	r2,r2,zero
   8a934:	1000091e 	bne	r2,zero,8a95c <close+0x44>
   8a938:	e13ffa17 	ldw	r4,-24(fp)
   8a93c:	01400304 	movi	r5,12
   8a940:	0081aec0 	call	81aec <__mulsi3>
   8a944:	1007883a 	mov	r3,r2
   8a948:	00800274 	movhi	r2,9
   8a94c:	109dff04 	addi	r2,r2,30716
   8a950:	1887883a 	add	r3,r3,r2
   8a954:	e0fffe15 	stw	r3,-8(fp)
   8a958:	00000106 	br	8a960 <close+0x48>
   8a95c:	e03ffe15 	stw	zero,-8(fp)
   8a960:	e0bffe17 	ldw	r2,-8(fp)
   8a964:	e0bffb15 	stw	r2,-20(fp)
   8a968:	e0bffb17 	ldw	r2,-20(fp)
   8a96c:	1005003a 	cmpeq	r2,r2,zero
   8a970:	10001d1e 	bne	r2,zero,8a9e8 <close+0xd0>
   8a974:	e0bffb17 	ldw	r2,-20(fp)
   8a978:	10800017 	ldw	r2,0(r2)
   8a97c:	10800417 	ldw	r2,16(r2)
   8a980:	1005003a 	cmpeq	r2,r2,zero
   8a984:	1000071e 	bne	r2,zero,8a9a4 <close+0x8c>
   8a988:	e0bffb17 	ldw	r2,-20(fp)
   8a98c:	10800017 	ldw	r2,0(r2)
   8a990:	10800417 	ldw	r2,16(r2)
   8a994:	e13ffb17 	ldw	r4,-20(fp)
   8a998:	103ee83a 	callr	r2
   8a99c:	e0bfff15 	stw	r2,-4(fp)
   8a9a0:	00000106 	br	8a9a8 <close+0x90>
   8a9a4:	e03fff15 	stw	zero,-4(fp)
   8a9a8:	e0bfff17 	ldw	r2,-4(fp)
   8a9ac:	e0bffc15 	stw	r2,-16(fp)
   8a9b0:	e13ffa17 	ldw	r4,-24(fp)
   8a9b4:	008b50c0 	call	8b50c <alt_release_fd>
   8a9b8:	e0bffc17 	ldw	r2,-16(fp)
   8a9bc:	1004403a 	cmpge	r2,r2,zero
   8a9c0:	1000071e 	bne	r2,zero,8a9e0 <close+0xc8>
   8a9c4:	008aa140 	call	8aa14 <alt_get_errno>
   8a9c8:	e0fffc17 	ldw	r3,-16(fp)
   8a9cc:	00c7c83a 	sub	r3,zero,r3
   8a9d0:	10c00015 	stw	r3,0(r2)
   8a9d4:	00bfffc4 	movi	r2,-1
   8a9d8:	e0bffd15 	stw	r2,-12(fp)
   8a9dc:	00000806 	br	8aa00 <close+0xe8>
   8a9e0:	e03ffd15 	stw	zero,-12(fp)
   8a9e4:	00000606 	br	8aa00 <close+0xe8>
   8a9e8:	008aa140 	call	8aa14 <alt_get_errno>
   8a9ec:	1007883a 	mov	r3,r2
   8a9f0:	00801444 	movi	r2,81
   8a9f4:	18800015 	stw	r2,0(r3)
   8a9f8:	00bfffc4 	movi	r2,-1
   8a9fc:	e0bffd15 	stw	r2,-12(fp)
   8aa00:	e0bffd17 	ldw	r2,-12(fp)
   8aa04:	dfc00717 	ldw	ra,28(sp)
   8aa08:	df000617 	ldw	fp,24(sp)
   8aa0c:	dec00804 	addi	sp,sp,32
   8aa10:	f800283a 	ret

0008aa14 <alt_get_errno>:
   8aa14:	defffd04 	addi	sp,sp,-12
   8aa18:	dfc00215 	stw	ra,8(sp)
   8aa1c:	df000115 	stw	fp,4(sp)
   8aa20:	df000104 	addi	fp,sp,4
   8aa24:	d0a01117 	ldw	r2,-32700(gp)
   8aa28:	1005003a 	cmpeq	r2,r2,zero
   8aa2c:	1000041e 	bne	r2,zero,8aa40 <alt_get_errno+0x2c>
   8aa30:	d0a01117 	ldw	r2,-32700(gp)
   8aa34:	103ee83a 	callr	r2
   8aa38:	e0bfff15 	stw	r2,-4(fp)
   8aa3c:	00000206 	br	8aa48 <alt_get_errno+0x34>
   8aa40:	d0a6f404 	addi	r2,gp,-25648
   8aa44:	e0bfff15 	stw	r2,-4(fp)
   8aa48:	e0bfff17 	ldw	r2,-4(fp)
   8aa4c:	dfc00217 	ldw	ra,8(sp)
   8aa50:	df000117 	ldw	fp,4(sp)
   8aa54:	dec00304 	addi	sp,sp,12
   8aa58:	f800283a 	ret

0008aa5c <alt_dev_null_write>:
   8aa5c:	defffc04 	addi	sp,sp,-16
   8aa60:	df000315 	stw	fp,12(sp)
   8aa64:	df000304 	addi	fp,sp,12
   8aa68:	e13ffd15 	stw	r4,-12(fp)
   8aa6c:	e17ffe15 	stw	r5,-8(fp)
   8aa70:	e1bfff15 	stw	r6,-4(fp)
   8aa74:	e0bfff17 	ldw	r2,-4(fp)
   8aa78:	df000317 	ldw	fp,12(sp)
   8aa7c:	dec00404 	addi	sp,sp,16
   8aa80:	f800283a 	ret

0008aa84 <fstat>:
   8aa84:	defff904 	addi	sp,sp,-28
   8aa88:	dfc00615 	stw	ra,24(sp)
   8aa8c:	df000515 	stw	fp,20(sp)
   8aa90:	df000504 	addi	fp,sp,20
   8aa94:	e13ffb15 	stw	r4,-20(fp)
   8aa98:	e17ffc15 	stw	r5,-16(fp)
   8aa9c:	e0bffb17 	ldw	r2,-20(fp)
   8aaa0:	1004803a 	cmplt	r2,r2,zero
   8aaa4:	1000091e 	bne	r2,zero,8aacc <fstat+0x48>
   8aaa8:	e13ffb17 	ldw	r4,-20(fp)
   8aaac:	01400304 	movi	r5,12
   8aab0:	0081aec0 	call	81aec <__mulsi3>
   8aab4:	1007883a 	mov	r3,r2
   8aab8:	00800274 	movhi	r2,9
   8aabc:	109dff04 	addi	r2,r2,30716
   8aac0:	1887883a 	add	r3,r3,r2
   8aac4:	e0ffff15 	stw	r3,-4(fp)
   8aac8:	00000106 	br	8aad0 <fstat+0x4c>
   8aacc:	e03fff15 	stw	zero,-4(fp)
   8aad0:	e0bfff17 	ldw	r2,-4(fp)
   8aad4:	e0bffd15 	stw	r2,-12(fp)
   8aad8:	e0bffd17 	ldw	r2,-12(fp)
   8aadc:	1005003a 	cmpeq	r2,r2,zero
   8aae0:	1000121e 	bne	r2,zero,8ab2c <fstat+0xa8>
   8aae4:	e0bffd17 	ldw	r2,-12(fp)
   8aae8:	10800017 	ldw	r2,0(r2)
   8aaec:	10800817 	ldw	r2,32(r2)
   8aaf0:	1005003a 	cmpeq	r2,r2,zero
   8aaf4:	1000081e 	bne	r2,zero,8ab18 <fstat+0x94>
   8aaf8:	e0bffd17 	ldw	r2,-12(fp)
   8aafc:	10800017 	ldw	r2,0(r2)
   8ab00:	10800817 	ldw	r2,32(r2)
   8ab04:	e13ffd17 	ldw	r4,-12(fp)
   8ab08:	e17ffc17 	ldw	r5,-16(fp)
   8ab0c:	103ee83a 	callr	r2
   8ab10:	e0bffe15 	stw	r2,-8(fp)
   8ab14:	00000b06 	br	8ab44 <fstat+0xc0>
   8ab18:	e0fffc17 	ldw	r3,-16(fp)
   8ab1c:	00880004 	movi	r2,8192
   8ab20:	18800115 	stw	r2,4(r3)
   8ab24:	e03ffe15 	stw	zero,-8(fp)
   8ab28:	00000606 	br	8ab44 <fstat+0xc0>
   8ab2c:	008ab580 	call	8ab58 <alt_get_errno>
   8ab30:	1007883a 	mov	r3,r2
   8ab34:	00801444 	movi	r2,81
   8ab38:	18800015 	stw	r2,0(r3)
   8ab3c:	00bfffc4 	movi	r2,-1
   8ab40:	e0bffe15 	stw	r2,-8(fp)
   8ab44:	e0bffe17 	ldw	r2,-8(fp)
   8ab48:	dfc00617 	ldw	ra,24(sp)
   8ab4c:	df000517 	ldw	fp,20(sp)
   8ab50:	dec00704 	addi	sp,sp,28
   8ab54:	f800283a 	ret

0008ab58 <alt_get_errno>:
   8ab58:	defffd04 	addi	sp,sp,-12
   8ab5c:	dfc00215 	stw	ra,8(sp)
   8ab60:	df000115 	stw	fp,4(sp)
   8ab64:	df000104 	addi	fp,sp,4
   8ab68:	d0a01117 	ldw	r2,-32700(gp)
   8ab6c:	1005003a 	cmpeq	r2,r2,zero
   8ab70:	1000041e 	bne	r2,zero,8ab84 <alt_get_errno+0x2c>
   8ab74:	d0a01117 	ldw	r2,-32700(gp)
   8ab78:	103ee83a 	callr	r2
   8ab7c:	e0bfff15 	stw	r2,-4(fp)
   8ab80:	00000206 	br	8ab8c <alt_get_errno+0x34>
   8ab84:	d0a6f404 	addi	r2,gp,-25648
   8ab88:	e0bfff15 	stw	r2,-4(fp)
   8ab8c:	e0bfff17 	ldw	r2,-4(fp)
   8ab90:	dfc00217 	ldw	ra,8(sp)
   8ab94:	df000117 	ldw	fp,4(sp)
   8ab98:	dec00304 	addi	sp,sp,12
   8ab9c:	f800283a 	ret

0008aba0 <alt_irq_register>:
   8aba0:	defff304 	addi	sp,sp,-52
   8aba4:	df000c15 	stw	fp,48(sp)
   8aba8:	df000c04 	addi	fp,sp,48
   8abac:	e13ff415 	stw	r4,-48(fp)
   8abb0:	e17ff515 	stw	r5,-44(fp)
   8abb4:	e1bff615 	stw	r6,-40(fp)
   8abb8:	00bffa84 	movi	r2,-22
   8abbc:	e0bff715 	stw	r2,-36(fp)
   8abc0:	e0bff417 	ldw	r2,-48(fp)
   8abc4:	10800828 	cmpgeui	r2,r2,32
   8abc8:	10005a1e 	bne	r2,zero,8ad34 <alt_irq_register+0x194>
   8abcc:	0005303a 	rdctl	r2,status
   8abd0:	e0bffa15 	stw	r2,-24(fp)
   8abd4:	e0fffa17 	ldw	r3,-24(fp)
   8abd8:	00bfff84 	movi	r2,-2
   8abdc:	1884703a 	and	r2,r3,r2
   8abe0:	1001703a 	wrctl	status,r2
   8abe4:	e0bffa17 	ldw	r2,-24(fp)
   8abe8:	e0bff915 	stw	r2,-28(fp)
   8abec:	e0bff917 	ldw	r2,-28(fp)
   8abf0:	e0bff815 	stw	r2,-32(fp)
   8abf4:	00c002b4 	movhi	r3,10
   8abf8:	18d67004 	addi	r3,r3,22976
   8abfc:	e0bff417 	ldw	r2,-48(fp)
   8ac00:	100490fa 	slli	r2,r2,3
   8ac04:	10c7883a 	add	r3,r2,r3
   8ac08:	e0bff617 	ldw	r2,-40(fp)
   8ac0c:	18800015 	stw	r2,0(r3)
   8ac10:	00c002b4 	movhi	r3,10
   8ac14:	18d67004 	addi	r3,r3,22976
   8ac18:	e0bff417 	ldw	r2,-48(fp)
   8ac1c:	100490fa 	slli	r2,r2,3
   8ac20:	10c5883a 	add	r2,r2,r3
   8ac24:	10c00104 	addi	r3,r2,4
   8ac28:	e0bff517 	ldw	r2,-44(fp)
   8ac2c:	18800015 	stw	r2,0(r3)
   8ac30:	e0bff617 	ldw	r2,-40(fp)
   8ac34:	1005003a 	cmpeq	r2,r2,zero
   8ac38:	10001c1e 	bne	r2,zero,8acac <alt_irq_register+0x10c>
   8ac3c:	e0bff417 	ldw	r2,-48(fp)
   8ac40:	e0bffa15 	stw	r2,-24(fp)
   8ac44:	0005303a 	rdctl	r2,status
   8ac48:	e0bffd15 	stw	r2,-12(fp)
   8ac4c:	e0fffd17 	ldw	r3,-12(fp)
   8ac50:	00bfff84 	movi	r2,-2
   8ac54:	1884703a 	and	r2,r3,r2
   8ac58:	1001703a 	wrctl	status,r2
   8ac5c:	e0bffd17 	ldw	r2,-12(fp)
   8ac60:	e0bffc15 	stw	r2,-16(fp)
   8ac64:	e0bffc17 	ldw	r2,-16(fp)
   8ac68:	e0bffb15 	stw	r2,-20(fp)
   8ac6c:	00c00044 	movi	r3,1
   8ac70:	e0bffa17 	ldw	r2,-24(fp)
   8ac74:	1886983a 	sll	r3,r3,r2
   8ac78:	d0a01217 	ldw	r2,-32696(gp)
   8ac7c:	10c4b03a 	or	r2,r2,r3
   8ac80:	d0a01215 	stw	r2,-32696(gp)
   8ac84:	d0a01217 	ldw	r2,-32696(gp)
   8ac88:	100170fa 	wrctl	ienable,r2
   8ac8c:	e0bffb17 	ldw	r2,-20(fp)
   8ac90:	e0bffd15 	stw	r2,-12(fp)
   8ac94:	e0bffd17 	ldw	r2,-12(fp)
   8ac98:	1001703a 	wrctl	status,r2
   8ac9c:	e03ff915 	stw	zero,-28(fp)
   8aca0:	e0bff917 	ldw	r2,-28(fp)
   8aca4:	e0bfff15 	stw	r2,-4(fp)
   8aca8:	00001c06 	br	8ad1c <alt_irq_register+0x17c>
   8acac:	e0bff417 	ldw	r2,-48(fp)
   8acb0:	e0bffd15 	stw	r2,-12(fp)
   8acb4:	0005303a 	rdctl	r2,status
   8acb8:	e0bffe15 	stw	r2,-8(fp)
   8acbc:	e0fffe17 	ldw	r3,-8(fp)
   8acc0:	00bfff84 	movi	r2,-2
   8acc4:	1884703a 	and	r2,r3,r2
   8acc8:	1001703a 	wrctl	status,r2
   8accc:	e0bffe17 	ldw	r2,-8(fp)
   8acd0:	e0bffa15 	stw	r2,-24(fp)
   8acd4:	e0bffa17 	ldw	r2,-24(fp)
   8acd8:	e0bffb15 	stw	r2,-20(fp)
   8acdc:	00c00044 	movi	r3,1
   8ace0:	e0bffd17 	ldw	r2,-12(fp)
   8ace4:	1884983a 	sll	r2,r3,r2
   8ace8:	0086303a 	nor	r3,zero,r2
   8acec:	d0a01217 	ldw	r2,-32696(gp)
   8acf0:	10c4703a 	and	r2,r2,r3
   8acf4:	d0a01215 	stw	r2,-32696(gp)
   8acf8:	d0a01217 	ldw	r2,-32696(gp)
   8acfc:	100170fa 	wrctl	ienable,r2
   8ad00:	e0bffb17 	ldw	r2,-20(fp)
   8ad04:	e0bffe15 	stw	r2,-8(fp)
   8ad08:	e0bffe17 	ldw	r2,-8(fp)
   8ad0c:	1001703a 	wrctl	status,r2
   8ad10:	e03ffc15 	stw	zero,-16(fp)
   8ad14:	e0bffc17 	ldw	r2,-16(fp)
   8ad18:	e0bfff15 	stw	r2,-4(fp)
   8ad1c:	e0bfff17 	ldw	r2,-4(fp)
   8ad20:	e0bff715 	stw	r2,-36(fp)
   8ad24:	e0bff817 	ldw	r2,-32(fp)
   8ad28:	e0bffe15 	stw	r2,-8(fp)
   8ad2c:	e0bffe17 	ldw	r2,-8(fp)
   8ad30:	1001703a 	wrctl	status,r2
   8ad34:	e0bff717 	ldw	r2,-36(fp)
   8ad38:	df000c17 	ldw	fp,48(sp)
   8ad3c:	dec00d04 	addi	sp,sp,52
   8ad40:	f800283a 	ret

0008ad44 <isatty>:
   8ad44:	deffeb04 	addi	sp,sp,-84
   8ad48:	dfc01415 	stw	ra,80(sp)
   8ad4c:	df001315 	stw	fp,76(sp)
   8ad50:	df001304 	addi	fp,sp,76
   8ad54:	e13fed15 	stw	r4,-76(fp)
   8ad58:	e0bfed17 	ldw	r2,-76(fp)
   8ad5c:	1004803a 	cmplt	r2,r2,zero
   8ad60:	1000091e 	bne	r2,zero,8ad88 <isatty+0x44>
   8ad64:	e13fed17 	ldw	r4,-76(fp)
   8ad68:	01400304 	movi	r5,12
   8ad6c:	0081aec0 	call	81aec <__mulsi3>
   8ad70:	1007883a 	mov	r3,r2
   8ad74:	00800274 	movhi	r2,9
   8ad78:	109dff04 	addi	r2,r2,30716
   8ad7c:	1887883a 	add	r3,r3,r2
   8ad80:	e0ffff15 	stw	r3,-4(fp)
   8ad84:	00000106 	br	8ad8c <isatty+0x48>
   8ad88:	e03fff15 	stw	zero,-4(fp)
   8ad8c:	e0bfff17 	ldw	r2,-4(fp)
   8ad90:	e0bfee15 	stw	r2,-72(fp)
   8ad94:	e0bfee17 	ldw	r2,-72(fp)
   8ad98:	1005003a 	cmpeq	r2,r2,zero
   8ad9c:	10000f1e 	bne	r2,zero,8addc <isatty+0x98>
   8ada0:	e0bfee17 	ldw	r2,-72(fp)
   8ada4:	10800017 	ldw	r2,0(r2)
   8ada8:	10800817 	ldw	r2,32(r2)
   8adac:	1004c03a 	cmpne	r2,r2,zero
   8adb0:	1000031e 	bne	r2,zero,8adc0 <isatty+0x7c>
   8adb4:	00800044 	movi	r2,1
   8adb8:	e0bffe15 	stw	r2,-8(fp)
   8adbc:	00000c06 	br	8adf0 <isatty+0xac>
   8adc0:	e17fef04 	addi	r5,fp,-68
   8adc4:	e13fed17 	ldw	r4,-76(fp)
   8adc8:	008aa840 	call	8aa84 <fstat>
   8adcc:	e0bff017 	ldw	r2,-64(fp)
   8add0:	10880020 	cmpeqi	r2,r2,8192
   8add4:	e0bffe15 	stw	r2,-8(fp)
   8add8:	00000506 	br	8adf0 <isatty+0xac>
   8addc:	008ae040 	call	8ae04 <alt_get_errno>
   8ade0:	1007883a 	mov	r3,r2
   8ade4:	00801444 	movi	r2,81
   8ade8:	18800015 	stw	r2,0(r3)
   8adec:	e03ffe15 	stw	zero,-8(fp)
   8adf0:	e0bffe17 	ldw	r2,-8(fp)
   8adf4:	dfc01417 	ldw	ra,80(sp)
   8adf8:	df001317 	ldw	fp,76(sp)
   8adfc:	dec01504 	addi	sp,sp,84
   8ae00:	f800283a 	ret

0008ae04 <alt_get_errno>:
   8ae04:	defffd04 	addi	sp,sp,-12
   8ae08:	dfc00215 	stw	ra,8(sp)
   8ae0c:	df000115 	stw	fp,4(sp)
   8ae10:	df000104 	addi	fp,sp,4
   8ae14:	d0a01117 	ldw	r2,-32700(gp)
   8ae18:	1005003a 	cmpeq	r2,r2,zero
   8ae1c:	1000041e 	bne	r2,zero,8ae30 <alt_get_errno+0x2c>
   8ae20:	d0a01117 	ldw	r2,-32700(gp)
   8ae24:	103ee83a 	callr	r2
   8ae28:	e0bfff15 	stw	r2,-4(fp)
   8ae2c:	00000206 	br	8ae38 <alt_get_errno+0x34>
   8ae30:	d0a6f404 	addi	r2,gp,-25648
   8ae34:	e0bfff15 	stw	r2,-4(fp)
   8ae38:	e0bfff17 	ldw	r2,-4(fp)
   8ae3c:	dfc00217 	ldw	ra,8(sp)
   8ae40:	df000117 	ldw	fp,4(sp)
   8ae44:	dec00304 	addi	sp,sp,12
   8ae48:	f800283a 	ret

0008ae4c <alt_load>:
   8ae4c:	defffe04 	addi	sp,sp,-8
   8ae50:	dfc00115 	stw	ra,4(sp)
   8ae54:	df000015 	stw	fp,0(sp)
   8ae58:	d839883a 	mov	fp,sp
   8ae5c:	010002b4 	movhi	r4,10
   8ae60:	2122c004 	addi	r4,r4,-29952
   8ae64:	01400274 	movhi	r5,9
   8ae68:	295c0704 	addi	r5,r5,28700
   8ae6c:	018002b4 	movhi	r6,10
   8ae70:	31a2c004 	addi	r6,r6,-29952
   8ae74:	008aec80 	call	8aec8 <alt_load_section>
   8ae78:	01000234 	movhi	r4,8
   8ae7c:	21000804 	addi	r4,r4,32
   8ae80:	01400234 	movhi	r5,8
   8ae84:	29400804 	addi	r5,r5,32
   8ae88:	01800234 	movhi	r6,8
   8ae8c:	31807304 	addi	r6,r6,460
   8ae90:	008aec80 	call	8aec8 <alt_load_section>
   8ae94:	01000274 	movhi	r4,9
   8ae98:	2117e604 	addi	r4,r4,24472
   8ae9c:	01400274 	movhi	r5,9
   8aea0:	2957e604 	addi	r5,r5,24472
   8aea4:	01800274 	movhi	r6,9
   8aea8:	319c0704 	addi	r6,r6,28700
   8aeac:	008aec80 	call	8aec8 <alt_load_section>
   8aeb0:	0094a400 	call	94a40 <alt_dcache_flush_all>
   8aeb4:	0094c900 	call	94c90 <alt_icache_flush_all>
   8aeb8:	dfc00117 	ldw	ra,4(sp)
   8aebc:	df000017 	ldw	fp,0(sp)
   8aec0:	dec00204 	addi	sp,sp,8
   8aec4:	f800283a 	ret

0008aec8 <alt_load_section>:
   8aec8:	defffc04 	addi	sp,sp,-16
   8aecc:	df000315 	stw	fp,12(sp)
   8aed0:	df000304 	addi	fp,sp,12
   8aed4:	e13ffd15 	stw	r4,-12(fp)
   8aed8:	e17ffe15 	stw	r5,-8(fp)
   8aedc:	e1bfff15 	stw	r6,-4(fp)
   8aee0:	e0fffe17 	ldw	r3,-8(fp)
   8aee4:	e0bffd17 	ldw	r2,-12(fp)
   8aee8:	18800e26 	beq	r3,r2,8af24 <alt_load_section+0x5c>
   8aeec:	e0fffe17 	ldw	r3,-8(fp)
   8aef0:	e0bfff17 	ldw	r2,-4(fp)
   8aef4:	18800b26 	beq	r3,r2,8af24 <alt_load_section+0x5c>
   8aef8:	e17ffe04 	addi	r5,fp,-8
   8aefc:	28c00017 	ldw	r3,0(r5)
   8af00:	e0bffd17 	ldw	r2,-12(fp)
   8af04:	11000017 	ldw	r4,0(r2)
   8af08:	10800104 	addi	r2,r2,4
   8af0c:	e0bffd15 	stw	r2,-12(fp)
   8af10:	1805883a 	mov	r2,r3
   8af14:	11000015 	stw	r4,0(r2)
   8af18:	18c00104 	addi	r3,r3,4
   8af1c:	28c00015 	stw	r3,0(r5)
   8af20:	003ff206 	br	8aeec <alt_load_section+0x24>
   8af24:	df000317 	ldw	fp,12(sp)
   8af28:	dec00404 	addi	sp,sp,16
   8af2c:	f800283a 	ret

0008af30 <lseek>:
   8af30:	defff804 	addi	sp,sp,-32
   8af34:	dfc00715 	stw	ra,28(sp)
   8af38:	df000615 	stw	fp,24(sp)
   8af3c:	df000604 	addi	fp,sp,24
   8af40:	e13ffa15 	stw	r4,-24(fp)
   8af44:	e17ffb15 	stw	r5,-20(fp)
   8af48:	e1bffc15 	stw	r6,-16(fp)
   8af4c:	e03ffe15 	stw	zero,-8(fp)
   8af50:	e0bffa17 	ldw	r2,-24(fp)
   8af54:	1004803a 	cmplt	r2,r2,zero
   8af58:	1000091e 	bne	r2,zero,8af80 <lseek+0x50>
   8af5c:	e13ffa17 	ldw	r4,-24(fp)
   8af60:	01400304 	movi	r5,12
   8af64:	0081aec0 	call	81aec <__mulsi3>
   8af68:	1007883a 	mov	r3,r2
   8af6c:	00800274 	movhi	r2,9
   8af70:	109dff04 	addi	r2,r2,30716
   8af74:	1887883a 	add	r3,r3,r2
   8af78:	e0ffff15 	stw	r3,-4(fp)
   8af7c:	00000106 	br	8af84 <lseek+0x54>
   8af80:	e03fff15 	stw	zero,-4(fp)
   8af84:	e0bfff17 	ldw	r2,-4(fp)
   8af88:	e0bffd15 	stw	r2,-12(fp)
   8af8c:	e0bffd17 	ldw	r2,-12(fp)
   8af90:	1005003a 	cmpeq	r2,r2,zero
   8af94:	1000111e 	bne	r2,zero,8afdc <lseek+0xac>
   8af98:	e0bffd17 	ldw	r2,-12(fp)
   8af9c:	10800017 	ldw	r2,0(r2)
   8afa0:	10800717 	ldw	r2,28(r2)
   8afa4:	1005003a 	cmpeq	r2,r2,zero
   8afa8:	1000091e 	bne	r2,zero,8afd0 <lseek+0xa0>
   8afac:	e0bffd17 	ldw	r2,-12(fp)
   8afb0:	10800017 	ldw	r2,0(r2)
   8afb4:	10800717 	ldw	r2,28(r2)
   8afb8:	e13ffd17 	ldw	r4,-12(fp)
   8afbc:	e17ffb17 	ldw	r5,-20(fp)
   8afc0:	e1bffc17 	ldw	r6,-16(fp)
   8afc4:	103ee83a 	callr	r2
   8afc8:	e0bffe15 	stw	r2,-8(fp)
   8afcc:	00000506 	br	8afe4 <lseek+0xb4>
   8afd0:	00bfde84 	movi	r2,-134
   8afd4:	e0bffe15 	stw	r2,-8(fp)
   8afd8:	00000206 	br	8afe4 <lseek+0xb4>
   8afdc:	00bfebc4 	movi	r2,-81
   8afe0:	e0bffe15 	stw	r2,-8(fp)
   8afe4:	e0bffe17 	ldw	r2,-8(fp)
   8afe8:	1004403a 	cmpge	r2,r2,zero
   8afec:	1000071e 	bne	r2,zero,8b00c <lseek+0xdc>
   8aff0:	008b0200 	call	8b020 <alt_get_errno>
   8aff4:	1007883a 	mov	r3,r2
   8aff8:	e0bffe17 	ldw	r2,-8(fp)
   8affc:	0085c83a 	sub	r2,zero,r2
   8b000:	18800015 	stw	r2,0(r3)
   8b004:	00bfffc4 	movi	r2,-1
   8b008:	e0bffe15 	stw	r2,-8(fp)
   8b00c:	e0bffe17 	ldw	r2,-8(fp)
   8b010:	dfc00717 	ldw	ra,28(sp)
   8b014:	df000617 	ldw	fp,24(sp)
   8b018:	dec00804 	addi	sp,sp,32
   8b01c:	f800283a 	ret

0008b020 <alt_get_errno>:
   8b020:	defffd04 	addi	sp,sp,-12
   8b024:	dfc00215 	stw	ra,8(sp)
   8b028:	df000115 	stw	fp,4(sp)
   8b02c:	df000104 	addi	fp,sp,4
   8b030:	d0a01117 	ldw	r2,-32700(gp)
   8b034:	1005003a 	cmpeq	r2,r2,zero
   8b038:	1000041e 	bne	r2,zero,8b04c <alt_get_errno+0x2c>
   8b03c:	d0a01117 	ldw	r2,-32700(gp)
   8b040:	103ee83a 	callr	r2
   8b044:	e0bfff15 	stw	r2,-4(fp)
   8b048:	00000206 	br	8b054 <alt_get_errno+0x34>
   8b04c:	d0a6f404 	addi	r2,gp,-25648
   8b050:	e0bfff15 	stw	r2,-4(fp)
   8b054:	e0bfff17 	ldw	r2,-4(fp)
   8b058:	dfc00217 	ldw	ra,8(sp)
   8b05c:	df000117 	ldw	fp,4(sp)
   8b060:	dec00304 	addi	sp,sp,12
   8b064:	f800283a 	ret

0008b068 <alt_main>:
   8b068:	defff904 	addi	sp,sp,-28
   8b06c:	dfc00615 	stw	ra,24(sp)
   8b070:	df000515 	stw	fp,20(sp)
   8b074:	df000504 	addi	fp,sp,20
   8b078:	0009883a 	mov	r4,zero
   8b07c:	00934900 	call	93490 <alt_irq_init>
   8b080:	008c3900 	call	8c390 <OSInit>
   8b084:	01000044 	movi	r4,1
   8b088:	0090d940 	call	90d94 <OSSemCreate>
   8b08c:	d0a6f615 	stw	r2,-25640(gp)
   8b090:	01000044 	movi	r4,1
   8b094:	0090d940 	call	90d94 <OSSemCreate>
   8b098:	d0a6f815 	stw	r2,-25632(gp)
   8b09c:	d0a6f504 	addi	r2,gp,-25644
   8b0a0:	e0bffc15 	stw	r2,-16(fp)
   8b0a4:	00800044 	movi	r2,1
   8b0a8:	e0bffd0d 	sth	r2,-12(fp)
   8b0ac:	e13ffd0b 	ldhu	r4,-12(fp)
   8b0b0:	0090d940 	call	90d94 <OSSemCreate>
   8b0b4:	1007883a 	mov	r3,r2
   8b0b8:	e0bffc17 	ldw	r2,-16(fp)
   8b0bc:	10c00015 	stw	r3,0(r2)
   8b0c0:	e0bffc17 	ldw	r2,-16(fp)
   8b0c4:	10800017 	ldw	r2,0(r2)
   8b0c8:	1005003a 	cmpeq	r2,r2,zero
   8b0cc:	1000021e 	bne	r2,zero,8b0d8 <alt_main+0x70>
   8b0d0:	e03fff15 	stw	zero,-4(fp)
   8b0d4:	00000206 	br	8b0e0 <alt_main+0x78>
   8b0d8:	00bfffc4 	movi	r2,-1
   8b0dc:	e0bfff15 	stw	r2,-4(fp)
   8b0e0:	e0bfff17 	ldw	r2,-4(fp)
   8b0e4:	e0bffe15 	stw	r2,-8(fp)
   8b0e8:	00934c00 	call	934c0 <alt_sys_init>
   8b0ec:	01000274 	movhi	r4,9
   8b0f0:	211bae04 	addi	r4,r4,28344
   8b0f4:	01400274 	movhi	r5,9
   8b0f8:	295bae04 	addi	r5,r5,28344
   8b0fc:	01800274 	movhi	r6,9
   8b100:	319bae04 	addi	r6,r6,28344
   8b104:	00950200 	call	95020 <alt_io_redirect>
   8b108:	0094b500 	call	94b50 <_do_ctors>
   8b10c:	01000274 	movhi	r4,9
   8b110:	2112ea04 	addi	r4,r4,19368
   8b114:	0095ba40 	call	95ba4 <atexit>
   8b118:	d1201417 	ldw	r4,-32688(gp)
   8b11c:	d1601517 	ldw	r5,-32684(gp)
   8b120:	d1a01617 	ldw	r6,-32680(gp)
   8b124:	00806cc0 	call	806cc <main>
   8b128:	e0bffb15 	stw	r2,-20(fp)
   8b12c:	01000044 	movi	r4,1
   8b130:	008a9180 	call	8a918 <close>
   8b134:	e13ffb17 	ldw	r4,-20(fp)
   8b138:	0095c400 	call	95c40 <exit>

0008b13c <alt_printf>:
   8b13c:	defff404 	addi	sp,sp,-48
   8b140:	dfc00815 	stw	ra,32(sp)
   8b144:	df000715 	stw	fp,28(sp)
   8b148:	df000704 	addi	fp,sp,28
   8b14c:	e1400215 	stw	r5,8(fp)
   8b150:	e1800315 	stw	r6,12(fp)
   8b154:	e1c00415 	stw	r7,16(fp)
   8b158:	e13ff915 	stw	r4,-28(fp)
   8b15c:	e0800204 	addi	r2,fp,8
   8b160:	e0bffa15 	stw	r2,-24(fp)
   8b164:	e0bff917 	ldw	r2,-28(fp)
   8b168:	e0bffb15 	stw	r2,-20(fp)
   8b16c:	e13ffb04 	addi	r4,fp,-20
   8b170:	20800017 	ldw	r2,0(r4)
   8b174:	1007883a 	mov	r3,r2
   8b178:	18c00003 	ldbu	r3,0(r3)
   8b17c:	10800044 	addi	r2,r2,1
   8b180:	20800015 	stw	r2,0(r4)
   8b184:	e0fffc05 	stb	r3,-16(fp)
   8b188:	18803fcc 	andi	r2,r3,255
   8b18c:	1080201c 	xori	r2,r2,128
   8b190:	10bfe004 	addi	r2,r2,-128
   8b194:	1005003a 	cmpeq	r2,r2,zero
   8b198:	1000711e 	bne	r2,zero,8b360 <alt_printf+0x224>
   8b19c:	e0bffc07 	ldb	r2,-16(fp)
   8b1a0:	10800960 	cmpeqi	r2,r2,37
   8b1a4:	1000031e 	bne	r2,zero,8b1b4 <alt_printf+0x78>
   8b1a8:	e13ffc07 	ldb	r4,-16(fp)
   8b1ac:	008b3700 	call	8b370 <alt_putchar>
   8b1b0:	003fee06 	br	8b16c <alt_printf+0x30>
   8b1b4:	e13ffb04 	addi	r4,fp,-20
   8b1b8:	20800017 	ldw	r2,0(r4)
   8b1bc:	1007883a 	mov	r3,r2
   8b1c0:	18c00003 	ldbu	r3,0(r3)
   8b1c4:	10800044 	addi	r2,r2,1
   8b1c8:	20800015 	stw	r2,0(r4)
   8b1cc:	e0fffc05 	stb	r3,-16(fp)
   8b1d0:	18803fcc 	andi	r2,r3,255
   8b1d4:	1080201c 	xori	r2,r2,128
   8b1d8:	10bfe004 	addi	r2,r2,-128
   8b1dc:	1005003a 	cmpeq	r2,r2,zero
   8b1e0:	10005f1e 	bne	r2,zero,8b360 <alt_printf+0x224>
   8b1e4:	e0bffc07 	ldb	r2,-16(fp)
   8b1e8:	10800958 	cmpnei	r2,r2,37
   8b1ec:	1000031e 	bne	r2,zero,8b1fc <alt_printf+0xc0>
   8b1f0:	e13ffc07 	ldb	r4,-16(fp)
   8b1f4:	008b3700 	call	8b370 <alt_putchar>
   8b1f8:	003fdc06 	br	8b16c <alt_printf+0x30>
   8b1fc:	e0bffc07 	ldb	r2,-16(fp)
   8b200:	108018d8 	cmpnei	r2,r2,99
   8b204:	1000091e 	bne	r2,zero,8b22c <alt_printf+0xf0>
   8b208:	e0fffa17 	ldw	r3,-24(fp)
   8b20c:	e0bffa17 	ldw	r2,-24(fp)
   8b210:	10800104 	addi	r2,r2,4
   8b214:	e0bffa15 	stw	r2,-24(fp)
   8b218:	18800017 	ldw	r2,0(r3)
   8b21c:	e0bffd15 	stw	r2,-12(fp)
   8b220:	e13ffd17 	ldw	r4,-12(fp)
   8b224:	008b3700 	call	8b370 <alt_putchar>
   8b228:	003fd006 	br	8b16c <alt_printf+0x30>
   8b22c:	e0bffc07 	ldb	r2,-16(fp)
   8b230:	10801e18 	cmpnei	r2,r2,120
   8b234:	1000341e 	bne	r2,zero,8b308 <alt_printf+0x1cc>
   8b238:	e0fffa17 	ldw	r3,-24(fp)
   8b23c:	e0bffa17 	ldw	r2,-24(fp)
   8b240:	10800104 	addi	r2,r2,4
   8b244:	e0bffa15 	stw	r2,-24(fp)
   8b248:	18800017 	ldw	r2,0(r3)
   8b24c:	e0bffd15 	stw	r2,-12(fp)
   8b250:	e0bffd17 	ldw	r2,-12(fp)
   8b254:	1004c03a 	cmpne	r2,r2,zero
   8b258:	1000031e 	bne	r2,zero,8b268 <alt_printf+0x12c>
   8b25c:	01000c04 	movi	r4,48
   8b260:	008b3700 	call	8b370 <alt_putchar>
   8b264:	003fc106 	br	8b16c <alt_printf+0x30>
   8b268:	00800704 	movi	r2,28
   8b26c:	e0bfff15 	stw	r2,-4(fp)
   8b270:	00c003c4 	movi	r3,15
   8b274:	e0bfff17 	ldw	r2,-4(fp)
   8b278:	1886983a 	sll	r3,r3,r2
   8b27c:	e0bffd17 	ldw	r2,-12(fp)
   8b280:	1884703a 	and	r2,r3,r2
   8b284:	1004c03a 	cmpne	r2,r2,zero
   8b288:	1000041e 	bne	r2,zero,8b29c <alt_printf+0x160>
   8b28c:	e0bfff17 	ldw	r2,-4(fp)
   8b290:	10bfff04 	addi	r2,r2,-4
   8b294:	e0bfff15 	stw	r2,-4(fp)
   8b298:	003ff506 	br	8b270 <alt_printf+0x134>
   8b29c:	e0bfff17 	ldw	r2,-4(fp)
   8b2a0:	1004803a 	cmplt	r2,r2,zero
   8b2a4:	103fb11e 	bne	r2,zero,8b16c <alt_printf+0x30>
   8b2a8:	00c003c4 	movi	r3,15
   8b2ac:	e0bfff17 	ldw	r2,-4(fp)
   8b2b0:	1886983a 	sll	r3,r3,r2
   8b2b4:	e0bffd17 	ldw	r2,-12(fp)
   8b2b8:	1886703a 	and	r3,r3,r2
   8b2bc:	e0bfff17 	ldw	r2,-4(fp)
   8b2c0:	1884d83a 	srl	r2,r3,r2
   8b2c4:	e0bffe15 	stw	r2,-8(fp)
   8b2c8:	e0bffe17 	ldw	r2,-8(fp)
   8b2cc:	108002a8 	cmpgeui	r2,r2,10
   8b2d0:	1000041e 	bne	r2,zero,8b2e4 <alt_printf+0x1a8>
   8b2d4:	e0bffe17 	ldw	r2,-8(fp)
   8b2d8:	10800c04 	addi	r2,r2,48
   8b2dc:	e0bffc05 	stb	r2,-16(fp)
   8b2e0:	00000306 	br	8b2f0 <alt_printf+0x1b4>
   8b2e4:	e0bffe17 	ldw	r2,-8(fp)
   8b2e8:	108015c4 	addi	r2,r2,87
   8b2ec:	e0bffc05 	stb	r2,-16(fp)
   8b2f0:	e13ffc07 	ldb	r4,-16(fp)
   8b2f4:	008b3700 	call	8b370 <alt_putchar>
   8b2f8:	e0bfff17 	ldw	r2,-4(fp)
   8b2fc:	10bfff04 	addi	r2,r2,-4
   8b300:	e0bfff15 	stw	r2,-4(fp)
   8b304:	003fe506 	br	8b29c <alt_printf+0x160>
   8b308:	e0bffc07 	ldb	r2,-16(fp)
   8b30c:	10801cd8 	cmpnei	r2,r2,115
   8b310:	103f961e 	bne	r2,zero,8b16c <alt_printf+0x30>
   8b314:	e0fffa17 	ldw	r3,-24(fp)
   8b318:	e0bffa17 	ldw	r2,-24(fp)
   8b31c:	10800104 	addi	r2,r2,4
   8b320:	e0bffa15 	stw	r2,-24(fp)
   8b324:	18800017 	ldw	r2,0(r3)
   8b328:	e0bfff15 	stw	r2,-4(fp)
   8b32c:	e0bfff17 	ldw	r2,-4(fp)
   8b330:	10800007 	ldb	r2,0(r2)
   8b334:	1005003a 	cmpeq	r2,r2,zero
   8b338:	103f8c1e 	bne	r2,zero,8b16c <alt_printf+0x30>
   8b33c:	e13fff04 	addi	r4,fp,-4
   8b340:	20800017 	ldw	r2,0(r4)
   8b344:	1007883a 	mov	r3,r2
   8b348:	18c00007 	ldb	r3,0(r3)
   8b34c:	10800044 	addi	r2,r2,1
   8b350:	20800015 	stw	r2,0(r4)
   8b354:	1809883a 	mov	r4,r3
   8b358:	008b3700 	call	8b370 <alt_putchar>
   8b35c:	003ff306 	br	8b32c <alt_printf+0x1f0>
   8b360:	dfc00817 	ldw	ra,32(sp)
   8b364:	df000717 	ldw	fp,28(sp)
   8b368:	dec00c04 	addi	sp,sp,48
   8b36c:	f800283a 	ret

0008b370 <alt_putchar>:
   8b370:	defffd04 	addi	sp,sp,-12
   8b374:	dfc00215 	stw	ra,8(sp)
   8b378:	df000115 	stw	fp,4(sp)
   8b37c:	df000104 	addi	fp,sp,4
   8b380:	e13fff15 	stw	r4,-4(fp)
   8b384:	d0a00117 	ldw	r2,-32764(gp)
   8b388:	e13fff17 	ldw	r4,-4(fp)
   8b38c:	11400217 	ldw	r5,8(r2)
   8b390:	0095d940 	call	95d94 <putc>
   8b394:	dfc00217 	ldw	ra,8(sp)
   8b398:	df000117 	ldw	fp,4(sp)
   8b39c:	dec00304 	addi	sp,sp,12
   8b3a0:	f800283a 	ret

0008b3a4 <read>:
   8b3a4:	defff704 	addi	sp,sp,-36
   8b3a8:	dfc00815 	stw	ra,32(sp)
   8b3ac:	df000715 	stw	fp,28(sp)
   8b3b0:	df000704 	addi	fp,sp,28
   8b3b4:	e13ff915 	stw	r4,-28(fp)
   8b3b8:	e17ffa15 	stw	r5,-24(fp)
   8b3bc:	e1bffb15 	stw	r6,-20(fp)
   8b3c0:	e0bff917 	ldw	r2,-28(fp)
   8b3c4:	1004803a 	cmplt	r2,r2,zero
   8b3c8:	1000091e 	bne	r2,zero,8b3f0 <read+0x4c>
   8b3cc:	e13ff917 	ldw	r4,-28(fp)
   8b3d0:	01400304 	movi	r5,12
   8b3d4:	0081aec0 	call	81aec <__mulsi3>
   8b3d8:	1007883a 	mov	r3,r2
   8b3dc:	00800274 	movhi	r2,9
   8b3e0:	109dff04 	addi	r2,r2,30716
   8b3e4:	1887883a 	add	r3,r3,r2
   8b3e8:	e0ffff15 	stw	r3,-4(fp)
   8b3ec:	00000106 	br	8b3f4 <read+0x50>
   8b3f0:	e03fff15 	stw	zero,-4(fp)
   8b3f4:	e0bfff17 	ldw	r2,-4(fp)
   8b3f8:	e0bffc15 	stw	r2,-16(fp)
   8b3fc:	e0bffc17 	ldw	r2,-16(fp)
   8b400:	1005003a 	cmpeq	r2,r2,zero
   8b404:	1000241e 	bne	r2,zero,8b498 <read+0xf4>
   8b408:	e0bffc17 	ldw	r2,-16(fp)
   8b40c:	10800217 	ldw	r2,8(r2)
   8b410:	108000cc 	andi	r2,r2,3
   8b414:	10800060 	cmpeqi	r2,r2,1
   8b418:	10001a1e 	bne	r2,zero,8b484 <read+0xe0>
   8b41c:	e0bffc17 	ldw	r2,-16(fp)
   8b420:	10800017 	ldw	r2,0(r2)
   8b424:	10800517 	ldw	r2,20(r2)
   8b428:	1005003a 	cmpeq	r2,r2,zero
   8b42c:	1000151e 	bne	r2,zero,8b484 <read+0xe0>
   8b430:	e0bffc17 	ldw	r2,-16(fp)
   8b434:	10800017 	ldw	r2,0(r2)
   8b438:	10800517 	ldw	r2,20(r2)
   8b43c:	e13ffc17 	ldw	r4,-16(fp)
   8b440:	e17ffa17 	ldw	r5,-24(fp)
   8b444:	e1bffb17 	ldw	r6,-20(fp)
   8b448:	103ee83a 	callr	r2
   8b44c:	e0bffd15 	stw	r2,-12(fp)
   8b450:	e0bffd17 	ldw	r2,-12(fp)
   8b454:	1004403a 	cmpge	r2,r2,zero
   8b458:	1000071e 	bne	r2,zero,8b478 <read+0xd4>
   8b45c:	008b4c40 	call	8b4c4 <alt_get_errno>
   8b460:	e0fffd17 	ldw	r3,-12(fp)
   8b464:	00c7c83a 	sub	r3,zero,r3
   8b468:	10c00015 	stw	r3,0(r2)
   8b46c:	00bfffc4 	movi	r2,-1
   8b470:	e0bffe15 	stw	r2,-8(fp)
   8b474:	00000e06 	br	8b4b0 <read+0x10c>
   8b478:	e0bffd17 	ldw	r2,-12(fp)
   8b47c:	e0bffe15 	stw	r2,-8(fp)
   8b480:	00000b06 	br	8b4b0 <read+0x10c>
   8b484:	008b4c40 	call	8b4c4 <alt_get_errno>
   8b488:	1007883a 	mov	r3,r2
   8b48c:	00800344 	movi	r2,13
   8b490:	18800015 	stw	r2,0(r3)
   8b494:	00000406 	br	8b4a8 <read+0x104>
   8b498:	008b4c40 	call	8b4c4 <alt_get_errno>
   8b49c:	1007883a 	mov	r3,r2
   8b4a0:	00801444 	movi	r2,81
   8b4a4:	18800015 	stw	r2,0(r3)
   8b4a8:	00bfffc4 	movi	r2,-1
   8b4ac:	e0bffe15 	stw	r2,-8(fp)
   8b4b0:	e0bffe17 	ldw	r2,-8(fp)
   8b4b4:	dfc00817 	ldw	ra,32(sp)
   8b4b8:	df000717 	ldw	fp,28(sp)
   8b4bc:	dec00904 	addi	sp,sp,36
   8b4c0:	f800283a 	ret

0008b4c4 <alt_get_errno>:
   8b4c4:	defffd04 	addi	sp,sp,-12
   8b4c8:	dfc00215 	stw	ra,8(sp)
   8b4cc:	df000115 	stw	fp,4(sp)
   8b4d0:	df000104 	addi	fp,sp,4
   8b4d4:	d0a01117 	ldw	r2,-32700(gp)
   8b4d8:	1005003a 	cmpeq	r2,r2,zero
   8b4dc:	1000041e 	bne	r2,zero,8b4f0 <alt_get_errno+0x2c>
   8b4e0:	d0a01117 	ldw	r2,-32700(gp)
   8b4e4:	103ee83a 	callr	r2
   8b4e8:	e0bfff15 	stw	r2,-4(fp)
   8b4ec:	00000206 	br	8b4f8 <alt_get_errno+0x34>
   8b4f0:	d0a6f404 	addi	r2,gp,-25648
   8b4f4:	e0bfff15 	stw	r2,-4(fp)
   8b4f8:	e0bfff17 	ldw	r2,-4(fp)
   8b4fc:	dfc00217 	ldw	ra,8(sp)
   8b500:	df000117 	ldw	fp,4(sp)
   8b504:	dec00304 	addi	sp,sp,12
   8b508:	f800283a 	ret

0008b50c <alt_release_fd>:
   8b50c:	defffc04 	addi	sp,sp,-16
   8b510:	dfc00315 	stw	ra,12(sp)
   8b514:	df000215 	stw	fp,8(sp)
   8b518:	dc000115 	stw	r16,4(sp)
   8b51c:	df000204 	addi	fp,sp,8
   8b520:	e13ffe15 	stw	r4,-8(fp)
   8b524:	e0bffe17 	ldw	r2,-8(fp)
   8b528:	108000d0 	cmplti	r2,r2,3
   8b52c:	10000f1e 	bne	r2,zero,8b56c <alt_release_fd+0x60>
   8b530:	04000274 	movhi	r16,9
   8b534:	841dff04 	addi	r16,r16,30716
   8b538:	e13ffe17 	ldw	r4,-8(fp)
   8b53c:	01400304 	movi	r5,12
   8b540:	0081aec0 	call	81aec <__mulsi3>
   8b544:	1405883a 	add	r2,r2,r16
   8b548:	10800204 	addi	r2,r2,8
   8b54c:	10000015 	stw	zero,0(r2)
   8b550:	04000274 	movhi	r16,9
   8b554:	841dff04 	addi	r16,r16,30716
   8b558:	e13ffe17 	ldw	r4,-8(fp)
   8b55c:	01400304 	movi	r5,12
   8b560:	0081aec0 	call	81aec <__mulsi3>
   8b564:	1405883a 	add	r2,r2,r16
   8b568:	10000015 	stw	zero,0(r2)
   8b56c:	dfc00317 	ldw	ra,12(sp)
   8b570:	df000217 	ldw	fp,8(sp)
   8b574:	dc000117 	ldw	r16,4(sp)
   8b578:	dec00404 	addi	sp,sp,16
   8b57c:	f800283a 	ret

0008b580 <sbrk>:
   8b580:	defff904 	addi	sp,sp,-28
   8b584:	df000615 	stw	fp,24(sp)
   8b588:	df000604 	addi	fp,sp,24
   8b58c:	e13ffa15 	stw	r4,-24(fp)
   8b590:	0005303a 	rdctl	r2,status
   8b594:	e0bffe15 	stw	r2,-8(fp)
   8b598:	e0fffe17 	ldw	r3,-8(fp)
   8b59c:	00bfff84 	movi	r2,-2
   8b5a0:	1884703a 	and	r2,r3,r2
   8b5a4:	1001703a 	wrctl	status,r2
   8b5a8:	e0bffe17 	ldw	r2,-8(fp)
   8b5ac:	e0bffd15 	stw	r2,-12(fp)
   8b5b0:	e0bffd17 	ldw	r2,-12(fp)
   8b5b4:	e0bffb15 	stw	r2,-20(fp)
   8b5b8:	d0a01717 	ldw	r2,-32676(gp)
   8b5bc:	10c000c4 	addi	r3,r2,3
   8b5c0:	00bfff04 	movi	r2,-4
   8b5c4:	1884703a 	and	r2,r3,r2
   8b5c8:	d0a01715 	stw	r2,-32676(gp)
   8b5cc:	d0e01717 	ldw	r3,-32676(gp)
   8b5d0:	e0bffa17 	ldw	r2,-24(fp)
   8b5d4:	1887883a 	add	r3,r3,r2
   8b5d8:	00800434 	movhi	r2,16
   8b5dc:	10800004 	addi	r2,r2,0
   8b5e0:	10c0072e 	bgeu	r2,r3,8b600 <sbrk+0x80>
   8b5e4:	e0bffb17 	ldw	r2,-20(fp)
   8b5e8:	e0bffe15 	stw	r2,-8(fp)
   8b5ec:	e0bffe17 	ldw	r2,-8(fp)
   8b5f0:	1001703a 	wrctl	status,r2
   8b5f4:	00bfffc4 	movi	r2,-1
   8b5f8:	e0bfff15 	stw	r2,-4(fp)
   8b5fc:	00000c06 	br	8b630 <sbrk+0xb0>
   8b600:	d0a01717 	ldw	r2,-32676(gp)
   8b604:	e0bffc15 	stw	r2,-16(fp)
   8b608:	d0e01717 	ldw	r3,-32676(gp)
   8b60c:	e0bffa17 	ldw	r2,-24(fp)
   8b610:	1885883a 	add	r2,r3,r2
   8b614:	d0a01715 	stw	r2,-32676(gp)
   8b618:	e0bffb17 	ldw	r2,-20(fp)
   8b61c:	e0bffe15 	stw	r2,-8(fp)
   8b620:	e0bffe17 	ldw	r2,-8(fp)
   8b624:	1001703a 	wrctl	status,r2
   8b628:	e0bffc17 	ldw	r2,-16(fp)
   8b62c:	e0bfff15 	stw	r2,-4(fp)
   8b630:	e0bfff17 	ldw	r2,-4(fp)
   8b634:	df000617 	ldw	fp,24(sp)
   8b638:	dec00704 	addi	sp,sp,28
   8b63c:	f800283a 	ret

0008b640 <write>:
   8b640:	defff704 	addi	sp,sp,-36
   8b644:	dfc00815 	stw	ra,32(sp)
   8b648:	df000715 	stw	fp,28(sp)
   8b64c:	df000704 	addi	fp,sp,28
   8b650:	e13ff915 	stw	r4,-28(fp)
   8b654:	e17ffa15 	stw	r5,-24(fp)
   8b658:	e1bffb15 	stw	r6,-20(fp)
   8b65c:	e0bff917 	ldw	r2,-28(fp)
   8b660:	1004803a 	cmplt	r2,r2,zero
   8b664:	1000091e 	bne	r2,zero,8b68c <write+0x4c>
   8b668:	e13ff917 	ldw	r4,-28(fp)
   8b66c:	01400304 	movi	r5,12
   8b670:	0081aec0 	call	81aec <__mulsi3>
   8b674:	1007883a 	mov	r3,r2
   8b678:	00800274 	movhi	r2,9
   8b67c:	109dff04 	addi	r2,r2,30716
   8b680:	1887883a 	add	r3,r3,r2
   8b684:	e0ffff15 	stw	r3,-4(fp)
   8b688:	00000106 	br	8b690 <write+0x50>
   8b68c:	e03fff15 	stw	zero,-4(fp)
   8b690:	e0bfff17 	ldw	r2,-4(fp)
   8b694:	e0bffc15 	stw	r2,-16(fp)
   8b698:	e0bffc17 	ldw	r2,-16(fp)
   8b69c:	1005003a 	cmpeq	r2,r2,zero
   8b6a0:	1000241e 	bne	r2,zero,8b734 <write+0xf4>
   8b6a4:	e0bffc17 	ldw	r2,-16(fp)
   8b6a8:	10800217 	ldw	r2,8(r2)
   8b6ac:	108000cc 	andi	r2,r2,3
   8b6b0:	1005003a 	cmpeq	r2,r2,zero
   8b6b4:	10001a1e 	bne	r2,zero,8b720 <write+0xe0>
   8b6b8:	e0bffc17 	ldw	r2,-16(fp)
   8b6bc:	10800017 	ldw	r2,0(r2)
   8b6c0:	10800617 	ldw	r2,24(r2)
   8b6c4:	1005003a 	cmpeq	r2,r2,zero
   8b6c8:	1000151e 	bne	r2,zero,8b720 <write+0xe0>
   8b6cc:	e0bffc17 	ldw	r2,-16(fp)
   8b6d0:	10800017 	ldw	r2,0(r2)
   8b6d4:	10800617 	ldw	r2,24(r2)
   8b6d8:	e13ffc17 	ldw	r4,-16(fp)
   8b6dc:	e17ffa17 	ldw	r5,-24(fp)
   8b6e0:	e1bffb17 	ldw	r6,-20(fp)
   8b6e4:	103ee83a 	callr	r2
   8b6e8:	e0bffd15 	stw	r2,-12(fp)
   8b6ec:	e0bffd17 	ldw	r2,-12(fp)
   8b6f0:	1004403a 	cmpge	r2,r2,zero
   8b6f4:	1000071e 	bne	r2,zero,8b714 <write+0xd4>
   8b6f8:	008b7600 	call	8b760 <alt_get_errno>
   8b6fc:	e0fffd17 	ldw	r3,-12(fp)
   8b700:	00c7c83a 	sub	r3,zero,r3
   8b704:	10c00015 	stw	r3,0(r2)
   8b708:	00bfffc4 	movi	r2,-1
   8b70c:	e0bffe15 	stw	r2,-8(fp)
   8b710:	00000e06 	br	8b74c <write+0x10c>
   8b714:	e0bffd17 	ldw	r2,-12(fp)
   8b718:	e0bffe15 	stw	r2,-8(fp)
   8b71c:	00000b06 	br	8b74c <write+0x10c>
   8b720:	008b7600 	call	8b760 <alt_get_errno>
   8b724:	1007883a 	mov	r3,r2
   8b728:	00800344 	movi	r2,13
   8b72c:	18800015 	stw	r2,0(r3)
   8b730:	00000406 	br	8b744 <write+0x104>
   8b734:	008b7600 	call	8b760 <alt_get_errno>
   8b738:	1007883a 	mov	r3,r2
   8b73c:	00801444 	movi	r2,81
   8b740:	18800015 	stw	r2,0(r3)
   8b744:	00bfffc4 	movi	r2,-1
   8b748:	e0bffe15 	stw	r2,-8(fp)
   8b74c:	e0bffe17 	ldw	r2,-8(fp)
   8b750:	dfc00817 	ldw	ra,32(sp)
   8b754:	df000717 	ldw	fp,28(sp)
   8b758:	dec00904 	addi	sp,sp,36
   8b75c:	f800283a 	ret

0008b760 <alt_get_errno>:
   8b760:	defffd04 	addi	sp,sp,-12
   8b764:	dfc00215 	stw	ra,8(sp)
   8b768:	df000115 	stw	fp,4(sp)
   8b76c:	df000104 	addi	fp,sp,4
   8b770:	d0a01117 	ldw	r2,-32700(gp)
   8b774:	1005003a 	cmpeq	r2,r2,zero
   8b778:	1000041e 	bne	r2,zero,8b78c <alt_get_errno+0x2c>
   8b77c:	d0a01117 	ldw	r2,-32700(gp)
   8b780:	103ee83a 	callr	r2
   8b784:	e0bfff15 	stw	r2,-4(fp)
   8b788:	00000206 	br	8b794 <alt_get_errno+0x34>
   8b78c:	d0a6f404 	addi	r2,gp,-25648
   8b790:	e0bfff15 	stw	r2,-4(fp)
   8b794:	e0bfff17 	ldw	r2,-4(fp)
   8b798:	dfc00217 	ldw	ra,8(sp)
   8b79c:	df000117 	ldw	fp,4(sp)
   8b7a0:	dec00304 	addi	sp,sp,12
   8b7a4:	f800283a 	ret

0008b7a8 <__env_lock>:
   8b7a8:	deffde04 	addi	sp,sp,-136
   8b7ac:	dfc02115 	stw	ra,132(sp)
   8b7b0:	df002015 	stw	fp,128(sp)
   8b7b4:	df002004 	addi	fp,sp,128
   8b7b8:	e13fe015 	stw	r4,-128(fp)
   8b7bc:	e17fe104 	addi	r5,fp,-124
   8b7c0:	01003fc4 	movi	r4,255
   8b7c4:	0092dd00 	call	92dd0 <OSTaskQuery>
   8b7c8:	e0bffe05 	stb	r2,-8(fp)
   8b7cc:	e0bffe03 	ldbu	r2,-8(fp)
   8b7d0:	1005003a 	cmpeq	r2,r2,zero
   8b7d4:	1000011e 	bne	r2,zero,8b7dc <__env_lock+0x34>
   8b7d8:	00001706 	br	8b838 <__env_lock+0x90>
   8b7dc:	e0bfed83 	ldbu	r2,-74(fp)
   8b7e0:	e0bfff15 	stw	r2,-4(fp)
   8b7e4:	e17ffc04 	addi	r5,fp,-16
   8b7e8:	d126f617 	ldw	r4,-25640(gp)
   8b7ec:	00915900 	call	91590 <OSSemQuery>
   8b7f0:	e0bffd43 	ldbu	r2,-11(fp)
   8b7f4:	1005003a 	cmpeq	r2,r2,zero
   8b7f8:	1000071e 	bne	r2,zero,8b818 <__env_lock+0x70>
   8b7fc:	e0ffff17 	ldw	r3,-4(fp)
   8b800:	d0a01817 	ldw	r2,-32672(gp)
   8b804:	1880041e 	bne	r3,r2,8b818 <__env_lock+0x70>
   8b808:	d0a6f717 	ldw	r2,-25636(gp)
   8b80c:	10800044 	addi	r2,r2,1
   8b810:	d0a6f715 	stw	r2,-25636(gp)
   8b814:	00000806 	br	8b838 <__env_lock+0x90>
   8b818:	e1bffe04 	addi	r6,fp,-8
   8b81c:	d126f617 	ldw	r4,-25640(gp)
   8b820:	000b883a 	mov	r5,zero
   8b824:	00910ec0 	call	910ec <OSSemPend>
   8b828:	00800044 	movi	r2,1
   8b82c:	d0a6f715 	stw	r2,-25636(gp)
   8b830:	e0bfff17 	ldw	r2,-4(fp)
   8b834:	d0a01815 	stw	r2,-32672(gp)
   8b838:	dfc02117 	ldw	ra,132(sp)
   8b83c:	df002017 	ldw	fp,128(sp)
   8b840:	dec02204 	addi	sp,sp,136
   8b844:	f800283a 	ret

0008b848 <__env_unlock>:
   8b848:	defffd04 	addi	sp,sp,-12
   8b84c:	dfc00215 	stw	ra,8(sp)
   8b850:	df000115 	stw	fp,4(sp)
   8b854:	df000104 	addi	fp,sp,4
   8b858:	e13fff15 	stw	r4,-4(fp)
   8b85c:	d0a6f717 	ldw	r2,-25636(gp)
   8b860:	1004c03a 	cmpne	r2,r2,zero
   8b864:	1000011e 	bne	r2,zero,8b86c <__env_unlock+0x24>
   8b868:	00000906 	br	8b890 <__env_unlock+0x48>
   8b86c:	d0a6f717 	ldw	r2,-25636(gp)
   8b870:	10bfffc4 	addi	r2,r2,-1
   8b874:	d0a6f715 	stw	r2,-25636(gp)
   8b878:	1004c03a 	cmpne	r2,r2,zero
   8b87c:	1000041e 	bne	r2,zero,8b890 <__env_unlock+0x48>
   8b880:	00bfffc4 	movi	r2,-1
   8b884:	d0a01815 	stw	r2,-32672(gp)
   8b888:	d126f617 	ldw	r4,-25640(gp)
   8b88c:	00914740 	call	91474 <OSSemPost>
   8b890:	dfc00217 	ldw	ra,8(sp)
   8b894:	df000117 	ldw	fp,4(sp)
   8b898:	dec00304 	addi	sp,sp,12
   8b89c:	f800283a 	ret

0008b8a0 <__malloc_lock>:
   8b8a0:	deffdb04 	addi	sp,sp,-148
   8b8a4:	dfc02415 	stw	ra,144(sp)
   8b8a8:	df002315 	stw	fp,140(sp)
   8b8ac:	df002304 	addi	fp,sp,140
   8b8b0:	e13fdd15 	stw	r4,-140(fp)
   8b8b4:	e03ffd15 	stw	zero,-12(fp)
   8b8b8:	d0a70243 	ldbu	r2,-25591(gp)
   8b8bc:	10800060 	cmpeqi	r2,r2,1
   8b8c0:	1000011e 	bne	r2,zero,8b8c8 <__malloc_lock+0x28>
   8b8c4:	00003106 	br	8b98c <__malloc_lock+0xec>
   8b8c8:	e17fde04 	addi	r5,fp,-136
   8b8cc:	01003fc4 	movi	r4,255
   8b8d0:	0092dd00 	call	92dd0 <OSTaskQuery>
   8b8d4:	e0bffb05 	stb	r2,-20(fp)
   8b8d8:	e0bffb03 	ldbu	r2,-20(fp)
   8b8dc:	1005003a 	cmpeq	r2,r2,zero
   8b8e0:	1000011e 	bne	r2,zero,8b8e8 <__malloc_lock+0x48>
   8b8e4:	00002906 	br	8b98c <__malloc_lock+0xec>
   8b8e8:	e0bfea83 	ldbu	r2,-86(fp)
   8b8ec:	e0bffc15 	stw	r2,-16(fp)
   8b8f0:	e17ff904 	addi	r5,fp,-28
   8b8f4:	d126f817 	ldw	r4,-25632(gp)
   8b8f8:	00915900 	call	91590 <OSSemQuery>
   8b8fc:	0005303a 	rdctl	r2,status
   8b900:	e0bfff15 	stw	r2,-4(fp)
   8b904:	e0ffff17 	ldw	r3,-4(fp)
   8b908:	00bfff84 	movi	r2,-2
   8b90c:	1884703a 	and	r2,r3,r2
   8b910:	1001703a 	wrctl	status,r2
   8b914:	e0bfff17 	ldw	r2,-4(fp)
   8b918:	e0bffe15 	stw	r2,-8(fp)
   8b91c:	e0bffe17 	ldw	r2,-8(fp)
   8b920:	e0bffd15 	stw	r2,-12(fp)
   8b924:	e0bff90b 	ldhu	r2,-28(fp)
   8b928:	1004c03a 	cmpne	r2,r2,zero
   8b92c:	10000b1e 	bne	r2,zero,8b95c <__malloc_lock+0xbc>
   8b930:	e0fffc17 	ldw	r3,-16(fp)
   8b934:	d0a01917 	ldw	r2,-32668(gp)
   8b938:	1880081e 	bne	r3,r2,8b95c <__malloc_lock+0xbc>
   8b93c:	d0a6f917 	ldw	r2,-25628(gp)
   8b940:	10800044 	addi	r2,r2,1
   8b944:	d0a6f915 	stw	r2,-25628(gp)
   8b948:	e0bffd17 	ldw	r2,-12(fp)
   8b94c:	e0bfff15 	stw	r2,-4(fp)
   8b950:	e0bfff17 	ldw	r2,-4(fp)
   8b954:	1001703a 	wrctl	status,r2
   8b958:	00000c06 	br	8b98c <__malloc_lock+0xec>
   8b95c:	e0bffd17 	ldw	r2,-12(fp)
   8b960:	e0bfff15 	stw	r2,-4(fp)
   8b964:	e0bfff17 	ldw	r2,-4(fp)
   8b968:	1001703a 	wrctl	status,r2
   8b96c:	e1bffb04 	addi	r6,fp,-20
   8b970:	d126f817 	ldw	r4,-25632(gp)
   8b974:	000b883a 	mov	r5,zero
   8b978:	00910ec0 	call	910ec <OSSemPend>
   8b97c:	00800044 	movi	r2,1
   8b980:	d0a6f915 	stw	r2,-25628(gp)
   8b984:	e0bffc17 	ldw	r2,-16(fp)
   8b988:	d0a01915 	stw	r2,-32668(gp)
   8b98c:	dfc02417 	ldw	ra,144(sp)
   8b990:	df002317 	ldw	fp,140(sp)
   8b994:	dec02504 	addi	sp,sp,148
   8b998:	f800283a 	ret

0008b99c <__malloc_unlock>:
   8b99c:	defffa04 	addi	sp,sp,-24
   8b9a0:	dfc00515 	stw	ra,20(sp)
   8b9a4:	df000415 	stw	fp,16(sp)
   8b9a8:	df000404 	addi	fp,sp,16
   8b9ac:	e13ffc15 	stw	r4,-16(fp)
   8b9b0:	e03ffd15 	stw	zero,-12(fp)
   8b9b4:	d0a70243 	ldbu	r2,-25591(gp)
   8b9b8:	10800060 	cmpeqi	r2,r2,1
   8b9bc:	1000011e 	bne	r2,zero,8b9c4 <__malloc_unlock+0x28>
   8b9c0:	00002406 	br	8ba54 <__malloc_unlock+0xb8>
   8b9c4:	0005303a 	rdctl	r2,status
   8b9c8:	e0bfff15 	stw	r2,-4(fp)
   8b9cc:	e0ffff17 	ldw	r3,-4(fp)
   8b9d0:	00bfff84 	movi	r2,-2
   8b9d4:	1884703a 	and	r2,r3,r2
   8b9d8:	1001703a 	wrctl	status,r2
   8b9dc:	e0bfff17 	ldw	r2,-4(fp)
   8b9e0:	e0bffe15 	stw	r2,-8(fp)
   8b9e4:	e0bffe17 	ldw	r2,-8(fp)
   8b9e8:	e0bffd15 	stw	r2,-12(fp)
   8b9ec:	d0a6f917 	ldw	r2,-25628(gp)
   8b9f0:	1004c03a 	cmpne	r2,r2,zero
   8b9f4:	1000051e 	bne	r2,zero,8ba0c <__malloc_unlock+0x70>
   8b9f8:	e0bffd17 	ldw	r2,-12(fp)
   8b9fc:	e0bfff15 	stw	r2,-4(fp)
   8ba00:	e0bfff17 	ldw	r2,-4(fp)
   8ba04:	1001703a 	wrctl	status,r2
   8ba08:	00001206 	br	8ba54 <__malloc_unlock+0xb8>
   8ba0c:	d0a6f917 	ldw	r2,-25628(gp)
   8ba10:	10bfffc4 	addi	r2,r2,-1
   8ba14:	d0a6f915 	stw	r2,-25628(gp)
   8ba18:	1004c03a 	cmpne	r2,r2,zero
   8ba1c:	1000091e 	bne	r2,zero,8ba44 <__malloc_unlock+0xa8>
   8ba20:	00bfffc4 	movi	r2,-1
   8ba24:	d0a01915 	stw	r2,-32668(gp)
   8ba28:	e0bffd17 	ldw	r2,-12(fp)
   8ba2c:	e0bfff15 	stw	r2,-4(fp)
   8ba30:	e0bfff17 	ldw	r2,-4(fp)
   8ba34:	1001703a 	wrctl	status,r2
   8ba38:	d126f817 	ldw	r4,-25632(gp)
   8ba3c:	00914740 	call	91474 <OSSemPost>
   8ba40:	00000406 	br	8ba54 <__malloc_unlock+0xb8>
   8ba44:	e0bffd17 	ldw	r2,-12(fp)
   8ba48:	e0bfff15 	stw	r2,-4(fp)
   8ba4c:	e0bfff17 	ldw	r2,-4(fp)
   8ba50:	1001703a 	wrctl	status,r2
   8ba54:	dfc00517 	ldw	ra,20(sp)
   8ba58:	df000417 	ldw	fp,16(sp)
   8ba5c:	dec00604 	addi	sp,sp,24
   8ba60:	f800283a 	ret

0008ba64 <OSEventNameGet>:
   8ba64:	defff604 	addi	sp,sp,-40
   8ba68:	dfc00915 	stw	ra,36(sp)
   8ba6c:	df000815 	stw	fp,32(sp)
   8ba70:	df000804 	addi	fp,sp,32
   8ba74:	e13ff815 	stw	r4,-32(fp)
   8ba78:	e17ff915 	stw	r5,-28(fp)
   8ba7c:	e1bffa15 	stw	r6,-24(fp)
   8ba80:	e03ffc15 	stw	zero,-16(fp)
   8ba84:	e0bffa17 	ldw	r2,-24(fp)
   8ba88:	1004c03a 	cmpne	r2,r2,zero
   8ba8c:	1000021e 	bne	r2,zero,8ba98 <OSEventNameGet+0x34>
   8ba90:	e03fff15 	stw	zero,-4(fp)
   8ba94:	00003a06 	br	8bb80 <OSEventNameGet+0x11c>
   8ba98:	e0bff817 	ldw	r2,-32(fp)
   8ba9c:	1004c03a 	cmpne	r2,r2,zero
   8baa0:	1000051e 	bne	r2,zero,8bab8 <OSEventNameGet+0x54>
   8baa4:	e0fffa17 	ldw	r3,-24(fp)
   8baa8:	00800104 	movi	r2,4
   8baac:	18800005 	stb	r2,0(r3)
   8bab0:	e03fff15 	stw	zero,-4(fp)
   8bab4:	00003206 	br	8bb80 <OSEventNameGet+0x11c>
   8bab8:	e0bff917 	ldw	r2,-28(fp)
   8babc:	1004c03a 	cmpne	r2,r2,zero
   8bac0:	1000051e 	bne	r2,zero,8bad8 <OSEventNameGet+0x74>
   8bac4:	e0fffa17 	ldw	r3,-24(fp)
   8bac8:	00800304 	movi	r2,12
   8bacc:	18800005 	stb	r2,0(r3)
   8bad0:	e03fff15 	stw	zero,-4(fp)
   8bad4:	00002a06 	br	8bb80 <OSEventNameGet+0x11c>
   8bad8:	d0a70043 	ldbu	r2,-25599(gp)
   8badc:	1005003a 	cmpeq	r2,r2,zero
   8bae0:	1000051e 	bne	r2,zero,8baf8 <OSEventNameGet+0x94>
   8bae4:	e0fffa17 	ldw	r3,-24(fp)
   8bae8:	00800444 	movi	r2,17
   8baec:	18800005 	stb	r2,0(r3)
   8baf0:	e03fff15 	stw	zero,-4(fp)
   8baf4:	00002206 	br	8bb80 <OSEventNameGet+0x11c>
   8baf8:	e0bff817 	ldw	r2,-32(fp)
   8bafc:	10800003 	ldbu	r2,0(r2)
   8bb00:	10bfffc4 	addi	r2,r2,-1
   8bb04:	10800128 	cmpgeui	r2,r2,4
   8bb08:	1000011e 	bne	r2,zero,8bb10 <OSEventNameGet+0xac>
   8bb0c:	00000506 	br	8bb24 <OSEventNameGet+0xc0>
   8bb10:	e0fffa17 	ldw	r3,-24(fp)
   8bb14:	00800044 	movi	r2,1
   8bb18:	18800005 	stb	r2,0(r3)
   8bb1c:	e03fff15 	stw	zero,-4(fp)
   8bb20:	00001706 	br	8bb80 <OSEventNameGet+0x11c>
   8bb24:	0005303a 	rdctl	r2,status
   8bb28:	e0bffe15 	stw	r2,-8(fp)
   8bb2c:	e0fffe17 	ldw	r3,-8(fp)
   8bb30:	00bfff84 	movi	r2,-2
   8bb34:	1884703a 	and	r2,r3,r2
   8bb38:	1001703a 	wrctl	status,r2
   8bb3c:	e0bffe17 	ldw	r2,-8(fp)
   8bb40:	e0bffd15 	stw	r2,-12(fp)
   8bb44:	e0bffd17 	ldw	r2,-12(fp)
   8bb48:	e0bffc15 	stw	r2,-16(fp)
   8bb4c:	e0bff817 	ldw	r2,-32(fp)
   8bb50:	11400384 	addi	r5,r2,14
   8bb54:	e13ff917 	ldw	r4,-28(fp)
   8bb58:	008d4c80 	call	8d4c8 <OS_StrCopy>
   8bb5c:	e0bffb05 	stb	r2,-20(fp)
   8bb60:	e0bffc17 	ldw	r2,-16(fp)
   8bb64:	e0bffe15 	stw	r2,-8(fp)
   8bb68:	e0bffe17 	ldw	r2,-8(fp)
   8bb6c:	1001703a 	wrctl	status,r2
   8bb70:	e0bffa17 	ldw	r2,-24(fp)
   8bb74:	10000005 	stb	zero,0(r2)
   8bb78:	e0bffb03 	ldbu	r2,-20(fp)
   8bb7c:	e0bfff15 	stw	r2,-4(fp)
   8bb80:	e0bfff17 	ldw	r2,-4(fp)
   8bb84:	dfc00917 	ldw	ra,36(sp)
   8bb88:	df000817 	ldw	fp,32(sp)
   8bb8c:	dec00a04 	addi	sp,sp,40
   8bb90:	f800283a 	ret

0008bb94 <OSEventNameSet>:
   8bb94:	defff704 	addi	sp,sp,-36
   8bb98:	dfc00815 	stw	ra,32(sp)
   8bb9c:	df000715 	stw	fp,28(sp)
   8bba0:	df000704 	addi	fp,sp,28
   8bba4:	e13ff915 	stw	r4,-28(fp)
   8bba8:	e17ffa15 	stw	r5,-24(fp)
   8bbac:	e1bffb15 	stw	r6,-20(fp)
   8bbb0:	e03ffd15 	stw	zero,-12(fp)
   8bbb4:	e0bffb17 	ldw	r2,-20(fp)
   8bbb8:	1004c03a 	cmpne	r2,r2,zero
   8bbbc:	1000011e 	bne	r2,zero,8bbc4 <OSEventNameSet+0x30>
   8bbc0:	00004106 	br	8bcc8 <OSEventNameSet+0x134>
   8bbc4:	e0bff917 	ldw	r2,-28(fp)
   8bbc8:	1004c03a 	cmpne	r2,r2,zero
   8bbcc:	1000041e 	bne	r2,zero,8bbe0 <OSEventNameSet+0x4c>
   8bbd0:	e0fffb17 	ldw	r3,-20(fp)
   8bbd4:	00800104 	movi	r2,4
   8bbd8:	18800005 	stb	r2,0(r3)
   8bbdc:	00003a06 	br	8bcc8 <OSEventNameSet+0x134>
   8bbe0:	e0bffa17 	ldw	r2,-24(fp)
   8bbe4:	1004c03a 	cmpne	r2,r2,zero
   8bbe8:	1000041e 	bne	r2,zero,8bbfc <OSEventNameSet+0x68>
   8bbec:	e0fffb17 	ldw	r3,-20(fp)
   8bbf0:	00800304 	movi	r2,12
   8bbf4:	18800005 	stb	r2,0(r3)
   8bbf8:	00003306 	br	8bcc8 <OSEventNameSet+0x134>
   8bbfc:	d0a70043 	ldbu	r2,-25599(gp)
   8bc00:	1005003a 	cmpeq	r2,r2,zero
   8bc04:	1000041e 	bne	r2,zero,8bc18 <OSEventNameSet+0x84>
   8bc08:	e0fffb17 	ldw	r3,-20(fp)
   8bc0c:	00800484 	movi	r2,18
   8bc10:	18800005 	stb	r2,0(r3)
   8bc14:	00002c06 	br	8bcc8 <OSEventNameSet+0x134>
   8bc18:	e0bff917 	ldw	r2,-28(fp)
   8bc1c:	10800003 	ldbu	r2,0(r2)
   8bc20:	10bfffc4 	addi	r2,r2,-1
   8bc24:	10800128 	cmpgeui	r2,r2,4
   8bc28:	1000011e 	bne	r2,zero,8bc30 <OSEventNameSet+0x9c>
   8bc2c:	00000406 	br	8bc40 <OSEventNameSet+0xac>
   8bc30:	e0fffb17 	ldw	r3,-20(fp)
   8bc34:	00800044 	movi	r2,1
   8bc38:	18800005 	stb	r2,0(r3)
   8bc3c:	00002206 	br	8bcc8 <OSEventNameSet+0x134>
   8bc40:	0005303a 	rdctl	r2,status
   8bc44:	e0bfff15 	stw	r2,-4(fp)
   8bc48:	e0ffff17 	ldw	r3,-4(fp)
   8bc4c:	00bfff84 	movi	r2,-2
   8bc50:	1884703a 	and	r2,r3,r2
   8bc54:	1001703a 	wrctl	status,r2
   8bc58:	e0bfff17 	ldw	r2,-4(fp)
   8bc5c:	e0bffe15 	stw	r2,-8(fp)
   8bc60:	e0bffe17 	ldw	r2,-8(fp)
   8bc64:	e0bffd15 	stw	r2,-12(fp)
   8bc68:	e13ffa17 	ldw	r4,-24(fp)
   8bc6c:	008d5400 	call	8d540 <OS_StrLen>
   8bc70:	e0bffc05 	stb	r2,-16(fp)
   8bc74:	e0bffc03 	ldbu	r2,-16(fp)
   8bc78:	10800830 	cmpltui	r2,r2,32
   8bc7c:	1000081e 	bne	r2,zero,8bca0 <OSEventNameSet+0x10c>
   8bc80:	e0bffd17 	ldw	r2,-12(fp)
   8bc84:	e0bfff15 	stw	r2,-4(fp)
   8bc88:	e0bfff17 	ldw	r2,-4(fp)
   8bc8c:	1001703a 	wrctl	status,r2
   8bc90:	e0fffb17 	ldw	r3,-20(fp)
   8bc94:	008002c4 	movi	r2,11
   8bc98:	18800005 	stb	r2,0(r3)
   8bc9c:	00000a06 	br	8bcc8 <OSEventNameSet+0x134>
   8bca0:	e0bff917 	ldw	r2,-28(fp)
   8bca4:	11000384 	addi	r4,r2,14
   8bca8:	e17ffa17 	ldw	r5,-24(fp)
   8bcac:	008d4c80 	call	8d4c8 <OS_StrCopy>
   8bcb0:	e0bffd17 	ldw	r2,-12(fp)
   8bcb4:	e0bfff15 	stw	r2,-4(fp)
   8bcb8:	e0bfff17 	ldw	r2,-4(fp)
   8bcbc:	1001703a 	wrctl	status,r2
   8bcc0:	e0bffb17 	ldw	r2,-20(fp)
   8bcc4:	10000005 	stb	zero,0(r2)
   8bcc8:	dfc00817 	ldw	ra,32(sp)
   8bccc:	df000717 	ldw	fp,28(sp)
   8bcd0:	dec00904 	addi	sp,sp,36
   8bcd4:	f800283a 	ret

0008bcd8 <OSEventPendMulti>:
   8bcd8:	deffed04 	addi	sp,sp,-76
   8bcdc:	dfc01215 	stw	ra,72(sp)
   8bce0:	df001115 	stw	fp,68(sp)
   8bce4:	df001104 	addi	fp,sp,68
   8bce8:	e13fef15 	stw	r4,-68(fp)
   8bcec:	e17ff015 	stw	r5,-64(fp)
   8bcf0:	e1bff115 	stw	r6,-60(fp)
   8bcf4:	e1fff20d 	sth	r7,-56(fp)
   8bcf8:	e03ff815 	stw	zero,-32(fp)
   8bcfc:	e0800217 	ldw	r2,8(fp)
   8bd00:	1004c03a 	cmpne	r2,r2,zero
   8bd04:	1000021e 	bne	r2,zero,8bd10 <OSEventPendMulti+0x38>
   8bd08:	e03ffb15 	stw	zero,-20(fp)
   8bd0c:	00019b06 	br	8c37c <OSEventPendMulti+0x6a4>
   8bd10:	e0bfef17 	ldw	r2,-68(fp)
   8bd14:	1004c03a 	cmpne	r2,r2,zero
   8bd18:	1000051e 	bne	r2,zero,8bd30 <OSEventPendMulti+0x58>
   8bd1c:	e0c00217 	ldw	r3,8(fp)
   8bd20:	00800104 	movi	r2,4
   8bd24:	18800005 	stb	r2,0(r3)
   8bd28:	e03ffb15 	stw	zero,-20(fp)
   8bd2c:	00019306 	br	8c37c <OSEventPendMulti+0x6a4>
   8bd30:	e0bff017 	ldw	r2,-64(fp)
   8bd34:	1004c03a 	cmpne	r2,r2,zero
   8bd38:	1000051e 	bne	r2,zero,8bd50 <OSEventPendMulti+0x78>
   8bd3c:	e0c00217 	ldw	r3,8(fp)
   8bd40:	00800104 	movi	r2,4
   8bd44:	18800005 	stb	r2,0(r3)
   8bd48:	e03ffb15 	stw	zero,-20(fp)
   8bd4c:	00018b06 	br	8c37c <OSEventPendMulti+0x6a4>
   8bd50:	e0bff117 	ldw	r2,-60(fp)
   8bd54:	1004c03a 	cmpne	r2,r2,zero
   8bd58:	1000051e 	bne	r2,zero,8bd70 <OSEventPendMulti+0x98>
   8bd5c:	e0c00217 	ldw	r3,8(fp)
   8bd60:	00800104 	movi	r2,4
   8bd64:	18800005 	stb	r2,0(r3)
   8bd68:	e03ffb15 	stw	zero,-20(fp)
   8bd6c:	00018306 	br	8c37c <OSEventPendMulti+0x6a4>
   8bd70:	e0bff017 	ldw	r2,-64(fp)
   8bd74:	10000015 	stw	zero,0(r2)
   8bd78:	e0bfef17 	ldw	r2,-68(fp)
   8bd7c:	e0bff315 	stw	r2,-52(fp)
   8bd80:	e0bff317 	ldw	r2,-52(fp)
   8bd84:	10800017 	ldw	r2,0(r2)
   8bd88:	e0bff415 	stw	r2,-48(fp)
   8bd8c:	e0bff417 	ldw	r2,-48(fp)
   8bd90:	1005003a 	cmpeq	r2,r2,zero
   8bd94:	1000121e 	bne	r2,zero,8bde0 <OSEventPendMulti+0x108>
   8bd98:	e0bff417 	ldw	r2,-48(fp)
   8bd9c:	10800003 	ldbu	r2,0(r2)
   8bda0:	10bfffc4 	addi	r2,r2,-1
   8bda4:	108000e8 	cmpgeui	r2,r2,3
   8bda8:	1000011e 	bne	r2,zero,8bdb0 <OSEventPendMulti+0xd8>
   8bdac:	00000506 	br	8bdc4 <OSEventPendMulti+0xec>
   8bdb0:	e0c00217 	ldw	r3,8(fp)
   8bdb4:	00800044 	movi	r2,1
   8bdb8:	18800005 	stb	r2,0(r3)
   8bdbc:	e03ffb15 	stw	zero,-20(fp)
   8bdc0:	00016e06 	br	8c37c <OSEventPendMulti+0x6a4>
   8bdc4:	e0bff317 	ldw	r2,-52(fp)
   8bdc8:	10800104 	addi	r2,r2,4
   8bdcc:	e0bff315 	stw	r2,-52(fp)
   8bdd0:	e0bff317 	ldw	r2,-52(fp)
   8bdd4:	10800017 	ldw	r2,0(r2)
   8bdd8:	e0bff415 	stw	r2,-48(fp)
   8bddc:	003feb06 	br	8bd8c <OSEventPendMulti+0xb4>
   8bde0:	d0a70043 	ldbu	r2,-25599(gp)
   8bde4:	1005003a 	cmpeq	r2,r2,zero
   8bde8:	1000051e 	bne	r2,zero,8be00 <OSEventPendMulti+0x128>
   8bdec:	e0c00217 	ldw	r3,8(fp)
   8bdf0:	00800084 	movi	r2,2
   8bdf4:	18800005 	stb	r2,0(r3)
   8bdf8:	e03ffb15 	stw	zero,-20(fp)
   8bdfc:	00015f06 	br	8c37c <OSEventPendMulti+0x6a4>
   8be00:	d0a70083 	ldbu	r2,-25598(gp)
   8be04:	1005003a 	cmpeq	r2,r2,zero
   8be08:	1000051e 	bne	r2,zero,8be20 <OSEventPendMulti+0x148>
   8be0c:	e0c00217 	ldw	r3,8(fp)
   8be10:	00800344 	movi	r2,13
   8be14:	18800005 	stb	r2,0(r3)
   8be18:	e03ffb15 	stw	zero,-20(fp)
   8be1c:	00015706 	br	8c37c <OSEventPendMulti+0x6a4>
   8be20:	0005303a 	rdctl	r2,status
   8be24:	e0bffa15 	stw	r2,-24(fp)
   8be28:	e0fffa17 	ldw	r3,-24(fp)
   8be2c:	00bfff84 	movi	r2,-2
   8be30:	1884703a 	and	r2,r3,r2
   8be34:	1001703a 	wrctl	status,r2
   8be38:	e0bffa17 	ldw	r2,-24(fp)
   8be3c:	e0bff915 	stw	r2,-28(fp)
   8be40:	e0bff917 	ldw	r2,-28(fp)
   8be44:	e0bff815 	stw	r2,-32(fp)
   8be48:	e03ff605 	stb	zero,-40(fp)
   8be4c:	e03ff68d 	sth	zero,-38(fp)
   8be50:	e03ff705 	stb	zero,-36(fp)
   8be54:	e0bfef17 	ldw	r2,-68(fp)
   8be58:	e0bff315 	stw	r2,-52(fp)
   8be5c:	e0bff317 	ldw	r2,-52(fp)
   8be60:	10800017 	ldw	r2,0(r2)
   8be64:	e0bff415 	stw	r2,-48(fp)
   8be68:	e0bff417 	ldw	r2,-48(fp)
   8be6c:	1005003a 	cmpeq	r2,r2,zero
   8be70:	1000951e 	bne	r2,zero,8c0c8 <OSEventPendMulti+0x3f0>
   8be74:	e0bff417 	ldw	r2,-48(fp)
   8be78:	10800003 	ldbu	r2,0(r2)
   8be7c:	e0bffc15 	stw	r2,-16(fp)
   8be80:	e0fffc17 	ldw	r3,-16(fp)
   8be84:	188000a0 	cmpeqi	r2,r3,2
   8be88:	10004a1e 	bne	r2,zero,8bfb4 <OSEventPendMulti+0x2dc>
   8be8c:	e0fffc17 	ldw	r3,-16(fp)
   8be90:	188000c8 	cmpgei	r2,r3,3
   8be94:	1000041e 	bne	r2,zero,8bea8 <OSEventPendMulti+0x1d0>
   8be98:	e0fffc17 	ldw	r3,-16(fp)
   8be9c:	18800060 	cmpeqi	r2,r3,1
   8bea0:	1000251e 	bne	r2,zero,8bf38 <OSEventPendMulti+0x260>
   8bea4:	00007506 	br	8c07c <OSEventPendMulti+0x3a4>
   8bea8:	e0fffc17 	ldw	r3,-16(fp)
   8beac:	188000e0 	cmpeqi	r2,r3,3
   8beb0:	1000011e 	bne	r2,zero,8beb8 <OSEventPendMulti+0x1e0>
   8beb4:	00007106 	br	8c07c <OSEventPendMulti+0x3a4>
   8beb8:	e0bff417 	ldw	r2,-48(fp)
   8bebc:	1080020b 	ldhu	r2,8(r2)
   8bec0:	1005003a 	cmpeq	r2,r2,zero
   8bec4:	1000181e 	bne	r2,zero,8bf28 <OSEventPendMulti+0x250>
   8bec8:	e0fff417 	ldw	r3,-48(fp)
   8becc:	e0bff417 	ldw	r2,-48(fp)
   8bed0:	1080020b 	ldhu	r2,8(r2)
   8bed4:	10bfffc4 	addi	r2,r2,-1
   8bed8:	1880020d 	sth	r2,8(r3)
   8bedc:	e17ff004 	addi	r5,fp,-64
   8bee0:	28800017 	ldw	r2,0(r5)
   8bee4:	1009883a 	mov	r4,r2
   8bee8:	e0fff417 	ldw	r3,-48(fp)
   8beec:	20c00015 	stw	r3,0(r4)
   8bef0:	10800104 	addi	r2,r2,4
   8bef4:	28800015 	stw	r2,0(r5)
   8bef8:	00800044 	movi	r2,1
   8befc:	e0bff605 	stb	r2,-40(fp)
   8bf00:	e13ff104 	addi	r4,fp,-60
   8bf04:	20800017 	ldw	r2,0(r4)
   8bf08:	1007883a 	mov	r3,r2
   8bf0c:	18000015 	stw	zero,0(r3)
   8bf10:	10800104 	addi	r2,r2,4
   8bf14:	20800015 	stw	r2,0(r4)
   8bf18:	e0bff68b 	ldhu	r2,-38(fp)
   8bf1c:	10800044 	addi	r2,r2,1
   8bf20:	e0bff68d 	sth	r2,-38(fp)
   8bf24:	00006106 	br	8c0ac <OSEventPendMulti+0x3d4>
   8bf28:	e0bff703 	ldbu	r2,-36(fp)
   8bf2c:	10800054 	ori	r2,r2,1
   8bf30:	e0bff705 	stb	r2,-36(fp)
   8bf34:	00005d06 	br	8c0ac <OSEventPendMulti+0x3d4>
   8bf38:	e0bff417 	ldw	r2,-48(fp)
   8bf3c:	10800117 	ldw	r2,4(r2)
   8bf40:	1005003a 	cmpeq	r2,r2,zero
   8bf44:	1000171e 	bne	r2,zero,8bfa4 <OSEventPendMulti+0x2cc>
   8bf48:	e17ff104 	addi	r5,fp,-60
   8bf4c:	28c00017 	ldw	r3,0(r5)
   8bf50:	e0bff417 	ldw	r2,-48(fp)
   8bf54:	1809883a 	mov	r4,r3
   8bf58:	10800117 	ldw	r2,4(r2)
   8bf5c:	20800015 	stw	r2,0(r4)
   8bf60:	18c00104 	addi	r3,r3,4
   8bf64:	28c00015 	stw	r3,0(r5)
   8bf68:	e0bff417 	ldw	r2,-48(fp)
   8bf6c:	10000115 	stw	zero,4(r2)
   8bf70:	e17ff004 	addi	r5,fp,-64
   8bf74:	28800017 	ldw	r2,0(r5)
   8bf78:	1009883a 	mov	r4,r2
   8bf7c:	e0fff417 	ldw	r3,-48(fp)
   8bf80:	20c00015 	stw	r3,0(r4)
   8bf84:	10800104 	addi	r2,r2,4
   8bf88:	28800015 	stw	r2,0(r5)
   8bf8c:	00800044 	movi	r2,1
   8bf90:	e0bff605 	stb	r2,-40(fp)
   8bf94:	e0bff68b 	ldhu	r2,-38(fp)
   8bf98:	10800044 	addi	r2,r2,1
   8bf9c:	e0bff68d 	sth	r2,-38(fp)
   8bfa0:	00004206 	br	8c0ac <OSEventPendMulti+0x3d4>
   8bfa4:	e0bff703 	ldbu	r2,-36(fp)
   8bfa8:	10800094 	ori	r2,r2,2
   8bfac:	e0bff705 	stb	r2,-36(fp)
   8bfb0:	00003e06 	br	8c0ac <OSEventPendMulti+0x3d4>
   8bfb4:	e0bff417 	ldw	r2,-48(fp)
   8bfb8:	10800117 	ldw	r2,4(r2)
   8bfbc:	e0bff515 	stw	r2,-44(fp)
   8bfc0:	e0bff517 	ldw	r2,-44(fp)
   8bfc4:	1080058b 	ldhu	r2,22(r2)
   8bfc8:	1005003a 	cmpeq	r2,r2,zero
   8bfcc:	1000271e 	bne	r2,zero,8c06c <OSEventPendMulti+0x394>
   8bfd0:	e1bff104 	addi	r6,fp,-60
   8bfd4:	30c00017 	ldw	r3,0(r6)
   8bfd8:	e0bff517 	ldw	r2,-44(fp)
   8bfdc:	11000404 	addi	r4,r2,16
   8bfe0:	20800017 	ldw	r2,0(r4)
   8bfe4:	11400017 	ldw	r5,0(r2)
   8bfe8:	10800104 	addi	r2,r2,4
   8bfec:	20800015 	stw	r2,0(r4)
   8bff0:	1805883a 	mov	r2,r3
   8bff4:	11400015 	stw	r5,0(r2)
   8bff8:	18c00104 	addi	r3,r3,4
   8bffc:	30c00015 	stw	r3,0(r6)
   8c000:	e0bff517 	ldw	r2,-44(fp)
   8c004:	e0fff517 	ldw	r3,-44(fp)
   8c008:	11000417 	ldw	r4,16(r2)
   8c00c:	18800217 	ldw	r2,8(r3)
   8c010:	2080041e 	bne	r4,r2,8c024 <OSEventPendMulti+0x34c>
   8c014:	e0bff517 	ldw	r2,-44(fp)
   8c018:	e0fff517 	ldw	r3,-44(fp)
   8c01c:	18c00117 	ldw	r3,4(r3)
   8c020:	10c00415 	stw	r3,16(r2)
   8c024:	e0fff517 	ldw	r3,-44(fp)
   8c028:	e0bff517 	ldw	r2,-44(fp)
   8c02c:	1080058b 	ldhu	r2,22(r2)
   8c030:	10bfffc4 	addi	r2,r2,-1
   8c034:	1880058d 	sth	r2,22(r3)
   8c038:	e17ff004 	addi	r5,fp,-64
   8c03c:	28800017 	ldw	r2,0(r5)
   8c040:	1009883a 	mov	r4,r2
   8c044:	e0fff417 	ldw	r3,-48(fp)
   8c048:	20c00015 	stw	r3,0(r4)
   8c04c:	10800104 	addi	r2,r2,4
   8c050:	28800015 	stw	r2,0(r5)
   8c054:	00800044 	movi	r2,1
   8c058:	e0bff605 	stb	r2,-40(fp)
   8c05c:	e0bff68b 	ldhu	r2,-38(fp)
   8c060:	10800044 	addi	r2,r2,1
   8c064:	e0bff68d 	sth	r2,-38(fp)
   8c068:	00001006 	br	8c0ac <OSEventPendMulti+0x3d4>
   8c06c:	e0bff703 	ldbu	r2,-36(fp)
   8c070:	10800114 	ori	r2,r2,4
   8c074:	e0bff705 	stb	r2,-36(fp)
   8c078:	00000c06 	br	8c0ac <OSEventPendMulti+0x3d4>
   8c07c:	e0bff817 	ldw	r2,-32(fp)
   8c080:	e0bffa15 	stw	r2,-24(fp)
   8c084:	e0bffa17 	ldw	r2,-24(fp)
   8c088:	1001703a 	wrctl	status,r2
   8c08c:	e0bff017 	ldw	r2,-64(fp)
   8c090:	10000015 	stw	zero,0(r2)
   8c094:	e0c00217 	ldw	r3,8(fp)
   8c098:	00800044 	movi	r2,1
   8c09c:	18800005 	stb	r2,0(r3)
   8c0a0:	e0bff68b 	ldhu	r2,-38(fp)
   8c0a4:	e0bffb15 	stw	r2,-20(fp)
   8c0a8:	0000b406 	br	8c37c <OSEventPendMulti+0x6a4>
   8c0ac:	e0bff317 	ldw	r2,-52(fp)
   8c0b0:	10800104 	addi	r2,r2,4
   8c0b4:	e0bff315 	stw	r2,-52(fp)
   8c0b8:	e0bff317 	ldw	r2,-52(fp)
   8c0bc:	10800017 	ldw	r2,0(r2)
   8c0c0:	e0bff415 	stw	r2,-48(fp)
   8c0c4:	003f6806 	br	8be68 <OSEventPendMulti+0x190>
   8c0c8:	e0bff603 	ldbu	r2,-40(fp)
   8c0cc:	10800058 	cmpnei	r2,r2,1
   8c0d0:	10000b1e 	bne	r2,zero,8c100 <OSEventPendMulti+0x428>
   8c0d4:	e0bff017 	ldw	r2,-64(fp)
   8c0d8:	10000015 	stw	zero,0(r2)
   8c0dc:	e0bff817 	ldw	r2,-32(fp)
   8c0e0:	e0bffa15 	stw	r2,-24(fp)
   8c0e4:	e0bffa17 	ldw	r2,-24(fp)
   8c0e8:	1001703a 	wrctl	status,r2
   8c0ec:	e0800217 	ldw	r2,8(fp)
   8c0f0:	10000005 	stb	zero,0(r2)
   8c0f4:	e0bff68b 	ldhu	r2,-38(fp)
   8c0f8:	e0bffb15 	stw	r2,-20(fp)
   8c0fc:	00009f06 	br	8c37c <OSEventPendMulti+0x6a4>
   8c100:	d1270417 	ldw	r4,-25584(gp)
   8c104:	d0a70417 	ldw	r2,-25584(gp)
   8c108:	10c00c03 	ldbu	r3,48(r2)
   8c10c:	e0bff703 	ldbu	r2,-36(fp)
   8c110:	1884b03a 	or	r2,r3,r2
   8c114:	1007883a 	mov	r3,r2
   8c118:	00bfe004 	movi	r2,-128
   8c11c:	1884b03a 	or	r2,r3,r2
   8c120:	20800c05 	stb	r2,48(r4)
   8c124:	d0a70417 	ldw	r2,-25584(gp)
   8c128:	10000c45 	stb	zero,49(r2)
   8c12c:	d0e70417 	ldw	r3,-25584(gp)
   8c130:	e0bff20b 	ldhu	r2,-56(fp)
   8c134:	18800b8d 	sth	r2,46(r3)
   8c138:	e13fef17 	ldw	r4,-68(fp)
   8c13c:	008cc740 	call	8cc74 <OS_EventTaskWaitMulti>
   8c140:	e0bff817 	ldw	r2,-32(fp)
   8c144:	e0bffa15 	stw	r2,-24(fp)
   8c148:	e0bffa17 	ldw	r2,-24(fp)
   8c14c:	1001703a 	wrctl	status,r2
   8c150:	008d3a00 	call	8d3a0 <OS_Sched>
   8c154:	0005303a 	rdctl	r2,status
   8c158:	e0bff915 	stw	r2,-28(fp)
   8c15c:	e0fff917 	ldw	r3,-28(fp)
   8c160:	00bfff84 	movi	r2,-2
   8c164:	1884703a 	and	r2,r3,r2
   8c168:	1001703a 	wrctl	status,r2
   8c16c:	e0bff917 	ldw	r2,-28(fp)
   8c170:	e0bffa15 	stw	r2,-24(fp)
   8c174:	e0bffa17 	ldw	r2,-24(fp)
   8c178:	e0bff815 	stw	r2,-32(fp)
   8c17c:	d0a70417 	ldw	r2,-25584(gp)
   8c180:	10800c43 	ldbu	r2,49(r2)
   8c184:	e0bffd15 	stw	r2,-12(fp)
   8c188:	e0fffd17 	ldw	r3,-12(fp)
   8c18c:	1805003a 	cmpeq	r2,r3,zero
   8c190:	1000041e 	bne	r2,zero,8c1a4 <OSEventPendMulti+0x4cc>
   8c194:	e0fffd17 	ldw	r3,-12(fp)
   8c198:	188000a0 	cmpeqi	r2,r3,2
   8c19c:	1000011e 	bne	r2,zero,8c1a4 <OSEventPendMulti+0x4cc>
   8c1a0:	00001a06 	br	8c20c <OSEventPendMulti+0x534>
   8c1a4:	d0a70417 	ldw	r2,-25584(gp)
   8c1a8:	10800717 	ldw	r2,28(r2)
   8c1ac:	e0bff415 	stw	r2,-48(fp)
   8c1b0:	e0bff417 	ldw	r2,-48(fp)
   8c1b4:	1005003a 	cmpeq	r2,r2,zero
   8c1b8:	10000d1e 	bne	r2,zero,8c1f0 <OSEventPendMulti+0x518>
   8c1bc:	e17ff004 	addi	r5,fp,-64
   8c1c0:	28800017 	ldw	r2,0(r5)
   8c1c4:	1009883a 	mov	r4,r2
   8c1c8:	e0fff417 	ldw	r3,-48(fp)
   8c1cc:	20c00015 	stw	r3,0(r4)
   8c1d0:	10800104 	addi	r2,r2,4
   8c1d4:	28800015 	stw	r2,0(r5)
   8c1d8:	e0bff017 	ldw	r2,-64(fp)
   8c1dc:	10000015 	stw	zero,0(r2)
   8c1e0:	e0bff68b 	ldhu	r2,-38(fp)
   8c1e4:	10800044 	addi	r2,r2,1
   8c1e8:	e0bff68d 	sth	r2,-38(fp)
   8c1ec:	00000a06 	br	8c218 <OSEventPendMulti+0x540>
   8c1f0:	d0e70417 	ldw	r3,-25584(gp)
   8c1f4:	00800044 	movi	r2,1
   8c1f8:	18800c45 	stb	r2,49(r3)
   8c1fc:	d1270417 	ldw	r4,-25584(gp)
   8c200:	e17fef17 	ldw	r5,-68(fp)
   8c204:	008ce440 	call	8ce44 <OS_EventTaskRemoveMulti>
   8c208:	00000306 	br	8c218 <OSEventPendMulti+0x540>
   8c20c:	d1270417 	ldw	r4,-25584(gp)
   8c210:	e17fef17 	ldw	r5,-68(fp)
   8c214:	008ce440 	call	8ce44 <OS_EventTaskRemoveMulti>
   8c218:	d0a70417 	ldw	r2,-25584(gp)
   8c21c:	10800c43 	ldbu	r2,49(r2)
   8c220:	e0bfff15 	stw	r2,-4(fp)
   8c224:	e0ffff17 	ldw	r3,-4(fp)
   8c228:	1805003a 	cmpeq	r2,r3,zero
   8c22c:	1000041e 	bne	r2,zero,8c240 <OSEventPendMulti+0x568>
   8c230:	e0ffff17 	ldw	r3,-4(fp)
   8c234:	188000a0 	cmpeqi	r2,r3,2
   8c238:	10002d1e 	bne	r2,zero,8c2f0 <OSEventPendMulti+0x618>
   8c23c:	00003606 	br	8c318 <OSEventPendMulti+0x640>
   8c240:	e0bff417 	ldw	r2,-48(fp)
   8c244:	10800003 	ldbu	r2,0(r2)
   8c248:	e0bffe15 	stw	r2,-8(fp)
   8c24c:	e0fffe17 	ldw	r3,-8(fp)
   8c250:	18800050 	cmplti	r2,r3,1
   8c254:	1000171e 	bne	r2,zero,8c2b4 <OSEventPendMulti+0x5dc>
   8c258:	e0fffe17 	ldw	r3,-8(fp)
   8c25c:	188000d0 	cmplti	r2,r3,3
   8c260:	10000b1e 	bne	r2,zero,8c290 <OSEventPendMulti+0x5b8>
   8c264:	e0fffe17 	ldw	r3,-8(fp)
   8c268:	188000e0 	cmpeqi	r2,r3,3
   8c26c:	1000011e 	bne	r2,zero,8c274 <OSEventPendMulti+0x59c>
   8c270:	00001006 	br	8c2b4 <OSEventPendMulti+0x5dc>
   8c274:	e0bff104 	addi	r2,fp,-60
   8c278:	10c00017 	ldw	r3,0(r2)
   8c27c:	1809883a 	mov	r4,r3
   8c280:	20000015 	stw	zero,0(r4)
   8c284:	18c00104 	addi	r3,r3,4
   8c288:	10c00015 	stw	r3,0(r2)
   8c28c:	00001506 	br	8c2e4 <OSEventPendMulti+0x60c>
   8c290:	e17ff104 	addi	r5,fp,-60
   8c294:	28c00017 	ldw	r3,0(r5)
   8c298:	d0a70417 	ldw	r2,-25584(gp)
   8c29c:	1809883a 	mov	r4,r3
   8c2a0:	10800917 	ldw	r2,36(r2)
   8c2a4:	20800015 	stw	r2,0(r4)
   8c2a8:	18c00104 	addi	r3,r3,4
   8c2ac:	28c00015 	stw	r3,0(r5)
   8c2b0:	00000c06 	br	8c2e4 <OSEventPendMulti+0x60c>
   8c2b4:	e0bff817 	ldw	r2,-32(fp)
   8c2b8:	e0bffa15 	stw	r2,-24(fp)
   8c2bc:	e0bffa17 	ldw	r2,-24(fp)
   8c2c0:	1001703a 	wrctl	status,r2
   8c2c4:	e0bff017 	ldw	r2,-64(fp)
   8c2c8:	10000015 	stw	zero,0(r2)
   8c2cc:	e0c00217 	ldw	r3,8(fp)
   8c2d0:	00800044 	movi	r2,1
   8c2d4:	18800005 	stb	r2,0(r3)
   8c2d8:	e0bff68b 	ldhu	r2,-38(fp)
   8c2dc:	e0bffb15 	stw	r2,-20(fp)
   8c2e0:	00002606 	br	8c37c <OSEventPendMulti+0x6a4>
   8c2e4:	e0800217 	ldw	r2,8(fp)
   8c2e8:	10000005 	stb	zero,0(r2)
   8c2ec:	00001306 	br	8c33c <OSEventPendMulti+0x664>
   8c2f0:	e13ff104 	addi	r4,fp,-60
   8c2f4:	20800017 	ldw	r2,0(r4)
   8c2f8:	1007883a 	mov	r3,r2
   8c2fc:	18000015 	stw	zero,0(r3)
   8c300:	10800104 	addi	r2,r2,4
   8c304:	20800015 	stw	r2,0(r4)
   8c308:	e0c00217 	ldw	r3,8(fp)
   8c30c:	00800384 	movi	r2,14
   8c310:	18800005 	stb	r2,0(r3)
   8c314:	00000906 	br	8c33c <OSEventPendMulti+0x664>
   8c318:	e13ff104 	addi	r4,fp,-60
   8c31c:	20800017 	ldw	r2,0(r4)
   8c320:	1007883a 	mov	r3,r2
   8c324:	18000015 	stw	zero,0(r3)
   8c328:	10800104 	addi	r2,r2,4
   8c32c:	20800015 	stw	r2,0(r4)
   8c330:	e0c00217 	ldw	r3,8(fp)
   8c334:	00800284 	movi	r2,10
   8c338:	18800005 	stb	r2,0(r3)
   8c33c:	d0a70417 	ldw	r2,-25584(gp)
   8c340:	10000c05 	stb	zero,48(r2)
   8c344:	d0a70417 	ldw	r2,-25584(gp)
   8c348:	10000c45 	stb	zero,49(r2)
   8c34c:	d0a70417 	ldw	r2,-25584(gp)
   8c350:	10000715 	stw	zero,28(r2)
   8c354:	d0a70417 	ldw	r2,-25584(gp)
   8c358:	10000815 	stw	zero,32(r2)
   8c35c:	d0a70417 	ldw	r2,-25584(gp)
   8c360:	10000915 	stw	zero,36(r2)
   8c364:	e0bff817 	ldw	r2,-32(fp)
   8c368:	e0bffa15 	stw	r2,-24(fp)
   8c36c:	e0bffa17 	ldw	r2,-24(fp)
   8c370:	1001703a 	wrctl	status,r2
   8c374:	e0bff68b 	ldhu	r2,-38(fp)
   8c378:	e0bffb15 	stw	r2,-20(fp)
   8c37c:	e0bffb17 	ldw	r2,-20(fp)
   8c380:	dfc01217 	ldw	ra,72(sp)
   8c384:	df001117 	ldw	fp,68(sp)
   8c388:	dec01304 	addi	sp,sp,76
   8c38c:	f800283a 	ret

0008c390 <OSInit>:
   8c390:	defffe04 	addi	sp,sp,-8
   8c394:	dfc00115 	stw	ra,4(sp)
   8c398:	df000015 	stw	fp,0(sp)
   8c39c:	d839883a 	mov	fp,sp
   8c3a0:	00959740 	call	95974 <OSInitHookBegin>
   8c3a4:	008d0700 	call	8d070 <OS_InitMisc>
   8c3a8:	008d0b00 	call	8d0b0 <OS_InitRdyList>
   8c3ac:	008d20c0 	call	8d20c <OS_InitTCBList>
   8c3b0:	008cf980 	call	8cf98 <OS_InitEventList>
   8c3b4:	008f0d80 	call	8f0d8 <OS_FlagInit>
   8c3b8:	008fa440 	call	8fa44 <OS_MemInit>
   8c3bc:	0090c380 	call	90c38 <OS_QInit>
   8c3c0:	008d11c0 	call	8d11c <OS_InitTaskIdle>
   8c3c4:	008d1940 	call	8d194 <OS_InitTaskStat>
   8c3c8:	009598c0 	call	9598c <OSInitHookEnd>
   8c3cc:	008da400 	call	8da40 <OSDebugInit>
   8c3d0:	dfc00117 	ldw	ra,4(sp)
   8c3d4:	df000017 	ldw	fp,0(sp)
   8c3d8:	dec00204 	addi	sp,sp,8
   8c3dc:	f800283a 	ret

0008c3e0 <OSIntEnter>:
   8c3e0:	defffc04 	addi	sp,sp,-16
   8c3e4:	df000315 	stw	fp,12(sp)
   8c3e8:	df000304 	addi	fp,sp,12
   8c3ec:	e03ffd15 	stw	zero,-12(fp)
   8c3f0:	d0a70243 	ldbu	r2,-25591(gp)
   8c3f4:	10800058 	cmpnei	r2,r2,1
   8c3f8:	1000141e 	bne	r2,zero,8c44c <OSIntEnter+0x6c>
   8c3fc:	0005303a 	rdctl	r2,status
   8c400:	e0bfff15 	stw	r2,-4(fp)
   8c404:	e0ffff17 	ldw	r3,-4(fp)
   8c408:	00bfff84 	movi	r2,-2
   8c40c:	1884703a 	and	r2,r3,r2
   8c410:	1001703a 	wrctl	status,r2
   8c414:	e0bfff17 	ldw	r2,-4(fp)
   8c418:	e0bffe15 	stw	r2,-8(fp)
   8c41c:	e0bffe17 	ldw	r2,-8(fp)
   8c420:	e0bffd15 	stw	r2,-12(fp)
   8c424:	d0a70043 	ldbu	r2,-25599(gp)
   8c428:	10803fe0 	cmpeqi	r2,r2,255
   8c42c:	1000031e 	bne	r2,zero,8c43c <OSIntEnter+0x5c>
   8c430:	d0a70043 	ldbu	r2,-25599(gp)
   8c434:	10800044 	addi	r2,r2,1
   8c438:	d0a70045 	stb	r2,-25599(gp)
   8c43c:	e0bffd17 	ldw	r2,-12(fp)
   8c440:	e0bfff15 	stw	r2,-4(fp)
   8c444:	e0bfff17 	ldw	r2,-4(fp)
   8c448:	1001703a 	wrctl	status,r2
   8c44c:	df000317 	ldw	fp,12(sp)
   8c450:	dec00404 	addi	sp,sp,16
   8c454:	f800283a 	ret

0008c458 <OSIntExit>:
   8c458:	defffb04 	addi	sp,sp,-20
   8c45c:	dfc00415 	stw	ra,16(sp)
   8c460:	df000315 	stw	fp,12(sp)
   8c464:	df000304 	addi	fp,sp,12
   8c468:	e03ffd15 	stw	zero,-12(fp)
   8c46c:	d0a70243 	ldbu	r2,-25591(gp)
   8c470:	10800058 	cmpnei	r2,r2,1
   8c474:	10002e1e 	bne	r2,zero,8c530 <OSIntExit+0xd8>
   8c478:	0005303a 	rdctl	r2,status
   8c47c:	e0bfff15 	stw	r2,-4(fp)
   8c480:	e0ffff17 	ldw	r3,-4(fp)
   8c484:	00bfff84 	movi	r2,-2
   8c488:	1884703a 	and	r2,r3,r2
   8c48c:	1001703a 	wrctl	status,r2
   8c490:	e0bfff17 	ldw	r2,-4(fp)
   8c494:	e0bffe15 	stw	r2,-8(fp)
   8c498:	e0bffe17 	ldw	r2,-8(fp)
   8c49c:	e0bffd15 	stw	r2,-12(fp)
   8c4a0:	d0a70043 	ldbu	r2,-25599(gp)
   8c4a4:	1005003a 	cmpeq	r2,r2,zero
   8c4a8:	1000031e 	bne	r2,zero,8c4b8 <OSIntExit+0x60>
   8c4ac:	d0a70043 	ldbu	r2,-25599(gp)
   8c4b0:	10bfffc4 	addi	r2,r2,-1
   8c4b4:	d0a70045 	stb	r2,-25599(gp)
   8c4b8:	d0a70043 	ldbu	r2,-25599(gp)
   8c4bc:	1004c03a 	cmpne	r2,r2,zero
   8c4c0:	1000171e 	bne	r2,zero,8c520 <OSIntExit+0xc8>
   8c4c4:	d0a70083 	ldbu	r2,-25598(gp)
   8c4c8:	1004c03a 	cmpne	r2,r2,zero
   8c4cc:	1000141e 	bne	r2,zero,8c520 <OSIntExit+0xc8>
   8c4d0:	008d4640 	call	8d464 <OS_SchedNew>
   8c4d4:	d0e70103 	ldbu	r3,-25596(gp)
   8c4d8:	d0a700c3 	ldbu	r2,-25597(gp)
   8c4dc:	18801026 	beq	r3,r2,8c520 <OSIntExit+0xc8>
   8c4e0:	00c002b4 	movhi	r3,10
   8c4e4:	18d65b04 	addi	r3,r3,22892
   8c4e8:	d0a70103 	ldbu	r2,-25596(gp)
   8c4ec:	100490ba 	slli	r2,r2,2
   8c4f0:	10c5883a 	add	r2,r2,r3
   8c4f4:	10800017 	ldw	r2,0(r2)
   8c4f8:	d0a70615 	stw	r2,-25576(gp)
   8c4fc:	d0e70617 	ldw	r3,-25576(gp)
   8c500:	d0a70617 	ldw	r2,-25576(gp)
   8c504:	10800e17 	ldw	r2,56(r2)
   8c508:	10800044 	addi	r2,r2,1
   8c50c:	18800e15 	stw	r2,56(r3)
   8c510:	d0a6fa17 	ldw	r2,-25624(gp)
   8c514:	10800044 	addi	r2,r2,1
   8c518:	d0a6fa15 	stw	r2,-25624(gp)
   8c51c:	00955080 	call	95508 <OSCtxSw>
   8c520:	e0bffd17 	ldw	r2,-12(fp)
   8c524:	e0bfff15 	stw	r2,-4(fp)
   8c528:	e0bfff17 	ldw	r2,-4(fp)
   8c52c:	1001703a 	wrctl	status,r2
   8c530:	dfc00417 	ldw	ra,16(sp)
   8c534:	df000317 	ldw	fp,12(sp)
   8c538:	dec00504 	addi	sp,sp,20
   8c53c:	f800283a 	ret

0008c540 <OSSchedLock>:
   8c540:	defffc04 	addi	sp,sp,-16
   8c544:	df000315 	stw	fp,12(sp)
   8c548:	df000304 	addi	fp,sp,12
   8c54c:	e03ffd15 	stw	zero,-12(fp)
   8c550:	d0a70243 	ldbu	r2,-25591(gp)
   8c554:	10800058 	cmpnei	r2,r2,1
   8c558:	1000171e 	bne	r2,zero,8c5b8 <OSSchedLock+0x78>
   8c55c:	0005303a 	rdctl	r2,status
   8c560:	e0bfff15 	stw	r2,-4(fp)
   8c564:	e0ffff17 	ldw	r3,-4(fp)
   8c568:	00bfff84 	movi	r2,-2
   8c56c:	1884703a 	and	r2,r3,r2
   8c570:	1001703a 	wrctl	status,r2
   8c574:	e0bfff17 	ldw	r2,-4(fp)
   8c578:	e0bffe15 	stw	r2,-8(fp)
   8c57c:	e0bffe17 	ldw	r2,-8(fp)
   8c580:	e0bffd15 	stw	r2,-12(fp)
   8c584:	d0a70043 	ldbu	r2,-25599(gp)
   8c588:	1004c03a 	cmpne	r2,r2,zero
   8c58c:	1000061e 	bne	r2,zero,8c5a8 <OSSchedLock+0x68>
   8c590:	d0a70083 	ldbu	r2,-25598(gp)
   8c594:	10803fe0 	cmpeqi	r2,r2,255
   8c598:	1000031e 	bne	r2,zero,8c5a8 <OSSchedLock+0x68>
   8c59c:	d0a70083 	ldbu	r2,-25598(gp)
   8c5a0:	10800044 	addi	r2,r2,1
   8c5a4:	d0a70085 	stb	r2,-25598(gp)
   8c5a8:	e0bffd17 	ldw	r2,-12(fp)
   8c5ac:	e0bfff15 	stw	r2,-4(fp)
   8c5b0:	e0bfff17 	ldw	r2,-4(fp)
   8c5b4:	1001703a 	wrctl	status,r2
   8c5b8:	df000317 	ldw	fp,12(sp)
   8c5bc:	dec00404 	addi	sp,sp,16
   8c5c0:	f800283a 	ret

0008c5c4 <OSSchedUnlock>:
   8c5c4:	defffb04 	addi	sp,sp,-20
   8c5c8:	dfc00415 	stw	ra,16(sp)
   8c5cc:	df000315 	stw	fp,12(sp)
   8c5d0:	df000304 	addi	fp,sp,12
   8c5d4:	e03ffd15 	stw	zero,-12(fp)
   8c5d8:	d0a70243 	ldbu	r2,-25591(gp)
   8c5dc:	10800058 	cmpnei	r2,r2,1
   8c5e0:	10002a1e 	bne	r2,zero,8c68c <OSSchedUnlock+0xc8>
   8c5e4:	0005303a 	rdctl	r2,status
   8c5e8:	e0bfff15 	stw	r2,-4(fp)
   8c5ec:	e0ffff17 	ldw	r3,-4(fp)
   8c5f0:	00bfff84 	movi	r2,-2
   8c5f4:	1884703a 	and	r2,r3,r2
   8c5f8:	1001703a 	wrctl	status,r2
   8c5fc:	e0bfff17 	ldw	r2,-4(fp)
   8c600:	e0bffe15 	stw	r2,-8(fp)
   8c604:	e0bffe17 	ldw	r2,-8(fp)
   8c608:	e0bffd15 	stw	r2,-12(fp)
   8c60c:	d0a70083 	ldbu	r2,-25598(gp)
   8c610:	1005003a 	cmpeq	r2,r2,zero
   8c614:	1000191e 	bne	r2,zero,8c67c <OSSchedUnlock+0xb8>
   8c618:	d0a70083 	ldbu	r2,-25598(gp)
   8c61c:	10bfffc4 	addi	r2,r2,-1
   8c620:	d0a70085 	stb	r2,-25598(gp)
   8c624:	d0a70083 	ldbu	r2,-25598(gp)
   8c628:	1004c03a 	cmpne	r2,r2,zero
   8c62c:	10000e1e 	bne	r2,zero,8c668 <OSSchedUnlock+0xa4>
   8c630:	d0a70043 	ldbu	r2,-25599(gp)
   8c634:	1004c03a 	cmpne	r2,r2,zero
   8c638:	1000061e 	bne	r2,zero,8c654 <OSSchedUnlock+0x90>
   8c63c:	e0bffd17 	ldw	r2,-12(fp)
   8c640:	e0bfff15 	stw	r2,-4(fp)
   8c644:	e0bfff17 	ldw	r2,-4(fp)
   8c648:	1001703a 	wrctl	status,r2
   8c64c:	008d3a00 	call	8d3a0 <OS_Sched>
   8c650:	00000e06 	br	8c68c <OSSchedUnlock+0xc8>
   8c654:	e0bffd17 	ldw	r2,-12(fp)
   8c658:	e0bfff15 	stw	r2,-4(fp)
   8c65c:	e0bfff17 	ldw	r2,-4(fp)
   8c660:	1001703a 	wrctl	status,r2
   8c664:	00000906 	br	8c68c <OSSchedUnlock+0xc8>
   8c668:	e0bffd17 	ldw	r2,-12(fp)
   8c66c:	e0bfff15 	stw	r2,-4(fp)
   8c670:	e0bfff17 	ldw	r2,-4(fp)
   8c674:	1001703a 	wrctl	status,r2
   8c678:	00000406 	br	8c68c <OSSchedUnlock+0xc8>
   8c67c:	e0bffd17 	ldw	r2,-12(fp)
   8c680:	e0bfff15 	stw	r2,-4(fp)
   8c684:	e0bfff17 	ldw	r2,-4(fp)
   8c688:	1001703a 	wrctl	status,r2
   8c68c:	dfc00417 	ldw	ra,16(sp)
   8c690:	df000317 	ldw	fp,12(sp)
   8c694:	dec00504 	addi	sp,sp,20
   8c698:	f800283a 	ret

0008c69c <OSStart>:
   8c69c:	defffe04 	addi	sp,sp,-8
   8c6a0:	dfc00115 	stw	ra,4(sp)
   8c6a4:	df000015 	stw	fp,0(sp)
   8c6a8:	d839883a 	mov	fp,sp
   8c6ac:	d0a70243 	ldbu	r2,-25591(gp)
   8c6b0:	1004c03a 	cmpne	r2,r2,zero
   8c6b4:	10000d1e 	bne	r2,zero,8c6ec <OSStart+0x50>
   8c6b8:	008d4640 	call	8d464 <OS_SchedNew>
   8c6bc:	d0a70103 	ldbu	r2,-25596(gp)
   8c6c0:	d0a700c5 	stb	r2,-25597(gp)
   8c6c4:	00c002b4 	movhi	r3,10
   8c6c8:	18d65b04 	addi	r3,r3,22892
   8c6cc:	d0a70103 	ldbu	r2,-25596(gp)
   8c6d0:	100490ba 	slli	r2,r2,2
   8c6d4:	10c5883a 	add	r2,r2,r3
   8c6d8:	10800017 	ldw	r2,0(r2)
   8c6dc:	d0a70615 	stw	r2,-25576(gp)
   8c6e0:	d0a70617 	ldw	r2,-25576(gp)
   8c6e4:	d0a70415 	stw	r2,-25584(gp)
   8c6e8:	00955940 	call	95594 <OSStartHighRdy>
   8c6ec:	dfc00117 	ldw	ra,4(sp)
   8c6f0:	df000017 	ldw	fp,0(sp)
   8c6f4:	dec00204 	addi	sp,sp,8
   8c6f8:	f800283a 	ret

0008c6fc <OSStatInit>:
   8c6fc:	defffb04 	addi	sp,sp,-20
   8c700:	dfc00415 	stw	ra,16(sp)
   8c704:	df000315 	stw	fp,12(sp)
   8c708:	df000304 	addi	fp,sp,12
   8c70c:	e03ffd15 	stw	zero,-12(fp)
   8c710:	01000084 	movi	r4,2
   8c714:	0092f800 	call	92f80 <OSTimeDly>
   8c718:	0005303a 	rdctl	r2,status
   8c71c:	e0bfff15 	stw	r2,-4(fp)
   8c720:	e0ffff17 	ldw	r3,-4(fp)
   8c724:	00bfff84 	movi	r2,-2
   8c728:	1884703a 	and	r2,r3,r2
   8c72c:	1001703a 	wrctl	status,r2
   8c730:	e0bfff17 	ldw	r2,-4(fp)
   8c734:	e0bffe15 	stw	r2,-8(fp)
   8c738:	e0bffe17 	ldw	r2,-8(fp)
   8c73c:	e0bffd15 	stw	r2,-12(fp)
   8c740:	d0270315 	stw	zero,-25588(gp)
   8c744:	e0bffd17 	ldw	r2,-12(fp)
   8c748:	e0bfff15 	stw	r2,-4(fp)
   8c74c:	e0bfff17 	ldw	r2,-4(fp)
   8c750:	1001703a 	wrctl	status,r2
   8c754:	01001904 	movi	r4,100
   8c758:	0092f800 	call	92f80 <OSTimeDly>
   8c75c:	0005303a 	rdctl	r2,status
   8c760:	e0bffe15 	stw	r2,-8(fp)
   8c764:	e0fffe17 	ldw	r3,-8(fp)
   8c768:	00bfff84 	movi	r2,-2
   8c76c:	1884703a 	and	r2,r3,r2
   8c770:	1001703a 	wrctl	status,r2
   8c774:	e0bffe17 	ldw	r2,-8(fp)
   8c778:	e0bfff15 	stw	r2,-4(fp)
   8c77c:	e0bfff17 	ldw	r2,-4(fp)
   8c780:	e0bffd15 	stw	r2,-12(fp)
   8c784:	d0a70317 	ldw	r2,-25588(gp)
   8c788:	d0a6fe15 	stw	r2,-25608(gp)
   8c78c:	00800044 	movi	r2,1
   8c790:	d0a70005 	stb	r2,-25600(gp)
   8c794:	e0bffd17 	ldw	r2,-12(fp)
   8c798:	e0bfff15 	stw	r2,-4(fp)
   8c79c:	e0bfff17 	ldw	r2,-4(fp)
   8c7a0:	1001703a 	wrctl	status,r2
   8c7a4:	dfc00417 	ldw	ra,16(sp)
   8c7a8:	df000317 	ldw	fp,12(sp)
   8c7ac:	dec00504 	addi	sp,sp,20
   8c7b0:	f800283a 	ret

0008c7b4 <OSTimeTick>:
   8c7b4:	defff804 	addi	sp,sp,-32
   8c7b8:	dfc00715 	stw	ra,28(sp)
   8c7bc:	df000615 	stw	fp,24(sp)
   8c7c0:	df000604 	addi	fp,sp,24
   8c7c4:	e03ffc15 	stw	zero,-16(fp)
   8c7c8:	009595c0 	call	9595c <OSTimeTickHook>
   8c7cc:	0005303a 	rdctl	r2,status
   8c7d0:	e0bffe15 	stw	r2,-8(fp)
   8c7d4:	e0fffe17 	ldw	r3,-8(fp)
   8c7d8:	00bfff84 	movi	r2,-2
   8c7dc:	1884703a 	and	r2,r3,r2
   8c7e0:	1001703a 	wrctl	status,r2
   8c7e4:	e0bffe17 	ldw	r2,-8(fp)
   8c7e8:	e0bffd15 	stw	r2,-12(fp)
   8c7ec:	e0bffd17 	ldw	r2,-12(fp)
   8c7f0:	e0bffc15 	stw	r2,-16(fp)
   8c7f4:	d0a70b17 	ldw	r2,-25556(gp)
   8c7f8:	10800044 	addi	r2,r2,1
   8c7fc:	d0a70b15 	stw	r2,-25556(gp)
   8c800:	e0bffc17 	ldw	r2,-16(fp)
   8c804:	e0bffe15 	stw	r2,-8(fp)
   8c808:	e0bffe17 	ldw	r2,-8(fp)
   8c80c:	1001703a 	wrctl	status,r2
   8c810:	d0a70243 	ldbu	r2,-25591(gp)
   8c814:	10800058 	cmpnei	r2,r2,1
   8c818:	10006d1e 	bne	r2,zero,8c9d0 <OSTimeTick+0x21c>
   8c81c:	d0a70803 	ldbu	r2,-25568(gp)
   8c820:	e0bfff15 	stw	r2,-4(fp)
   8c824:	e0ffff17 	ldw	r3,-4(fp)
   8c828:	18800060 	cmpeqi	r2,r3,1
   8c82c:	10000e1e 	bne	r2,zero,8c868 <OSTimeTick+0xb4>
   8c830:	e0ffff17 	ldw	r3,-4(fp)
   8c834:	18800088 	cmpgei	r2,r3,2
   8c838:	1000041e 	bne	r2,zero,8c84c <OSTimeTick+0x98>
   8c83c:	e0ffff17 	ldw	r3,-4(fp)
   8c840:	1805003a 	cmpeq	r2,r3,zero
   8c844:	1000051e 	bne	r2,zero,8c85c <OSTimeTick+0xa8>
   8c848:	00000e06 	br	8c884 <OSTimeTick+0xd0>
   8c84c:	e0ffff17 	ldw	r3,-4(fp)
   8c850:	188000a0 	cmpeqi	r2,r3,2
   8c854:	1000061e 	bne	r2,zero,8c870 <OSTimeTick+0xbc>
   8c858:	00000a06 	br	8c884 <OSTimeTick+0xd0>
   8c85c:	00800044 	movi	r2,1
   8c860:	e0bffb05 	stb	r2,-20(fp)
   8c864:	00000a06 	br	8c890 <OSTimeTick+0xdc>
   8c868:	e03ffb05 	stb	zero,-20(fp)
   8c86c:	00000806 	br	8c890 <OSTimeTick+0xdc>
   8c870:	00800044 	movi	r2,1
   8c874:	e0bffb05 	stb	r2,-20(fp)
   8c878:	00800044 	movi	r2,1
   8c87c:	d0a70805 	stb	r2,-25568(gp)
   8c880:	00000306 	br	8c890 <OSTimeTick+0xdc>
   8c884:	00800044 	movi	r2,1
   8c888:	e0bffb05 	stb	r2,-20(fp)
   8c88c:	d0270805 	stb	zero,-25568(gp)
   8c890:	e0bffb03 	ldbu	r2,-20(fp)
   8c894:	1004c03a 	cmpne	r2,r2,zero
   8c898:	1000011e 	bne	r2,zero,8c8a0 <OSTimeTick+0xec>
   8c89c:	00004c06 	br	8c9d0 <OSTimeTick+0x21c>
   8c8a0:	d0a70717 	ldw	r2,-25572(gp)
   8c8a4:	e0bffa15 	stw	r2,-24(fp)
   8c8a8:	e0bffa17 	ldw	r2,-24(fp)
   8c8ac:	10800c83 	ldbu	r2,50(r2)
   8c8b0:	10800520 	cmpeqi	r2,r2,20
   8c8b4:	1000461e 	bne	r2,zero,8c9d0 <OSTimeTick+0x21c>
   8c8b8:	0005303a 	rdctl	r2,status
   8c8bc:	e0bffd15 	stw	r2,-12(fp)
   8c8c0:	e0fffd17 	ldw	r3,-12(fp)
   8c8c4:	00bfff84 	movi	r2,-2
   8c8c8:	1884703a 	and	r2,r3,r2
   8c8cc:	1001703a 	wrctl	status,r2
   8c8d0:	e0bffd17 	ldw	r2,-12(fp)
   8c8d4:	e0bffe15 	stw	r2,-8(fp)
   8c8d8:	e0bffe17 	ldw	r2,-8(fp)
   8c8dc:	e0bffc15 	stw	r2,-16(fp)
   8c8e0:	e0bffa17 	ldw	r2,-24(fp)
   8c8e4:	10800b8b 	ldhu	r2,46(r2)
   8c8e8:	1005003a 	cmpeq	r2,r2,zero
   8c8ec:	1000301e 	bne	r2,zero,8c9b0 <OSTimeTick+0x1fc>
   8c8f0:	e0fffa17 	ldw	r3,-24(fp)
   8c8f4:	e0bffa17 	ldw	r2,-24(fp)
   8c8f8:	10800b8b 	ldhu	r2,46(r2)
   8c8fc:	10bfffc4 	addi	r2,r2,-1
   8c900:	18800b8d 	sth	r2,46(r3)
   8c904:	10bfffcc 	andi	r2,r2,65535
   8c908:	1004c03a 	cmpne	r2,r2,zero
   8c90c:	1000281e 	bne	r2,zero,8c9b0 <OSTimeTick+0x1fc>
   8c910:	e0bffa17 	ldw	r2,-24(fp)
   8c914:	10800c03 	ldbu	r2,48(r2)
   8c918:	10800dcc 	andi	r2,r2,55
   8c91c:	1005003a 	cmpeq	r2,r2,zero
   8c920:	10000a1e 	bne	r2,zero,8c94c <OSTimeTick+0x198>
   8c924:	e13ffa17 	ldw	r4,-24(fp)
   8c928:	e0bffa17 	ldw	r2,-24(fp)
   8c92c:	10c00c03 	ldbu	r3,48(r2)
   8c930:	00bff204 	movi	r2,-56
   8c934:	1884703a 	and	r2,r3,r2
   8c938:	20800c05 	stb	r2,48(r4)
   8c93c:	e0fffa17 	ldw	r3,-24(fp)
   8c940:	00800044 	movi	r2,1
   8c944:	18800c45 	stb	r2,49(r3)
   8c948:	00000206 	br	8c954 <OSTimeTick+0x1a0>
   8c94c:	e0bffa17 	ldw	r2,-24(fp)
   8c950:	10000c45 	stb	zero,49(r2)
   8c954:	e0bffa17 	ldw	r2,-24(fp)
   8c958:	10800c03 	ldbu	r2,48(r2)
   8c95c:	1080020c 	andi	r2,r2,8
   8c960:	1004c03a 	cmpne	r2,r2,zero
   8c964:	1000121e 	bne	r2,zero,8c9b0 <OSTimeTick+0x1fc>
   8c968:	e0bffa17 	ldw	r2,-24(fp)
   8c96c:	d0e70143 	ldbu	r3,-25595(gp)
   8c970:	10800d83 	ldbu	r2,54(r2)
   8c974:	1884b03a 	or	r2,r3,r2
   8c978:	d0a70145 	stb	r2,-25595(gp)
   8c97c:	e0bffa17 	ldw	r2,-24(fp)
   8c980:	10c00d03 	ldbu	r3,52(r2)
   8c984:	d0a70184 	addi	r2,gp,-25594
   8c988:	188b883a 	add	r5,r3,r2
   8c98c:	e0bffa17 	ldw	r2,-24(fp)
   8c990:	10c00d03 	ldbu	r3,52(r2)
   8c994:	d0a70184 	addi	r2,gp,-25594
   8c998:	1885883a 	add	r2,r3,r2
   8c99c:	e0fffa17 	ldw	r3,-24(fp)
   8c9a0:	11000003 	ldbu	r4,0(r2)
   8c9a4:	18800d43 	ldbu	r2,53(r3)
   8c9a8:	2084b03a 	or	r2,r4,r2
   8c9ac:	28800005 	stb	r2,0(r5)
   8c9b0:	e0bffa17 	ldw	r2,-24(fp)
   8c9b4:	10800517 	ldw	r2,20(r2)
   8c9b8:	e0bffa15 	stw	r2,-24(fp)
   8c9bc:	e0bffc17 	ldw	r2,-16(fp)
   8c9c0:	e0bffe15 	stw	r2,-8(fp)
   8c9c4:	e0bffe17 	ldw	r2,-8(fp)
   8c9c8:	1001703a 	wrctl	status,r2
   8c9cc:	003fb606 	br	8c8a8 <OSTimeTick+0xf4>
   8c9d0:	dfc00717 	ldw	ra,28(sp)
   8c9d4:	df000617 	ldw	fp,24(sp)
   8c9d8:	dec00804 	addi	sp,sp,32
   8c9dc:	f800283a 	ret

0008c9e0 <OSVersion>:
   8c9e0:	deffff04 	addi	sp,sp,-4
   8c9e4:	df000015 	stw	fp,0(sp)
   8c9e8:	d839883a 	mov	fp,sp
   8c9ec:	00804784 	movi	r2,286
   8c9f0:	df000017 	ldw	fp,0(sp)
   8c9f4:	dec00104 	addi	sp,sp,4
   8c9f8:	f800283a 	ret

0008c9fc <OS_Dummy>:
   8c9fc:	deffff04 	addi	sp,sp,-4
   8ca00:	df000015 	stw	fp,0(sp)
   8ca04:	d839883a 	mov	fp,sp
   8ca08:	df000017 	ldw	fp,0(sp)
   8ca0c:	dec00104 	addi	sp,sp,4
   8ca10:	f800283a 	ret

0008ca14 <OS_EventTaskRdy>:
   8ca14:	defff904 	addi	sp,sp,-28
   8ca18:	dfc00615 	stw	ra,24(sp)
   8ca1c:	df000515 	stw	fp,20(sp)
   8ca20:	df000504 	addi	fp,sp,20
   8ca24:	e13ffb15 	stw	r4,-20(fp)
   8ca28:	e17ffc15 	stw	r5,-16(fp)
   8ca2c:	e1bffd05 	stb	r6,-12(fp)
   8ca30:	e1fffd45 	stb	r7,-11(fp)
   8ca34:	00c00274 	movhi	r3,9
   8ca38:	18dbb304 	addi	r3,r3,28364
   8ca3c:	e0bffb17 	ldw	r2,-20(fp)
   8ca40:	10800283 	ldbu	r2,10(r2)
   8ca44:	1885883a 	add	r2,r3,r2
   8ca48:	10800003 	ldbu	r2,0(r2)
   8ca4c:	e0bfff05 	stb	r2,-4(fp)
   8ca50:	01000274 	movhi	r4,9
   8ca54:	211bb304 	addi	r4,r4,28364
   8ca58:	e0fffb17 	ldw	r3,-20(fp)
   8ca5c:	e0bfff03 	ldbu	r2,-4(fp)
   8ca60:	10c5883a 	add	r2,r2,r3
   8ca64:	10800204 	addi	r2,r2,8
   8ca68:	108000c3 	ldbu	r2,3(r2)
   8ca6c:	2085883a 	add	r2,r4,r2
   8ca70:	10800003 	ldbu	r2,0(r2)
   8ca74:	e0bfff45 	stb	r2,-3(fp)
   8ca78:	e0bfff03 	ldbu	r2,-4(fp)
   8ca7c:	100490fa 	slli	r2,r2,3
   8ca80:	1007883a 	mov	r3,r2
   8ca84:	e0bfff43 	ldbu	r2,-3(fp)
   8ca88:	1885883a 	add	r2,r3,r2
   8ca8c:	e0bfff85 	stb	r2,-2(fp)
   8ca90:	00c002b4 	movhi	r3,10
   8ca94:	18d65b04 	addi	r3,r3,22892
   8ca98:	e0bfff83 	ldbu	r2,-2(fp)
   8ca9c:	100490ba 	slli	r2,r2,2
   8caa0:	10c5883a 	add	r2,r2,r3
   8caa4:	10800017 	ldw	r2,0(r2)
   8caa8:	e0bffe15 	stw	r2,-8(fp)
   8caac:	e0bffe17 	ldw	r2,-8(fp)
   8cab0:	10000b8d 	sth	zero,46(r2)
   8cab4:	e0fffe17 	ldw	r3,-8(fp)
   8cab8:	e0bffc17 	ldw	r2,-16(fp)
   8cabc:	18800915 	stw	r2,36(r3)
   8cac0:	e13ffe17 	ldw	r4,-8(fp)
   8cac4:	e0fffe17 	ldw	r3,-8(fp)
   8cac8:	e0bffd03 	ldbu	r2,-12(fp)
   8cacc:	0084303a 	nor	r2,zero,r2
   8cad0:	18c00c03 	ldbu	r3,48(r3)
   8cad4:	1884703a 	and	r2,r3,r2
   8cad8:	20800c05 	stb	r2,48(r4)
   8cadc:	e0fffe17 	ldw	r3,-8(fp)
   8cae0:	e0bffd43 	ldbu	r2,-11(fp)
   8cae4:	18800c45 	stb	r2,49(r3)
   8cae8:	e0bffe17 	ldw	r2,-8(fp)
   8caec:	10800c03 	ldbu	r2,48(r2)
   8caf0:	1080020c 	andi	r2,r2,8
   8caf4:	1004c03a 	cmpne	r2,r2,zero
   8caf8:	1000101e 	bne	r2,zero,8cb3c <OS_EventTaskRdy+0x128>
   8cafc:	e0bffe17 	ldw	r2,-8(fp)
   8cb00:	d0e70143 	ldbu	r3,-25595(gp)
   8cb04:	10800d83 	ldbu	r2,54(r2)
   8cb08:	1884b03a 	or	r2,r3,r2
   8cb0c:	d0a70145 	stb	r2,-25595(gp)
   8cb10:	e0ffff03 	ldbu	r3,-4(fp)
   8cb14:	d0a70184 	addi	r2,gp,-25594
   8cb18:	188b883a 	add	r5,r3,r2
   8cb1c:	e0ffff03 	ldbu	r3,-4(fp)
   8cb20:	d0a70184 	addi	r2,gp,-25594
   8cb24:	1885883a 	add	r2,r3,r2
   8cb28:	e0fffe17 	ldw	r3,-8(fp)
   8cb2c:	11000003 	ldbu	r4,0(r2)
   8cb30:	18800d43 	ldbu	r2,53(r3)
   8cb34:	2084b03a 	or	r2,r4,r2
   8cb38:	28800005 	stb	r2,0(r5)
   8cb3c:	e13ffe17 	ldw	r4,-8(fp)
   8cb40:	e17ffb17 	ldw	r5,-20(fp)
   8cb44:	008cda40 	call	8cda4 <OS_EventTaskRemove>
   8cb48:	e0bffe17 	ldw	r2,-8(fp)
   8cb4c:	10800817 	ldw	r2,32(r2)
   8cb50:	1005003a 	cmpeq	r2,r2,zero
   8cb54:	1000071e 	bne	r2,zero,8cb74 <OS_EventTaskRdy+0x160>
   8cb58:	e0bffe17 	ldw	r2,-8(fp)
   8cb5c:	e13ffe17 	ldw	r4,-8(fp)
   8cb60:	11400817 	ldw	r5,32(r2)
   8cb64:	008ce440 	call	8ce44 <OS_EventTaskRemoveMulti>
   8cb68:	e0fffe17 	ldw	r3,-8(fp)
   8cb6c:	e0bffb17 	ldw	r2,-20(fp)
   8cb70:	18800715 	stw	r2,28(r3)
   8cb74:	e0bfff83 	ldbu	r2,-2(fp)
   8cb78:	dfc00617 	ldw	ra,24(sp)
   8cb7c:	df000517 	ldw	fp,20(sp)
   8cb80:	dec00704 	addi	sp,sp,28
   8cb84:	f800283a 	ret

0008cb88 <OS_EventTaskWait>:
   8cb88:	defffd04 	addi	sp,sp,-12
   8cb8c:	df000215 	stw	fp,8(sp)
   8cb90:	df000204 	addi	fp,sp,8
   8cb94:	e13ffe15 	stw	r4,-8(fp)
   8cb98:	d0e70417 	ldw	r3,-25584(gp)
   8cb9c:	e0bffe17 	ldw	r2,-8(fp)
   8cba0:	18800715 	stw	r2,28(r3)
   8cba4:	e0fffe17 	ldw	r3,-8(fp)
   8cba8:	d0a70417 	ldw	r2,-25584(gp)
   8cbac:	10800d03 	ldbu	r2,52(r2)
   8cbb0:	10c5883a 	add	r2,r2,r3
   8cbb4:	11400204 	addi	r5,r2,8
   8cbb8:	e0fffe17 	ldw	r3,-8(fp)
   8cbbc:	d0a70417 	ldw	r2,-25584(gp)
   8cbc0:	10800d03 	ldbu	r2,52(r2)
   8cbc4:	10c5883a 	add	r2,r2,r3
   8cbc8:	10800204 	addi	r2,r2,8
   8cbcc:	d0e70417 	ldw	r3,-25584(gp)
   8cbd0:	110000c3 	ldbu	r4,3(r2)
   8cbd4:	18800d43 	ldbu	r2,53(r3)
   8cbd8:	2084b03a 	or	r2,r4,r2
   8cbdc:	288000c5 	stb	r2,3(r5)
   8cbe0:	e17ffe17 	ldw	r5,-8(fp)
   8cbe4:	e0bffe17 	ldw	r2,-8(fp)
   8cbe8:	d0e70417 	ldw	r3,-25584(gp)
   8cbec:	11000283 	ldbu	r4,10(r2)
   8cbf0:	18800d83 	ldbu	r2,54(r3)
   8cbf4:	2084b03a 	or	r2,r4,r2
   8cbf8:	28800285 	stb	r2,10(r5)
   8cbfc:	d0a70417 	ldw	r2,-25584(gp)
   8cc00:	10800d03 	ldbu	r2,52(r2)
   8cc04:	e0bfff05 	stb	r2,-4(fp)
   8cc08:	e0ffff03 	ldbu	r3,-4(fp)
   8cc0c:	d0a70184 	addi	r2,gp,-25594
   8cc10:	1889883a 	add	r4,r3,r2
   8cc14:	e0ffff03 	ldbu	r3,-4(fp)
   8cc18:	d0a70184 	addi	r2,gp,-25594
   8cc1c:	1887883a 	add	r3,r3,r2
   8cc20:	d0a70417 	ldw	r2,-25584(gp)
   8cc24:	10800d43 	ldbu	r2,53(r2)
   8cc28:	0084303a 	nor	r2,zero,r2
   8cc2c:	18c00003 	ldbu	r3,0(r3)
   8cc30:	1884703a 	and	r2,r3,r2
   8cc34:	20800005 	stb	r2,0(r4)
   8cc38:	e0ffff03 	ldbu	r3,-4(fp)
   8cc3c:	d0a70184 	addi	r2,gp,-25594
   8cc40:	1885883a 	add	r2,r3,r2
   8cc44:	10800003 	ldbu	r2,0(r2)
   8cc48:	1004c03a 	cmpne	r2,r2,zero
   8cc4c:	1000061e 	bne	r2,zero,8cc68 <OS_EventTaskWait+0xe0>
   8cc50:	d0a70417 	ldw	r2,-25584(gp)
   8cc54:	10800d83 	ldbu	r2,54(r2)
   8cc58:	0084303a 	nor	r2,zero,r2
   8cc5c:	d0e70143 	ldbu	r3,-25595(gp)
   8cc60:	1884703a 	and	r2,r3,r2
   8cc64:	d0a70145 	stb	r2,-25595(gp)
   8cc68:	df000217 	ldw	fp,8(sp)
   8cc6c:	dec00304 	addi	sp,sp,12
   8cc70:	f800283a 	ret

0008cc74 <OS_EventTaskWaitMulti>:
   8cc74:	defffb04 	addi	sp,sp,-20
   8cc78:	df000415 	stw	fp,16(sp)
   8cc7c:	df000404 	addi	fp,sp,16
   8cc80:	e13ffc15 	stw	r4,-16(fp)
   8cc84:	d0a70417 	ldw	r2,-25584(gp)
   8cc88:	10000715 	stw	zero,28(r2)
   8cc8c:	d0e70417 	ldw	r3,-25584(gp)
   8cc90:	e0bffc17 	ldw	r2,-16(fp)
   8cc94:	18800815 	stw	r2,32(r3)
   8cc98:	e0bffc17 	ldw	r2,-16(fp)
   8cc9c:	e0bffd15 	stw	r2,-12(fp)
   8cca0:	e0bffd17 	ldw	r2,-12(fp)
   8cca4:	10800017 	ldw	r2,0(r2)
   8cca8:	e0bffe15 	stw	r2,-8(fp)
   8ccac:	e0bffe17 	ldw	r2,-8(fp)
   8ccb0:	1005003a 	cmpeq	r2,r2,zero
   8ccb4:	10001d1e 	bne	r2,zero,8cd2c <OS_EventTaskWaitMulti+0xb8>
   8ccb8:	e0fffe17 	ldw	r3,-8(fp)
   8ccbc:	d0a70417 	ldw	r2,-25584(gp)
   8ccc0:	10800d03 	ldbu	r2,52(r2)
   8ccc4:	10c5883a 	add	r2,r2,r3
   8ccc8:	11400204 	addi	r5,r2,8
   8cccc:	e0fffe17 	ldw	r3,-8(fp)
   8ccd0:	d0a70417 	ldw	r2,-25584(gp)
   8ccd4:	10800d03 	ldbu	r2,52(r2)
   8ccd8:	10c5883a 	add	r2,r2,r3
   8ccdc:	10800204 	addi	r2,r2,8
   8cce0:	d0e70417 	ldw	r3,-25584(gp)
   8cce4:	110000c3 	ldbu	r4,3(r2)
   8cce8:	18800d43 	ldbu	r2,53(r3)
   8ccec:	2084b03a 	or	r2,r4,r2
   8ccf0:	288000c5 	stb	r2,3(r5)
   8ccf4:	e17ffe17 	ldw	r5,-8(fp)
   8ccf8:	e0bffe17 	ldw	r2,-8(fp)
   8ccfc:	d0e70417 	ldw	r3,-25584(gp)
   8cd00:	11000283 	ldbu	r4,10(r2)
   8cd04:	18800d83 	ldbu	r2,54(r3)
   8cd08:	2084b03a 	or	r2,r4,r2
   8cd0c:	28800285 	stb	r2,10(r5)
   8cd10:	e0bffd17 	ldw	r2,-12(fp)
   8cd14:	10800104 	addi	r2,r2,4
   8cd18:	e0bffd15 	stw	r2,-12(fp)
   8cd1c:	e0bffd17 	ldw	r2,-12(fp)
   8cd20:	10800017 	ldw	r2,0(r2)
   8cd24:	e0bffe15 	stw	r2,-8(fp)
   8cd28:	003fe006 	br	8ccac <OS_EventTaskWaitMulti+0x38>
   8cd2c:	d0a70417 	ldw	r2,-25584(gp)
   8cd30:	10800d03 	ldbu	r2,52(r2)
   8cd34:	e0bfff05 	stb	r2,-4(fp)
   8cd38:	e0ffff03 	ldbu	r3,-4(fp)
   8cd3c:	d0a70184 	addi	r2,gp,-25594
   8cd40:	1889883a 	add	r4,r3,r2
   8cd44:	e0ffff03 	ldbu	r3,-4(fp)
   8cd48:	d0a70184 	addi	r2,gp,-25594
   8cd4c:	1887883a 	add	r3,r3,r2
   8cd50:	d0a70417 	ldw	r2,-25584(gp)
   8cd54:	10800d43 	ldbu	r2,53(r2)
   8cd58:	0084303a 	nor	r2,zero,r2
   8cd5c:	18c00003 	ldbu	r3,0(r3)
   8cd60:	1884703a 	and	r2,r3,r2
   8cd64:	20800005 	stb	r2,0(r4)
   8cd68:	e0ffff03 	ldbu	r3,-4(fp)
   8cd6c:	d0a70184 	addi	r2,gp,-25594
   8cd70:	1885883a 	add	r2,r3,r2
   8cd74:	10800003 	ldbu	r2,0(r2)
   8cd78:	1004c03a 	cmpne	r2,r2,zero
   8cd7c:	1000061e 	bne	r2,zero,8cd98 <OS_EventTaskWaitMulti+0x124>
   8cd80:	d0a70417 	ldw	r2,-25584(gp)
   8cd84:	10800d83 	ldbu	r2,54(r2)
   8cd88:	0084303a 	nor	r2,zero,r2
   8cd8c:	d0e70143 	ldbu	r3,-25595(gp)
   8cd90:	1884703a 	and	r2,r3,r2
   8cd94:	d0a70145 	stb	r2,-25595(gp)
   8cd98:	df000417 	ldw	fp,16(sp)
   8cd9c:	dec00504 	addi	sp,sp,20
   8cda0:	f800283a 	ret

0008cda4 <OS_EventTaskRemove>:
   8cda4:	defffc04 	addi	sp,sp,-16
   8cda8:	df000315 	stw	fp,12(sp)
   8cdac:	df000304 	addi	fp,sp,12
   8cdb0:	e13ffd15 	stw	r4,-12(fp)
   8cdb4:	e17ffe15 	stw	r5,-8(fp)
   8cdb8:	e0bffd17 	ldw	r2,-12(fp)
   8cdbc:	10800d03 	ldbu	r2,52(r2)
   8cdc0:	e0bfff05 	stb	r2,-4(fp)
   8cdc4:	e0fffe17 	ldw	r3,-8(fp)
   8cdc8:	e0bfff03 	ldbu	r2,-4(fp)
   8cdcc:	10c5883a 	add	r2,r2,r3
   8cdd0:	11000204 	addi	r4,r2,8
   8cdd4:	e0fffe17 	ldw	r3,-8(fp)
   8cdd8:	e0bfff03 	ldbu	r2,-4(fp)
   8cddc:	10c5883a 	add	r2,r2,r3
   8cde0:	10c00204 	addi	r3,r2,8
   8cde4:	e0bffd17 	ldw	r2,-12(fp)
   8cde8:	10800d43 	ldbu	r2,53(r2)
   8cdec:	0084303a 	nor	r2,zero,r2
   8cdf0:	18c000c3 	ldbu	r3,3(r3)
   8cdf4:	1884703a 	and	r2,r3,r2
   8cdf8:	208000c5 	stb	r2,3(r4)
   8cdfc:	e0fffe17 	ldw	r3,-8(fp)
   8ce00:	e0bfff03 	ldbu	r2,-4(fp)
   8ce04:	10c5883a 	add	r2,r2,r3
   8ce08:	10800204 	addi	r2,r2,8
   8ce0c:	108000c3 	ldbu	r2,3(r2)
   8ce10:	1004c03a 	cmpne	r2,r2,zero
   8ce14:	1000081e 	bne	r2,zero,8ce38 <OS_EventTaskRemove+0x94>
   8ce18:	e13ffe17 	ldw	r4,-8(fp)
   8ce1c:	e0fffe17 	ldw	r3,-8(fp)
   8ce20:	e0bffd17 	ldw	r2,-12(fp)
   8ce24:	10800d83 	ldbu	r2,54(r2)
   8ce28:	0084303a 	nor	r2,zero,r2
   8ce2c:	18c00283 	ldbu	r3,10(r3)
   8ce30:	1884703a 	and	r2,r3,r2
   8ce34:	20800285 	stb	r2,10(r4)
   8ce38:	df000317 	ldw	fp,12(sp)
   8ce3c:	dec00404 	addi	sp,sp,16
   8ce40:	f800283a 	ret

0008ce44 <OS_EventTaskRemoveMulti>:
   8ce44:	defffa04 	addi	sp,sp,-24
   8ce48:	df000515 	stw	fp,20(sp)
   8ce4c:	df000504 	addi	fp,sp,20
   8ce50:	e13ffb15 	stw	r4,-20(fp)
   8ce54:	e17ffc15 	stw	r5,-16(fp)
   8ce58:	e0bffb17 	ldw	r2,-20(fp)
   8ce5c:	10800d03 	ldbu	r2,52(r2)
   8ce60:	e0bfff05 	stb	r2,-4(fp)
   8ce64:	e0bffb17 	ldw	r2,-20(fp)
   8ce68:	10800d83 	ldbu	r2,54(r2)
   8ce6c:	e0bfff45 	stb	r2,-3(fp)
   8ce70:	e0bffb17 	ldw	r2,-20(fp)
   8ce74:	10800d43 	ldbu	r2,53(r2)
   8ce78:	e0bfff85 	stb	r2,-2(fp)
   8ce7c:	e0bffc17 	ldw	r2,-16(fp)
   8ce80:	e0bffd15 	stw	r2,-12(fp)
   8ce84:	e0bffd17 	ldw	r2,-12(fp)
   8ce88:	10800017 	ldw	r2,0(r2)
   8ce8c:	e0bffe15 	stw	r2,-8(fp)
   8ce90:	e0bffe17 	ldw	r2,-8(fp)
   8ce94:	1005003a 	cmpeq	r2,r2,zero
   8ce98:	1000221e 	bne	r2,zero,8cf24 <OS_EventTaskRemoveMulti+0xe0>
   8ce9c:	e0fffe17 	ldw	r3,-8(fp)
   8cea0:	e0bfff03 	ldbu	r2,-4(fp)
   8cea4:	10c5883a 	add	r2,r2,r3
   8cea8:	11000204 	addi	r4,r2,8
   8ceac:	e0fffe17 	ldw	r3,-8(fp)
   8ceb0:	e0bfff03 	ldbu	r2,-4(fp)
   8ceb4:	10c5883a 	add	r2,r2,r3
   8ceb8:	10c00204 	addi	r3,r2,8
   8cebc:	e0bfff83 	ldbu	r2,-2(fp)
   8cec0:	0084303a 	nor	r2,zero,r2
   8cec4:	18c000c3 	ldbu	r3,3(r3)
   8cec8:	1884703a 	and	r2,r3,r2
   8cecc:	208000c5 	stb	r2,3(r4)
   8ced0:	e0fffe17 	ldw	r3,-8(fp)
   8ced4:	e0bfff03 	ldbu	r2,-4(fp)
   8ced8:	10c5883a 	add	r2,r2,r3
   8cedc:	10800204 	addi	r2,r2,8
   8cee0:	108000c3 	ldbu	r2,3(r2)
   8cee4:	1004c03a 	cmpne	r2,r2,zero
   8cee8:	1000071e 	bne	r2,zero,8cf08 <OS_EventTaskRemoveMulti+0xc4>
   8ceec:	e13ffe17 	ldw	r4,-8(fp)
   8cef0:	e0fffe17 	ldw	r3,-8(fp)
   8cef4:	e0bfff43 	ldbu	r2,-3(fp)
   8cef8:	0084303a 	nor	r2,zero,r2
   8cefc:	18c00283 	ldbu	r3,10(r3)
   8cf00:	1884703a 	and	r2,r3,r2
   8cf04:	20800285 	stb	r2,10(r4)
   8cf08:	e0bffd17 	ldw	r2,-12(fp)
   8cf0c:	10800104 	addi	r2,r2,4
   8cf10:	e0bffd15 	stw	r2,-12(fp)
   8cf14:	e0bffd17 	ldw	r2,-12(fp)
   8cf18:	10800017 	ldw	r2,0(r2)
   8cf1c:	e0bffe15 	stw	r2,-8(fp)
   8cf20:	003fdb06 	br	8ce90 <OS_EventTaskRemoveMulti+0x4c>
   8cf24:	df000517 	ldw	fp,20(sp)
   8cf28:	dec00604 	addi	sp,sp,24
   8cf2c:	f800283a 	ret

0008cf30 <OS_EventWaitListInit>:
   8cf30:	defffc04 	addi	sp,sp,-16
   8cf34:	df000315 	stw	fp,12(sp)
   8cf38:	df000304 	addi	fp,sp,12
   8cf3c:	e13ffd15 	stw	r4,-12(fp)
   8cf40:	e0bffd17 	ldw	r2,-12(fp)
   8cf44:	10000285 	stb	zero,10(r2)
   8cf48:	e0bffd17 	ldw	r2,-12(fp)
   8cf4c:	108002c4 	addi	r2,r2,11
   8cf50:	e0bffe15 	stw	r2,-8(fp)
   8cf54:	e03fff05 	stb	zero,-4(fp)
   8cf58:	e0bfff03 	ldbu	r2,-4(fp)
   8cf5c:	108000e8 	cmpgeui	r2,r2,3
   8cf60:	10000a1e 	bne	r2,zero,8cf8c <OS_EventWaitListInit+0x5c>
   8cf64:	e13ffe04 	addi	r4,fp,-8
   8cf68:	20800017 	ldw	r2,0(r4)
   8cf6c:	1007883a 	mov	r3,r2
   8cf70:	18000005 	stb	zero,0(r3)
   8cf74:	10800044 	addi	r2,r2,1
   8cf78:	20800015 	stw	r2,0(r4)
   8cf7c:	e0bfff03 	ldbu	r2,-4(fp)
   8cf80:	10800044 	addi	r2,r2,1
   8cf84:	e0bfff05 	stb	r2,-4(fp)
   8cf88:	003ff306 	br	8cf58 <OS_EventWaitListInit+0x28>
   8cf8c:	df000317 	ldw	fp,12(sp)
   8cf90:	dec00404 	addi	sp,sp,16
   8cf94:	f800283a 	ret

0008cf98 <OS_InitEventList>:
   8cf98:	defffb04 	addi	sp,sp,-20
   8cf9c:	dfc00415 	stw	ra,16(sp)
   8cfa0:	df000315 	stw	fp,12(sp)
   8cfa4:	df000304 	addi	fp,sp,12
   8cfa8:	010002b4 	movhi	r4,10
   8cfac:	21124704 	addi	r4,r4,18716
   8cfb0:	0142d004 	movi	r5,2880
   8cfb4:	008d2e80 	call	8d2e8 <OS_MemClr>
   8cfb8:	008002b4 	movhi	r2,10
   8cfbc:	10924704 	addi	r2,r2,18716
   8cfc0:	e0bffe15 	stw	r2,-8(fp)
   8cfc4:	008002b4 	movhi	r2,10
   8cfc8:	10925304 	addi	r2,r2,18764
   8cfcc:	e0bfff15 	stw	r2,-4(fp)
   8cfd0:	e03ffd0d 	sth	zero,-12(fp)
   8cfd4:	e0bffd0b 	ldhu	r2,-12(fp)
   8cfd8:	10800ee8 	cmpgeui	r2,r2,59
   8cfdc:	1000141e 	bne	r2,zero,8d030 <OS_InitEventList+0x98>
   8cfe0:	e0bffe17 	ldw	r2,-8(fp)
   8cfe4:	10000005 	stb	zero,0(r2)
   8cfe8:	e0fffe17 	ldw	r3,-8(fp)
   8cfec:	e0bfff17 	ldw	r2,-4(fp)
   8cff0:	18800115 	stw	r2,4(r3)
   8cff4:	e0fffe17 	ldw	r3,-8(fp)
   8cff8:	00800fc4 	movi	r2,63
   8cffc:	18800385 	stb	r2,14(r3)
   8d000:	e0bffe17 	ldw	r2,-8(fp)
   8d004:	100003c5 	stb	zero,15(r2)
   8d008:	e0bffe17 	ldw	r2,-8(fp)
   8d00c:	10800c04 	addi	r2,r2,48
   8d010:	e0bffe15 	stw	r2,-8(fp)
   8d014:	e0bfff17 	ldw	r2,-4(fp)
   8d018:	10800c04 	addi	r2,r2,48
   8d01c:	e0bfff15 	stw	r2,-4(fp)
   8d020:	e0bffd0b 	ldhu	r2,-12(fp)
   8d024:	10800044 	addi	r2,r2,1
   8d028:	e0bffd0d 	sth	r2,-12(fp)
   8d02c:	003fe906 	br	8cfd4 <OS_InitEventList+0x3c>
   8d030:	e0bffe17 	ldw	r2,-8(fp)
   8d034:	10000005 	stb	zero,0(r2)
   8d038:	e0bffe17 	ldw	r2,-8(fp)
   8d03c:	10000115 	stw	zero,4(r2)
   8d040:	e0fffe17 	ldw	r3,-8(fp)
   8d044:	00800fc4 	movi	r2,63
   8d048:	18800385 	stb	r2,14(r3)
   8d04c:	e0bffe17 	ldw	r2,-8(fp)
   8d050:	100003c5 	stb	zero,15(r2)
   8d054:	008002b4 	movhi	r2,10
   8d058:	10924704 	addi	r2,r2,18716
   8d05c:	d0a6fb15 	stw	r2,-25620(gp)
   8d060:	dfc00417 	ldw	ra,16(sp)
   8d064:	df000317 	ldw	fp,12(sp)
   8d068:	dec00504 	addi	sp,sp,20
   8d06c:	f800283a 	ret

0008d070 <OS_InitMisc>:
   8d070:	deffff04 	addi	sp,sp,-4
   8d074:	df000015 	stw	fp,0(sp)
   8d078:	d839883a 	mov	fp,sp
   8d07c:	d0270b15 	stw	zero,-25556(gp)
   8d080:	d0270045 	stb	zero,-25599(gp)
   8d084:	d0270085 	stb	zero,-25598(gp)
   8d088:	d0270285 	stb	zero,-25590(gp)
   8d08c:	d0270245 	stb	zero,-25591(gp)
   8d090:	d026fa15 	stw	zero,-25624(gp)
   8d094:	d0270315 	stw	zero,-25588(gp)
   8d098:	d026ff15 	stw	zero,-25604(gp)
   8d09c:	d026fe15 	stw	zero,-25608(gp)
   8d0a0:	d0270005 	stb	zero,-25600(gp)
   8d0a4:	df000017 	ldw	fp,0(sp)
   8d0a8:	dec00104 	addi	sp,sp,4
   8d0ac:	f800283a 	ret

0008d0b0 <OS_InitRdyList>:
   8d0b0:	defffd04 	addi	sp,sp,-12
   8d0b4:	df000215 	stw	fp,8(sp)
   8d0b8:	df000204 	addi	fp,sp,8
   8d0bc:	d0270145 	stb	zero,-25595(gp)
   8d0c0:	d0a70184 	addi	r2,gp,-25594
   8d0c4:	e0bfff15 	stw	r2,-4(fp)
   8d0c8:	e03ffe05 	stb	zero,-8(fp)
   8d0cc:	e0bffe03 	ldbu	r2,-8(fp)
   8d0d0:	108000e8 	cmpgeui	r2,r2,3
   8d0d4:	10000a1e 	bne	r2,zero,8d100 <OS_InitRdyList+0x50>
   8d0d8:	e13fff04 	addi	r4,fp,-4
   8d0dc:	20800017 	ldw	r2,0(r4)
   8d0e0:	1007883a 	mov	r3,r2
   8d0e4:	18000005 	stb	zero,0(r3)
   8d0e8:	10800044 	addi	r2,r2,1
   8d0ec:	20800015 	stw	r2,0(r4)
   8d0f0:	e0bffe03 	ldbu	r2,-8(fp)
   8d0f4:	10800044 	addi	r2,r2,1
   8d0f8:	e0bffe05 	stb	r2,-8(fp)
   8d0fc:	003ff306 	br	8d0cc <OS_InitRdyList+0x1c>
   8d100:	d02700c5 	stb	zero,-25597(gp)
   8d104:	d0270105 	stb	zero,-25596(gp)
   8d108:	d0270615 	stw	zero,-25576(gp)
   8d10c:	d0270415 	stw	zero,-25584(gp)
   8d110:	df000217 	ldw	fp,8(sp)
   8d114:	dec00304 	addi	sp,sp,12
   8d118:	f800283a 	ret

0008d11c <OS_InitTaskIdle>:
   8d11c:	defff804 	addi	sp,sp,-32
   8d120:	dfc00715 	stw	ra,28(sp)
   8d124:	df000615 	stw	fp,24(sp)
   8d128:	df000604 	addi	fp,sp,24
   8d12c:	00bfffd4 	movui	r2,65535
   8d130:	d8800015 	stw	r2,0(sp)
   8d134:	008002b4 	movhi	r2,10
   8d138:	10904704 	addi	r2,r2,16668
   8d13c:	d8800115 	stw	r2,4(sp)
   8d140:	00808004 	movi	r2,512
   8d144:	d8800215 	stw	r2,8(sp)
   8d148:	d8000315 	stw	zero,12(sp)
   8d14c:	008000c4 	movi	r2,3
   8d150:	d8800415 	stw	r2,16(sp)
   8d154:	01000274 	movhi	r4,9
   8d158:	21356404 	addi	r4,r4,-10864
   8d15c:	000b883a 	mov	r5,zero
   8d160:	018002b4 	movhi	r6,10
   8d164:	31924604 	addi	r6,r6,18712
   8d168:	01c00504 	movi	r7,20
   8d16c:	0091e480 	call	91e48 <OSTaskCreateExt>
   8d170:	01000504 	movi	r4,20
   8d174:	01400274 	movhi	r5,9
   8d178:	295bf304 	addi	r5,r5,28620
   8d17c:	e1bfff04 	addi	r6,fp,-4
   8d180:	009268c0 	call	9268c <OSTaskNameSet>
   8d184:	dfc00717 	ldw	ra,28(sp)
   8d188:	df000617 	ldw	fp,24(sp)
   8d18c:	dec00804 	addi	sp,sp,32
   8d190:	f800283a 	ret

0008d194 <OS_InitTaskStat>:
   8d194:	defff804 	addi	sp,sp,-32
   8d198:	dfc00715 	stw	ra,28(sp)
   8d19c:	df000615 	stw	fp,24(sp)
   8d1a0:	df000604 	addi	fp,sp,24
   8d1a4:	00bfff94 	movui	r2,65534
   8d1a8:	d8800015 	stw	r2,0(sp)
   8d1ac:	008002b4 	movhi	r2,10
   8d1b0:	108dcf04 	addi	r2,r2,14140
   8d1b4:	d8800115 	stw	r2,4(sp)
   8d1b8:	00808004 	movi	r2,512
   8d1bc:	d8800215 	stw	r2,8(sp)
   8d1c0:	d8000315 	stw	zero,12(sp)
   8d1c4:	008000c4 	movi	r2,3
   8d1c8:	d8800415 	stw	r2,16(sp)
   8d1cc:	01000274 	movhi	r4,9
   8d1d0:	21357d04 	addi	r4,r4,-10764
   8d1d4:	000b883a 	mov	r5,zero
   8d1d8:	018002b4 	movhi	r6,10
   8d1dc:	318fce04 	addi	r6,r6,16184
   8d1e0:	01c004c4 	movi	r7,19
   8d1e4:	0091e480 	call	91e48 <OSTaskCreateExt>
   8d1e8:	010004c4 	movi	r4,19
   8d1ec:	01400274 	movhi	r5,9
   8d1f0:	295bf704 	addi	r5,r5,28636
   8d1f4:	e1bfff04 	addi	r6,fp,-4
   8d1f8:	009268c0 	call	9268c <OSTaskNameSet>
   8d1fc:	dfc00717 	ldw	ra,28(sp)
   8d200:	df000617 	ldw	fp,24(sp)
   8d204:	dec00804 	addi	sp,sp,32
   8d208:	f800283a 	ret

0008d20c <OS_InitTCBList>:
   8d20c:	defffb04 	addi	sp,sp,-20
   8d210:	dfc00415 	stw	ra,16(sp)
   8d214:	df000315 	stw	fp,12(sp)
   8d218:	df000304 	addi	fp,sp,12
   8d21c:	010002b4 	movhi	r4,10
   8d220:	21151704 	addi	r4,r4,21596
   8d224:	01414404 	movi	r5,1296
   8d228:	008d2e80 	call	8d2e8 <OS_MemClr>
   8d22c:	010002b4 	movhi	r4,10
   8d230:	21165b04 	addi	r4,r4,22892
   8d234:	01401504 	movi	r5,84
   8d238:	008d2e80 	call	8d2e8 <OS_MemClr>
   8d23c:	008002b4 	movhi	r2,10
   8d240:	10951704 	addi	r2,r2,21596
   8d244:	e0bffe15 	stw	r2,-8(fp)
   8d248:	008002b4 	movhi	r2,10
   8d24c:	10953204 	addi	r2,r2,21704
   8d250:	e0bfff15 	stw	r2,-4(fp)
   8d254:	e03ffd05 	stb	zero,-12(fp)
   8d258:	e0bffd03 	ldbu	r2,-12(fp)
   8d25c:	108002e8 	cmpgeui	r2,r2,11
   8d260:	1000121e 	bne	r2,zero,8d2ac <OS_InitTCBList+0xa0>
   8d264:	e0fffe17 	ldw	r3,-8(fp)
   8d268:	e0bfff17 	ldw	r2,-4(fp)
   8d26c:	18800515 	stw	r2,20(r3)
   8d270:	e0fffe17 	ldw	r3,-8(fp)
   8d274:	00800fc4 	movi	r2,63
   8d278:	18801305 	stb	r2,76(r3)
   8d27c:	e0bffe17 	ldw	r2,-8(fp)
   8d280:	10001345 	stb	zero,77(r2)
   8d284:	e0bffe17 	ldw	r2,-8(fp)
   8d288:	10801b04 	addi	r2,r2,108
   8d28c:	e0bffe15 	stw	r2,-8(fp)
   8d290:	e0bfff17 	ldw	r2,-4(fp)
   8d294:	10801b04 	addi	r2,r2,108
   8d298:	e0bfff15 	stw	r2,-4(fp)
   8d29c:	e0bffd03 	ldbu	r2,-12(fp)
   8d2a0:	10800044 	addi	r2,r2,1
   8d2a4:	e0bffd05 	stb	r2,-12(fp)
   8d2a8:	003feb06 	br	8d258 <OS_InitTCBList+0x4c>
   8d2ac:	e0bffe17 	ldw	r2,-8(fp)
   8d2b0:	10000515 	stw	zero,20(r2)
   8d2b4:	e0fffe17 	ldw	r3,-8(fp)
   8d2b8:	00800fc4 	movi	r2,63
   8d2bc:	18801305 	stb	r2,76(r3)
   8d2c0:	e0bffe17 	ldw	r2,-8(fp)
   8d2c4:	10001345 	stb	zero,77(r2)
   8d2c8:	d0270715 	stw	zero,-25572(gp)
   8d2cc:	008002b4 	movhi	r2,10
   8d2d0:	10951704 	addi	r2,r2,21596
   8d2d4:	d0a70515 	stw	r2,-25580(gp)
   8d2d8:	dfc00417 	ldw	ra,16(sp)
   8d2dc:	df000317 	ldw	fp,12(sp)
   8d2e0:	dec00504 	addi	sp,sp,20
   8d2e4:	f800283a 	ret

0008d2e8 <OS_MemClr>:
   8d2e8:	defffd04 	addi	sp,sp,-12
   8d2ec:	df000215 	stw	fp,8(sp)
   8d2f0:	df000204 	addi	fp,sp,8
   8d2f4:	e13ffe15 	stw	r4,-8(fp)
   8d2f8:	e17fff0d 	sth	r5,-4(fp)
   8d2fc:	e0bfff0b 	ldhu	r2,-4(fp)
   8d300:	1005003a 	cmpeq	r2,r2,zero
   8d304:	1000091e 	bne	r2,zero,8d32c <OS_MemClr+0x44>
   8d308:	e0bffe17 	ldw	r2,-8(fp)
   8d30c:	1007883a 	mov	r3,r2
   8d310:	18000005 	stb	zero,0(r3)
   8d314:	10800044 	addi	r2,r2,1
   8d318:	e0bffe15 	stw	r2,-8(fp)
   8d31c:	e0bfff0b 	ldhu	r2,-4(fp)
   8d320:	10bfffc4 	addi	r2,r2,-1
   8d324:	e0bfff0d 	sth	r2,-4(fp)
   8d328:	003ff406 	br	8d2fc <OS_MemClr+0x14>
   8d32c:	df000217 	ldw	fp,8(sp)
   8d330:	dec00304 	addi	sp,sp,12
   8d334:	f800283a 	ret

0008d338 <OS_MemCopy>:
   8d338:	defffc04 	addi	sp,sp,-16
   8d33c:	df000315 	stw	fp,12(sp)
   8d340:	df000304 	addi	fp,sp,12
   8d344:	e13ffd15 	stw	r4,-12(fp)
   8d348:	e17ffe15 	stw	r5,-8(fp)
   8d34c:	e1bfff0d 	sth	r6,-4(fp)
   8d350:	e0bfff0b 	ldhu	r2,-4(fp)
   8d354:	1005003a 	cmpeq	r2,r2,zero
   8d358:	10000e1e 	bne	r2,zero,8d394 <OS_MemCopy+0x5c>
   8d35c:	e0fffd17 	ldw	r3,-12(fp)
   8d360:	e13ffe04 	addi	r4,fp,-8
   8d364:	20800017 	ldw	r2,0(r4)
   8d368:	11400003 	ldbu	r5,0(r2)
   8d36c:	10800044 	addi	r2,r2,1
   8d370:	20800015 	stw	r2,0(r4)
   8d374:	1805883a 	mov	r2,r3
   8d378:	11400005 	stb	r5,0(r2)
   8d37c:	18c00044 	addi	r3,r3,1
   8d380:	e0fffd15 	stw	r3,-12(fp)
   8d384:	e0bfff0b 	ldhu	r2,-4(fp)
   8d388:	10bfffc4 	addi	r2,r2,-1
   8d38c:	e0bfff0d 	sth	r2,-4(fp)
   8d390:	003fef06 	br	8d350 <OS_MemCopy+0x18>
   8d394:	df000317 	ldw	fp,12(sp)
   8d398:	dec00404 	addi	sp,sp,16
   8d39c:	f800283a 	ret

0008d3a0 <OS_Sched>:
   8d3a0:	defffb04 	addi	sp,sp,-20
   8d3a4:	dfc00415 	stw	ra,16(sp)
   8d3a8:	df000315 	stw	fp,12(sp)
   8d3ac:	df000304 	addi	fp,sp,12
   8d3b0:	e03ffd15 	stw	zero,-12(fp)
   8d3b4:	0005303a 	rdctl	r2,status
   8d3b8:	e0bfff15 	stw	r2,-4(fp)
   8d3bc:	e0ffff17 	ldw	r3,-4(fp)
   8d3c0:	00bfff84 	movi	r2,-2
   8d3c4:	1884703a 	and	r2,r3,r2
   8d3c8:	1001703a 	wrctl	status,r2
   8d3cc:	e0bfff17 	ldw	r2,-4(fp)
   8d3d0:	e0bffe15 	stw	r2,-8(fp)
   8d3d4:	e0bffe17 	ldw	r2,-8(fp)
   8d3d8:	e0bffd15 	stw	r2,-12(fp)
   8d3dc:	d0a70043 	ldbu	r2,-25599(gp)
   8d3e0:	1004c03a 	cmpne	r2,r2,zero
   8d3e4:	1000171e 	bne	r2,zero,8d444 <OS_Sched+0xa4>
   8d3e8:	d0a70083 	ldbu	r2,-25598(gp)
   8d3ec:	1004c03a 	cmpne	r2,r2,zero
   8d3f0:	1000141e 	bne	r2,zero,8d444 <OS_Sched+0xa4>
   8d3f4:	008d4640 	call	8d464 <OS_SchedNew>
   8d3f8:	d0e70103 	ldbu	r3,-25596(gp)
   8d3fc:	d0a700c3 	ldbu	r2,-25597(gp)
   8d400:	18801026 	beq	r3,r2,8d444 <OS_Sched+0xa4>
   8d404:	00c002b4 	movhi	r3,10
   8d408:	18d65b04 	addi	r3,r3,22892
   8d40c:	d0a70103 	ldbu	r2,-25596(gp)
   8d410:	100490ba 	slli	r2,r2,2
   8d414:	10c5883a 	add	r2,r2,r3
   8d418:	10800017 	ldw	r2,0(r2)
   8d41c:	d0a70615 	stw	r2,-25576(gp)
   8d420:	d0e70617 	ldw	r3,-25576(gp)
   8d424:	d0a70617 	ldw	r2,-25576(gp)
   8d428:	10800e17 	ldw	r2,56(r2)
   8d42c:	10800044 	addi	r2,r2,1
   8d430:	18800e15 	stw	r2,56(r3)
   8d434:	d0a6fa17 	ldw	r2,-25624(gp)
   8d438:	10800044 	addi	r2,r2,1
   8d43c:	d0a6fa15 	stw	r2,-25624(gp)
   8d440:	00955080 	call	95508 <OSCtxSw>
   8d444:	e0bffd17 	ldw	r2,-12(fp)
   8d448:	e0bfff15 	stw	r2,-4(fp)
   8d44c:	e0bfff17 	ldw	r2,-4(fp)
   8d450:	1001703a 	wrctl	status,r2
   8d454:	dfc00417 	ldw	ra,16(sp)
   8d458:	df000317 	ldw	fp,12(sp)
   8d45c:	dec00504 	addi	sp,sp,20
   8d460:	f800283a 	ret

0008d464 <OS_SchedNew>:
   8d464:	defffe04 	addi	sp,sp,-8
   8d468:	df000115 	stw	fp,4(sp)
   8d46c:	df000104 	addi	fp,sp,4
   8d470:	00c00274 	movhi	r3,9
   8d474:	18dbb304 	addi	r3,r3,28364
   8d478:	d0a70143 	ldbu	r2,-25595(gp)
   8d47c:	1885883a 	add	r2,r3,r2
   8d480:	10800003 	ldbu	r2,0(r2)
   8d484:	e0bfff05 	stb	r2,-4(fp)
   8d488:	e0bfff03 	ldbu	r2,-4(fp)
   8d48c:	100a90fa 	slli	r5,r2,3
   8d490:	01000274 	movhi	r4,9
   8d494:	211bb304 	addi	r4,r4,28364
   8d498:	e0ffff03 	ldbu	r3,-4(fp)
   8d49c:	d0a70184 	addi	r2,gp,-25594
   8d4a0:	1885883a 	add	r2,r3,r2
   8d4a4:	10800003 	ldbu	r2,0(r2)
   8d4a8:	2085883a 	add	r2,r4,r2
   8d4ac:	2807883a 	mov	r3,r5
   8d4b0:	10800003 	ldbu	r2,0(r2)
   8d4b4:	1885883a 	add	r2,r3,r2
   8d4b8:	d0a70105 	stb	r2,-25596(gp)
   8d4bc:	df000117 	ldw	fp,4(sp)
   8d4c0:	dec00204 	addi	sp,sp,8
   8d4c4:	f800283a 	ret

0008d4c8 <OS_StrCopy>:
   8d4c8:	defffc04 	addi	sp,sp,-16
   8d4cc:	df000315 	stw	fp,12(sp)
   8d4d0:	df000304 	addi	fp,sp,12
   8d4d4:	e13ffd15 	stw	r4,-12(fp)
   8d4d8:	e17ffe15 	stw	r5,-8(fp)
   8d4dc:	e03fff05 	stb	zero,-4(fp)
   8d4e0:	e0bffe17 	ldw	r2,-8(fp)
   8d4e4:	10800003 	ldbu	r2,0(r2)
   8d4e8:	1005003a 	cmpeq	r2,r2,zero
   8d4ec:	10000e1e 	bne	r2,zero,8d528 <OS_StrCopy+0x60>
   8d4f0:	e0fffd17 	ldw	r3,-12(fp)
   8d4f4:	e13ffe04 	addi	r4,fp,-8
   8d4f8:	20800017 	ldw	r2,0(r4)
   8d4fc:	11400003 	ldbu	r5,0(r2)
   8d500:	10800044 	addi	r2,r2,1
   8d504:	20800015 	stw	r2,0(r4)
   8d508:	1805883a 	mov	r2,r3
   8d50c:	11400005 	stb	r5,0(r2)
   8d510:	18c00044 	addi	r3,r3,1
   8d514:	e0fffd15 	stw	r3,-12(fp)
   8d518:	e0bfff03 	ldbu	r2,-4(fp)
   8d51c:	10800044 	addi	r2,r2,1
   8d520:	e0bfff05 	stb	r2,-4(fp)
   8d524:	003fee06 	br	8d4e0 <OS_StrCopy+0x18>
   8d528:	e0bffd17 	ldw	r2,-12(fp)
   8d52c:	10000005 	stb	zero,0(r2)
   8d530:	e0bfff03 	ldbu	r2,-4(fp)
   8d534:	df000317 	ldw	fp,12(sp)
   8d538:	dec00404 	addi	sp,sp,16
   8d53c:	f800283a 	ret

0008d540 <OS_StrLen>:
   8d540:	defffd04 	addi	sp,sp,-12
   8d544:	df000215 	stw	fp,8(sp)
   8d548:	df000204 	addi	fp,sp,8
   8d54c:	e13ffe15 	stw	r4,-8(fp)
   8d550:	e03fff05 	stb	zero,-4(fp)
   8d554:	e0bffe17 	ldw	r2,-8(fp)
   8d558:	10800003 	ldbu	r2,0(r2)
   8d55c:	1005003a 	cmpeq	r2,r2,zero
   8d560:	1000071e 	bne	r2,zero,8d580 <OS_StrLen+0x40>
   8d564:	e0bffe17 	ldw	r2,-8(fp)
   8d568:	10800044 	addi	r2,r2,1
   8d56c:	e0bffe15 	stw	r2,-8(fp)
   8d570:	e0bfff03 	ldbu	r2,-4(fp)
   8d574:	10800044 	addi	r2,r2,1
   8d578:	e0bfff05 	stb	r2,-4(fp)
   8d57c:	003ff506 	br	8d554 <OS_StrLen+0x14>
   8d580:	e0bfff03 	ldbu	r2,-4(fp)
   8d584:	df000217 	ldw	fp,8(sp)
   8d588:	dec00304 	addi	sp,sp,12
   8d58c:	f800283a 	ret

0008d590 <OS_TaskIdle>:
   8d590:	defffa04 	addi	sp,sp,-24
   8d594:	dfc00515 	stw	ra,20(sp)
   8d598:	df000415 	stw	fp,16(sp)
   8d59c:	df000404 	addi	fp,sp,16
   8d5a0:	e13ffc15 	stw	r4,-16(fp)
   8d5a4:	e03ffd15 	stw	zero,-12(fp)
   8d5a8:	0005303a 	rdctl	r2,status
   8d5ac:	e0bfff15 	stw	r2,-4(fp)
   8d5b0:	e0ffff17 	ldw	r3,-4(fp)
   8d5b4:	00bfff84 	movi	r2,-2
   8d5b8:	1884703a 	and	r2,r3,r2
   8d5bc:	1001703a 	wrctl	status,r2
   8d5c0:	e0bfff17 	ldw	r2,-4(fp)
   8d5c4:	e0bffe15 	stw	r2,-8(fp)
   8d5c8:	e0bffe17 	ldw	r2,-8(fp)
   8d5cc:	e0bffd15 	stw	r2,-12(fp)
   8d5d0:	d0a70317 	ldw	r2,-25588(gp)
   8d5d4:	10800044 	addi	r2,r2,1
   8d5d8:	d0a70315 	stw	r2,-25588(gp)
   8d5dc:	e0bffd17 	ldw	r2,-12(fp)
   8d5e0:	e0bfff15 	stw	r2,-4(fp)
   8d5e4:	e0bfff17 	ldw	r2,-4(fp)
   8d5e8:	1001703a 	wrctl	status,r2
   8d5ec:	00959a40 	call	959a4 <OSTaskIdleHook>
   8d5f0:	003fed06 	br	8d5a8 <OS_TaskIdle+0x18>

0008d5f4 <OS_TaskStat>:
   8d5f4:	defffa04 	addi	sp,sp,-24
   8d5f8:	dfc00515 	stw	ra,20(sp)
   8d5fc:	df000415 	stw	fp,16(sp)
   8d600:	df000404 	addi	fp,sp,16
   8d604:	e13ffc15 	stw	r4,-16(fp)
   8d608:	e03ffd15 	stw	zero,-12(fp)
   8d60c:	d0a70003 	ldbu	r2,-25600(gp)
   8d610:	1004c03a 	cmpne	r2,r2,zero
   8d614:	1000031e 	bne	r2,zero,8d624 <OS_TaskStat+0x30>
   8d618:	01003204 	movi	r4,200
   8d61c:	0092f800 	call	92f80 <OSTimeDly>
   8d620:	003ffa06 	br	8d60c <OS_TaskStat+0x18>
   8d624:	d126fe17 	ldw	r4,-25608(gp)
   8d628:	01401904 	movi	r5,100
   8d62c:	0081acc0 	call	81acc <__udivsi3>
   8d630:	d0a6fe15 	stw	r2,-25608(gp)
   8d634:	d0a6fe17 	ldw	r2,-25608(gp)
   8d638:	1004c03a 	cmpne	r2,r2,zero
   8d63c:	1000031e 	bne	r2,zero,8d64c <OS_TaskStat+0x58>
   8d640:	d026fd05 	stb	zero,-25612(gp)
   8d644:	01003fc4 	movi	r4,255
   8d648:	0092bec0 	call	92bec <OSTaskSuspend>
   8d64c:	0005303a 	rdctl	r2,status
   8d650:	e0bfff15 	stw	r2,-4(fp)
   8d654:	e0ffff17 	ldw	r3,-4(fp)
   8d658:	00bfff84 	movi	r2,-2
   8d65c:	1884703a 	and	r2,r3,r2
   8d660:	1001703a 	wrctl	status,r2
   8d664:	e0bfff17 	ldw	r2,-4(fp)
   8d668:	e0bffe15 	stw	r2,-8(fp)
   8d66c:	e0bffe17 	ldw	r2,-8(fp)
   8d670:	e0bffd15 	stw	r2,-12(fp)
   8d674:	d0a70317 	ldw	r2,-25588(gp)
   8d678:	d0a6ff15 	stw	r2,-25604(gp)
   8d67c:	d0270315 	stw	zero,-25588(gp)
   8d680:	e0bffd17 	ldw	r2,-12(fp)
   8d684:	e0bfff15 	stw	r2,-4(fp)
   8d688:	e0bfff17 	ldw	r2,-4(fp)
   8d68c:	1001703a 	wrctl	status,r2
   8d690:	d126ff17 	ldw	r4,-25604(gp)
   8d694:	d166fe17 	ldw	r5,-25608(gp)
   8d698:	0081acc0 	call	81acc <__udivsi3>
   8d69c:	1007883a 	mov	r3,r2
   8d6a0:	00801904 	movi	r2,100
   8d6a4:	10c5c83a 	sub	r2,r2,r3
   8d6a8:	d0a6fd05 	stb	r2,-25612(gp)
   8d6ac:	00959440 	call	95944 <OSTaskStatHook>
   8d6b0:	008d6c00 	call	8d6c0 <OS_TaskStatStkChk>
   8d6b4:	01001904 	movi	r4,100
   8d6b8:	0092f800 	call	92f80 <OSTimeDly>
   8d6bc:	003fe306 	br	8d64c <OS_TaskStat+0x58>

0008d6c0 <OS_TaskStatStkChk>:
   8d6c0:	defffa04 	addi	sp,sp,-24
   8d6c4:	dfc00515 	stw	ra,20(sp)
   8d6c8:	df000415 	stw	fp,16(sp)
   8d6cc:	df000404 	addi	fp,sp,16
   8d6d0:	e03fff45 	stb	zero,-3(fp)
   8d6d4:	e0bfff43 	ldbu	r2,-3(fp)
   8d6d8:	10800568 	cmpgeui	r2,r2,21
   8d6dc:	1000231e 	bne	r2,zero,8d76c <OS_TaskStatStkChk+0xac>
   8d6e0:	e13fff43 	ldbu	r4,-3(fp)
   8d6e4:	e17ffd04 	addi	r5,fp,-12
   8d6e8:	0092a140 	call	92a14 <OSTaskStkChk>
   8d6ec:	e0bfff05 	stb	r2,-4(fp)
   8d6f0:	e0bfff03 	ldbu	r2,-4(fp)
   8d6f4:	1004c03a 	cmpne	r2,r2,zero
   8d6f8:	1000181e 	bne	r2,zero,8d75c <OS_TaskStatStkChk+0x9c>
   8d6fc:	00c002b4 	movhi	r3,10
   8d700:	18d65b04 	addi	r3,r3,22892
   8d704:	e0bfff43 	ldbu	r2,-3(fp)
   8d708:	100490ba 	slli	r2,r2,2
   8d70c:	10c5883a 	add	r2,r2,r3
   8d710:	10800017 	ldw	r2,0(r2)
   8d714:	e0bffc15 	stw	r2,-16(fp)
   8d718:	e0bffc17 	ldw	r2,-16(fp)
   8d71c:	1005003a 	cmpeq	r2,r2,zero
   8d720:	10000e1e 	bne	r2,zero,8d75c <OS_TaskStatStkChk+0x9c>
   8d724:	e0bffc17 	ldw	r2,-16(fp)
   8d728:	10800060 	cmpeqi	r2,r2,1
   8d72c:	10000b1e 	bne	r2,zero,8d75c <OS_TaskStatStkChk+0x9c>
   8d730:	e17ffc17 	ldw	r5,-16(fp)
   8d734:	e13ffc17 	ldw	r4,-16(fp)
   8d738:	e0bffc17 	ldw	r2,-16(fp)
   8d73c:	10800317 	ldw	r2,12(r2)
   8d740:	100690ba 	slli	r3,r2,2
   8d744:	20800217 	ldw	r2,8(r4)
   8d748:	10c5883a 	add	r2,r2,r3
   8d74c:	28801115 	stw	r2,68(r5)
   8d750:	e0fffc17 	ldw	r3,-16(fp)
   8d754:	e0bffe17 	ldw	r2,-8(fp)
   8d758:	18801215 	stw	r2,72(r3)
   8d75c:	e0bfff43 	ldbu	r2,-3(fp)
   8d760:	10800044 	addi	r2,r2,1
   8d764:	e0bfff45 	stb	r2,-3(fp)
   8d768:	003fda06 	br	8d6d4 <OS_TaskStatStkChk+0x14>
   8d76c:	dfc00517 	ldw	ra,20(sp)
   8d770:	df000417 	ldw	fp,16(sp)
   8d774:	dec00604 	addi	sp,sp,24
   8d778:	f800283a 	ret

0008d77c <OS_TCBInit>:
   8d77c:	defff504 	addi	sp,sp,-44
   8d780:	dfc00a15 	stw	ra,40(sp)
   8d784:	df000915 	stw	fp,36(sp)
   8d788:	df000904 	addi	fp,sp,36
   8d78c:	e17ff815 	stw	r5,-32(fp)
   8d790:	e1bff915 	stw	r6,-28(fp)
   8d794:	e0800417 	ldw	r2,16(fp)
   8d798:	e13ff705 	stb	r4,-36(fp)
   8d79c:	e1fffa0d 	sth	r7,-24(fp)
   8d7a0:	e0bffa8d 	sth	r2,-22(fp)
   8d7a4:	e03ffc15 	stw	zero,-16(fp)
   8d7a8:	0005303a 	rdctl	r2,status
   8d7ac:	e0bffe15 	stw	r2,-8(fp)
   8d7b0:	e0fffe17 	ldw	r3,-8(fp)
   8d7b4:	00bfff84 	movi	r2,-2
   8d7b8:	1884703a 	and	r2,r3,r2
   8d7bc:	1001703a 	wrctl	status,r2
   8d7c0:	e0bffe17 	ldw	r2,-8(fp)
   8d7c4:	e0bffd15 	stw	r2,-12(fp)
   8d7c8:	e0bffd17 	ldw	r2,-12(fp)
   8d7cc:	e0bffc15 	stw	r2,-16(fp)
   8d7d0:	d0a70517 	ldw	r2,-25580(gp)
   8d7d4:	e0bffb15 	stw	r2,-20(fp)
   8d7d8:	e0bffb17 	ldw	r2,-20(fp)
   8d7dc:	1005003a 	cmpeq	r2,r2,zero
   8d7e0:	10008c1e 	bne	r2,zero,8da14 <OS_TCBInit+0x298>
   8d7e4:	e0bffb17 	ldw	r2,-20(fp)
   8d7e8:	10800517 	ldw	r2,20(r2)
   8d7ec:	d0a70515 	stw	r2,-25580(gp)
   8d7f0:	e0bffc17 	ldw	r2,-16(fp)
   8d7f4:	e0bffe15 	stw	r2,-8(fp)
   8d7f8:	e0bffe17 	ldw	r2,-8(fp)
   8d7fc:	1001703a 	wrctl	status,r2
   8d800:	e0fffb17 	ldw	r3,-20(fp)
   8d804:	e0bff817 	ldw	r2,-32(fp)
   8d808:	18800015 	stw	r2,0(r3)
   8d80c:	e0fffb17 	ldw	r3,-20(fp)
   8d810:	e0bff703 	ldbu	r2,-36(fp)
   8d814:	18800c85 	stb	r2,50(r3)
   8d818:	e0bffb17 	ldw	r2,-20(fp)
   8d81c:	10000c05 	stb	zero,48(r2)
   8d820:	e0bffb17 	ldw	r2,-20(fp)
   8d824:	10000c45 	stb	zero,49(r2)
   8d828:	e0bffb17 	ldw	r2,-20(fp)
   8d82c:	10000b8d 	sth	zero,46(r2)
   8d830:	e0fffb17 	ldw	r3,-20(fp)
   8d834:	e0800317 	ldw	r2,12(fp)
   8d838:	18800115 	stw	r2,4(r3)
   8d83c:	e0fffb17 	ldw	r3,-20(fp)
   8d840:	e0800217 	ldw	r2,8(fp)
   8d844:	18800315 	stw	r2,12(r3)
   8d848:	e0fffb17 	ldw	r3,-20(fp)
   8d84c:	e0bff917 	ldw	r2,-28(fp)
   8d850:	18800215 	stw	r2,8(r3)
   8d854:	e0fffb17 	ldw	r3,-20(fp)
   8d858:	e0bffa8b 	ldhu	r2,-22(fp)
   8d85c:	1880040d 	sth	r2,16(r3)
   8d860:	e0fffb17 	ldw	r3,-20(fp)
   8d864:	e0bffa0b 	ldhu	r2,-24(fp)
   8d868:	1880048d 	sth	r2,18(r3)
   8d86c:	e0bffb17 	ldw	r2,-20(fp)
   8d870:	10000dc5 	stb	zero,55(r2)
   8d874:	e0fffb17 	ldw	r3,-20(fp)
   8d878:	e0bff703 	ldbu	r2,-36(fp)
   8d87c:	1004d0fa 	srli	r2,r2,3
   8d880:	18800d05 	stb	r2,52(r3)
   8d884:	e0fffb17 	ldw	r3,-20(fp)
   8d888:	e0bff703 	ldbu	r2,-36(fp)
   8d88c:	108001cc 	andi	r2,r2,7
   8d890:	18800cc5 	stb	r2,51(r3)
   8d894:	e13ffb17 	ldw	r4,-20(fp)
   8d898:	e0bffb17 	ldw	r2,-20(fp)
   8d89c:	10c00d03 	ldbu	r3,52(r2)
   8d8a0:	00800044 	movi	r2,1
   8d8a4:	10c4983a 	sll	r2,r2,r3
   8d8a8:	20800d85 	stb	r2,54(r4)
   8d8ac:	e13ffb17 	ldw	r4,-20(fp)
   8d8b0:	e0bffb17 	ldw	r2,-20(fp)
   8d8b4:	10c00cc3 	ldbu	r3,51(r2)
   8d8b8:	00800044 	movi	r2,1
   8d8bc:	10c4983a 	sll	r2,r2,r3
   8d8c0:	20800d45 	stb	r2,53(r4)
   8d8c4:	e0bffb17 	ldw	r2,-20(fp)
   8d8c8:	10000715 	stw	zero,28(r2)
   8d8cc:	e0bffb17 	ldw	r2,-20(fp)
   8d8d0:	10000815 	stw	zero,32(r2)
   8d8d4:	e0bffb17 	ldw	r2,-20(fp)
   8d8d8:	10000a15 	stw	zero,40(r2)
   8d8dc:	e0bffb17 	ldw	r2,-20(fp)
   8d8e0:	10000915 	stw	zero,36(r2)
   8d8e4:	e0bffb17 	ldw	r2,-20(fp)
   8d8e8:	10000e15 	stw	zero,56(r2)
   8d8ec:	e0bffb17 	ldw	r2,-20(fp)
   8d8f0:	10001015 	stw	zero,64(r2)
   8d8f4:	e0bffb17 	ldw	r2,-20(fp)
   8d8f8:	10000f15 	stw	zero,60(r2)
   8d8fc:	e0bffb17 	ldw	r2,-20(fp)
   8d900:	10001115 	stw	zero,68(r2)
   8d904:	e0bffb17 	ldw	r2,-20(fp)
   8d908:	10001215 	stw	zero,72(r2)
   8d90c:	e0fffb17 	ldw	r3,-20(fp)
   8d910:	00800fc4 	movi	r2,63
   8d914:	18801305 	stb	r2,76(r3)
   8d918:	e0bffb17 	ldw	r2,-20(fp)
   8d91c:	10001345 	stb	zero,77(r2)
   8d920:	e13ffb17 	ldw	r4,-20(fp)
   8d924:	00959bc0 	call	959bc <OSTCBInitHook>
   8d928:	e13ffb17 	ldw	r4,-20(fp)
   8d92c:	00958f40 	call	958f4 <OSTaskCreateHook>
   8d930:	0005303a 	rdctl	r2,status
   8d934:	e0bffd15 	stw	r2,-12(fp)
   8d938:	e0fffd17 	ldw	r3,-12(fp)
   8d93c:	00bfff84 	movi	r2,-2
   8d940:	1884703a 	and	r2,r3,r2
   8d944:	1001703a 	wrctl	status,r2
   8d948:	e0bffd17 	ldw	r2,-12(fp)
   8d94c:	e0bffe15 	stw	r2,-8(fp)
   8d950:	e0bffe17 	ldw	r2,-8(fp)
   8d954:	e0bffc15 	stw	r2,-16(fp)
   8d958:	00c002b4 	movhi	r3,10
   8d95c:	18d65b04 	addi	r3,r3,22892
   8d960:	e0bff703 	ldbu	r2,-36(fp)
   8d964:	100490ba 	slli	r2,r2,2
   8d968:	10c7883a 	add	r3,r2,r3
   8d96c:	e0bffb17 	ldw	r2,-20(fp)
   8d970:	18800015 	stw	r2,0(r3)
   8d974:	e0fffb17 	ldw	r3,-20(fp)
   8d978:	d0a70717 	ldw	r2,-25572(gp)
   8d97c:	18800515 	stw	r2,20(r3)
   8d980:	e0bffb17 	ldw	r2,-20(fp)
   8d984:	10000615 	stw	zero,24(r2)
   8d988:	d0a70717 	ldw	r2,-25572(gp)
   8d98c:	1005003a 	cmpeq	r2,r2,zero
   8d990:	1000031e 	bne	r2,zero,8d9a0 <OS_TCBInit+0x224>
   8d994:	d0e70717 	ldw	r3,-25572(gp)
   8d998:	e0bffb17 	ldw	r2,-20(fp)
   8d99c:	18800615 	stw	r2,24(r3)
   8d9a0:	e0bffb17 	ldw	r2,-20(fp)
   8d9a4:	d0a70715 	stw	r2,-25572(gp)
   8d9a8:	e0bffb17 	ldw	r2,-20(fp)
   8d9ac:	d0e70143 	ldbu	r3,-25595(gp)
   8d9b0:	10800d83 	ldbu	r2,54(r2)
   8d9b4:	1884b03a 	or	r2,r3,r2
   8d9b8:	d0a70145 	stb	r2,-25595(gp)
   8d9bc:	e0bffb17 	ldw	r2,-20(fp)
   8d9c0:	10c00d03 	ldbu	r3,52(r2)
   8d9c4:	d0a70184 	addi	r2,gp,-25594
   8d9c8:	188b883a 	add	r5,r3,r2
   8d9cc:	e0bffb17 	ldw	r2,-20(fp)
   8d9d0:	10c00d03 	ldbu	r3,52(r2)
   8d9d4:	d0a70184 	addi	r2,gp,-25594
   8d9d8:	1885883a 	add	r2,r3,r2
   8d9dc:	e0fffb17 	ldw	r3,-20(fp)
   8d9e0:	11000003 	ldbu	r4,0(r2)
   8d9e4:	18800d43 	ldbu	r2,53(r3)
   8d9e8:	2084b03a 	or	r2,r4,r2
   8d9ec:	28800005 	stb	r2,0(r5)
   8d9f0:	d0a70283 	ldbu	r2,-25590(gp)
   8d9f4:	10800044 	addi	r2,r2,1
   8d9f8:	d0a70285 	stb	r2,-25590(gp)
   8d9fc:	e0bffc17 	ldw	r2,-16(fp)
   8da00:	e0bffe15 	stw	r2,-8(fp)
   8da04:	e0bffe17 	ldw	r2,-8(fp)
   8da08:	1001703a 	wrctl	status,r2
   8da0c:	e03fff15 	stw	zero,-4(fp)
   8da10:	00000606 	br	8da2c <OS_TCBInit+0x2b0>
   8da14:	e0bffc17 	ldw	r2,-16(fp)
   8da18:	e0bffe15 	stw	r2,-8(fp)
   8da1c:	e0bffe17 	ldw	r2,-8(fp)
   8da20:	1001703a 	wrctl	status,r2
   8da24:	00801084 	movi	r2,66
   8da28:	e0bfff15 	stw	r2,-4(fp)
   8da2c:	e0bfff17 	ldw	r2,-4(fp)
   8da30:	dfc00a17 	ldw	ra,40(sp)
   8da34:	df000917 	ldw	fp,36(sp)
   8da38:	dec00b04 	addi	sp,sp,44
   8da3c:	f800283a 	ret

0008da40 <OSDebugInit>:
   8da40:	defffe04 	addi	sp,sp,-8
   8da44:	df000115 	stw	fp,4(sp)
   8da48:	df000104 	addi	fp,sp,4
   8da4c:	d0a01a04 	addi	r2,gp,-32664
   8da50:	e0bfff15 	stw	r2,-4(fp)
   8da54:	d0a01b04 	addi	r2,gp,-32660
   8da58:	e0bfff15 	stw	r2,-4(fp)
   8da5c:	d0a01c84 	addi	r2,gp,-32654
   8da60:	e0bfff15 	stw	r2,-4(fp)
   8da64:	d0a01d04 	addi	r2,gp,-32652
   8da68:	e0bfff15 	stw	r2,-4(fp)
   8da6c:	d0a01c04 	addi	r2,gp,-32656
   8da70:	e0bfff15 	stw	r2,-4(fp)
   8da74:	d0a01d84 	addi	r2,gp,-32650
   8da78:	e0bfff15 	stw	r2,-4(fp)
   8da7c:	d0a01e04 	addi	r2,gp,-32648
   8da80:	e0bfff15 	stw	r2,-4(fp)
   8da84:	d0a01e84 	addi	r2,gp,-32646
   8da88:	e0bfff15 	stw	r2,-4(fp)
   8da8c:	d0a01f04 	addi	r2,gp,-32644
   8da90:	e0bfff15 	stw	r2,-4(fp)
   8da94:	d0a01f84 	addi	r2,gp,-32642
   8da98:	e0bfff15 	stw	r2,-4(fp)
   8da9c:	d0a02004 	addi	r2,gp,-32640
   8daa0:	e0bfff15 	stw	r2,-4(fp)
   8daa4:	d0a02084 	addi	r2,gp,-32638
   8daa8:	e0bfff15 	stw	r2,-4(fp)
   8daac:	d0a02104 	addi	r2,gp,-32636
   8dab0:	e0bfff15 	stw	r2,-4(fp)
   8dab4:	d0a02184 	addi	r2,gp,-32634
   8dab8:	e0bfff15 	stw	r2,-4(fp)
   8dabc:	d0a02204 	addi	r2,gp,-32632
   8dac0:	e0bfff15 	stw	r2,-4(fp)
   8dac4:	d0a02284 	addi	r2,gp,-32630
   8dac8:	e0bfff15 	stw	r2,-4(fp)
   8dacc:	d0a02304 	addi	r2,gp,-32628
   8dad0:	e0bfff15 	stw	r2,-4(fp)
   8dad4:	d0a02384 	addi	r2,gp,-32626
   8dad8:	e0bfff15 	stw	r2,-4(fp)
   8dadc:	d0a02404 	addi	r2,gp,-32624
   8dae0:	e0bfff15 	stw	r2,-4(fp)
   8dae4:	d0a02484 	addi	r2,gp,-32622
   8dae8:	e0bfff15 	stw	r2,-4(fp)
   8daec:	d0a02504 	addi	r2,gp,-32620
   8daf0:	e0bfff15 	stw	r2,-4(fp)
   8daf4:	d0a02584 	addi	r2,gp,-32618
   8daf8:	e0bfff15 	stw	r2,-4(fp)
   8dafc:	d0a02604 	addi	r2,gp,-32616
   8db00:	e0bfff15 	stw	r2,-4(fp)
   8db04:	d0a02684 	addi	r2,gp,-32614
   8db08:	e0bfff15 	stw	r2,-4(fp)
   8db0c:	d0a02704 	addi	r2,gp,-32612
   8db10:	e0bfff15 	stw	r2,-4(fp)
   8db14:	d0a02784 	addi	r2,gp,-32610
   8db18:	e0bfff15 	stw	r2,-4(fp)
   8db1c:	d0a02804 	addi	r2,gp,-32608
   8db20:	e0bfff15 	stw	r2,-4(fp)
   8db24:	d0a02884 	addi	r2,gp,-32606
   8db28:	e0bfff15 	stw	r2,-4(fp)
   8db2c:	d0a02904 	addi	r2,gp,-32604
   8db30:	e0bfff15 	stw	r2,-4(fp)
   8db34:	d0a02984 	addi	r2,gp,-32602
   8db38:	e0bfff15 	stw	r2,-4(fp)
   8db3c:	d0a02a04 	addi	r2,gp,-32600
   8db40:	e0bfff15 	stw	r2,-4(fp)
   8db44:	d0a02a84 	addi	r2,gp,-32598
   8db48:	e0bfff15 	stw	r2,-4(fp)
   8db4c:	d0a02b04 	addi	r2,gp,-32596
   8db50:	e0bfff15 	stw	r2,-4(fp)
   8db54:	d0a02b84 	addi	r2,gp,-32594
   8db58:	e0bfff15 	stw	r2,-4(fp)
   8db5c:	d0a02c04 	addi	r2,gp,-32592
   8db60:	e0bfff15 	stw	r2,-4(fp)
   8db64:	d0a02c84 	addi	r2,gp,-32590
   8db68:	e0bfff15 	stw	r2,-4(fp)
   8db6c:	d0a02d04 	addi	r2,gp,-32588
   8db70:	e0bfff15 	stw	r2,-4(fp)
   8db74:	d0a02d84 	addi	r2,gp,-32586
   8db78:	e0bfff15 	stw	r2,-4(fp)
   8db7c:	d0a02e04 	addi	r2,gp,-32584
   8db80:	e0bfff15 	stw	r2,-4(fp)
   8db84:	d0a02e84 	addi	r2,gp,-32582
   8db88:	e0bfff15 	stw	r2,-4(fp)
   8db8c:	d0a02f04 	addi	r2,gp,-32580
   8db90:	e0bfff15 	stw	r2,-4(fp)
   8db94:	d0a02f84 	addi	r2,gp,-32578
   8db98:	e0bfff15 	stw	r2,-4(fp)
   8db9c:	d0a03004 	addi	r2,gp,-32576
   8dba0:	e0bfff15 	stw	r2,-4(fp)
   8dba4:	d0a03084 	addi	r2,gp,-32574
   8dba8:	e0bfff15 	stw	r2,-4(fp)
   8dbac:	d0a03104 	addi	r2,gp,-32572
   8dbb0:	e0bfff15 	stw	r2,-4(fp)
   8dbb4:	d0a03604 	addi	r2,gp,-32552
   8dbb8:	e0bfff15 	stw	r2,-4(fp)
   8dbbc:	df000117 	ldw	fp,4(sp)
   8dbc0:	dec00204 	addi	sp,sp,8
   8dbc4:	f800283a 	ret

0008dbc8 <OSFlagAccept>:
   8dbc8:	defff604 	addi	sp,sp,-40
   8dbcc:	df000915 	stw	fp,36(sp)
   8dbd0:	df000904 	addi	fp,sp,36
   8dbd4:	e13ff715 	stw	r4,-36(fp)
   8dbd8:	e1fff915 	stw	r7,-28(fp)
   8dbdc:	e17ff80d 	sth	r5,-32(fp)
   8dbe0:	e1bff885 	stb	r6,-30(fp)
   8dbe4:	e03ffb15 	stw	zero,-20(fp)
   8dbe8:	e0bff917 	ldw	r2,-28(fp)
   8dbec:	1004c03a 	cmpne	r2,r2,zero
   8dbf0:	1000021e 	bne	r2,zero,8dbfc <OSFlagAccept+0x34>
   8dbf4:	e03ffe15 	stw	zero,-8(fp)
   8dbf8:	0000b606 	br	8ded4 <OSFlagAccept+0x30c>
   8dbfc:	e0bff717 	ldw	r2,-36(fp)
   8dc00:	1004c03a 	cmpne	r2,r2,zero
   8dc04:	1000051e 	bne	r2,zero,8dc1c <OSFlagAccept+0x54>
   8dc08:	e0fff917 	ldw	r3,-28(fp)
   8dc0c:	00801b84 	movi	r2,110
   8dc10:	18800005 	stb	r2,0(r3)
   8dc14:	e03ffe15 	stw	zero,-8(fp)
   8dc18:	0000ae06 	br	8ded4 <OSFlagAccept+0x30c>
   8dc1c:	e0bff717 	ldw	r2,-36(fp)
   8dc20:	10800003 	ldbu	r2,0(r2)
   8dc24:	10800160 	cmpeqi	r2,r2,5
   8dc28:	1000051e 	bne	r2,zero,8dc40 <OSFlagAccept+0x78>
   8dc2c:	e0fff917 	ldw	r3,-28(fp)
   8dc30:	00800044 	movi	r2,1
   8dc34:	18800005 	stb	r2,0(r3)
   8dc38:	e03ffe15 	stw	zero,-8(fp)
   8dc3c:	0000a506 	br	8ded4 <OSFlagAccept+0x30c>
   8dc40:	e0fff883 	ldbu	r3,-30(fp)
   8dc44:	00bfe004 	movi	r2,-128
   8dc48:	1884703a 	and	r2,r3,r2
   8dc4c:	e0bffa85 	stb	r2,-22(fp)
   8dc50:	e0bffa83 	ldbu	r2,-22(fp)
   8dc54:	1005003a 	cmpeq	r2,r2,zero
   8dc58:	1000061e 	bne	r2,zero,8dc74 <OSFlagAccept+0xac>
   8dc5c:	e0bff883 	ldbu	r2,-30(fp)
   8dc60:	10801fcc 	andi	r2,r2,127
   8dc64:	e0bff885 	stb	r2,-30(fp)
   8dc68:	00800044 	movi	r2,1
   8dc6c:	e0bffac5 	stb	r2,-21(fp)
   8dc70:	00000106 	br	8dc78 <OSFlagAccept+0xb0>
   8dc74:	e03ffac5 	stb	zero,-21(fp)
   8dc78:	e0bff917 	ldw	r2,-28(fp)
   8dc7c:	10000005 	stb	zero,0(r2)
   8dc80:	0005303a 	rdctl	r2,status
   8dc84:	e0bffd15 	stw	r2,-12(fp)
   8dc88:	e0fffd17 	ldw	r3,-12(fp)
   8dc8c:	00bfff84 	movi	r2,-2
   8dc90:	1884703a 	and	r2,r3,r2
   8dc94:	1001703a 	wrctl	status,r2
   8dc98:	e0bffd17 	ldw	r2,-12(fp)
   8dc9c:	e0bffc15 	stw	r2,-16(fp)
   8dca0:	e0bffc17 	ldw	r2,-16(fp)
   8dca4:	e0bffb15 	stw	r2,-20(fp)
   8dca8:	e0bff883 	ldbu	r2,-30(fp)
   8dcac:	e0bfff15 	stw	r2,-4(fp)
   8dcb0:	e0ffff17 	ldw	r3,-4(fp)
   8dcb4:	18800060 	cmpeqi	r2,r3,1
   8dcb8:	1000601e 	bne	r2,zero,8de3c <OSFlagAccept+0x274>
   8dcbc:	e0ffff17 	ldw	r3,-4(fp)
   8dcc0:	18800088 	cmpgei	r2,r3,2
   8dcc4:	1000041e 	bne	r2,zero,8dcd8 <OSFlagAccept+0x110>
   8dcc8:	e0ffff17 	ldw	r3,-4(fp)
   8dccc:	1805003a 	cmpeq	r2,r3,zero
   8dcd0:	10003e1e 	bne	r2,zero,8ddcc <OSFlagAccept+0x204>
   8dcd4:	00007506 	br	8deac <OSFlagAccept+0x2e4>
   8dcd8:	e0ffff17 	ldw	r3,-4(fp)
   8dcdc:	188000a0 	cmpeqi	r2,r3,2
   8dce0:	1000041e 	bne	r2,zero,8dcf4 <OSFlagAccept+0x12c>
   8dce4:	e0ffff17 	ldw	r3,-4(fp)
   8dce8:	188000e0 	cmpeqi	r2,r3,3
   8dcec:	10001c1e 	bne	r2,zero,8dd60 <OSFlagAccept+0x198>
   8dcf0:	00006e06 	br	8deac <OSFlagAccept+0x2e4>
   8dcf4:	e0bff717 	ldw	r2,-36(fp)
   8dcf8:	10c0020b 	ldhu	r3,8(r2)
   8dcfc:	e0bff80b 	ldhu	r2,-32(fp)
   8dd00:	1884703a 	and	r2,r3,r2
   8dd04:	e0bffa0d 	sth	r2,-24(fp)
   8dd08:	e0fffa0b 	ldhu	r3,-24(fp)
   8dd0c:	e0bff80b 	ldhu	r2,-32(fp)
   8dd10:	18800b1e 	bne	r3,r2,8dd40 <OSFlagAccept+0x178>
   8dd14:	e0bffac3 	ldbu	r2,-21(fp)
   8dd18:	10800058 	cmpnei	r2,r2,1
   8dd1c:	10000b1e 	bne	r2,zero,8dd4c <OSFlagAccept+0x184>
   8dd20:	e13ff717 	ldw	r4,-36(fp)
   8dd24:	e0fff717 	ldw	r3,-36(fp)
   8dd28:	e0bffa0b 	ldhu	r2,-24(fp)
   8dd2c:	0084303a 	nor	r2,zero,r2
   8dd30:	18c0020b 	ldhu	r3,8(r3)
   8dd34:	1884703a 	and	r2,r3,r2
   8dd38:	2080020d 	sth	r2,8(r4)
   8dd3c:	00000306 	br	8dd4c <OSFlagAccept+0x184>
   8dd40:	e0fff917 	ldw	r3,-28(fp)
   8dd44:	00801c04 	movi	r2,112
   8dd48:	18800005 	stb	r2,0(r3)
   8dd4c:	e0bffb17 	ldw	r2,-20(fp)
   8dd50:	e0bffd15 	stw	r2,-12(fp)
   8dd54:	e0bffd17 	ldw	r2,-12(fp)
   8dd58:	1001703a 	wrctl	status,r2
   8dd5c:	00005b06 	br	8decc <OSFlagAccept+0x304>
   8dd60:	e0bff717 	ldw	r2,-36(fp)
   8dd64:	10c0020b 	ldhu	r3,8(r2)
   8dd68:	e0bff80b 	ldhu	r2,-32(fp)
   8dd6c:	1884703a 	and	r2,r3,r2
   8dd70:	e0bffa0d 	sth	r2,-24(fp)
   8dd74:	e0bffa0b 	ldhu	r2,-24(fp)
   8dd78:	1005003a 	cmpeq	r2,r2,zero
   8dd7c:	10000b1e 	bne	r2,zero,8ddac <OSFlagAccept+0x1e4>
   8dd80:	e0bffac3 	ldbu	r2,-21(fp)
   8dd84:	10800058 	cmpnei	r2,r2,1
   8dd88:	10000b1e 	bne	r2,zero,8ddb8 <OSFlagAccept+0x1f0>
   8dd8c:	e13ff717 	ldw	r4,-36(fp)
   8dd90:	e0fff717 	ldw	r3,-36(fp)
   8dd94:	e0bffa0b 	ldhu	r2,-24(fp)
   8dd98:	0084303a 	nor	r2,zero,r2
   8dd9c:	18c0020b 	ldhu	r3,8(r3)
   8dda0:	1884703a 	and	r2,r3,r2
   8dda4:	2080020d 	sth	r2,8(r4)
   8dda8:	00000306 	br	8ddb8 <OSFlagAccept+0x1f0>
   8ddac:	e0fff917 	ldw	r3,-28(fp)
   8ddb0:	00801c04 	movi	r2,112
   8ddb4:	18800005 	stb	r2,0(r3)
   8ddb8:	e0bffb17 	ldw	r2,-20(fp)
   8ddbc:	e0bffd15 	stw	r2,-12(fp)
   8ddc0:	e0bffd17 	ldw	r2,-12(fp)
   8ddc4:	1001703a 	wrctl	status,r2
   8ddc8:	00004006 	br	8decc <OSFlagAccept+0x304>
   8ddcc:	e0bff717 	ldw	r2,-36(fp)
   8ddd0:	1080020b 	ldhu	r2,8(r2)
   8ddd4:	0084303a 	nor	r2,zero,r2
   8ddd8:	1007883a 	mov	r3,r2
   8dddc:	e0bff80b 	ldhu	r2,-32(fp)
   8dde0:	1884703a 	and	r2,r3,r2
   8dde4:	e0bffa0d 	sth	r2,-24(fp)
   8dde8:	e0fffa0b 	ldhu	r3,-24(fp)
   8ddec:	e0bff80b 	ldhu	r2,-32(fp)
   8ddf0:	18800a1e 	bne	r3,r2,8de1c <OSFlagAccept+0x254>
   8ddf4:	e0bffac3 	ldbu	r2,-21(fp)
   8ddf8:	10800058 	cmpnei	r2,r2,1
   8ddfc:	10000a1e 	bne	r2,zero,8de28 <OSFlagAccept+0x260>
   8de00:	e13ff717 	ldw	r4,-36(fp)
   8de04:	e0bff717 	ldw	r2,-36(fp)
   8de08:	10c0020b 	ldhu	r3,8(r2)
   8de0c:	e0bffa0b 	ldhu	r2,-24(fp)
   8de10:	1884b03a 	or	r2,r3,r2
   8de14:	2080020d 	sth	r2,8(r4)
   8de18:	00000306 	br	8de28 <OSFlagAccept+0x260>
   8de1c:	e0fff917 	ldw	r3,-28(fp)
   8de20:	00801c04 	movi	r2,112
   8de24:	18800005 	stb	r2,0(r3)
   8de28:	e0bffb17 	ldw	r2,-20(fp)
   8de2c:	e0bffd15 	stw	r2,-12(fp)
   8de30:	e0bffd17 	ldw	r2,-12(fp)
   8de34:	1001703a 	wrctl	status,r2
   8de38:	00002406 	br	8decc <OSFlagAccept+0x304>
   8de3c:	e0bff717 	ldw	r2,-36(fp)
   8de40:	1080020b 	ldhu	r2,8(r2)
   8de44:	0084303a 	nor	r2,zero,r2
   8de48:	1007883a 	mov	r3,r2
   8de4c:	e0bff80b 	ldhu	r2,-32(fp)
   8de50:	1884703a 	and	r2,r3,r2
   8de54:	e0bffa0d 	sth	r2,-24(fp)
   8de58:	e0bffa0b 	ldhu	r2,-24(fp)
   8de5c:	1005003a 	cmpeq	r2,r2,zero
   8de60:	10000a1e 	bne	r2,zero,8de8c <OSFlagAccept+0x2c4>
   8de64:	e0bffac3 	ldbu	r2,-21(fp)
   8de68:	10800058 	cmpnei	r2,r2,1
   8de6c:	10000a1e 	bne	r2,zero,8de98 <OSFlagAccept+0x2d0>
   8de70:	e13ff717 	ldw	r4,-36(fp)
   8de74:	e0bff717 	ldw	r2,-36(fp)
   8de78:	10c0020b 	ldhu	r3,8(r2)
   8de7c:	e0bffa0b 	ldhu	r2,-24(fp)
   8de80:	1884b03a 	or	r2,r3,r2
   8de84:	2080020d 	sth	r2,8(r4)
   8de88:	00000306 	br	8de98 <OSFlagAccept+0x2d0>
   8de8c:	e0fff917 	ldw	r3,-28(fp)
   8de90:	00801c04 	movi	r2,112
   8de94:	18800005 	stb	r2,0(r3)
   8de98:	e0bffb17 	ldw	r2,-20(fp)
   8de9c:	e0bffd15 	stw	r2,-12(fp)
   8dea0:	e0bffd17 	ldw	r2,-12(fp)
   8dea4:	1001703a 	wrctl	status,r2
   8dea8:	00000806 	br	8decc <OSFlagAccept+0x304>
   8deac:	e0bffb17 	ldw	r2,-20(fp)
   8deb0:	e0bffd15 	stw	r2,-12(fp)
   8deb4:	e0bffd17 	ldw	r2,-12(fp)
   8deb8:	1001703a 	wrctl	status,r2
   8debc:	e03ffa0d 	sth	zero,-24(fp)
   8dec0:	e0fff917 	ldw	r3,-28(fp)
   8dec4:	00801bc4 	movi	r2,111
   8dec8:	18800005 	stb	r2,0(r3)
   8decc:	e0bffa0b 	ldhu	r2,-24(fp)
   8ded0:	e0bffe15 	stw	r2,-8(fp)
   8ded4:	e0bffe17 	ldw	r2,-8(fp)
   8ded8:	df000917 	ldw	fp,36(sp)
   8dedc:	dec00a04 	addi	sp,sp,40
   8dee0:	f800283a 	ret

0008dee4 <OSFlagCreate>:
   8dee4:	defff804 	addi	sp,sp,-32
   8dee8:	df000715 	stw	fp,28(sp)
   8deec:	df000704 	addi	fp,sp,28
   8def0:	e17ffa15 	stw	r5,-24(fp)
   8def4:	e13ff90d 	sth	r4,-28(fp)
   8def8:	e03ffc15 	stw	zero,-16(fp)
   8defc:	e0bffa17 	ldw	r2,-24(fp)
   8df00:	1004c03a 	cmpne	r2,r2,zero
   8df04:	1000021e 	bne	r2,zero,8df10 <OSFlagCreate+0x2c>
   8df08:	e03fff15 	stw	zero,-4(fp)
   8df0c:	00003706 	br	8dfec <OSFlagCreate+0x108>
   8df10:	d0a70043 	ldbu	r2,-25599(gp)
   8df14:	1005003a 	cmpeq	r2,r2,zero
   8df18:	1000051e 	bne	r2,zero,8df30 <OSFlagCreate+0x4c>
   8df1c:	e0fffa17 	ldw	r3,-24(fp)
   8df20:	00800404 	movi	r2,16
   8df24:	18800005 	stb	r2,0(r3)
   8df28:	e03fff15 	stw	zero,-4(fp)
   8df2c:	00002f06 	br	8dfec <OSFlagCreate+0x108>
   8df30:	0005303a 	rdctl	r2,status
   8df34:	e0bffe15 	stw	r2,-8(fp)
   8df38:	e0fffe17 	ldw	r3,-8(fp)
   8df3c:	00bfff84 	movi	r2,-2
   8df40:	1884703a 	and	r2,r3,r2
   8df44:	1001703a 	wrctl	status,r2
   8df48:	e0bffe17 	ldw	r2,-8(fp)
   8df4c:	e0bffd15 	stw	r2,-12(fp)
   8df50:	e0bffd17 	ldw	r2,-12(fp)
   8df54:	e0bffc15 	stw	r2,-16(fp)
   8df58:	d0a6fc17 	ldw	r2,-25616(gp)
   8df5c:	e0bffb15 	stw	r2,-20(fp)
   8df60:	e0bffb17 	ldw	r2,-20(fp)
   8df64:	1005003a 	cmpeq	r2,r2,zero
   8df68:	1000171e 	bne	r2,zero,8dfc8 <OSFlagCreate+0xe4>
   8df6c:	d0a6fc17 	ldw	r2,-25616(gp)
   8df70:	10800117 	ldw	r2,4(r2)
   8df74:	d0a6fc15 	stw	r2,-25616(gp)
   8df78:	e0fffb17 	ldw	r3,-20(fp)
   8df7c:	00800144 	movi	r2,5
   8df80:	18800005 	stb	r2,0(r3)
   8df84:	e0fffb17 	ldw	r3,-20(fp)
   8df88:	e0bff90b 	ldhu	r2,-28(fp)
   8df8c:	1880020d 	sth	r2,8(r3)
   8df90:	e0bffb17 	ldw	r2,-20(fp)
   8df94:	10000115 	stw	zero,4(r2)
   8df98:	e0fffb17 	ldw	r3,-20(fp)
   8df9c:	00800fc4 	movi	r2,63
   8dfa0:	18800285 	stb	r2,10(r3)
   8dfa4:	e0bffb17 	ldw	r2,-20(fp)
   8dfa8:	100002c5 	stb	zero,11(r2)
   8dfac:	e0bffc17 	ldw	r2,-16(fp)
   8dfb0:	e0bffe15 	stw	r2,-8(fp)
   8dfb4:	e0bffe17 	ldw	r2,-8(fp)
   8dfb8:	1001703a 	wrctl	status,r2
   8dfbc:	e0bffa17 	ldw	r2,-24(fp)
   8dfc0:	10000005 	stb	zero,0(r2)
   8dfc4:	00000706 	br	8dfe4 <OSFlagCreate+0x100>
   8dfc8:	e0bffc17 	ldw	r2,-16(fp)
   8dfcc:	e0bffe15 	stw	r2,-8(fp)
   8dfd0:	e0bffe17 	ldw	r2,-8(fp)
   8dfd4:	1001703a 	wrctl	status,r2
   8dfd8:	e0fffa17 	ldw	r3,-24(fp)
   8dfdc:	00801c84 	movi	r2,114
   8dfe0:	18800005 	stb	r2,0(r3)
   8dfe4:	e0bffb17 	ldw	r2,-20(fp)
   8dfe8:	e0bfff15 	stw	r2,-4(fp)
   8dfec:	e0bfff17 	ldw	r2,-4(fp)
   8dff0:	df000717 	ldw	fp,28(sp)
   8dff4:	dec00804 	addi	sp,sp,32
   8dff8:	f800283a 	ret

0008dffc <OSFlagDel>:
   8dffc:	defff304 	addi	sp,sp,-52
   8e000:	dfc00c15 	stw	ra,48(sp)
   8e004:	df000b15 	stw	fp,44(sp)
   8e008:	df000b04 	addi	fp,sp,44
   8e00c:	e13ff515 	stw	r4,-44(fp)
   8e010:	e1bff715 	stw	r6,-36(fp)
   8e014:	e17ff605 	stb	r5,-40(fp)
   8e018:	e03ffb15 	stw	zero,-20(fp)
   8e01c:	e0bff717 	ldw	r2,-36(fp)
   8e020:	1004c03a 	cmpne	r2,r2,zero
   8e024:	1000031e 	bne	r2,zero,8e034 <OSFlagDel+0x38>
   8e028:	e0bff517 	ldw	r2,-44(fp)
   8e02c:	e0bffe15 	stw	r2,-8(fp)
   8e030:	00008c06 	br	8e264 <OSFlagDel+0x268>
   8e034:	e0bff517 	ldw	r2,-44(fp)
   8e038:	1004c03a 	cmpne	r2,r2,zero
   8e03c:	1000061e 	bne	r2,zero,8e058 <OSFlagDel+0x5c>
   8e040:	e0bff717 	ldw	r2,-36(fp)
   8e044:	00c01b84 	movi	r3,110
   8e048:	10c00005 	stb	r3,0(r2)
   8e04c:	e0bff517 	ldw	r2,-44(fp)
   8e050:	e0bffe15 	stw	r2,-8(fp)
   8e054:	00008306 	br	8e264 <OSFlagDel+0x268>
   8e058:	d0a70043 	ldbu	r2,-25599(gp)
   8e05c:	1005003a 	cmpeq	r2,r2,zero
   8e060:	1000061e 	bne	r2,zero,8e07c <OSFlagDel+0x80>
   8e064:	e0bff717 	ldw	r2,-36(fp)
   8e068:	00c003c4 	movi	r3,15
   8e06c:	10c00005 	stb	r3,0(r2)
   8e070:	e0bff517 	ldw	r2,-44(fp)
   8e074:	e0bffe15 	stw	r2,-8(fp)
   8e078:	00007a06 	br	8e264 <OSFlagDel+0x268>
   8e07c:	e0bff517 	ldw	r2,-44(fp)
   8e080:	10800003 	ldbu	r2,0(r2)
   8e084:	10800160 	cmpeqi	r2,r2,5
   8e088:	1000061e 	bne	r2,zero,8e0a4 <OSFlagDel+0xa8>
   8e08c:	e0bff717 	ldw	r2,-36(fp)
   8e090:	00c00044 	movi	r3,1
   8e094:	10c00005 	stb	r3,0(r2)
   8e098:	e0bff517 	ldw	r2,-44(fp)
   8e09c:	e0bffe15 	stw	r2,-8(fp)
   8e0a0:	00007006 	br	8e264 <OSFlagDel+0x268>
   8e0a4:	0005303a 	rdctl	r2,status
   8e0a8:	e0bffd15 	stw	r2,-12(fp)
   8e0ac:	e0fffd17 	ldw	r3,-12(fp)
   8e0b0:	00bfff84 	movi	r2,-2
   8e0b4:	1884703a 	and	r2,r3,r2
   8e0b8:	1001703a 	wrctl	status,r2
   8e0bc:	e0bffd17 	ldw	r2,-12(fp)
   8e0c0:	e0bffc15 	stw	r2,-16(fp)
   8e0c4:	e0bffc17 	ldw	r2,-16(fp)
   8e0c8:	e0bffb15 	stw	r2,-20(fp)
   8e0cc:	e0bff517 	ldw	r2,-44(fp)
   8e0d0:	10800117 	ldw	r2,4(r2)
   8e0d4:	1005003a 	cmpeq	r2,r2,zero
   8e0d8:	1000031e 	bne	r2,zero,8e0e8 <OSFlagDel+0xec>
   8e0dc:	00800044 	movi	r2,1
   8e0e0:	e0bff805 	stb	r2,-32(fp)
   8e0e4:	00000106 	br	8e0ec <OSFlagDel+0xf0>
   8e0e8:	e03ff805 	stb	zero,-32(fp)
   8e0ec:	e0bff603 	ldbu	r2,-40(fp)
   8e0f0:	e0bfff15 	stw	r2,-4(fp)
   8e0f4:	e0ffff17 	ldw	r3,-4(fp)
   8e0f8:	1805003a 	cmpeq	r2,r3,zero
   8e0fc:	1000041e 	bne	r2,zero,8e110 <OSFlagDel+0x114>
   8e100:	e0ffff17 	ldw	r3,-4(fp)
   8e104:	18800060 	cmpeqi	r2,r3,1
   8e108:	1000241e 	bne	r2,zero,8e19c <OSFlagDel+0x1a0>
   8e10c:	00004a06 	br	8e238 <OSFlagDel+0x23c>
   8e110:	e0bff803 	ldbu	r2,-32(fp)
   8e114:	1004c03a 	cmpne	r2,r2,zero
   8e118:	1000161e 	bne	r2,zero,8e174 <OSFlagDel+0x178>
   8e11c:	e0fff517 	ldw	r3,-44(fp)
   8e120:	00800fc4 	movi	r2,63
   8e124:	18800285 	stb	r2,10(r3)
   8e128:	e0bff517 	ldw	r2,-44(fp)
   8e12c:	100002c5 	stb	zero,11(r2)
   8e130:	e0bff517 	ldw	r2,-44(fp)
   8e134:	10000005 	stb	zero,0(r2)
   8e138:	e0fff517 	ldw	r3,-44(fp)
   8e13c:	d0a6fc17 	ldw	r2,-25616(gp)
   8e140:	18800115 	stw	r2,4(r3)
   8e144:	e0bff517 	ldw	r2,-44(fp)
   8e148:	1000020d 	sth	zero,8(r2)
   8e14c:	e0bff517 	ldw	r2,-44(fp)
   8e150:	d0a6fc15 	stw	r2,-25616(gp)
   8e154:	e0bffb17 	ldw	r2,-20(fp)
   8e158:	e0bffd15 	stw	r2,-12(fp)
   8e15c:	e0bffd17 	ldw	r2,-12(fp)
   8e160:	1001703a 	wrctl	status,r2
   8e164:	e0bff717 	ldw	r2,-36(fp)
   8e168:	10000005 	stb	zero,0(r2)
   8e16c:	e03ffa15 	stw	zero,-24(fp)
   8e170:	00003a06 	br	8e25c <OSFlagDel+0x260>
   8e174:	e0bffb17 	ldw	r2,-20(fp)
   8e178:	e0bffd15 	stw	r2,-12(fp)
   8e17c:	e0bffd17 	ldw	r2,-12(fp)
   8e180:	1001703a 	wrctl	status,r2
   8e184:	e0fff717 	ldw	r3,-36(fp)
   8e188:	00801244 	movi	r2,73
   8e18c:	18800005 	stb	r2,0(r3)
   8e190:	e0bff517 	ldw	r2,-44(fp)
   8e194:	e0bffa15 	stw	r2,-24(fp)
   8e198:	00003006 	br	8e25c <OSFlagDel+0x260>
   8e19c:	e0bff517 	ldw	r2,-44(fp)
   8e1a0:	10800117 	ldw	r2,4(r2)
   8e1a4:	e0bff915 	stw	r2,-28(fp)
   8e1a8:	e0bff917 	ldw	r2,-28(fp)
   8e1ac:	1005003a 	cmpeq	r2,r2,zero
   8e1b0:	1000071e 	bne	r2,zero,8e1d0 <OSFlagDel+0x1d4>
   8e1b4:	e13ff917 	ldw	r4,-28(fp)
   8e1b8:	000b883a 	mov	r5,zero
   8e1bc:	008f1b00 	call	8f1b0 <OS_FlagTaskRdy>
   8e1c0:	e0bff917 	ldw	r2,-28(fp)
   8e1c4:	10800017 	ldw	r2,0(r2)
   8e1c8:	e0bff915 	stw	r2,-28(fp)
   8e1cc:	003ff606 	br	8e1a8 <OSFlagDel+0x1ac>
   8e1d0:	e0fff517 	ldw	r3,-44(fp)
   8e1d4:	00800fc4 	movi	r2,63
   8e1d8:	18800285 	stb	r2,10(r3)
   8e1dc:	e0bff517 	ldw	r2,-44(fp)
   8e1e0:	100002c5 	stb	zero,11(r2)
   8e1e4:	e0bff517 	ldw	r2,-44(fp)
   8e1e8:	10000005 	stb	zero,0(r2)
   8e1ec:	e0fff517 	ldw	r3,-44(fp)
   8e1f0:	d0a6fc17 	ldw	r2,-25616(gp)
   8e1f4:	18800115 	stw	r2,4(r3)
   8e1f8:	e0bff517 	ldw	r2,-44(fp)
   8e1fc:	1000020d 	sth	zero,8(r2)
   8e200:	e0bff517 	ldw	r2,-44(fp)
   8e204:	d0a6fc15 	stw	r2,-25616(gp)
   8e208:	e0bffb17 	ldw	r2,-20(fp)
   8e20c:	e0bffd15 	stw	r2,-12(fp)
   8e210:	e0bffd17 	ldw	r2,-12(fp)
   8e214:	1001703a 	wrctl	status,r2
   8e218:	e0bff803 	ldbu	r2,-32(fp)
   8e21c:	10800058 	cmpnei	r2,r2,1
   8e220:	1000011e 	bne	r2,zero,8e228 <OSFlagDel+0x22c>
   8e224:	008d3a00 	call	8d3a0 <OS_Sched>
   8e228:	e0bff717 	ldw	r2,-36(fp)
   8e22c:	10000005 	stb	zero,0(r2)
   8e230:	e03ffa15 	stw	zero,-24(fp)
   8e234:	00000906 	br	8e25c <OSFlagDel+0x260>
   8e238:	e0bffb17 	ldw	r2,-20(fp)
   8e23c:	e0bffd15 	stw	r2,-12(fp)
   8e240:	e0bffd17 	ldw	r2,-12(fp)
   8e244:	1001703a 	wrctl	status,r2
   8e248:	e0fff717 	ldw	r3,-36(fp)
   8e24c:	008001c4 	movi	r2,7
   8e250:	18800005 	stb	r2,0(r3)
   8e254:	e0bff517 	ldw	r2,-44(fp)
   8e258:	e0bffa15 	stw	r2,-24(fp)
   8e25c:	e0bffa17 	ldw	r2,-24(fp)
   8e260:	e0bffe15 	stw	r2,-8(fp)
   8e264:	e0bffe17 	ldw	r2,-8(fp)
   8e268:	dfc00c17 	ldw	ra,48(sp)
   8e26c:	df000b17 	ldw	fp,44(sp)
   8e270:	dec00d04 	addi	sp,sp,52
   8e274:	f800283a 	ret

0008e278 <OSFlagNameGet>:
   8e278:	defff604 	addi	sp,sp,-40
   8e27c:	dfc00915 	stw	ra,36(sp)
   8e280:	df000815 	stw	fp,32(sp)
   8e284:	df000804 	addi	fp,sp,32
   8e288:	e13ff815 	stw	r4,-32(fp)
   8e28c:	e17ff915 	stw	r5,-28(fp)
   8e290:	e1bffa15 	stw	r6,-24(fp)
   8e294:	e03ffc15 	stw	zero,-16(fp)
   8e298:	e0bffa17 	ldw	r2,-24(fp)
   8e29c:	1004c03a 	cmpne	r2,r2,zero
   8e2a0:	1000021e 	bne	r2,zero,8e2ac <OSFlagNameGet+0x34>
   8e2a4:	e03fff15 	stw	zero,-4(fp)
   8e2a8:	00003c06 	br	8e39c <OSFlagNameGet+0x124>
   8e2ac:	e0bff817 	ldw	r2,-32(fp)
   8e2b0:	1004c03a 	cmpne	r2,r2,zero
   8e2b4:	1000051e 	bne	r2,zero,8e2cc <OSFlagNameGet+0x54>
   8e2b8:	e0fffa17 	ldw	r3,-24(fp)
   8e2bc:	00801b84 	movi	r2,110
   8e2c0:	18800005 	stb	r2,0(r3)
   8e2c4:	e03fff15 	stw	zero,-4(fp)
   8e2c8:	00003406 	br	8e39c <OSFlagNameGet+0x124>
   8e2cc:	e0bff917 	ldw	r2,-28(fp)
   8e2d0:	1004c03a 	cmpne	r2,r2,zero
   8e2d4:	1000051e 	bne	r2,zero,8e2ec <OSFlagNameGet+0x74>
   8e2d8:	e0fffa17 	ldw	r3,-24(fp)
   8e2dc:	00800304 	movi	r2,12
   8e2e0:	18800005 	stb	r2,0(r3)
   8e2e4:	e03fff15 	stw	zero,-4(fp)
   8e2e8:	00002c06 	br	8e39c <OSFlagNameGet+0x124>
   8e2ec:	d0a70043 	ldbu	r2,-25599(gp)
   8e2f0:	1005003a 	cmpeq	r2,r2,zero
   8e2f4:	1000051e 	bne	r2,zero,8e30c <OSFlagNameGet+0x94>
   8e2f8:	e0fffa17 	ldw	r3,-24(fp)
   8e2fc:	00800444 	movi	r2,17
   8e300:	18800005 	stb	r2,0(r3)
   8e304:	e03fff15 	stw	zero,-4(fp)
   8e308:	00002406 	br	8e39c <OSFlagNameGet+0x124>
   8e30c:	0005303a 	rdctl	r2,status
   8e310:	e0bffe15 	stw	r2,-8(fp)
   8e314:	e0fffe17 	ldw	r3,-8(fp)
   8e318:	00bfff84 	movi	r2,-2
   8e31c:	1884703a 	and	r2,r3,r2
   8e320:	1001703a 	wrctl	status,r2
   8e324:	e0bffe17 	ldw	r2,-8(fp)
   8e328:	e0bffd15 	stw	r2,-12(fp)
   8e32c:	e0bffd17 	ldw	r2,-12(fp)
   8e330:	e0bffc15 	stw	r2,-16(fp)
   8e334:	e0bff817 	ldw	r2,-32(fp)
   8e338:	10800003 	ldbu	r2,0(r2)
   8e33c:	10800160 	cmpeqi	r2,r2,5
   8e340:	1000091e 	bne	r2,zero,8e368 <OSFlagNameGet+0xf0>
   8e344:	e0bffc17 	ldw	r2,-16(fp)
   8e348:	e0bffe15 	stw	r2,-8(fp)
   8e34c:	e0bffe17 	ldw	r2,-8(fp)
   8e350:	1001703a 	wrctl	status,r2
   8e354:	e0fffa17 	ldw	r3,-24(fp)
   8e358:	00800044 	movi	r2,1
   8e35c:	18800005 	stb	r2,0(r3)
   8e360:	e03fff15 	stw	zero,-4(fp)
   8e364:	00000d06 	br	8e39c <OSFlagNameGet+0x124>
   8e368:	e0bff817 	ldw	r2,-32(fp)
   8e36c:	11400284 	addi	r5,r2,10
   8e370:	e13ff917 	ldw	r4,-28(fp)
   8e374:	008d4c80 	call	8d4c8 <OS_StrCopy>
   8e378:	e0bffb05 	stb	r2,-20(fp)
   8e37c:	e0bffc17 	ldw	r2,-16(fp)
   8e380:	e0bffe15 	stw	r2,-8(fp)
   8e384:	e0bffe17 	ldw	r2,-8(fp)
   8e388:	1001703a 	wrctl	status,r2
   8e38c:	e0bffa17 	ldw	r2,-24(fp)
   8e390:	10000005 	stb	zero,0(r2)
   8e394:	e0bffb03 	ldbu	r2,-20(fp)
   8e398:	e0bfff15 	stw	r2,-4(fp)
   8e39c:	e0bfff17 	ldw	r2,-4(fp)
   8e3a0:	dfc00917 	ldw	ra,36(sp)
   8e3a4:	df000817 	ldw	fp,32(sp)
   8e3a8:	dec00a04 	addi	sp,sp,40
   8e3ac:	f800283a 	ret

0008e3b0 <OSFlagNameSet>:
   8e3b0:	defff704 	addi	sp,sp,-36
   8e3b4:	dfc00815 	stw	ra,32(sp)
   8e3b8:	df000715 	stw	fp,28(sp)
   8e3bc:	df000704 	addi	fp,sp,28
   8e3c0:	e13ff915 	stw	r4,-28(fp)
   8e3c4:	e17ffa15 	stw	r5,-24(fp)
   8e3c8:	e1bffb15 	stw	r6,-20(fp)
   8e3cc:	e03ffd15 	stw	zero,-12(fp)
   8e3d0:	e0bffb17 	ldw	r2,-20(fp)
   8e3d4:	1004c03a 	cmpne	r2,r2,zero
   8e3d8:	1000011e 	bne	r2,zero,8e3e0 <OSFlagNameSet+0x30>
   8e3dc:	00004306 	br	8e4ec <OSFlagNameSet+0x13c>
   8e3e0:	e0bff917 	ldw	r2,-28(fp)
   8e3e4:	1004c03a 	cmpne	r2,r2,zero
   8e3e8:	1000041e 	bne	r2,zero,8e3fc <OSFlagNameSet+0x4c>
   8e3ec:	e0fffb17 	ldw	r3,-20(fp)
   8e3f0:	00801b84 	movi	r2,110
   8e3f4:	18800005 	stb	r2,0(r3)
   8e3f8:	00003c06 	br	8e4ec <OSFlagNameSet+0x13c>
   8e3fc:	e0bffa17 	ldw	r2,-24(fp)
   8e400:	1004c03a 	cmpne	r2,r2,zero
   8e404:	1000041e 	bne	r2,zero,8e418 <OSFlagNameSet+0x68>
   8e408:	e0fffb17 	ldw	r3,-20(fp)
   8e40c:	00800304 	movi	r2,12
   8e410:	18800005 	stb	r2,0(r3)
   8e414:	00003506 	br	8e4ec <OSFlagNameSet+0x13c>
   8e418:	d0a70043 	ldbu	r2,-25599(gp)
   8e41c:	1005003a 	cmpeq	r2,r2,zero
   8e420:	1000041e 	bne	r2,zero,8e434 <OSFlagNameSet+0x84>
   8e424:	e0fffb17 	ldw	r3,-20(fp)
   8e428:	00800484 	movi	r2,18
   8e42c:	18800005 	stb	r2,0(r3)
   8e430:	00002e06 	br	8e4ec <OSFlagNameSet+0x13c>
   8e434:	0005303a 	rdctl	r2,status
   8e438:	e0bfff15 	stw	r2,-4(fp)
   8e43c:	e0ffff17 	ldw	r3,-4(fp)
   8e440:	00bfff84 	movi	r2,-2
   8e444:	1884703a 	and	r2,r3,r2
   8e448:	1001703a 	wrctl	status,r2
   8e44c:	e0bfff17 	ldw	r2,-4(fp)
   8e450:	e0bffe15 	stw	r2,-8(fp)
   8e454:	e0bffe17 	ldw	r2,-8(fp)
   8e458:	e0bffd15 	stw	r2,-12(fp)
   8e45c:	e0bff917 	ldw	r2,-28(fp)
   8e460:	10800003 	ldbu	r2,0(r2)
   8e464:	10800160 	cmpeqi	r2,r2,5
   8e468:	1000081e 	bne	r2,zero,8e48c <OSFlagNameSet+0xdc>
   8e46c:	e0bffd17 	ldw	r2,-12(fp)
   8e470:	e0bfff15 	stw	r2,-4(fp)
   8e474:	e0bfff17 	ldw	r2,-4(fp)
   8e478:	1001703a 	wrctl	status,r2
   8e47c:	e0fffb17 	ldw	r3,-20(fp)
   8e480:	00800044 	movi	r2,1
   8e484:	18800005 	stb	r2,0(r3)
   8e488:	00001806 	br	8e4ec <OSFlagNameSet+0x13c>
   8e48c:	e13ffa17 	ldw	r4,-24(fp)
   8e490:	008d5400 	call	8d540 <OS_StrLen>
   8e494:	e0bffc05 	stb	r2,-16(fp)
   8e498:	e0bffc03 	ldbu	r2,-16(fp)
   8e49c:	10800830 	cmpltui	r2,r2,32
   8e4a0:	1000081e 	bne	r2,zero,8e4c4 <OSFlagNameSet+0x114>
   8e4a4:	e0bffd17 	ldw	r2,-12(fp)
   8e4a8:	e0bfff15 	stw	r2,-4(fp)
   8e4ac:	e0bfff17 	ldw	r2,-4(fp)
   8e4b0:	1001703a 	wrctl	status,r2
   8e4b4:	e0fffb17 	ldw	r3,-20(fp)
   8e4b8:	00801cc4 	movi	r2,115
   8e4bc:	18800005 	stb	r2,0(r3)
   8e4c0:	00000a06 	br	8e4ec <OSFlagNameSet+0x13c>
   8e4c4:	e0bff917 	ldw	r2,-28(fp)
   8e4c8:	11000284 	addi	r4,r2,10
   8e4cc:	e17ffa17 	ldw	r5,-24(fp)
   8e4d0:	008d4c80 	call	8d4c8 <OS_StrCopy>
   8e4d4:	e0bffd17 	ldw	r2,-12(fp)
   8e4d8:	e0bfff15 	stw	r2,-4(fp)
   8e4dc:	e0bfff17 	ldw	r2,-4(fp)
   8e4e0:	1001703a 	wrctl	status,r2
   8e4e4:	e0bffb17 	ldw	r2,-20(fp)
   8e4e8:	10000005 	stb	zero,0(r2)
   8e4ec:	dfc00817 	ldw	ra,32(sp)
   8e4f0:	df000717 	ldw	fp,28(sp)
   8e4f4:	dec00904 	addi	sp,sp,36
   8e4f8:	f800283a 	ret

0008e4fc <OSFlagPend>:
   8e4fc:	deffed04 	addi	sp,sp,-76
   8e500:	dfc01215 	stw	ra,72(sp)
   8e504:	df001115 	stw	fp,68(sp)
   8e508:	df001104 	addi	fp,sp,68
   8e50c:	e13ff015 	stw	r4,-64(fp)
   8e510:	e17ff10d 	sth	r5,-60(fp)
   8e514:	e1bff185 	stb	r6,-58(fp)
   8e518:	e1fff20d 	sth	r7,-56(fp)
   8e51c:	e03ffa15 	stw	zero,-24(fp)
   8e520:	e0800217 	ldw	r2,8(fp)
   8e524:	1004c03a 	cmpne	r2,r2,zero
   8e528:	1000021e 	bne	r2,zero,8e534 <OSFlagPend+0x38>
   8e52c:	e03ffd15 	stw	zero,-12(fp)
   8e530:	00015e06 	br	8eaac <OSFlagPend+0x5b0>
   8e534:	e0bff017 	ldw	r2,-64(fp)
   8e538:	1004c03a 	cmpne	r2,r2,zero
   8e53c:	1000051e 	bne	r2,zero,8e554 <OSFlagPend+0x58>
   8e540:	e0c00217 	ldw	r3,8(fp)
   8e544:	00801b84 	movi	r2,110
   8e548:	18800005 	stb	r2,0(r3)
   8e54c:	e03ffd15 	stw	zero,-12(fp)
   8e550:	00015606 	br	8eaac <OSFlagPend+0x5b0>
   8e554:	d0a70043 	ldbu	r2,-25599(gp)
   8e558:	1005003a 	cmpeq	r2,r2,zero
   8e55c:	1000051e 	bne	r2,zero,8e574 <OSFlagPend+0x78>
   8e560:	e0c00217 	ldw	r3,8(fp)
   8e564:	00800084 	movi	r2,2
   8e568:	18800005 	stb	r2,0(r3)
   8e56c:	e03ffd15 	stw	zero,-12(fp)
   8e570:	00014e06 	br	8eaac <OSFlagPend+0x5b0>
   8e574:	d0a70083 	ldbu	r2,-25598(gp)
   8e578:	1005003a 	cmpeq	r2,r2,zero
   8e57c:	1000051e 	bne	r2,zero,8e594 <OSFlagPend+0x98>
   8e580:	e0c00217 	ldw	r3,8(fp)
   8e584:	00800344 	movi	r2,13
   8e588:	18800005 	stb	r2,0(r3)
   8e58c:	e03ffd15 	stw	zero,-12(fp)
   8e590:	00014606 	br	8eaac <OSFlagPend+0x5b0>
   8e594:	e0bff017 	ldw	r2,-64(fp)
   8e598:	10800003 	ldbu	r2,0(r2)
   8e59c:	10800160 	cmpeqi	r2,r2,5
   8e5a0:	1000051e 	bne	r2,zero,8e5b8 <OSFlagPend+0xbc>
   8e5a4:	e0c00217 	ldw	r3,8(fp)
   8e5a8:	00800044 	movi	r2,1
   8e5ac:	18800005 	stb	r2,0(r3)
   8e5b0:	e03ffd15 	stw	zero,-12(fp)
   8e5b4:	00013d06 	br	8eaac <OSFlagPend+0x5b0>
   8e5b8:	e0fff183 	ldbu	r3,-58(fp)
   8e5bc:	00bfe004 	movi	r2,-128
   8e5c0:	1884703a 	and	r2,r3,r2
   8e5c4:	e0bff885 	stb	r2,-30(fp)
   8e5c8:	e0bff883 	ldbu	r2,-30(fp)
   8e5cc:	1005003a 	cmpeq	r2,r2,zero
   8e5d0:	1000071e 	bne	r2,zero,8e5f0 <OSFlagPend+0xf4>
   8e5d4:	00c01fc4 	movi	r3,127
   8e5d8:	e0bff183 	ldbu	r2,-58(fp)
   8e5dc:	10c4703a 	and	r2,r2,r3
   8e5e0:	e0bff185 	stb	r2,-58(fp)
   8e5e4:	00800044 	movi	r2,1
   8e5e8:	e0bff905 	stb	r2,-28(fp)
   8e5ec:	00000106 	br	8e5f4 <OSFlagPend+0xf8>
   8e5f0:	e03ff905 	stb	zero,-28(fp)
   8e5f4:	0005303a 	rdctl	r2,status
   8e5f8:	e0bffc15 	stw	r2,-16(fp)
   8e5fc:	e0fffc17 	ldw	r3,-16(fp)
   8e600:	00bfff84 	movi	r2,-2
   8e604:	1884703a 	and	r2,r3,r2
   8e608:	1001703a 	wrctl	status,r2
   8e60c:	e0bffc17 	ldw	r2,-16(fp)
   8e610:	e0bffb15 	stw	r2,-20(fp)
   8e614:	e0bffb17 	ldw	r2,-20(fp)
   8e618:	e0bffa15 	stw	r2,-24(fp)
   8e61c:	e0bff183 	ldbu	r2,-58(fp)
   8e620:	e0bffe15 	stw	r2,-8(fp)
   8e624:	e0fffe17 	ldw	r3,-8(fp)
   8e628:	18800060 	cmpeqi	r2,r3,1
   8e62c:	10008d1e 	bne	r2,zero,8e864 <OSFlagPend+0x368>
   8e630:	e0fffe17 	ldw	r3,-8(fp)
   8e634:	18800088 	cmpgei	r2,r3,2
   8e638:	1000041e 	bne	r2,zero,8e64c <OSFlagPend+0x150>
   8e63c:	e0fffe17 	ldw	r3,-8(fp)
   8e640:	1805003a 	cmpeq	r2,r3,zero
   8e644:	10005c1e 	bne	r2,zero,8e7b8 <OSFlagPend+0x2bc>
   8e648:	0000b106 	br	8e910 <OSFlagPend+0x414>
   8e64c:	e0fffe17 	ldw	r3,-8(fp)
   8e650:	188000a0 	cmpeqi	r2,r3,2
   8e654:	1000041e 	bne	r2,zero,8e668 <OSFlagPend+0x16c>
   8e658:	e0fffe17 	ldw	r3,-8(fp)
   8e65c:	188000e0 	cmpeqi	r2,r3,3
   8e660:	10002b1e 	bne	r2,zero,8e710 <OSFlagPend+0x214>
   8e664:	0000aa06 	br	8e910 <OSFlagPend+0x414>
   8e668:	e0bff017 	ldw	r2,-64(fp)
   8e66c:	10c0020b 	ldhu	r3,8(r2)
   8e670:	e0bff10b 	ldhu	r2,-60(fp)
   8e674:	1884703a 	and	r2,r3,r2
   8e678:	e0bff80d 	sth	r2,-32(fp)
   8e67c:	e0fff80b 	ldhu	r3,-32(fp)
   8e680:	e0bff10b 	ldhu	r2,-60(fp)
   8e684:	1880161e 	bne	r3,r2,8e6e0 <OSFlagPend+0x1e4>
   8e688:	e0bff903 	ldbu	r2,-28(fp)
   8e68c:	10800058 	cmpnei	r2,r2,1
   8e690:	1000071e 	bne	r2,zero,8e6b0 <OSFlagPend+0x1b4>
   8e694:	e13ff017 	ldw	r4,-64(fp)
   8e698:	e0fff017 	ldw	r3,-64(fp)
   8e69c:	e0bff80b 	ldhu	r2,-32(fp)
   8e6a0:	0084303a 	nor	r2,zero,r2
   8e6a4:	18c0020b 	ldhu	r3,8(r3)
   8e6a8:	1884703a 	and	r2,r3,r2
   8e6ac:	2080020d 	sth	r2,8(r4)
   8e6b0:	d0e70417 	ldw	r3,-25584(gp)
   8e6b4:	e0bff80b 	ldhu	r2,-32(fp)
   8e6b8:	18800b0d 	sth	r2,44(r3)
   8e6bc:	e0bffa17 	ldw	r2,-24(fp)
   8e6c0:	e0bffc15 	stw	r2,-16(fp)
   8e6c4:	e0bffc17 	ldw	r2,-16(fp)
   8e6c8:	1001703a 	wrctl	status,r2
   8e6cc:	e0800217 	ldw	r2,8(fp)
   8e6d0:	10000005 	stb	zero,0(r2)
   8e6d4:	e0bff80b 	ldhu	r2,-32(fp)
   8e6d8:	e0bffd15 	stw	r2,-12(fp)
   8e6dc:	0000f306 	br	8eaac <OSFlagPend+0x5b0>
   8e6e0:	e17ff304 	addi	r5,fp,-52
   8e6e4:	e1bff10b 	ldhu	r6,-60(fp)
   8e6e8:	e1fff183 	ldbu	r7,-58(fp)
   8e6ec:	e0bff20b 	ldhu	r2,-56(fp)
   8e6f0:	d8800015 	stw	r2,0(sp)
   8e6f4:	e13ff017 	ldw	r4,-64(fp)
   8e6f8:	008ef900 	call	8ef90 <OS_FlagBlock>
   8e6fc:	e0bffa17 	ldw	r2,-24(fp)
   8e700:	e0bffc15 	stw	r2,-16(fp)
   8e704:	e0bffc17 	ldw	r2,-16(fp)
   8e708:	1001703a 	wrctl	status,r2
   8e70c:	00008b06 	br	8e93c <OSFlagPend+0x440>
   8e710:	e0bff017 	ldw	r2,-64(fp)
   8e714:	10c0020b 	ldhu	r3,8(r2)
   8e718:	e0bff10b 	ldhu	r2,-60(fp)
   8e71c:	1884703a 	and	r2,r3,r2
   8e720:	e0bff80d 	sth	r2,-32(fp)
   8e724:	e0bff80b 	ldhu	r2,-32(fp)
   8e728:	1005003a 	cmpeq	r2,r2,zero
   8e72c:	1000161e 	bne	r2,zero,8e788 <OSFlagPend+0x28c>
   8e730:	e0bff903 	ldbu	r2,-28(fp)
   8e734:	10800058 	cmpnei	r2,r2,1
   8e738:	1000071e 	bne	r2,zero,8e758 <OSFlagPend+0x25c>
   8e73c:	e13ff017 	ldw	r4,-64(fp)
   8e740:	e0fff017 	ldw	r3,-64(fp)
   8e744:	e0bff80b 	ldhu	r2,-32(fp)
   8e748:	0084303a 	nor	r2,zero,r2
   8e74c:	18c0020b 	ldhu	r3,8(r3)
   8e750:	1884703a 	and	r2,r3,r2
   8e754:	2080020d 	sth	r2,8(r4)
   8e758:	d0e70417 	ldw	r3,-25584(gp)
   8e75c:	e0bff80b 	ldhu	r2,-32(fp)
   8e760:	18800b0d 	sth	r2,44(r3)
   8e764:	e0bffa17 	ldw	r2,-24(fp)
   8e768:	e0bffc15 	stw	r2,-16(fp)
   8e76c:	e0bffc17 	ldw	r2,-16(fp)
   8e770:	1001703a 	wrctl	status,r2
   8e774:	e0800217 	ldw	r2,8(fp)
   8e778:	10000005 	stb	zero,0(r2)
   8e77c:	e0bff80b 	ldhu	r2,-32(fp)
   8e780:	e0bffd15 	stw	r2,-12(fp)
   8e784:	0000c906 	br	8eaac <OSFlagPend+0x5b0>
   8e788:	e17ff304 	addi	r5,fp,-52
   8e78c:	e1bff10b 	ldhu	r6,-60(fp)
   8e790:	e1fff183 	ldbu	r7,-58(fp)
   8e794:	e0bff20b 	ldhu	r2,-56(fp)
   8e798:	d8800015 	stw	r2,0(sp)
   8e79c:	e13ff017 	ldw	r4,-64(fp)
   8e7a0:	008ef900 	call	8ef90 <OS_FlagBlock>
   8e7a4:	e0bffa17 	ldw	r2,-24(fp)
   8e7a8:	e0bffc15 	stw	r2,-16(fp)
   8e7ac:	e0bffc17 	ldw	r2,-16(fp)
   8e7b0:	1001703a 	wrctl	status,r2
   8e7b4:	00006106 	br	8e93c <OSFlagPend+0x440>
   8e7b8:	e0bff017 	ldw	r2,-64(fp)
   8e7bc:	1080020b 	ldhu	r2,8(r2)
   8e7c0:	0084303a 	nor	r2,zero,r2
   8e7c4:	1007883a 	mov	r3,r2
   8e7c8:	e0bff10b 	ldhu	r2,-60(fp)
   8e7cc:	1884703a 	and	r2,r3,r2
   8e7d0:	e0bff80d 	sth	r2,-32(fp)
   8e7d4:	e0fff80b 	ldhu	r3,-32(fp)
   8e7d8:	e0bff10b 	ldhu	r2,-60(fp)
   8e7dc:	1880151e 	bne	r3,r2,8e834 <OSFlagPend+0x338>
   8e7e0:	e0bff903 	ldbu	r2,-28(fp)
   8e7e4:	10800058 	cmpnei	r2,r2,1
   8e7e8:	1000061e 	bne	r2,zero,8e804 <OSFlagPend+0x308>
   8e7ec:	e13ff017 	ldw	r4,-64(fp)
   8e7f0:	e0bff017 	ldw	r2,-64(fp)
   8e7f4:	10c0020b 	ldhu	r3,8(r2)
   8e7f8:	e0bff80b 	ldhu	r2,-32(fp)
   8e7fc:	1884b03a 	or	r2,r3,r2
   8e800:	2080020d 	sth	r2,8(r4)
   8e804:	d0e70417 	ldw	r3,-25584(gp)
   8e808:	e0bff80b 	ldhu	r2,-32(fp)
   8e80c:	18800b0d 	sth	r2,44(r3)
   8e810:	e0bffa17 	ldw	r2,-24(fp)
   8e814:	e0bffc15 	stw	r2,-16(fp)
   8e818:	e0bffc17 	ldw	r2,-16(fp)
   8e81c:	1001703a 	wrctl	status,r2
   8e820:	e0800217 	ldw	r2,8(fp)
   8e824:	10000005 	stb	zero,0(r2)
   8e828:	e0bff80b 	ldhu	r2,-32(fp)
   8e82c:	e0bffd15 	stw	r2,-12(fp)
   8e830:	00009e06 	br	8eaac <OSFlagPend+0x5b0>
   8e834:	e17ff304 	addi	r5,fp,-52
   8e838:	e1bff10b 	ldhu	r6,-60(fp)
   8e83c:	e1fff183 	ldbu	r7,-58(fp)
   8e840:	e0bff20b 	ldhu	r2,-56(fp)
   8e844:	d8800015 	stw	r2,0(sp)
   8e848:	e13ff017 	ldw	r4,-64(fp)
   8e84c:	008ef900 	call	8ef90 <OS_FlagBlock>
   8e850:	e0bffa17 	ldw	r2,-24(fp)
   8e854:	e0bffc15 	stw	r2,-16(fp)
   8e858:	e0bffc17 	ldw	r2,-16(fp)
   8e85c:	1001703a 	wrctl	status,r2
   8e860:	00003606 	br	8e93c <OSFlagPend+0x440>
   8e864:	e0bff017 	ldw	r2,-64(fp)
   8e868:	1080020b 	ldhu	r2,8(r2)
   8e86c:	0084303a 	nor	r2,zero,r2
   8e870:	1007883a 	mov	r3,r2
   8e874:	e0bff10b 	ldhu	r2,-60(fp)
   8e878:	1884703a 	and	r2,r3,r2
   8e87c:	e0bff80d 	sth	r2,-32(fp)
   8e880:	e0bff80b 	ldhu	r2,-32(fp)
   8e884:	1005003a 	cmpeq	r2,r2,zero
   8e888:	1000151e 	bne	r2,zero,8e8e0 <OSFlagPend+0x3e4>
   8e88c:	e0bff903 	ldbu	r2,-28(fp)
   8e890:	10800058 	cmpnei	r2,r2,1
   8e894:	1000061e 	bne	r2,zero,8e8b0 <OSFlagPend+0x3b4>
   8e898:	e13ff017 	ldw	r4,-64(fp)
   8e89c:	e0bff017 	ldw	r2,-64(fp)
   8e8a0:	10c0020b 	ldhu	r3,8(r2)
   8e8a4:	e0bff80b 	ldhu	r2,-32(fp)
   8e8a8:	1884b03a 	or	r2,r3,r2
   8e8ac:	2080020d 	sth	r2,8(r4)
   8e8b0:	d0e70417 	ldw	r3,-25584(gp)
   8e8b4:	e0bff80b 	ldhu	r2,-32(fp)
   8e8b8:	18800b0d 	sth	r2,44(r3)
   8e8bc:	e0bffa17 	ldw	r2,-24(fp)
   8e8c0:	e0bffc15 	stw	r2,-16(fp)
   8e8c4:	e0bffc17 	ldw	r2,-16(fp)
   8e8c8:	1001703a 	wrctl	status,r2
   8e8cc:	e0800217 	ldw	r2,8(fp)
   8e8d0:	10000005 	stb	zero,0(r2)
   8e8d4:	e0bff80b 	ldhu	r2,-32(fp)
   8e8d8:	e0bffd15 	stw	r2,-12(fp)
   8e8dc:	00007306 	br	8eaac <OSFlagPend+0x5b0>
   8e8e0:	e17ff304 	addi	r5,fp,-52
   8e8e4:	e1bff10b 	ldhu	r6,-60(fp)
   8e8e8:	e1fff183 	ldbu	r7,-58(fp)
   8e8ec:	e0bff20b 	ldhu	r2,-56(fp)
   8e8f0:	d8800015 	stw	r2,0(sp)
   8e8f4:	e13ff017 	ldw	r4,-64(fp)
   8e8f8:	008ef900 	call	8ef90 <OS_FlagBlock>
   8e8fc:	e0bffa17 	ldw	r2,-24(fp)
   8e900:	e0bffc15 	stw	r2,-16(fp)
   8e904:	e0bffc17 	ldw	r2,-16(fp)
   8e908:	1001703a 	wrctl	status,r2
   8e90c:	00000b06 	br	8e93c <OSFlagPend+0x440>
   8e910:	e0bffa17 	ldw	r2,-24(fp)
   8e914:	e0bffc15 	stw	r2,-16(fp)
   8e918:	e0bffc17 	ldw	r2,-16(fp)
   8e91c:	1001703a 	wrctl	status,r2
   8e920:	e03ff80d 	sth	zero,-32(fp)
   8e924:	e0c00217 	ldw	r3,8(fp)
   8e928:	00801bc4 	movi	r2,111
   8e92c:	18800005 	stb	r2,0(r3)
   8e930:	e0bff80b 	ldhu	r2,-32(fp)
   8e934:	e0bffd15 	stw	r2,-12(fp)
   8e938:	00005c06 	br	8eaac <OSFlagPend+0x5b0>
   8e93c:	008d3a00 	call	8d3a0 <OS_Sched>
   8e940:	0005303a 	rdctl	r2,status
   8e944:	e0bffb15 	stw	r2,-20(fp)
   8e948:	e0fffb17 	ldw	r3,-20(fp)
   8e94c:	00bfff84 	movi	r2,-2
   8e950:	1884703a 	and	r2,r3,r2
   8e954:	1001703a 	wrctl	status,r2
   8e958:	e0bffb17 	ldw	r2,-20(fp)
   8e95c:	e0bffc15 	stw	r2,-16(fp)
   8e960:	e0bffc17 	ldw	r2,-16(fp)
   8e964:	e0bffa15 	stw	r2,-24(fp)
   8e968:	d0a70417 	ldw	r2,-25584(gp)
   8e96c:	10800c43 	ldbu	r2,49(r2)
   8e970:	1005003a 	cmpeq	r2,r2,zero
   8e974:	10001c1e 	bne	r2,zero,8e9e8 <OSFlagPend+0x4ec>
   8e978:	d0a70417 	ldw	r2,-25584(gp)
   8e97c:	10800c43 	ldbu	r2,49(r2)
   8e980:	e0bff8c5 	stb	r2,-29(fp)
   8e984:	d0a70417 	ldw	r2,-25584(gp)
   8e988:	10000c45 	stb	zero,49(r2)
   8e98c:	e13ff304 	addi	r4,fp,-52
   8e990:	008f28c0 	call	8f28c <OS_FlagUnlink>
   8e994:	d0a70417 	ldw	r2,-25584(gp)
   8e998:	10000c05 	stb	zero,48(r2)
   8e99c:	e0bffa17 	ldw	r2,-24(fp)
   8e9a0:	e0bffc15 	stw	r2,-16(fp)
   8e9a4:	e0bffc17 	ldw	r2,-16(fp)
   8e9a8:	1001703a 	wrctl	status,r2
   8e9ac:	e03ff80d 	sth	zero,-32(fp)
   8e9b0:	e0bff8c3 	ldbu	r2,-29(fp)
   8e9b4:	108000a0 	cmpeqi	r2,r2,2
   8e9b8:	1000011e 	bne	r2,zero,8e9c0 <OSFlagPend+0x4c4>
   8e9bc:	00000406 	br	8e9d0 <OSFlagPend+0x4d4>
   8e9c0:	e0c00217 	ldw	r3,8(fp)
   8e9c4:	00800384 	movi	r2,14
   8e9c8:	18800005 	stb	r2,0(r3)
   8e9cc:	00000306 	br	8e9dc <OSFlagPend+0x4e0>
   8e9d0:	e0c00217 	ldw	r3,8(fp)
   8e9d4:	00800284 	movi	r2,10
   8e9d8:	18800005 	stb	r2,0(r3)
   8e9dc:	e0bff80b 	ldhu	r2,-32(fp)
   8e9e0:	e0bffd15 	stw	r2,-12(fp)
   8e9e4:	00003106 	br	8eaac <OSFlagPend+0x5b0>
   8e9e8:	d0a70417 	ldw	r2,-25584(gp)
   8e9ec:	10800b0b 	ldhu	r2,44(r2)
   8e9f0:	e0bff80d 	sth	r2,-32(fp)
   8e9f4:	e0bff903 	ldbu	r2,-28(fp)
   8e9f8:	10800058 	cmpnei	r2,r2,1
   8e9fc:	1000231e 	bne	r2,zero,8ea8c <OSFlagPend+0x590>
   8ea00:	e0bff183 	ldbu	r2,-58(fp)
   8ea04:	e0bfff15 	stw	r2,-4(fp)
   8ea08:	e0ffff17 	ldw	r3,-4(fp)
   8ea0c:	1804803a 	cmplt	r2,r3,zero
   8ea10:	1000151e 	bne	r2,zero,8ea68 <OSFlagPend+0x56c>
   8ea14:	e0ffff17 	ldw	r3,-4(fp)
   8ea18:	18800090 	cmplti	r2,r3,2
   8ea1c:	10000b1e 	bne	r2,zero,8ea4c <OSFlagPend+0x550>
   8ea20:	e0ffff17 	ldw	r3,-4(fp)
   8ea24:	18800108 	cmpgei	r2,r3,4
   8ea28:	10000f1e 	bne	r2,zero,8ea68 <OSFlagPend+0x56c>
   8ea2c:	e13ff017 	ldw	r4,-64(fp)
   8ea30:	e0fff017 	ldw	r3,-64(fp)
   8ea34:	e0bff80b 	ldhu	r2,-32(fp)
   8ea38:	0084303a 	nor	r2,zero,r2
   8ea3c:	18c0020b 	ldhu	r3,8(r3)
   8ea40:	1884703a 	and	r2,r3,r2
   8ea44:	2080020d 	sth	r2,8(r4)
   8ea48:	00001006 	br	8ea8c <OSFlagPend+0x590>
   8ea4c:	e13ff017 	ldw	r4,-64(fp)
   8ea50:	e0bff017 	ldw	r2,-64(fp)
   8ea54:	10c0020b 	ldhu	r3,8(r2)
   8ea58:	e0bff80b 	ldhu	r2,-32(fp)
   8ea5c:	1884b03a 	or	r2,r3,r2
   8ea60:	2080020d 	sth	r2,8(r4)
   8ea64:	00000906 	br	8ea8c <OSFlagPend+0x590>
   8ea68:	e0bffa17 	ldw	r2,-24(fp)
   8ea6c:	e0bffc15 	stw	r2,-16(fp)
   8ea70:	e0bffc17 	ldw	r2,-16(fp)
   8ea74:	1001703a 	wrctl	status,r2
   8ea78:	e0c00217 	ldw	r3,8(fp)
   8ea7c:	00801bc4 	movi	r2,111
   8ea80:	18800005 	stb	r2,0(r3)
   8ea84:	e03ffd15 	stw	zero,-12(fp)
   8ea88:	00000806 	br	8eaac <OSFlagPend+0x5b0>
   8ea8c:	e0bffa17 	ldw	r2,-24(fp)
   8ea90:	e0bffc15 	stw	r2,-16(fp)
   8ea94:	e0bffc17 	ldw	r2,-16(fp)
   8ea98:	1001703a 	wrctl	status,r2
   8ea9c:	e0800217 	ldw	r2,8(fp)
   8eaa0:	10000005 	stb	zero,0(r2)
   8eaa4:	e0bff80b 	ldhu	r2,-32(fp)
   8eaa8:	e0bffd15 	stw	r2,-12(fp)
   8eaac:	e0bffd17 	ldw	r2,-12(fp)
   8eab0:	dfc01217 	ldw	ra,72(sp)
   8eab4:	df001117 	ldw	fp,68(sp)
   8eab8:	dec01304 	addi	sp,sp,76
   8eabc:	f800283a 	ret

0008eac0 <OSFlagPendGetFlagsRdy>:
   8eac0:	defffb04 	addi	sp,sp,-20
   8eac4:	df000415 	stw	fp,16(sp)
   8eac8:	df000404 	addi	fp,sp,16
   8eacc:	e03ffd15 	stw	zero,-12(fp)
   8ead0:	0005303a 	rdctl	r2,status
   8ead4:	e0bfff15 	stw	r2,-4(fp)
   8ead8:	e0ffff17 	ldw	r3,-4(fp)
   8eadc:	00bfff84 	movi	r2,-2
   8eae0:	1884703a 	and	r2,r3,r2
   8eae4:	1001703a 	wrctl	status,r2
   8eae8:	e0bfff17 	ldw	r2,-4(fp)
   8eaec:	e0bffe15 	stw	r2,-8(fp)
   8eaf0:	e0bffe17 	ldw	r2,-8(fp)
   8eaf4:	e0bffd15 	stw	r2,-12(fp)
   8eaf8:	d0a70417 	ldw	r2,-25584(gp)
   8eafc:	10800b0b 	ldhu	r2,44(r2)
   8eb00:	e0bffc0d 	sth	r2,-16(fp)
   8eb04:	e0bffd17 	ldw	r2,-12(fp)
   8eb08:	e0bfff15 	stw	r2,-4(fp)
   8eb0c:	e0bfff17 	ldw	r2,-4(fp)
   8eb10:	1001703a 	wrctl	status,r2
   8eb14:	e0bffc0b 	ldhu	r2,-16(fp)
   8eb18:	df000417 	ldw	fp,16(sp)
   8eb1c:	dec00504 	addi	sp,sp,20
   8eb20:	f800283a 	ret

0008eb24 <OSFlagPost>:
   8eb24:	defff204 	addi	sp,sp,-56
   8eb28:	dfc00d15 	stw	ra,52(sp)
   8eb2c:	df000c15 	stw	fp,48(sp)
   8eb30:	df000c04 	addi	fp,sp,48
   8eb34:	e13ff415 	stw	r4,-48(fp)
   8eb38:	e1fff615 	stw	r7,-40(fp)
   8eb3c:	e17ff50d 	sth	r5,-44(fp)
   8eb40:	e1bff585 	stb	r6,-42(fp)
   8eb44:	e03ffa15 	stw	zero,-24(fp)
   8eb48:	e0bff617 	ldw	r2,-40(fp)
   8eb4c:	1004c03a 	cmpne	r2,r2,zero
   8eb50:	1000021e 	bne	r2,zero,8eb5c <OSFlagPost+0x38>
   8eb54:	e03ffd15 	stw	zero,-12(fp)
   8eb58:	0000d306 	br	8eea8 <OSFlagPost+0x384>
   8eb5c:	e0bff417 	ldw	r2,-48(fp)
   8eb60:	1004c03a 	cmpne	r2,r2,zero
   8eb64:	1000051e 	bne	r2,zero,8eb7c <OSFlagPost+0x58>
   8eb68:	e0fff617 	ldw	r3,-40(fp)
   8eb6c:	00801b84 	movi	r2,110
   8eb70:	18800005 	stb	r2,0(r3)
   8eb74:	e03ffd15 	stw	zero,-12(fp)
   8eb78:	0000cb06 	br	8eea8 <OSFlagPost+0x384>
   8eb7c:	e0bff417 	ldw	r2,-48(fp)
   8eb80:	10800003 	ldbu	r2,0(r2)
   8eb84:	10800160 	cmpeqi	r2,r2,5
   8eb88:	1000051e 	bne	r2,zero,8eba0 <OSFlagPost+0x7c>
   8eb8c:	e0fff617 	ldw	r3,-40(fp)
   8eb90:	00800044 	movi	r2,1
   8eb94:	18800005 	stb	r2,0(r3)
   8eb98:	e03ffd15 	stw	zero,-12(fp)
   8eb9c:	0000c206 	br	8eea8 <OSFlagPost+0x384>
   8eba0:	0005303a 	rdctl	r2,status
   8eba4:	e0bffc15 	stw	r2,-16(fp)
   8eba8:	e0fffc17 	ldw	r3,-16(fp)
   8ebac:	00bfff84 	movi	r2,-2
   8ebb0:	1884703a 	and	r2,r3,r2
   8ebb4:	1001703a 	wrctl	status,r2
   8ebb8:	e0bffc17 	ldw	r2,-16(fp)
   8ebbc:	e0bffb15 	stw	r2,-20(fp)
   8ebc0:	e0bffb17 	ldw	r2,-20(fp)
   8ebc4:	e0bffa15 	stw	r2,-24(fp)
   8ebc8:	e0bff583 	ldbu	r2,-42(fp)
   8ebcc:	e0bffe15 	stw	r2,-8(fp)
   8ebd0:	e0fffe17 	ldw	r3,-8(fp)
   8ebd4:	1805003a 	cmpeq	r2,r3,zero
   8ebd8:	1000041e 	bne	r2,zero,8ebec <OSFlagPost+0xc8>
   8ebdc:	e0fffe17 	ldw	r3,-8(fp)
   8ebe0:	18800060 	cmpeqi	r2,r3,1
   8ebe4:	1000091e 	bne	r2,zero,8ec0c <OSFlagPost+0xe8>
   8ebe8:	00000f06 	br	8ec28 <OSFlagPost+0x104>
   8ebec:	e13ff417 	ldw	r4,-48(fp)
   8ebf0:	e0fff417 	ldw	r3,-48(fp)
   8ebf4:	e0bff50b 	ldhu	r2,-44(fp)
   8ebf8:	0084303a 	nor	r2,zero,r2
   8ebfc:	18c0020b 	ldhu	r3,8(r3)
   8ec00:	1884703a 	and	r2,r3,r2
   8ec04:	2080020d 	sth	r2,8(r4)
   8ec08:	00001006 	br	8ec4c <OSFlagPost+0x128>
   8ec0c:	e13ff417 	ldw	r4,-48(fp)
   8ec10:	e0bff417 	ldw	r2,-48(fp)
   8ec14:	10c0020b 	ldhu	r3,8(r2)
   8ec18:	e0bff50b 	ldhu	r2,-44(fp)
   8ec1c:	1884b03a 	or	r2,r3,r2
   8ec20:	2080020d 	sth	r2,8(r4)
   8ec24:	00000906 	br	8ec4c <OSFlagPost+0x128>
   8ec28:	e0bffa17 	ldw	r2,-24(fp)
   8ec2c:	e0bffc15 	stw	r2,-16(fp)
   8ec30:	e0bffc17 	ldw	r2,-16(fp)
   8ec34:	1001703a 	wrctl	status,r2
   8ec38:	e0fff617 	ldw	r3,-40(fp)
   8ec3c:	00801c44 	movi	r2,113
   8ec40:	18800005 	stb	r2,0(r3)
   8ec44:	e03ffd15 	stw	zero,-12(fp)
   8ec48:	00009706 	br	8eea8 <OSFlagPost+0x384>
   8ec4c:	e03ff805 	stb	zero,-32(fp)
   8ec50:	e0bff417 	ldw	r2,-48(fp)
   8ec54:	10800117 	ldw	r2,4(r2)
   8ec58:	e0bff715 	stw	r2,-36(fp)
   8ec5c:	e0bff717 	ldw	r2,-36(fp)
   8ec60:	1005003a 	cmpeq	r2,r2,zero
   8ec64:	1000731e 	bne	r2,zero,8ee34 <OSFlagPost+0x310>
   8ec68:	e0bff717 	ldw	r2,-36(fp)
   8ec6c:	10800483 	ldbu	r2,18(r2)
   8ec70:	e0bfff15 	stw	r2,-4(fp)
   8ec74:	e0ffff17 	ldw	r3,-4(fp)
   8ec78:	18800060 	cmpeqi	r2,r3,1
   8ec7c:	10004b1e 	bne	r2,zero,8edac <OSFlagPost+0x288>
   8ec80:	e0ffff17 	ldw	r3,-4(fp)
   8ec84:	18800088 	cmpgei	r2,r3,2
   8ec88:	1000041e 	bne	r2,zero,8ec9c <OSFlagPost+0x178>
   8ec8c:	e0ffff17 	ldw	r3,-4(fp)
   8ec90:	1805003a 	cmpeq	r2,r3,zero
   8ec94:	10002f1e 	bne	r2,zero,8ed54 <OSFlagPost+0x230>
   8ec98:	00005906 	br	8ee00 <OSFlagPost+0x2dc>
   8ec9c:	e0ffff17 	ldw	r3,-4(fp)
   8eca0:	188000a0 	cmpeqi	r2,r3,2
   8eca4:	1000041e 	bne	r2,zero,8ecb8 <OSFlagPost+0x194>
   8eca8:	e0ffff17 	ldw	r3,-4(fp)
   8ecac:	188000e0 	cmpeqi	r2,r3,3
   8ecb0:	1000151e 	bne	r2,zero,8ed08 <OSFlagPost+0x1e4>
   8ecb4:	00005206 	br	8ee00 <OSFlagPost+0x2dc>
   8ecb8:	e0bff417 	ldw	r2,-48(fp)
   8ecbc:	e0fff717 	ldw	r3,-36(fp)
   8ecc0:	1100020b 	ldhu	r4,8(r2)
   8ecc4:	1880040b 	ldhu	r2,16(r3)
   8ecc8:	2084703a 	and	r2,r4,r2
   8eccc:	e0bff90d 	sth	r2,-28(fp)
   8ecd0:	e0bff717 	ldw	r2,-36(fp)
   8ecd4:	10c0040b 	ldhu	r3,16(r2)
   8ecd8:	e0bff90b 	ldhu	r2,-28(fp)
   8ecdc:	1880511e 	bne	r3,r2,8ee24 <OSFlagPost+0x300>
   8ece0:	e17ff90b 	ldhu	r5,-28(fp)
   8ece4:	e13ff717 	ldw	r4,-36(fp)
   8ece8:	008f1b00 	call	8f1b0 <OS_FlagTaskRdy>
   8ecec:	e0bff985 	stb	r2,-26(fp)
   8ecf0:	e0bff983 	ldbu	r2,-26(fp)
   8ecf4:	10800058 	cmpnei	r2,r2,1
   8ecf8:	10004a1e 	bne	r2,zero,8ee24 <OSFlagPost+0x300>
   8ecfc:	00800044 	movi	r2,1
   8ed00:	e0bff805 	stb	r2,-32(fp)
   8ed04:	00004706 	br	8ee24 <OSFlagPost+0x300>
   8ed08:	e0bff417 	ldw	r2,-48(fp)
   8ed0c:	e0fff717 	ldw	r3,-36(fp)
   8ed10:	1100020b 	ldhu	r4,8(r2)
   8ed14:	1880040b 	ldhu	r2,16(r3)
   8ed18:	2084703a 	and	r2,r4,r2
   8ed1c:	e0bff90d 	sth	r2,-28(fp)
   8ed20:	e0bff90b 	ldhu	r2,-28(fp)
   8ed24:	1005003a 	cmpeq	r2,r2,zero
   8ed28:	10003e1e 	bne	r2,zero,8ee24 <OSFlagPost+0x300>
   8ed2c:	e17ff90b 	ldhu	r5,-28(fp)
   8ed30:	e13ff717 	ldw	r4,-36(fp)
   8ed34:	008f1b00 	call	8f1b0 <OS_FlagTaskRdy>
   8ed38:	e0bff985 	stb	r2,-26(fp)
   8ed3c:	e0bff983 	ldbu	r2,-26(fp)
   8ed40:	10800058 	cmpnei	r2,r2,1
   8ed44:	1000371e 	bne	r2,zero,8ee24 <OSFlagPost+0x300>
   8ed48:	00800044 	movi	r2,1
   8ed4c:	e0bff805 	stb	r2,-32(fp)
   8ed50:	00003406 	br	8ee24 <OSFlagPost+0x300>
   8ed54:	e0bff417 	ldw	r2,-48(fp)
   8ed58:	1080020b 	ldhu	r2,8(r2)
   8ed5c:	0084303a 	nor	r2,zero,r2
   8ed60:	e0fff717 	ldw	r3,-36(fp)
   8ed64:	1009883a 	mov	r4,r2
   8ed68:	1880040b 	ldhu	r2,16(r3)
   8ed6c:	2084703a 	and	r2,r4,r2
   8ed70:	e0bff90d 	sth	r2,-28(fp)
   8ed74:	e0bff717 	ldw	r2,-36(fp)
   8ed78:	10c0040b 	ldhu	r3,16(r2)
   8ed7c:	e0bff90b 	ldhu	r2,-28(fp)
   8ed80:	1880281e 	bne	r3,r2,8ee24 <OSFlagPost+0x300>
   8ed84:	e17ff90b 	ldhu	r5,-28(fp)
   8ed88:	e13ff717 	ldw	r4,-36(fp)
   8ed8c:	008f1b00 	call	8f1b0 <OS_FlagTaskRdy>
   8ed90:	e0bff985 	stb	r2,-26(fp)
   8ed94:	e0bff983 	ldbu	r2,-26(fp)
   8ed98:	10800058 	cmpnei	r2,r2,1
   8ed9c:	1000211e 	bne	r2,zero,8ee24 <OSFlagPost+0x300>
   8eda0:	00800044 	movi	r2,1
   8eda4:	e0bff805 	stb	r2,-32(fp)
   8eda8:	00001e06 	br	8ee24 <OSFlagPost+0x300>
   8edac:	e0bff417 	ldw	r2,-48(fp)
   8edb0:	1080020b 	ldhu	r2,8(r2)
   8edb4:	0084303a 	nor	r2,zero,r2
   8edb8:	e0fff717 	ldw	r3,-36(fp)
   8edbc:	1009883a 	mov	r4,r2
   8edc0:	1880040b 	ldhu	r2,16(r3)
   8edc4:	2084703a 	and	r2,r4,r2
   8edc8:	e0bff90d 	sth	r2,-28(fp)
   8edcc:	e0bff90b 	ldhu	r2,-28(fp)
   8edd0:	1005003a 	cmpeq	r2,r2,zero
   8edd4:	1000131e 	bne	r2,zero,8ee24 <OSFlagPost+0x300>
   8edd8:	e17ff90b 	ldhu	r5,-28(fp)
   8eddc:	e13ff717 	ldw	r4,-36(fp)
   8ede0:	008f1b00 	call	8f1b0 <OS_FlagTaskRdy>
   8ede4:	e0bff985 	stb	r2,-26(fp)
   8ede8:	e0bff983 	ldbu	r2,-26(fp)
   8edec:	10800058 	cmpnei	r2,r2,1
   8edf0:	10000c1e 	bne	r2,zero,8ee24 <OSFlagPost+0x300>
   8edf4:	00800044 	movi	r2,1
   8edf8:	e0bff805 	stb	r2,-32(fp)
   8edfc:	00000906 	br	8ee24 <OSFlagPost+0x300>
   8ee00:	e0bffa17 	ldw	r2,-24(fp)
   8ee04:	e0bffc15 	stw	r2,-16(fp)
   8ee08:	e0bffc17 	ldw	r2,-16(fp)
   8ee0c:	1001703a 	wrctl	status,r2
   8ee10:	e0fff617 	ldw	r3,-40(fp)
   8ee14:	00801bc4 	movi	r2,111
   8ee18:	18800005 	stb	r2,0(r3)
   8ee1c:	e03ffd15 	stw	zero,-12(fp)
   8ee20:	00002106 	br	8eea8 <OSFlagPost+0x384>
   8ee24:	e0bff717 	ldw	r2,-36(fp)
   8ee28:	10800017 	ldw	r2,0(r2)
   8ee2c:	e0bff715 	stw	r2,-36(fp)
   8ee30:	003f8a06 	br	8ec5c <OSFlagPost+0x138>
   8ee34:	e0bffa17 	ldw	r2,-24(fp)
   8ee38:	e0bffc15 	stw	r2,-16(fp)
   8ee3c:	e0bffc17 	ldw	r2,-16(fp)
   8ee40:	1001703a 	wrctl	status,r2
   8ee44:	e0bff803 	ldbu	r2,-32(fp)
   8ee48:	10800058 	cmpnei	r2,r2,1
   8ee4c:	1000011e 	bne	r2,zero,8ee54 <OSFlagPost+0x330>
   8ee50:	008d3a00 	call	8d3a0 <OS_Sched>
   8ee54:	0005303a 	rdctl	r2,status
   8ee58:	e0bffb15 	stw	r2,-20(fp)
   8ee5c:	e0fffb17 	ldw	r3,-20(fp)
   8ee60:	00bfff84 	movi	r2,-2
   8ee64:	1884703a 	and	r2,r3,r2
   8ee68:	1001703a 	wrctl	status,r2
   8ee6c:	e0bffb17 	ldw	r2,-20(fp)
   8ee70:	e0bffc15 	stw	r2,-16(fp)
   8ee74:	e0bffc17 	ldw	r2,-16(fp)
   8ee78:	e0bffa15 	stw	r2,-24(fp)
   8ee7c:	e0bff417 	ldw	r2,-48(fp)
   8ee80:	1080020b 	ldhu	r2,8(r2)
   8ee84:	e0bff88d 	sth	r2,-30(fp)
   8ee88:	e0bffa17 	ldw	r2,-24(fp)
   8ee8c:	e0bffc15 	stw	r2,-16(fp)
   8ee90:	e0bffc17 	ldw	r2,-16(fp)
   8ee94:	1001703a 	wrctl	status,r2
   8ee98:	e0bff617 	ldw	r2,-40(fp)
   8ee9c:	10000005 	stb	zero,0(r2)
   8eea0:	e0bff88b 	ldhu	r2,-30(fp)
   8eea4:	e0bffd15 	stw	r2,-12(fp)
   8eea8:	e0bffd17 	ldw	r2,-12(fp)
   8eeac:	dfc00d17 	ldw	ra,52(sp)
   8eeb0:	df000c17 	ldw	fp,48(sp)
   8eeb4:	dec00e04 	addi	sp,sp,56
   8eeb8:	f800283a 	ret

0008eebc <OSFlagQuery>:
   8eebc:	defff804 	addi	sp,sp,-32
   8eec0:	df000715 	stw	fp,28(sp)
   8eec4:	df000704 	addi	fp,sp,28
   8eec8:	e13ff915 	stw	r4,-28(fp)
   8eecc:	e17ffa15 	stw	r5,-24(fp)
   8eed0:	e03ffc15 	stw	zero,-16(fp)
   8eed4:	e0bffa17 	ldw	r2,-24(fp)
   8eed8:	1004c03a 	cmpne	r2,r2,zero
   8eedc:	1000021e 	bne	r2,zero,8eee8 <OSFlagQuery+0x2c>
   8eee0:	e03fff15 	stw	zero,-4(fp)
   8eee4:	00002606 	br	8ef80 <OSFlagQuery+0xc4>
   8eee8:	e0bff917 	ldw	r2,-28(fp)
   8eeec:	1004c03a 	cmpne	r2,r2,zero
   8eef0:	1000051e 	bne	r2,zero,8ef08 <OSFlagQuery+0x4c>
   8eef4:	e0fffa17 	ldw	r3,-24(fp)
   8eef8:	00801b84 	movi	r2,110
   8eefc:	18800005 	stb	r2,0(r3)
   8ef00:	e03fff15 	stw	zero,-4(fp)
   8ef04:	00001e06 	br	8ef80 <OSFlagQuery+0xc4>
   8ef08:	e0bff917 	ldw	r2,-28(fp)
   8ef0c:	10800003 	ldbu	r2,0(r2)
   8ef10:	10800160 	cmpeqi	r2,r2,5
   8ef14:	1000051e 	bne	r2,zero,8ef2c <OSFlagQuery+0x70>
   8ef18:	e0fffa17 	ldw	r3,-24(fp)
   8ef1c:	00800044 	movi	r2,1
   8ef20:	18800005 	stb	r2,0(r3)
   8ef24:	e03fff15 	stw	zero,-4(fp)
   8ef28:	00001506 	br	8ef80 <OSFlagQuery+0xc4>
   8ef2c:	0005303a 	rdctl	r2,status
   8ef30:	e0bffe15 	stw	r2,-8(fp)
   8ef34:	e0fffe17 	ldw	r3,-8(fp)
   8ef38:	00bfff84 	movi	r2,-2
   8ef3c:	1884703a 	and	r2,r3,r2
   8ef40:	1001703a 	wrctl	status,r2
   8ef44:	e0bffe17 	ldw	r2,-8(fp)
   8ef48:	e0bffd15 	stw	r2,-12(fp)
   8ef4c:	e0bffd17 	ldw	r2,-12(fp)
   8ef50:	e0bffc15 	stw	r2,-16(fp)
   8ef54:	e0bff917 	ldw	r2,-28(fp)
   8ef58:	1080020b 	ldhu	r2,8(r2)
   8ef5c:	e0bffb0d 	sth	r2,-20(fp)
   8ef60:	e0bffc17 	ldw	r2,-16(fp)
   8ef64:	e0bffe15 	stw	r2,-8(fp)
   8ef68:	e0bffe17 	ldw	r2,-8(fp)
   8ef6c:	1001703a 	wrctl	status,r2
   8ef70:	e0bffa17 	ldw	r2,-24(fp)
   8ef74:	10000005 	stb	zero,0(r2)
   8ef78:	e0bffb0b 	ldhu	r2,-20(fp)
   8ef7c:	e0bfff15 	stw	r2,-4(fp)
   8ef80:	e0bfff17 	ldw	r2,-4(fp)
   8ef84:	df000717 	ldw	fp,28(sp)
   8ef88:	dec00804 	addi	sp,sp,32
   8ef8c:	f800283a 	ret

0008ef90 <OS_FlagBlock>:
   8ef90:	defff904 	addi	sp,sp,-28
   8ef94:	df000615 	stw	fp,24(sp)
   8ef98:	df000604 	addi	fp,sp,24
   8ef9c:	e13ffa15 	stw	r4,-24(fp)
   8efa0:	e17ffb15 	stw	r5,-20(fp)
   8efa4:	e0800117 	ldw	r2,4(fp)
   8efa8:	e1bffc0d 	sth	r6,-16(fp)
   8efac:	e1fffc85 	stb	r7,-14(fp)
   8efb0:	e0bffd0d 	sth	r2,-12(fp)
   8efb4:	d0e70417 	ldw	r3,-25584(gp)
   8efb8:	d0a70417 	ldw	r2,-25584(gp)
   8efbc:	10800c03 	ldbu	r2,48(r2)
   8efc0:	10800814 	ori	r2,r2,32
   8efc4:	18800c05 	stb	r2,48(r3)
   8efc8:	d0a70417 	ldw	r2,-25584(gp)
   8efcc:	10000c45 	stb	zero,49(r2)
   8efd0:	d0e70417 	ldw	r3,-25584(gp)
   8efd4:	e0bffd0b 	ldhu	r2,-12(fp)
   8efd8:	18800b8d 	sth	r2,46(r3)
   8efdc:	d0e70417 	ldw	r3,-25584(gp)
   8efe0:	e0bffb17 	ldw	r2,-20(fp)
   8efe4:	18800a15 	stw	r2,40(r3)
   8efe8:	e0fffb17 	ldw	r3,-20(fp)
   8efec:	e0bffc0b 	ldhu	r2,-16(fp)
   8eff0:	1880040d 	sth	r2,16(r3)
   8eff4:	e0fffb17 	ldw	r3,-20(fp)
   8eff8:	e0bffc83 	ldbu	r2,-14(fp)
   8effc:	18800485 	stb	r2,18(r3)
   8f000:	e0fffb17 	ldw	r3,-20(fp)
   8f004:	d0a70417 	ldw	r2,-25584(gp)
   8f008:	18800215 	stw	r2,8(r3)
   8f00c:	e0fffb17 	ldw	r3,-20(fp)
   8f010:	e0bffa17 	ldw	r2,-24(fp)
   8f014:	10800117 	ldw	r2,4(r2)
   8f018:	18800015 	stw	r2,0(r3)
   8f01c:	e0bffb17 	ldw	r2,-20(fp)
   8f020:	10000115 	stw	zero,4(r2)
   8f024:	e0fffb17 	ldw	r3,-20(fp)
   8f028:	e0bffa17 	ldw	r2,-24(fp)
   8f02c:	18800315 	stw	r2,12(r3)
   8f030:	e0bffa17 	ldw	r2,-24(fp)
   8f034:	10800117 	ldw	r2,4(r2)
   8f038:	e0bffe15 	stw	r2,-8(fp)
   8f03c:	e0bffe17 	ldw	r2,-8(fp)
   8f040:	1005003a 	cmpeq	r2,r2,zero
   8f044:	1000031e 	bne	r2,zero,8f054 <OS_FlagBlock+0xc4>
   8f048:	e0fffe17 	ldw	r3,-8(fp)
   8f04c:	e0bffb17 	ldw	r2,-20(fp)
   8f050:	18800115 	stw	r2,4(r3)
   8f054:	e0fffa17 	ldw	r3,-24(fp)
   8f058:	e0bffb17 	ldw	r2,-20(fp)
   8f05c:	18800115 	stw	r2,4(r3)
   8f060:	d0a70417 	ldw	r2,-25584(gp)
   8f064:	10800d03 	ldbu	r2,52(r2)
   8f068:	e0bfff05 	stb	r2,-4(fp)
   8f06c:	e0ffff03 	ldbu	r3,-4(fp)
   8f070:	d0a70184 	addi	r2,gp,-25594
   8f074:	1889883a 	add	r4,r3,r2
   8f078:	e0ffff03 	ldbu	r3,-4(fp)
   8f07c:	d0a70184 	addi	r2,gp,-25594
   8f080:	1887883a 	add	r3,r3,r2
   8f084:	d0a70417 	ldw	r2,-25584(gp)
   8f088:	10800d43 	ldbu	r2,53(r2)
   8f08c:	0084303a 	nor	r2,zero,r2
   8f090:	18c00003 	ldbu	r3,0(r3)
   8f094:	1884703a 	and	r2,r3,r2
   8f098:	20800005 	stb	r2,0(r4)
   8f09c:	e0ffff03 	ldbu	r3,-4(fp)
   8f0a0:	d0a70184 	addi	r2,gp,-25594
   8f0a4:	1885883a 	add	r2,r3,r2
   8f0a8:	10800003 	ldbu	r2,0(r2)
   8f0ac:	1004c03a 	cmpne	r2,r2,zero
   8f0b0:	1000061e 	bne	r2,zero,8f0cc <OS_FlagBlock+0x13c>
   8f0b4:	d0a70417 	ldw	r2,-25584(gp)
   8f0b8:	10800d83 	ldbu	r2,54(r2)
   8f0bc:	0084303a 	nor	r2,zero,r2
   8f0c0:	d0e70143 	ldbu	r3,-25595(gp)
   8f0c4:	1884703a 	and	r2,r3,r2
   8f0c8:	d0a70145 	stb	r2,-25595(gp)
   8f0cc:	df000617 	ldw	fp,24(sp)
   8f0d0:	dec00704 	addi	sp,sp,28
   8f0d4:	f800283a 	ret

0008f0d8 <OS_FlagInit>:
   8f0d8:	defffb04 	addi	sp,sp,-20
   8f0dc:	dfc00415 	stw	ra,16(sp)
   8f0e0:	df000315 	stw	fp,12(sp)
   8f0e4:	df000304 	addi	fp,sp,12
   8f0e8:	010002b4 	movhi	r4,10
   8f0ec:	2109e704 	addi	r4,r4,10140
   8f0f0:	0140dc04 	movi	r5,880
   8f0f4:	008d2e80 	call	8d2e8 <OS_MemClr>
   8f0f8:	008002b4 	movhi	r2,10
   8f0fc:	1089e704 	addi	r2,r2,10140
   8f100:	e0bffe15 	stw	r2,-8(fp)
   8f104:	008002b4 	movhi	r2,10
   8f108:	1089f204 	addi	r2,r2,10184
   8f10c:	e0bfff15 	stw	r2,-4(fp)
   8f110:	e03ffd0d 	sth	zero,-12(fp)
   8f114:	e0bffd0b 	ldhu	r2,-12(fp)
   8f118:	108004e8 	cmpgeui	r2,r2,19
   8f11c:	1000141e 	bne	r2,zero,8f170 <OS_FlagInit+0x98>
   8f120:	e0bffe17 	ldw	r2,-8(fp)
   8f124:	10000005 	stb	zero,0(r2)
   8f128:	e0fffe17 	ldw	r3,-8(fp)
   8f12c:	e0bfff17 	ldw	r2,-4(fp)
   8f130:	18800115 	stw	r2,4(r3)
   8f134:	e0fffe17 	ldw	r3,-8(fp)
   8f138:	00800fc4 	movi	r2,63
   8f13c:	18800285 	stb	r2,10(r3)
   8f140:	e0bffe17 	ldw	r2,-8(fp)
   8f144:	100002c5 	stb	zero,11(r2)
   8f148:	e0bffe17 	ldw	r2,-8(fp)
   8f14c:	10800b04 	addi	r2,r2,44
   8f150:	e0bffe15 	stw	r2,-8(fp)
   8f154:	e0bfff17 	ldw	r2,-4(fp)
   8f158:	10800b04 	addi	r2,r2,44
   8f15c:	e0bfff15 	stw	r2,-4(fp)
   8f160:	e0bffd0b 	ldhu	r2,-12(fp)
   8f164:	10800044 	addi	r2,r2,1
   8f168:	e0bffd0d 	sth	r2,-12(fp)
   8f16c:	003fe906 	br	8f114 <OS_FlagInit+0x3c>
   8f170:	e0bffe17 	ldw	r2,-8(fp)
   8f174:	10000005 	stb	zero,0(r2)
   8f178:	e0bffe17 	ldw	r2,-8(fp)
   8f17c:	10000115 	stw	zero,4(r2)
   8f180:	e0fffe17 	ldw	r3,-8(fp)
   8f184:	00800fc4 	movi	r2,63
   8f188:	18800285 	stb	r2,10(r3)
   8f18c:	e0bffe17 	ldw	r2,-8(fp)
   8f190:	100002c5 	stb	zero,11(r2)
   8f194:	008002b4 	movhi	r2,10
   8f198:	1089e704 	addi	r2,r2,10140
   8f19c:	d0a6fc15 	stw	r2,-25616(gp)
   8f1a0:	dfc00417 	ldw	ra,16(sp)
   8f1a4:	df000317 	ldw	fp,12(sp)
   8f1a8:	dec00504 	addi	sp,sp,20
   8f1ac:	f800283a 	ret

0008f1b0 <OS_FlagTaskRdy>:
   8f1b0:	defffa04 	addi	sp,sp,-24
   8f1b4:	dfc00515 	stw	ra,20(sp)
   8f1b8:	df000415 	stw	fp,16(sp)
   8f1bc:	df000404 	addi	fp,sp,16
   8f1c0:	e13ffc15 	stw	r4,-16(fp)
   8f1c4:	e17ffd0d 	sth	r5,-12(fp)
   8f1c8:	e0bffc17 	ldw	r2,-16(fp)
   8f1cc:	10800217 	ldw	r2,8(r2)
   8f1d0:	e0bffe15 	stw	r2,-8(fp)
   8f1d4:	e0bffe17 	ldw	r2,-8(fp)
   8f1d8:	10000b8d 	sth	zero,46(r2)
   8f1dc:	e0fffe17 	ldw	r3,-8(fp)
   8f1e0:	e0bffd0b 	ldhu	r2,-12(fp)
   8f1e4:	18800b0d 	sth	r2,44(r3)
   8f1e8:	e13ffe17 	ldw	r4,-8(fp)
   8f1ec:	e0bffe17 	ldw	r2,-8(fp)
   8f1f0:	10c00c03 	ldbu	r3,48(r2)
   8f1f4:	00bff7c4 	movi	r2,-33
   8f1f8:	1884703a 	and	r2,r3,r2
   8f1fc:	20800c05 	stb	r2,48(r4)
   8f200:	e0bffe17 	ldw	r2,-8(fp)
   8f204:	10000c45 	stb	zero,49(r2)
   8f208:	e0bffe17 	ldw	r2,-8(fp)
   8f20c:	10800c03 	ldbu	r2,48(r2)
   8f210:	1004c03a 	cmpne	r2,r2,zero
   8f214:	1000151e 	bne	r2,zero,8f26c <OS_FlagTaskRdy+0xbc>
   8f218:	e0bffe17 	ldw	r2,-8(fp)
   8f21c:	d0e70143 	ldbu	r3,-25595(gp)
   8f220:	10800d83 	ldbu	r2,54(r2)
   8f224:	1884b03a 	or	r2,r3,r2
   8f228:	d0a70145 	stb	r2,-25595(gp)
   8f22c:	e0bffe17 	ldw	r2,-8(fp)
   8f230:	10c00d03 	ldbu	r3,52(r2)
   8f234:	d0a70184 	addi	r2,gp,-25594
   8f238:	188b883a 	add	r5,r3,r2
   8f23c:	e0bffe17 	ldw	r2,-8(fp)
   8f240:	10c00d03 	ldbu	r3,52(r2)
   8f244:	d0a70184 	addi	r2,gp,-25594
   8f248:	1885883a 	add	r2,r3,r2
   8f24c:	e0fffe17 	ldw	r3,-8(fp)
   8f250:	11000003 	ldbu	r4,0(r2)
   8f254:	18800d43 	ldbu	r2,53(r3)
   8f258:	2084b03a 	or	r2,r4,r2
   8f25c:	28800005 	stb	r2,0(r5)
   8f260:	00800044 	movi	r2,1
   8f264:	e0bfff05 	stb	r2,-4(fp)
   8f268:	00000106 	br	8f270 <OS_FlagTaskRdy+0xc0>
   8f26c:	e03fff05 	stb	zero,-4(fp)
   8f270:	e13ffc17 	ldw	r4,-16(fp)
   8f274:	008f28c0 	call	8f28c <OS_FlagUnlink>
   8f278:	e0bfff03 	ldbu	r2,-4(fp)
   8f27c:	dfc00517 	ldw	ra,20(sp)
   8f280:	df000417 	ldw	fp,16(sp)
   8f284:	dec00604 	addi	sp,sp,24
   8f288:	f800283a 	ret

0008f28c <OS_FlagUnlink>:
   8f28c:	defffa04 	addi	sp,sp,-24
   8f290:	df000515 	stw	fp,20(sp)
   8f294:	df000504 	addi	fp,sp,20
   8f298:	e13ffb15 	stw	r4,-20(fp)
   8f29c:	e0bffb17 	ldw	r2,-20(fp)
   8f2a0:	10800117 	ldw	r2,4(r2)
   8f2a4:	e0bffe15 	stw	r2,-8(fp)
   8f2a8:	e0bffb17 	ldw	r2,-20(fp)
   8f2ac:	10800017 	ldw	r2,0(r2)
   8f2b0:	e0bfff15 	stw	r2,-4(fp)
   8f2b4:	e0bffe17 	ldw	r2,-8(fp)
   8f2b8:	1004c03a 	cmpne	r2,r2,zero
   8f2bc:	10000c1e 	bne	r2,zero,8f2f0 <OS_FlagUnlink+0x64>
   8f2c0:	e0bffb17 	ldw	r2,-20(fp)
   8f2c4:	10800317 	ldw	r2,12(r2)
   8f2c8:	e0bffd15 	stw	r2,-12(fp)
   8f2cc:	e0fffd17 	ldw	r3,-12(fp)
   8f2d0:	e0bfff17 	ldw	r2,-4(fp)
   8f2d4:	18800115 	stw	r2,4(r3)
   8f2d8:	e0bfff17 	ldw	r2,-4(fp)
   8f2dc:	1005003a 	cmpeq	r2,r2,zero
   8f2e0:	10000c1e 	bne	r2,zero,8f314 <OS_FlagUnlink+0x88>
   8f2e4:	e0bfff17 	ldw	r2,-4(fp)
   8f2e8:	10000115 	stw	zero,4(r2)
   8f2ec:	00000906 	br	8f314 <OS_FlagUnlink+0x88>
   8f2f0:	e0fffe17 	ldw	r3,-8(fp)
   8f2f4:	e0bfff17 	ldw	r2,-4(fp)
   8f2f8:	18800015 	stw	r2,0(r3)
   8f2fc:	e0bfff17 	ldw	r2,-4(fp)
   8f300:	1005003a 	cmpeq	r2,r2,zero
   8f304:	1000031e 	bne	r2,zero,8f314 <OS_FlagUnlink+0x88>
   8f308:	e0ffff17 	ldw	r3,-4(fp)
   8f30c:	e0bffe17 	ldw	r2,-8(fp)
   8f310:	18800115 	stw	r2,4(r3)
   8f314:	e0bffb17 	ldw	r2,-20(fp)
   8f318:	10800217 	ldw	r2,8(r2)
   8f31c:	e0bffc15 	stw	r2,-16(fp)
   8f320:	e0bffc17 	ldw	r2,-16(fp)
   8f324:	10000a15 	stw	zero,40(r2)
   8f328:	df000517 	ldw	fp,20(sp)
   8f32c:	dec00604 	addi	sp,sp,24
   8f330:	f800283a 	ret

0008f334 <OSMemCreate>:
   8f334:	defff304 	addi	sp,sp,-52
   8f338:	df000c15 	stw	fp,48(sp)
   8f33c:	df000c04 	addi	fp,sp,48
   8f340:	e13ff415 	stw	r4,-48(fp)
   8f344:	e17ff515 	stw	r5,-44(fp)
   8f348:	e1bff615 	stw	r6,-40(fp)
   8f34c:	e1fff715 	stw	r7,-36(fp)
   8f350:	e03ffc15 	stw	zero,-16(fp)
   8f354:	e0bff717 	ldw	r2,-36(fp)
   8f358:	1004c03a 	cmpne	r2,r2,zero
   8f35c:	1000021e 	bne	r2,zero,8f368 <OSMemCreate+0x34>
   8f360:	e03fff15 	stw	zero,-4(fp)
   8f364:	00006c06 	br	8f518 <OSMemCreate+0x1e4>
   8f368:	e0bff417 	ldw	r2,-48(fp)
   8f36c:	1004c03a 	cmpne	r2,r2,zero
   8f370:	1000051e 	bne	r2,zero,8f388 <OSMemCreate+0x54>
   8f374:	e0fff717 	ldw	r3,-36(fp)
   8f378:	00801884 	movi	r2,98
   8f37c:	18800005 	stb	r2,0(r3)
   8f380:	e03fff15 	stw	zero,-4(fp)
   8f384:	00006406 	br	8f518 <OSMemCreate+0x1e4>
   8f388:	e0bff417 	ldw	r2,-48(fp)
   8f38c:	108000cc 	andi	r2,r2,3
   8f390:	1005003a 	cmpeq	r2,r2,zero
   8f394:	1000051e 	bne	r2,zero,8f3ac <OSMemCreate+0x78>
   8f398:	e0fff717 	ldw	r3,-36(fp)
   8f39c:	00801884 	movi	r2,98
   8f3a0:	18800005 	stb	r2,0(r3)
   8f3a4:	e03fff15 	stw	zero,-4(fp)
   8f3a8:	00005b06 	br	8f518 <OSMemCreate+0x1e4>
   8f3ac:	e0bff517 	ldw	r2,-44(fp)
   8f3b0:	108000a8 	cmpgeui	r2,r2,2
   8f3b4:	1000051e 	bne	r2,zero,8f3cc <OSMemCreate+0x98>
   8f3b8:	e0fff717 	ldw	r3,-36(fp)
   8f3bc:	008016c4 	movi	r2,91
   8f3c0:	18800005 	stb	r2,0(r3)
   8f3c4:	e03fff15 	stw	zero,-4(fp)
   8f3c8:	00005306 	br	8f518 <OSMemCreate+0x1e4>
   8f3cc:	e0bff617 	ldw	r2,-40(fp)
   8f3d0:	10800128 	cmpgeui	r2,r2,4
   8f3d4:	1000051e 	bne	r2,zero,8f3ec <OSMemCreate+0xb8>
   8f3d8:	e0fff717 	ldw	r3,-36(fp)
   8f3dc:	00801704 	movi	r2,92
   8f3e0:	18800005 	stb	r2,0(r3)
   8f3e4:	e03fff15 	stw	zero,-4(fp)
   8f3e8:	00004b06 	br	8f518 <OSMemCreate+0x1e4>
   8f3ec:	0005303a 	rdctl	r2,status
   8f3f0:	e0bffe15 	stw	r2,-8(fp)
   8f3f4:	e0fffe17 	ldw	r3,-8(fp)
   8f3f8:	00bfff84 	movi	r2,-2
   8f3fc:	1884703a 	and	r2,r3,r2
   8f400:	1001703a 	wrctl	status,r2
   8f404:	e0bffe17 	ldw	r2,-8(fp)
   8f408:	e0bffd15 	stw	r2,-12(fp)
   8f40c:	e0bffd17 	ldw	r2,-12(fp)
   8f410:	e0bffc15 	stw	r2,-16(fp)
   8f414:	d0a70917 	ldw	r2,-25564(gp)
   8f418:	e0bff815 	stw	r2,-32(fp)
   8f41c:	d0a70917 	ldw	r2,-25564(gp)
   8f420:	1005003a 	cmpeq	r2,r2,zero
   8f424:	1000031e 	bne	r2,zero,8f434 <OSMemCreate+0x100>
   8f428:	d0a70917 	ldw	r2,-25564(gp)
   8f42c:	10800117 	ldw	r2,4(r2)
   8f430:	d0a70915 	stw	r2,-25564(gp)
   8f434:	e0bffc17 	ldw	r2,-16(fp)
   8f438:	e0bffe15 	stw	r2,-8(fp)
   8f43c:	e0bffe17 	ldw	r2,-8(fp)
   8f440:	1001703a 	wrctl	status,r2
   8f444:	e0bff817 	ldw	r2,-32(fp)
   8f448:	1004c03a 	cmpne	r2,r2,zero
   8f44c:	1000051e 	bne	r2,zero,8f464 <OSMemCreate+0x130>
   8f450:	e0fff717 	ldw	r3,-36(fp)
   8f454:	00801684 	movi	r2,90
   8f458:	18800005 	stb	r2,0(r3)
   8f45c:	e03fff15 	stw	zero,-4(fp)
   8f460:	00002d06 	br	8f518 <OSMemCreate+0x1e4>
   8f464:	e0bff417 	ldw	r2,-48(fp)
   8f468:	e0bffa15 	stw	r2,-24(fp)
   8f46c:	e0fff417 	ldw	r3,-48(fp)
   8f470:	e0bff617 	ldw	r2,-40(fp)
   8f474:	1885883a 	add	r2,r3,r2
   8f478:	e0bff915 	stw	r2,-28(fp)
   8f47c:	e03ffb15 	stw	zero,-20(fp)
   8f480:	e0bff517 	ldw	r2,-44(fp)
   8f484:	10ffffc4 	addi	r3,r2,-1
   8f488:	e0bffb17 	ldw	r2,-20(fp)
   8f48c:	10c00d2e 	bgeu	r2,r3,8f4c4 <OSMemCreate+0x190>
   8f490:	e0fffa17 	ldw	r3,-24(fp)
   8f494:	e0bff917 	ldw	r2,-28(fp)
   8f498:	18800015 	stw	r2,0(r3)
   8f49c:	e0bff917 	ldw	r2,-28(fp)
   8f4a0:	e0bffa15 	stw	r2,-24(fp)
   8f4a4:	e0fff917 	ldw	r3,-28(fp)
   8f4a8:	e0bff617 	ldw	r2,-40(fp)
   8f4ac:	1885883a 	add	r2,r3,r2
   8f4b0:	e0bff915 	stw	r2,-28(fp)
   8f4b4:	e0bffb17 	ldw	r2,-20(fp)
   8f4b8:	10800044 	addi	r2,r2,1
   8f4bc:	e0bffb15 	stw	r2,-20(fp)
   8f4c0:	003fef06 	br	8f480 <OSMemCreate+0x14c>
   8f4c4:	e0bffa17 	ldw	r2,-24(fp)
   8f4c8:	10000015 	stw	zero,0(r2)
   8f4cc:	e0fff817 	ldw	r3,-32(fp)
   8f4d0:	e0bff417 	ldw	r2,-48(fp)
   8f4d4:	18800015 	stw	r2,0(r3)
   8f4d8:	e0fff817 	ldw	r3,-32(fp)
   8f4dc:	e0bff417 	ldw	r2,-48(fp)
   8f4e0:	18800115 	stw	r2,4(r3)
   8f4e4:	e0fff817 	ldw	r3,-32(fp)
   8f4e8:	e0bff517 	ldw	r2,-44(fp)
   8f4ec:	18800415 	stw	r2,16(r3)
   8f4f0:	e0fff817 	ldw	r3,-32(fp)
   8f4f4:	e0bff517 	ldw	r2,-44(fp)
   8f4f8:	18800315 	stw	r2,12(r3)
   8f4fc:	e0fff817 	ldw	r3,-32(fp)
   8f500:	e0bff617 	ldw	r2,-40(fp)
   8f504:	18800215 	stw	r2,8(r3)
   8f508:	e0bff717 	ldw	r2,-36(fp)
   8f50c:	10000005 	stb	zero,0(r2)
   8f510:	e0bff817 	ldw	r2,-32(fp)
   8f514:	e0bfff15 	stw	r2,-4(fp)
   8f518:	e0bfff17 	ldw	r2,-4(fp)
   8f51c:	df000c17 	ldw	fp,48(sp)
   8f520:	dec00d04 	addi	sp,sp,52
   8f524:	f800283a 	ret

0008f528 <OSMemGet>:
   8f528:	defff804 	addi	sp,sp,-32
   8f52c:	df000715 	stw	fp,28(sp)
   8f530:	df000704 	addi	fp,sp,28
   8f534:	e13ff915 	stw	r4,-28(fp)
   8f538:	e17ffa15 	stw	r5,-24(fp)
   8f53c:	e03ffc15 	stw	zero,-16(fp)
   8f540:	e0bffa17 	ldw	r2,-24(fp)
   8f544:	1004c03a 	cmpne	r2,r2,zero
   8f548:	1000021e 	bne	r2,zero,8f554 <OSMemGet+0x2c>
   8f54c:	e03fff15 	stw	zero,-4(fp)
   8f550:	00003306 	br	8f620 <OSMemGet+0xf8>
   8f554:	e0bff917 	ldw	r2,-28(fp)
   8f558:	1004c03a 	cmpne	r2,r2,zero
   8f55c:	1000051e 	bne	r2,zero,8f574 <OSMemGet+0x4c>
   8f560:	e0fffa17 	ldw	r3,-24(fp)
   8f564:	00801804 	movi	r2,96
   8f568:	18800005 	stb	r2,0(r3)
   8f56c:	e03fff15 	stw	zero,-4(fp)
   8f570:	00002b06 	br	8f620 <OSMemGet+0xf8>
   8f574:	0005303a 	rdctl	r2,status
   8f578:	e0bffe15 	stw	r2,-8(fp)
   8f57c:	e0fffe17 	ldw	r3,-8(fp)
   8f580:	00bfff84 	movi	r2,-2
   8f584:	1884703a 	and	r2,r3,r2
   8f588:	1001703a 	wrctl	status,r2
   8f58c:	e0bffe17 	ldw	r2,-8(fp)
   8f590:	e0bffd15 	stw	r2,-12(fp)
   8f594:	e0bffd17 	ldw	r2,-12(fp)
   8f598:	e0bffc15 	stw	r2,-16(fp)
   8f59c:	e0bff917 	ldw	r2,-28(fp)
   8f5a0:	10800417 	ldw	r2,16(r2)
   8f5a4:	1005003a 	cmpeq	r2,r2,zero
   8f5a8:	1000151e 	bne	r2,zero,8f600 <OSMemGet+0xd8>
   8f5ac:	e0bff917 	ldw	r2,-28(fp)
   8f5b0:	10800117 	ldw	r2,4(r2)
   8f5b4:	e0bffb15 	stw	r2,-20(fp)
   8f5b8:	e0fff917 	ldw	r3,-28(fp)
   8f5bc:	e0bffb17 	ldw	r2,-20(fp)
   8f5c0:	10800017 	ldw	r2,0(r2)
   8f5c4:	18800115 	stw	r2,4(r3)
   8f5c8:	e0fff917 	ldw	r3,-28(fp)
   8f5cc:	e0bff917 	ldw	r2,-28(fp)
   8f5d0:	10800417 	ldw	r2,16(r2)
   8f5d4:	10bfffc4 	addi	r2,r2,-1
   8f5d8:	18800415 	stw	r2,16(r3)
   8f5dc:	e0bffc17 	ldw	r2,-16(fp)
   8f5e0:	e0bffe15 	stw	r2,-8(fp)
   8f5e4:	e0bffe17 	ldw	r2,-8(fp)
   8f5e8:	1001703a 	wrctl	status,r2
   8f5ec:	e0bffa17 	ldw	r2,-24(fp)
   8f5f0:	10000005 	stb	zero,0(r2)
   8f5f4:	e0bffb17 	ldw	r2,-20(fp)
   8f5f8:	e0bfff15 	stw	r2,-4(fp)
   8f5fc:	00000806 	br	8f620 <OSMemGet+0xf8>
   8f600:	e0bffc17 	ldw	r2,-16(fp)
   8f604:	e0bffe15 	stw	r2,-8(fp)
   8f608:	e0bffe17 	ldw	r2,-8(fp)
   8f60c:	1001703a 	wrctl	status,r2
   8f610:	e0fffa17 	ldw	r3,-24(fp)
   8f614:	00801744 	movi	r2,93
   8f618:	18800005 	stb	r2,0(r3)
   8f61c:	e03fff15 	stw	zero,-4(fp)
   8f620:	e0bfff17 	ldw	r2,-4(fp)
   8f624:	df000717 	ldw	fp,28(sp)
   8f628:	dec00804 	addi	sp,sp,32
   8f62c:	f800283a 	ret

0008f630 <OSMemNameGet>:
   8f630:	defff604 	addi	sp,sp,-40
   8f634:	dfc00915 	stw	ra,36(sp)
   8f638:	df000815 	stw	fp,32(sp)
   8f63c:	df000804 	addi	fp,sp,32
   8f640:	e13ff815 	stw	r4,-32(fp)
   8f644:	e17ff915 	stw	r5,-28(fp)
   8f648:	e1bffa15 	stw	r6,-24(fp)
   8f64c:	e03ffc15 	stw	zero,-16(fp)
   8f650:	e0bffa17 	ldw	r2,-24(fp)
   8f654:	1004c03a 	cmpne	r2,r2,zero
   8f658:	1000021e 	bne	r2,zero,8f664 <OSMemNameGet+0x34>
   8f65c:	e03fff15 	stw	zero,-4(fp)
   8f660:	00002f06 	br	8f720 <OSMemNameGet+0xf0>
   8f664:	e0bff817 	ldw	r2,-32(fp)
   8f668:	1004c03a 	cmpne	r2,r2,zero
   8f66c:	1000051e 	bne	r2,zero,8f684 <OSMemNameGet+0x54>
   8f670:	e0fffa17 	ldw	r3,-24(fp)
   8f674:	00801804 	movi	r2,96
   8f678:	18800005 	stb	r2,0(r3)
   8f67c:	e03fff15 	stw	zero,-4(fp)
   8f680:	00002706 	br	8f720 <OSMemNameGet+0xf0>
   8f684:	e0bff917 	ldw	r2,-28(fp)
   8f688:	1004c03a 	cmpne	r2,r2,zero
   8f68c:	1000051e 	bne	r2,zero,8f6a4 <OSMemNameGet+0x74>
   8f690:	e0fffa17 	ldw	r3,-24(fp)
   8f694:	00800304 	movi	r2,12
   8f698:	18800005 	stb	r2,0(r3)
   8f69c:	e03fff15 	stw	zero,-4(fp)
   8f6a0:	00001f06 	br	8f720 <OSMemNameGet+0xf0>
   8f6a4:	d0a70043 	ldbu	r2,-25599(gp)
   8f6a8:	1005003a 	cmpeq	r2,r2,zero
   8f6ac:	1000051e 	bne	r2,zero,8f6c4 <OSMemNameGet+0x94>
   8f6b0:	e0fffa17 	ldw	r3,-24(fp)
   8f6b4:	00800444 	movi	r2,17
   8f6b8:	18800005 	stb	r2,0(r3)
   8f6bc:	e03fff15 	stw	zero,-4(fp)
   8f6c0:	00001706 	br	8f720 <OSMemNameGet+0xf0>
   8f6c4:	0005303a 	rdctl	r2,status
   8f6c8:	e0bffe15 	stw	r2,-8(fp)
   8f6cc:	e0fffe17 	ldw	r3,-8(fp)
   8f6d0:	00bfff84 	movi	r2,-2
   8f6d4:	1884703a 	and	r2,r3,r2
   8f6d8:	1001703a 	wrctl	status,r2
   8f6dc:	e0bffe17 	ldw	r2,-8(fp)
   8f6e0:	e0bffd15 	stw	r2,-12(fp)
   8f6e4:	e0bffd17 	ldw	r2,-12(fp)
   8f6e8:	e0bffc15 	stw	r2,-16(fp)
   8f6ec:	e0bff817 	ldw	r2,-32(fp)
   8f6f0:	11400504 	addi	r5,r2,20
   8f6f4:	e13ff917 	ldw	r4,-28(fp)
   8f6f8:	008d4c80 	call	8d4c8 <OS_StrCopy>
   8f6fc:	e0bffb05 	stb	r2,-20(fp)
   8f700:	e0bffc17 	ldw	r2,-16(fp)
   8f704:	e0bffe15 	stw	r2,-8(fp)
   8f708:	e0bffe17 	ldw	r2,-8(fp)
   8f70c:	1001703a 	wrctl	status,r2
   8f710:	e0bffa17 	ldw	r2,-24(fp)
   8f714:	10000005 	stb	zero,0(r2)
   8f718:	e0bffb03 	ldbu	r2,-20(fp)
   8f71c:	e0bfff15 	stw	r2,-4(fp)
   8f720:	e0bfff17 	ldw	r2,-4(fp)
   8f724:	dfc00917 	ldw	ra,36(sp)
   8f728:	df000817 	ldw	fp,32(sp)
   8f72c:	dec00a04 	addi	sp,sp,40
   8f730:	f800283a 	ret

0008f734 <OSMemNameSet>:
   8f734:	defff704 	addi	sp,sp,-36
   8f738:	dfc00815 	stw	ra,32(sp)
   8f73c:	df000715 	stw	fp,28(sp)
   8f740:	df000704 	addi	fp,sp,28
   8f744:	e13ff915 	stw	r4,-28(fp)
   8f748:	e17ffa15 	stw	r5,-24(fp)
   8f74c:	e1bffb15 	stw	r6,-20(fp)
   8f750:	e03ffd15 	stw	zero,-12(fp)
   8f754:	e0bffb17 	ldw	r2,-20(fp)
   8f758:	1004c03a 	cmpne	r2,r2,zero
   8f75c:	1000011e 	bne	r2,zero,8f764 <OSMemNameSet+0x30>
   8f760:	00003706 	br	8f840 <OSMemNameSet+0x10c>
   8f764:	e0bff917 	ldw	r2,-28(fp)
   8f768:	1004c03a 	cmpne	r2,r2,zero
   8f76c:	1000041e 	bne	r2,zero,8f780 <OSMemNameSet+0x4c>
   8f770:	e0fffb17 	ldw	r3,-20(fp)
   8f774:	00801804 	movi	r2,96
   8f778:	18800005 	stb	r2,0(r3)
   8f77c:	00003006 	br	8f840 <OSMemNameSet+0x10c>
   8f780:	e0bffa17 	ldw	r2,-24(fp)
   8f784:	1004c03a 	cmpne	r2,r2,zero
   8f788:	1000041e 	bne	r2,zero,8f79c <OSMemNameSet+0x68>
   8f78c:	e0fffb17 	ldw	r3,-20(fp)
   8f790:	00800304 	movi	r2,12
   8f794:	18800005 	stb	r2,0(r3)
   8f798:	00002906 	br	8f840 <OSMemNameSet+0x10c>
   8f79c:	d0a70043 	ldbu	r2,-25599(gp)
   8f7a0:	1005003a 	cmpeq	r2,r2,zero
   8f7a4:	1000041e 	bne	r2,zero,8f7b8 <OSMemNameSet+0x84>
   8f7a8:	e0fffb17 	ldw	r3,-20(fp)
   8f7ac:	00800484 	movi	r2,18
   8f7b0:	18800005 	stb	r2,0(r3)
   8f7b4:	00002206 	br	8f840 <OSMemNameSet+0x10c>
   8f7b8:	0005303a 	rdctl	r2,status
   8f7bc:	e0bfff15 	stw	r2,-4(fp)
   8f7c0:	e0ffff17 	ldw	r3,-4(fp)
   8f7c4:	00bfff84 	movi	r2,-2
   8f7c8:	1884703a 	and	r2,r3,r2
   8f7cc:	1001703a 	wrctl	status,r2
   8f7d0:	e0bfff17 	ldw	r2,-4(fp)
   8f7d4:	e0bffe15 	stw	r2,-8(fp)
   8f7d8:	e0bffe17 	ldw	r2,-8(fp)
   8f7dc:	e0bffd15 	stw	r2,-12(fp)
   8f7e0:	e13ffa17 	ldw	r4,-24(fp)
   8f7e4:	008d5400 	call	8d540 <OS_StrLen>
   8f7e8:	e0bffc05 	stb	r2,-16(fp)
   8f7ec:	e0bffc03 	ldbu	r2,-16(fp)
   8f7f0:	10800830 	cmpltui	r2,r2,32
   8f7f4:	1000081e 	bne	r2,zero,8f818 <OSMemNameSet+0xe4>
   8f7f8:	e0bffd17 	ldw	r2,-12(fp)
   8f7fc:	e0bfff15 	stw	r2,-4(fp)
   8f800:	e0bfff17 	ldw	r2,-4(fp)
   8f804:	1001703a 	wrctl	status,r2
   8f808:	e0fffb17 	ldw	r3,-20(fp)
   8f80c:	008018c4 	movi	r2,99
   8f810:	18800005 	stb	r2,0(r3)
   8f814:	00000a06 	br	8f840 <OSMemNameSet+0x10c>
   8f818:	e0bff917 	ldw	r2,-28(fp)
   8f81c:	11000504 	addi	r4,r2,20
   8f820:	e17ffa17 	ldw	r5,-24(fp)
   8f824:	008d4c80 	call	8d4c8 <OS_StrCopy>
   8f828:	e0bffd17 	ldw	r2,-12(fp)
   8f82c:	e0bfff15 	stw	r2,-4(fp)
   8f830:	e0bfff17 	ldw	r2,-4(fp)
   8f834:	1001703a 	wrctl	status,r2
   8f838:	e0bffb17 	ldw	r2,-20(fp)
   8f83c:	10000005 	stb	zero,0(r2)
   8f840:	dfc00817 	ldw	ra,32(sp)
   8f844:	df000717 	ldw	fp,28(sp)
   8f848:	dec00904 	addi	sp,sp,36
   8f84c:	f800283a 	ret

0008f850 <OSMemPut>:
   8f850:	defff904 	addi	sp,sp,-28
   8f854:	df000615 	stw	fp,24(sp)
   8f858:	df000604 	addi	fp,sp,24
   8f85c:	e13ffa15 	stw	r4,-24(fp)
   8f860:	e17ffb15 	stw	r5,-20(fp)
   8f864:	e03ffc15 	stw	zero,-16(fp)
   8f868:	e0bffa17 	ldw	r2,-24(fp)
   8f86c:	1004c03a 	cmpne	r2,r2,zero
   8f870:	1000031e 	bne	r2,zero,8f880 <OSMemPut+0x30>
   8f874:	00801804 	movi	r2,96
   8f878:	e0bfff15 	stw	r2,-4(fp)
   8f87c:	00002d06 	br	8f934 <OSMemPut+0xe4>
   8f880:	e0bffb17 	ldw	r2,-20(fp)
   8f884:	1004c03a 	cmpne	r2,r2,zero
   8f888:	1000031e 	bne	r2,zero,8f898 <OSMemPut+0x48>
   8f88c:	008017c4 	movi	r2,95
   8f890:	e0bfff15 	stw	r2,-4(fp)
   8f894:	00002706 	br	8f934 <OSMemPut+0xe4>
   8f898:	0005303a 	rdctl	r2,status
   8f89c:	e0bffe15 	stw	r2,-8(fp)
   8f8a0:	e0fffe17 	ldw	r3,-8(fp)
   8f8a4:	00bfff84 	movi	r2,-2
   8f8a8:	1884703a 	and	r2,r3,r2
   8f8ac:	1001703a 	wrctl	status,r2
   8f8b0:	e0bffe17 	ldw	r2,-8(fp)
   8f8b4:	e0bffd15 	stw	r2,-12(fp)
   8f8b8:	e0bffd17 	ldw	r2,-12(fp)
   8f8bc:	e0bffc15 	stw	r2,-16(fp)
   8f8c0:	e0bffa17 	ldw	r2,-24(fp)
   8f8c4:	e0fffa17 	ldw	r3,-24(fp)
   8f8c8:	11000417 	ldw	r4,16(r2)
   8f8cc:	18800317 	ldw	r2,12(r3)
   8f8d0:	20800736 	bltu	r4,r2,8f8f0 <OSMemPut+0xa0>
   8f8d4:	e0bffc17 	ldw	r2,-16(fp)
   8f8d8:	e0bffe15 	stw	r2,-8(fp)
   8f8dc:	e0bffe17 	ldw	r2,-8(fp)
   8f8e0:	1001703a 	wrctl	status,r2
   8f8e4:	00801784 	movi	r2,94
   8f8e8:	e0bfff15 	stw	r2,-4(fp)
   8f8ec:	00001106 	br	8f934 <OSMemPut+0xe4>
   8f8f0:	e0fffb17 	ldw	r3,-20(fp)
   8f8f4:	e0bffa17 	ldw	r2,-24(fp)
   8f8f8:	10800117 	ldw	r2,4(r2)
   8f8fc:	18800015 	stw	r2,0(r3)
   8f900:	e0fffa17 	ldw	r3,-24(fp)
   8f904:	e0bffb17 	ldw	r2,-20(fp)
   8f908:	18800115 	stw	r2,4(r3)
   8f90c:	e0fffa17 	ldw	r3,-24(fp)
   8f910:	e0bffa17 	ldw	r2,-24(fp)
   8f914:	10800417 	ldw	r2,16(r2)
   8f918:	10800044 	addi	r2,r2,1
   8f91c:	18800415 	stw	r2,16(r3)
   8f920:	e0bffc17 	ldw	r2,-16(fp)
   8f924:	e0bffe15 	stw	r2,-8(fp)
   8f928:	e0bffe17 	ldw	r2,-8(fp)
   8f92c:	1001703a 	wrctl	status,r2
   8f930:	e03fff15 	stw	zero,-4(fp)
   8f934:	e0bfff17 	ldw	r2,-4(fp)
   8f938:	df000617 	ldw	fp,24(sp)
   8f93c:	dec00704 	addi	sp,sp,28
   8f940:	f800283a 	ret

0008f944 <OSMemQuery>:
   8f944:	defff904 	addi	sp,sp,-28
   8f948:	df000615 	stw	fp,24(sp)
   8f94c:	df000604 	addi	fp,sp,24
   8f950:	e13ffa15 	stw	r4,-24(fp)
   8f954:	e17ffb15 	stw	r5,-20(fp)
   8f958:	e03ffc15 	stw	zero,-16(fp)
   8f95c:	e0bffa17 	ldw	r2,-24(fp)
   8f960:	1004c03a 	cmpne	r2,r2,zero
   8f964:	1000031e 	bne	r2,zero,8f974 <OSMemQuery+0x30>
   8f968:	00801804 	movi	r2,96
   8f96c:	e0bfff15 	stw	r2,-4(fp)
   8f970:	00003006 	br	8fa34 <OSMemQuery+0xf0>
   8f974:	e0bffb17 	ldw	r2,-20(fp)
   8f978:	1004c03a 	cmpne	r2,r2,zero
   8f97c:	1000031e 	bne	r2,zero,8f98c <OSMemQuery+0x48>
   8f980:	00801844 	movi	r2,97
   8f984:	e0bfff15 	stw	r2,-4(fp)
   8f988:	00002a06 	br	8fa34 <OSMemQuery+0xf0>
   8f98c:	0005303a 	rdctl	r2,status
   8f990:	e0bffe15 	stw	r2,-8(fp)
   8f994:	e0fffe17 	ldw	r3,-8(fp)
   8f998:	00bfff84 	movi	r2,-2
   8f99c:	1884703a 	and	r2,r3,r2
   8f9a0:	1001703a 	wrctl	status,r2
   8f9a4:	e0bffe17 	ldw	r2,-8(fp)
   8f9a8:	e0bffd15 	stw	r2,-12(fp)
   8f9ac:	e0bffd17 	ldw	r2,-12(fp)
   8f9b0:	e0bffc15 	stw	r2,-16(fp)
   8f9b4:	e0fffb17 	ldw	r3,-20(fp)
   8f9b8:	e0bffa17 	ldw	r2,-24(fp)
   8f9bc:	10800017 	ldw	r2,0(r2)
   8f9c0:	18800015 	stw	r2,0(r3)
   8f9c4:	e0fffb17 	ldw	r3,-20(fp)
   8f9c8:	e0bffa17 	ldw	r2,-24(fp)
   8f9cc:	10800117 	ldw	r2,4(r2)
   8f9d0:	18800115 	stw	r2,4(r3)
   8f9d4:	e0fffb17 	ldw	r3,-20(fp)
   8f9d8:	e0bffa17 	ldw	r2,-24(fp)
   8f9dc:	10800217 	ldw	r2,8(r2)
   8f9e0:	18800215 	stw	r2,8(r3)
   8f9e4:	e0fffb17 	ldw	r3,-20(fp)
   8f9e8:	e0bffa17 	ldw	r2,-24(fp)
   8f9ec:	10800317 	ldw	r2,12(r2)
   8f9f0:	18800315 	stw	r2,12(r3)
   8f9f4:	e0fffb17 	ldw	r3,-20(fp)
   8f9f8:	e0bffa17 	ldw	r2,-24(fp)
   8f9fc:	10800417 	ldw	r2,16(r2)
   8fa00:	18800415 	stw	r2,16(r3)
   8fa04:	e0bffc17 	ldw	r2,-16(fp)
   8fa08:	e0bffe15 	stw	r2,-8(fp)
   8fa0c:	e0bffe17 	ldw	r2,-8(fp)
   8fa10:	1001703a 	wrctl	status,r2
   8fa14:	e17ffb17 	ldw	r5,-20(fp)
   8fa18:	e0bffb17 	ldw	r2,-20(fp)
   8fa1c:	e0fffb17 	ldw	r3,-20(fp)
   8fa20:	11000317 	ldw	r4,12(r2)
   8fa24:	18800417 	ldw	r2,16(r3)
   8fa28:	2085c83a 	sub	r2,r4,r2
   8fa2c:	28800515 	stw	r2,20(r5)
   8fa30:	e03fff15 	stw	zero,-4(fp)
   8fa34:	e0bfff17 	ldw	r2,-4(fp)
   8fa38:	df000617 	ldw	fp,24(sp)
   8fa3c:	dec00704 	addi	sp,sp,28
   8fa40:	f800283a 	ret

0008fa44 <OS_MemInit>:
   8fa44:	defffb04 	addi	sp,sp,-20
   8fa48:	dfc00415 	stw	ra,16(sp)
   8fa4c:	df000315 	stw	fp,12(sp)
   8fa50:	dc000215 	stw	r16,8(sp)
   8fa54:	df000304 	addi	fp,sp,12
   8fa58:	010002b4 	movhi	r4,10
   8fa5c:	210ac304 	addi	r4,r4,11020
   8fa60:	01430c04 	movi	r5,3120
   8fa64:	008d2e80 	call	8d2e8 <OS_MemClr>
   8fa68:	008002b4 	movhi	r2,10
   8fa6c:	108ac304 	addi	r2,r2,11020
   8fa70:	e0bffd15 	stw	r2,-12(fp)
   8fa74:	e03ffe0d 	sth	zero,-8(fp)
   8fa78:	e0bffe0b 	ldhu	r2,-8(fp)
   8fa7c:	10800ee8 	cmpgeui	r2,r2,59
   8fa80:	1000151e 	bne	r2,zero,8fad8 <OS_MemInit+0x94>
   8fa84:	e43ffd17 	ldw	r16,-12(fp)
   8fa88:	e13ffe0b 	ldhu	r4,-8(fp)
   8fa8c:	01400d04 	movi	r5,52
   8fa90:	0081aec0 	call	81aec <__mulsi3>
   8fa94:	1007883a 	mov	r3,r2
   8fa98:	008002b4 	movhi	r2,10
   8fa9c:	108ad004 	addi	r2,r2,11072
   8faa0:	1885883a 	add	r2,r3,r2
   8faa4:	80800115 	stw	r2,4(r16)
   8faa8:	e0fffd17 	ldw	r3,-12(fp)
   8faac:	00800fc4 	movi	r2,63
   8fab0:	18800505 	stb	r2,20(r3)
   8fab4:	e0bffd17 	ldw	r2,-12(fp)
   8fab8:	10000545 	stb	zero,21(r2)
   8fabc:	e0bffd17 	ldw	r2,-12(fp)
   8fac0:	10800d04 	addi	r2,r2,52
   8fac4:	e0bffd15 	stw	r2,-12(fp)
   8fac8:	e0bffe0b 	ldhu	r2,-8(fp)
   8facc:	10800044 	addi	r2,r2,1
   8fad0:	e0bffe0d 	sth	r2,-8(fp)
   8fad4:	003fe806 	br	8fa78 <OS_MemInit+0x34>
   8fad8:	e0bffd17 	ldw	r2,-12(fp)
   8fadc:	10000115 	stw	zero,4(r2)
   8fae0:	e0fffd17 	ldw	r3,-12(fp)
   8fae4:	00800fc4 	movi	r2,63
   8fae8:	18800505 	stb	r2,20(r3)
   8faec:	e0bffd17 	ldw	r2,-12(fp)
   8faf0:	10000545 	stb	zero,21(r2)
   8faf4:	008002b4 	movhi	r2,10
   8faf8:	108ac304 	addi	r2,r2,11020
   8fafc:	d0a70915 	stw	r2,-25564(gp)
   8fb00:	dfc00417 	ldw	ra,16(sp)
   8fb04:	df000317 	ldw	fp,12(sp)
   8fb08:	dc000217 	ldw	r16,8(sp)
   8fb0c:	dec00504 	addi	sp,sp,20
   8fb10:	f800283a 	ret

0008fb14 <OSQAccept>:
   8fb14:	defff704 	addi	sp,sp,-36
   8fb18:	df000815 	stw	fp,32(sp)
   8fb1c:	df000804 	addi	fp,sp,32
   8fb20:	e13ff815 	stw	r4,-32(fp)
   8fb24:	e17ff915 	stw	r5,-28(fp)
   8fb28:	e03ffc15 	stw	zero,-16(fp)
   8fb2c:	e0bff917 	ldw	r2,-28(fp)
   8fb30:	1004c03a 	cmpne	r2,r2,zero
   8fb34:	1000021e 	bne	r2,zero,8fb40 <OSQAccept+0x2c>
   8fb38:	e03fff15 	stw	zero,-4(fp)
   8fb3c:	00004406 	br	8fc50 <OSQAccept+0x13c>
   8fb40:	e0bff817 	ldw	r2,-32(fp)
   8fb44:	1004c03a 	cmpne	r2,r2,zero
   8fb48:	1000051e 	bne	r2,zero,8fb60 <OSQAccept+0x4c>
   8fb4c:	e0fff917 	ldw	r3,-28(fp)
   8fb50:	00800104 	movi	r2,4
   8fb54:	18800005 	stb	r2,0(r3)
   8fb58:	e03fff15 	stw	zero,-4(fp)
   8fb5c:	00003c06 	br	8fc50 <OSQAccept+0x13c>
   8fb60:	e0bff817 	ldw	r2,-32(fp)
   8fb64:	10800003 	ldbu	r2,0(r2)
   8fb68:	108000a0 	cmpeqi	r2,r2,2
   8fb6c:	1000051e 	bne	r2,zero,8fb84 <OSQAccept+0x70>
   8fb70:	e0fff917 	ldw	r3,-28(fp)
   8fb74:	00800044 	movi	r2,1
   8fb78:	18800005 	stb	r2,0(r3)
   8fb7c:	e03fff15 	stw	zero,-4(fp)
   8fb80:	00003306 	br	8fc50 <OSQAccept+0x13c>
   8fb84:	0005303a 	rdctl	r2,status
   8fb88:	e0bffe15 	stw	r2,-8(fp)
   8fb8c:	e0fffe17 	ldw	r3,-8(fp)
   8fb90:	00bfff84 	movi	r2,-2
   8fb94:	1884703a 	and	r2,r3,r2
   8fb98:	1001703a 	wrctl	status,r2
   8fb9c:	e0bffe17 	ldw	r2,-8(fp)
   8fba0:	e0bffd15 	stw	r2,-12(fp)
   8fba4:	e0bffd17 	ldw	r2,-12(fp)
   8fba8:	e0bffc15 	stw	r2,-16(fp)
   8fbac:	e0bff817 	ldw	r2,-32(fp)
   8fbb0:	10800117 	ldw	r2,4(r2)
   8fbb4:	e0bffb15 	stw	r2,-20(fp)
   8fbb8:	e0bffb17 	ldw	r2,-20(fp)
   8fbbc:	1080058b 	ldhu	r2,22(r2)
   8fbc0:	1005003a 	cmpeq	r2,r2,zero
   8fbc4:	1000181e 	bne	r2,zero,8fc28 <OSQAccept+0x114>
   8fbc8:	e0bffb17 	ldw	r2,-20(fp)
   8fbcc:	10c00404 	addi	r3,r2,16
   8fbd0:	18800017 	ldw	r2,0(r3)
   8fbd4:	11000017 	ldw	r4,0(r2)
   8fbd8:	10800104 	addi	r2,r2,4
   8fbdc:	18800015 	stw	r2,0(r3)
   8fbe0:	e13ffa15 	stw	r4,-24(fp)
   8fbe4:	e0fffb17 	ldw	r3,-20(fp)
   8fbe8:	e0bffb17 	ldw	r2,-20(fp)
   8fbec:	1080058b 	ldhu	r2,22(r2)
   8fbf0:	10bfffc4 	addi	r2,r2,-1
   8fbf4:	1880058d 	sth	r2,22(r3)
   8fbf8:	e0bffb17 	ldw	r2,-20(fp)
   8fbfc:	e0fffb17 	ldw	r3,-20(fp)
   8fc00:	11000417 	ldw	r4,16(r2)
   8fc04:	18800217 	ldw	r2,8(r3)
   8fc08:	2080041e 	bne	r4,r2,8fc1c <OSQAccept+0x108>
   8fc0c:	e0bffb17 	ldw	r2,-20(fp)
   8fc10:	e0fffb17 	ldw	r3,-20(fp)
   8fc14:	18c00117 	ldw	r3,4(r3)
   8fc18:	10c00415 	stw	r3,16(r2)
   8fc1c:	e0bff917 	ldw	r2,-28(fp)
   8fc20:	10000005 	stb	zero,0(r2)
   8fc24:	00000406 	br	8fc38 <OSQAccept+0x124>
   8fc28:	e0fff917 	ldw	r3,-28(fp)
   8fc2c:	008007c4 	movi	r2,31
   8fc30:	18800005 	stb	r2,0(r3)
   8fc34:	e03ffa15 	stw	zero,-24(fp)
   8fc38:	e0bffc17 	ldw	r2,-16(fp)
   8fc3c:	e0bffe15 	stw	r2,-8(fp)
   8fc40:	e0bffe17 	ldw	r2,-8(fp)
   8fc44:	1001703a 	wrctl	status,r2
   8fc48:	e0bffa17 	ldw	r2,-24(fp)
   8fc4c:	e0bfff15 	stw	r2,-4(fp)
   8fc50:	e0bfff17 	ldw	r2,-4(fp)
   8fc54:	df000817 	ldw	fp,32(sp)
   8fc58:	dec00904 	addi	sp,sp,36
   8fc5c:	f800283a 	ret

0008fc60 <OSQCreate>:
   8fc60:	defff604 	addi	sp,sp,-40
   8fc64:	dfc00915 	stw	ra,36(sp)
   8fc68:	df000815 	stw	fp,32(sp)
   8fc6c:	df000804 	addi	fp,sp,32
   8fc70:	e13ff815 	stw	r4,-32(fp)
   8fc74:	e17ff90d 	sth	r5,-28(fp)
   8fc78:	e03ffc15 	stw	zero,-16(fp)
   8fc7c:	d0a70043 	ldbu	r2,-25599(gp)
   8fc80:	1005003a 	cmpeq	r2,r2,zero
   8fc84:	1000021e 	bne	r2,zero,8fc90 <OSQCreate+0x30>
   8fc88:	e03fff15 	stw	zero,-4(fp)
   8fc8c:	00005f06 	br	8fe0c <OSQCreate+0x1ac>
   8fc90:	0005303a 	rdctl	r2,status
   8fc94:	e0bffe15 	stw	r2,-8(fp)
   8fc98:	e0fffe17 	ldw	r3,-8(fp)
   8fc9c:	00bfff84 	movi	r2,-2
   8fca0:	1884703a 	and	r2,r3,r2
   8fca4:	1001703a 	wrctl	status,r2
   8fca8:	e0bffe17 	ldw	r2,-8(fp)
   8fcac:	e0bffd15 	stw	r2,-12(fp)
   8fcb0:	e0bffd17 	ldw	r2,-12(fp)
   8fcb4:	e0bffc15 	stw	r2,-16(fp)
   8fcb8:	d0a6fb17 	ldw	r2,-25620(gp)
   8fcbc:	e0bffa15 	stw	r2,-24(fp)
   8fcc0:	d0a6fb17 	ldw	r2,-25620(gp)
   8fcc4:	1005003a 	cmpeq	r2,r2,zero
   8fcc8:	1000031e 	bne	r2,zero,8fcd8 <OSQCreate+0x78>
   8fccc:	d0a6fb17 	ldw	r2,-25620(gp)
   8fcd0:	10800117 	ldw	r2,4(r2)
   8fcd4:	d0a6fb15 	stw	r2,-25620(gp)
   8fcd8:	e0bffc17 	ldw	r2,-16(fp)
   8fcdc:	e0bffe15 	stw	r2,-8(fp)
   8fce0:	e0bffe17 	ldw	r2,-8(fp)
   8fce4:	1001703a 	wrctl	status,r2
   8fce8:	e0bffa17 	ldw	r2,-24(fp)
   8fcec:	1005003a 	cmpeq	r2,r2,zero
   8fcf0:	1000441e 	bne	r2,zero,8fe04 <OSQCreate+0x1a4>
   8fcf4:	0005303a 	rdctl	r2,status
   8fcf8:	e0bffd15 	stw	r2,-12(fp)
   8fcfc:	e0fffd17 	ldw	r3,-12(fp)
   8fd00:	00bfff84 	movi	r2,-2
   8fd04:	1884703a 	and	r2,r3,r2
   8fd08:	1001703a 	wrctl	status,r2
   8fd0c:	e0bffd17 	ldw	r2,-12(fp)
   8fd10:	e0bffe15 	stw	r2,-8(fp)
   8fd14:	e0bffe17 	ldw	r2,-8(fp)
   8fd18:	e0bffc15 	stw	r2,-16(fp)
   8fd1c:	d0a70a17 	ldw	r2,-25560(gp)
   8fd20:	e0bffb15 	stw	r2,-20(fp)
   8fd24:	e0bffb17 	ldw	r2,-20(fp)
   8fd28:	1005003a 	cmpeq	r2,r2,zero
   8fd2c:	10002b1e 	bne	r2,zero,8fddc <OSQCreate+0x17c>
   8fd30:	d0a70a17 	ldw	r2,-25560(gp)
   8fd34:	10800017 	ldw	r2,0(r2)
   8fd38:	d0a70a15 	stw	r2,-25560(gp)
   8fd3c:	e0bffc17 	ldw	r2,-16(fp)
   8fd40:	e0bffe15 	stw	r2,-8(fp)
   8fd44:	e0bffe17 	ldw	r2,-8(fp)
   8fd48:	1001703a 	wrctl	status,r2
   8fd4c:	e0fffb17 	ldw	r3,-20(fp)
   8fd50:	e0bff817 	ldw	r2,-32(fp)
   8fd54:	18800115 	stw	r2,4(r3)
   8fd58:	e13ffb17 	ldw	r4,-20(fp)
   8fd5c:	e0bff90b 	ldhu	r2,-28(fp)
   8fd60:	100690ba 	slli	r3,r2,2
   8fd64:	e0bff817 	ldw	r2,-32(fp)
   8fd68:	1885883a 	add	r2,r3,r2
   8fd6c:	20800215 	stw	r2,8(r4)
   8fd70:	e0fffb17 	ldw	r3,-20(fp)
   8fd74:	e0bff817 	ldw	r2,-32(fp)
   8fd78:	18800315 	stw	r2,12(r3)
   8fd7c:	e0fffb17 	ldw	r3,-20(fp)
   8fd80:	e0bff817 	ldw	r2,-32(fp)
   8fd84:	18800415 	stw	r2,16(r3)
   8fd88:	e0fffb17 	ldw	r3,-20(fp)
   8fd8c:	e0bff90b 	ldhu	r2,-28(fp)
   8fd90:	1880050d 	sth	r2,20(r3)
   8fd94:	e0bffb17 	ldw	r2,-20(fp)
   8fd98:	1000058d 	sth	zero,22(r2)
   8fd9c:	e0fffa17 	ldw	r3,-24(fp)
   8fda0:	00800084 	movi	r2,2
   8fda4:	18800005 	stb	r2,0(r3)
   8fda8:	e0bffa17 	ldw	r2,-24(fp)
   8fdac:	1000020d 	sth	zero,8(r2)
   8fdb0:	e0fffa17 	ldw	r3,-24(fp)
   8fdb4:	e0bffb17 	ldw	r2,-20(fp)
   8fdb8:	18800115 	stw	r2,4(r3)
   8fdbc:	e0fffa17 	ldw	r3,-24(fp)
   8fdc0:	00800fc4 	movi	r2,63
   8fdc4:	18800385 	stb	r2,14(r3)
   8fdc8:	e0bffa17 	ldw	r2,-24(fp)
   8fdcc:	100003c5 	stb	zero,15(r2)
   8fdd0:	e13ffa17 	ldw	r4,-24(fp)
   8fdd4:	008cf300 	call	8cf30 <OS_EventWaitListInit>
   8fdd8:	00000a06 	br	8fe04 <OSQCreate+0x1a4>
   8fddc:	e0fffa17 	ldw	r3,-24(fp)
   8fde0:	d0a6fb17 	ldw	r2,-25620(gp)
   8fde4:	18800115 	stw	r2,4(r3)
   8fde8:	e0bffa17 	ldw	r2,-24(fp)
   8fdec:	d0a6fb15 	stw	r2,-25620(gp)
   8fdf0:	e0bffc17 	ldw	r2,-16(fp)
   8fdf4:	e0bffe15 	stw	r2,-8(fp)
   8fdf8:	e0bffe17 	ldw	r2,-8(fp)
   8fdfc:	1001703a 	wrctl	status,r2
   8fe00:	e03ffa15 	stw	zero,-24(fp)
   8fe04:	e0bffa17 	ldw	r2,-24(fp)
   8fe08:	e0bfff15 	stw	r2,-4(fp)
   8fe0c:	e0bfff17 	ldw	r2,-4(fp)
   8fe10:	dfc00917 	ldw	ra,36(sp)
   8fe14:	df000817 	ldw	fp,32(sp)
   8fe18:	dec00a04 	addi	sp,sp,40
   8fe1c:	f800283a 	ret

0008fe20 <OSQDel>:
   8fe20:	defff304 	addi	sp,sp,-52
   8fe24:	dfc00c15 	stw	ra,48(sp)
   8fe28:	df000b15 	stw	fp,44(sp)
   8fe2c:	df000b04 	addi	fp,sp,44
   8fe30:	e13ff515 	stw	r4,-44(fp)
   8fe34:	e1bff715 	stw	r6,-36(fp)
   8fe38:	e17ff605 	stb	r5,-40(fp)
   8fe3c:	e03ffb15 	stw	zero,-20(fp)
   8fe40:	e0bff717 	ldw	r2,-36(fp)
   8fe44:	1004c03a 	cmpne	r2,r2,zero
   8fe48:	1000031e 	bne	r2,zero,8fe58 <OSQDel+0x38>
   8fe4c:	e0bff517 	ldw	r2,-44(fp)
   8fe50:	e0bffe15 	stw	r2,-8(fp)
   8fe54:	00009906 	br	900bc <OSQDel+0x29c>
   8fe58:	e0bff517 	ldw	r2,-44(fp)
   8fe5c:	1004c03a 	cmpne	r2,r2,zero
   8fe60:	1000061e 	bne	r2,zero,8fe7c <OSQDel+0x5c>
   8fe64:	e0bff717 	ldw	r2,-36(fp)
   8fe68:	00c00104 	movi	r3,4
   8fe6c:	10c00005 	stb	r3,0(r2)
   8fe70:	e0bff517 	ldw	r2,-44(fp)
   8fe74:	e0bffe15 	stw	r2,-8(fp)
   8fe78:	00009006 	br	900bc <OSQDel+0x29c>
   8fe7c:	e0bff517 	ldw	r2,-44(fp)
   8fe80:	10800003 	ldbu	r2,0(r2)
   8fe84:	108000a0 	cmpeqi	r2,r2,2
   8fe88:	1000061e 	bne	r2,zero,8fea4 <OSQDel+0x84>
   8fe8c:	e0bff717 	ldw	r2,-36(fp)
   8fe90:	00c00044 	movi	r3,1
   8fe94:	10c00005 	stb	r3,0(r2)
   8fe98:	e0bff517 	ldw	r2,-44(fp)
   8fe9c:	e0bffe15 	stw	r2,-8(fp)
   8fea0:	00008606 	br	900bc <OSQDel+0x29c>
   8fea4:	d0a70043 	ldbu	r2,-25599(gp)
   8fea8:	1005003a 	cmpeq	r2,r2,zero
   8feac:	1000061e 	bne	r2,zero,8fec8 <OSQDel+0xa8>
   8feb0:	e0bff717 	ldw	r2,-36(fp)
   8feb4:	00c003c4 	movi	r3,15
   8feb8:	10c00005 	stb	r3,0(r2)
   8febc:	e0bff517 	ldw	r2,-44(fp)
   8fec0:	e0bffe15 	stw	r2,-8(fp)
   8fec4:	00007d06 	br	900bc <OSQDel+0x29c>
   8fec8:	0005303a 	rdctl	r2,status
   8fecc:	e0bffd15 	stw	r2,-12(fp)
   8fed0:	e0fffd17 	ldw	r3,-12(fp)
   8fed4:	00bfff84 	movi	r2,-2
   8fed8:	1884703a 	and	r2,r3,r2
   8fedc:	1001703a 	wrctl	status,r2
   8fee0:	e0bffd17 	ldw	r2,-12(fp)
   8fee4:	e0bffc15 	stw	r2,-16(fp)
   8fee8:	e0bffc17 	ldw	r2,-16(fp)
   8feec:	e0bffb15 	stw	r2,-20(fp)
   8fef0:	e0bff517 	ldw	r2,-44(fp)
   8fef4:	10800283 	ldbu	r2,10(r2)
   8fef8:	1005003a 	cmpeq	r2,r2,zero
   8fefc:	1000031e 	bne	r2,zero,8ff0c <OSQDel+0xec>
   8ff00:	00800044 	movi	r2,1
   8ff04:	e0bff805 	stb	r2,-32(fp)
   8ff08:	00000106 	br	8ff10 <OSQDel+0xf0>
   8ff0c:	e03ff805 	stb	zero,-32(fp)
   8ff10:	e0bff603 	ldbu	r2,-40(fp)
   8ff14:	e0bfff15 	stw	r2,-4(fp)
   8ff18:	e0ffff17 	ldw	r3,-4(fp)
   8ff1c:	1805003a 	cmpeq	r2,r3,zero
   8ff20:	1000041e 	bne	r2,zero,8ff34 <OSQDel+0x114>
   8ff24:	e0ffff17 	ldw	r3,-4(fp)
   8ff28:	18800060 	cmpeqi	r2,r3,1
   8ff2c:	10002c1e 	bne	r2,zero,8ffe0 <OSQDel+0x1c0>
   8ff30:	00005706 	br	90090 <OSQDel+0x270>
   8ff34:	e0bff803 	ldbu	r2,-32(fp)
   8ff38:	1004c03a 	cmpne	r2,r2,zero
   8ff3c:	10001e1e 	bne	r2,zero,8ffb8 <OSQDel+0x198>
   8ff40:	e0fff517 	ldw	r3,-44(fp)
   8ff44:	00800fc4 	movi	r2,63
   8ff48:	18800385 	stb	r2,14(r3)
   8ff4c:	e0bff517 	ldw	r2,-44(fp)
   8ff50:	100003c5 	stb	zero,15(r2)
   8ff54:	e0bff517 	ldw	r2,-44(fp)
   8ff58:	10800117 	ldw	r2,4(r2)
   8ff5c:	e0bffa15 	stw	r2,-24(fp)
   8ff60:	e0fffa17 	ldw	r3,-24(fp)
   8ff64:	d0a70a17 	ldw	r2,-25560(gp)
   8ff68:	18800015 	stw	r2,0(r3)
   8ff6c:	e0bffa17 	ldw	r2,-24(fp)
   8ff70:	d0a70a15 	stw	r2,-25560(gp)
   8ff74:	e0bff517 	ldw	r2,-44(fp)
   8ff78:	10000005 	stb	zero,0(r2)
   8ff7c:	e0fff517 	ldw	r3,-44(fp)
   8ff80:	d0a6fb17 	ldw	r2,-25620(gp)
   8ff84:	18800115 	stw	r2,4(r3)
   8ff88:	e0bff517 	ldw	r2,-44(fp)
   8ff8c:	1000020d 	sth	zero,8(r2)
   8ff90:	e0bff517 	ldw	r2,-44(fp)
   8ff94:	d0a6fb15 	stw	r2,-25620(gp)
   8ff98:	e0bffb17 	ldw	r2,-20(fp)
   8ff9c:	e0bffd15 	stw	r2,-12(fp)
   8ffa0:	e0bffd17 	ldw	r2,-12(fp)
   8ffa4:	1001703a 	wrctl	status,r2
   8ffa8:	e0bff717 	ldw	r2,-36(fp)
   8ffac:	10000005 	stb	zero,0(r2)
   8ffb0:	e03ff915 	stw	zero,-28(fp)
   8ffb4:	00003f06 	br	900b4 <OSQDel+0x294>
   8ffb8:	e0bffb17 	ldw	r2,-20(fp)
   8ffbc:	e0bffd15 	stw	r2,-12(fp)
   8ffc0:	e0bffd17 	ldw	r2,-12(fp)
   8ffc4:	1001703a 	wrctl	status,r2
   8ffc8:	e0fff717 	ldw	r3,-36(fp)
   8ffcc:	00801244 	movi	r2,73
   8ffd0:	18800005 	stb	r2,0(r3)
   8ffd4:	e0bff517 	ldw	r2,-44(fp)
   8ffd8:	e0bff915 	stw	r2,-28(fp)
   8ffdc:	00003506 	br	900b4 <OSQDel+0x294>
   8ffe0:	e0bff517 	ldw	r2,-44(fp)
   8ffe4:	10800283 	ldbu	r2,10(r2)
   8ffe8:	1005003a 	cmpeq	r2,r2,zero
   8ffec:	1000061e 	bne	r2,zero,90008 <OSQDel+0x1e8>
   8fff0:	e13ff517 	ldw	r4,-44(fp)
   8fff4:	000b883a 	mov	r5,zero
   8fff8:	01800104 	movi	r6,4
   8fffc:	000f883a 	mov	r7,zero
   90000:	008ca140 	call	8ca14 <OS_EventTaskRdy>
   90004:	003ff606 	br	8ffe0 <OSQDel+0x1c0>
   90008:	e0fff517 	ldw	r3,-44(fp)
   9000c:	00800fc4 	movi	r2,63
   90010:	18800385 	stb	r2,14(r3)
   90014:	e0bff517 	ldw	r2,-44(fp)
   90018:	100003c5 	stb	zero,15(r2)
   9001c:	e0bff517 	ldw	r2,-44(fp)
   90020:	10800117 	ldw	r2,4(r2)
   90024:	e0bffa15 	stw	r2,-24(fp)
   90028:	e0fffa17 	ldw	r3,-24(fp)
   9002c:	d0a70a17 	ldw	r2,-25560(gp)
   90030:	18800015 	stw	r2,0(r3)
   90034:	e0bffa17 	ldw	r2,-24(fp)
   90038:	d0a70a15 	stw	r2,-25560(gp)
   9003c:	e0bff517 	ldw	r2,-44(fp)
   90040:	10000005 	stb	zero,0(r2)
   90044:	e0fff517 	ldw	r3,-44(fp)
   90048:	d0a6fb17 	ldw	r2,-25620(gp)
   9004c:	18800115 	stw	r2,4(r3)
   90050:	e0bff517 	ldw	r2,-44(fp)
   90054:	1000020d 	sth	zero,8(r2)
   90058:	e0bff517 	ldw	r2,-44(fp)
   9005c:	d0a6fb15 	stw	r2,-25620(gp)
   90060:	e0bffb17 	ldw	r2,-20(fp)
   90064:	e0bffd15 	stw	r2,-12(fp)
   90068:	e0bffd17 	ldw	r2,-12(fp)
   9006c:	1001703a 	wrctl	status,r2
   90070:	e0bff803 	ldbu	r2,-32(fp)
   90074:	10800058 	cmpnei	r2,r2,1
   90078:	1000011e 	bne	r2,zero,90080 <OSQDel+0x260>
   9007c:	008d3a00 	call	8d3a0 <OS_Sched>
   90080:	e0bff717 	ldw	r2,-36(fp)
   90084:	10000005 	stb	zero,0(r2)
   90088:	e03ff915 	stw	zero,-28(fp)
   9008c:	00000906 	br	900b4 <OSQDel+0x294>
   90090:	e0bffb17 	ldw	r2,-20(fp)
   90094:	e0bffd15 	stw	r2,-12(fp)
   90098:	e0bffd17 	ldw	r2,-12(fp)
   9009c:	1001703a 	wrctl	status,r2
   900a0:	e0fff717 	ldw	r3,-36(fp)
   900a4:	008001c4 	movi	r2,7
   900a8:	18800005 	stb	r2,0(r3)
   900ac:	e0bff517 	ldw	r2,-44(fp)
   900b0:	e0bff915 	stw	r2,-28(fp)
   900b4:	e0bff917 	ldw	r2,-28(fp)
   900b8:	e0bffe15 	stw	r2,-8(fp)
   900bc:	e0bffe17 	ldw	r2,-8(fp)
   900c0:	dfc00c17 	ldw	ra,48(sp)
   900c4:	df000b17 	ldw	fp,44(sp)
   900c8:	dec00d04 	addi	sp,sp,52
   900cc:	f800283a 	ret

000900d0 <OSQFlush>:
   900d0:	defff904 	addi	sp,sp,-28
   900d4:	df000615 	stw	fp,24(sp)
   900d8:	df000604 	addi	fp,sp,24
   900dc:	e13ffa15 	stw	r4,-24(fp)
   900e0:	e03ffc15 	stw	zero,-16(fp)
   900e4:	e0bffa17 	ldw	r2,-24(fp)
   900e8:	1004c03a 	cmpne	r2,r2,zero
   900ec:	1000031e 	bne	r2,zero,900fc <OSQFlush+0x2c>
   900f0:	00800104 	movi	r2,4
   900f4:	e0bfff15 	stw	r2,-4(fp)
   900f8:	00002306 	br	90188 <OSQFlush+0xb8>
   900fc:	e0bffa17 	ldw	r2,-24(fp)
   90100:	10800003 	ldbu	r2,0(r2)
   90104:	108000a0 	cmpeqi	r2,r2,2
   90108:	1000031e 	bne	r2,zero,90118 <OSQFlush+0x48>
   9010c:	00800044 	movi	r2,1
   90110:	e0bfff15 	stw	r2,-4(fp)
   90114:	00001c06 	br	90188 <OSQFlush+0xb8>
   90118:	0005303a 	rdctl	r2,status
   9011c:	e0bffe15 	stw	r2,-8(fp)
   90120:	e0fffe17 	ldw	r3,-8(fp)
   90124:	00bfff84 	movi	r2,-2
   90128:	1884703a 	and	r2,r3,r2
   9012c:	1001703a 	wrctl	status,r2
   90130:	e0bffe17 	ldw	r2,-8(fp)
   90134:	e0bffd15 	stw	r2,-12(fp)
   90138:	e0bffd17 	ldw	r2,-12(fp)
   9013c:	e0bffc15 	stw	r2,-16(fp)
   90140:	e0bffa17 	ldw	r2,-24(fp)
   90144:	10800117 	ldw	r2,4(r2)
   90148:	e0bffb15 	stw	r2,-20(fp)
   9014c:	e0fffb17 	ldw	r3,-20(fp)
   90150:	e0bffb17 	ldw	r2,-20(fp)
   90154:	10800117 	ldw	r2,4(r2)
   90158:	18800315 	stw	r2,12(r3)
   9015c:	e0fffb17 	ldw	r3,-20(fp)
   90160:	e0bffb17 	ldw	r2,-20(fp)
   90164:	10800117 	ldw	r2,4(r2)
   90168:	18800415 	stw	r2,16(r3)
   9016c:	e0bffb17 	ldw	r2,-20(fp)
   90170:	1000058d 	sth	zero,22(r2)
   90174:	e0bffc17 	ldw	r2,-16(fp)
   90178:	e0bffe15 	stw	r2,-8(fp)
   9017c:	e0bffe17 	ldw	r2,-8(fp)
   90180:	1001703a 	wrctl	status,r2
   90184:	e03fff15 	stw	zero,-4(fp)
   90188:	e0bfff17 	ldw	r2,-4(fp)
   9018c:	df000617 	ldw	fp,24(sp)
   90190:	dec00704 	addi	sp,sp,28
   90194:	f800283a 	ret

00090198 <OSQPend>:
   90198:	defff404 	addi	sp,sp,-48
   9019c:	dfc00b15 	stw	ra,44(sp)
   901a0:	df000a15 	stw	fp,40(sp)
   901a4:	df000a04 	addi	fp,sp,40
   901a8:	e13ff615 	stw	r4,-40(fp)
   901ac:	e1bff815 	stw	r6,-32(fp)
   901b0:	e17ff70d 	sth	r5,-36(fp)
   901b4:	e03ffb15 	stw	zero,-20(fp)
   901b8:	e0bff817 	ldw	r2,-32(fp)
   901bc:	1004c03a 	cmpne	r2,r2,zero
   901c0:	1000021e 	bne	r2,zero,901cc <OSQPend+0x34>
   901c4:	e03ffe15 	stw	zero,-8(fp)
   901c8:	00009706 	br	90428 <OSQPend+0x290>
   901cc:	e0bff617 	ldw	r2,-40(fp)
   901d0:	1004c03a 	cmpne	r2,r2,zero
   901d4:	1000051e 	bne	r2,zero,901ec <OSQPend+0x54>
   901d8:	e0fff817 	ldw	r3,-32(fp)
   901dc:	00800104 	movi	r2,4
   901e0:	18800005 	stb	r2,0(r3)
   901e4:	e03ffe15 	stw	zero,-8(fp)
   901e8:	00008f06 	br	90428 <OSQPend+0x290>
   901ec:	e0bff617 	ldw	r2,-40(fp)
   901f0:	10800003 	ldbu	r2,0(r2)
   901f4:	108000a0 	cmpeqi	r2,r2,2
   901f8:	1000051e 	bne	r2,zero,90210 <OSQPend+0x78>
   901fc:	e0fff817 	ldw	r3,-32(fp)
   90200:	00800044 	movi	r2,1
   90204:	18800005 	stb	r2,0(r3)
   90208:	e03ffe15 	stw	zero,-8(fp)
   9020c:	00008606 	br	90428 <OSQPend+0x290>
   90210:	d0a70043 	ldbu	r2,-25599(gp)
   90214:	1005003a 	cmpeq	r2,r2,zero
   90218:	1000051e 	bne	r2,zero,90230 <OSQPend+0x98>
   9021c:	e0fff817 	ldw	r3,-32(fp)
   90220:	00800084 	movi	r2,2
   90224:	18800005 	stb	r2,0(r3)
   90228:	e03ffe15 	stw	zero,-8(fp)
   9022c:	00007e06 	br	90428 <OSQPend+0x290>
   90230:	d0a70083 	ldbu	r2,-25598(gp)
   90234:	1005003a 	cmpeq	r2,r2,zero
   90238:	1000051e 	bne	r2,zero,90250 <OSQPend+0xb8>
   9023c:	e0fff817 	ldw	r3,-32(fp)
   90240:	00800344 	movi	r2,13
   90244:	18800005 	stb	r2,0(r3)
   90248:	e03ffe15 	stw	zero,-8(fp)
   9024c:	00007606 	br	90428 <OSQPend+0x290>
   90250:	0005303a 	rdctl	r2,status
   90254:	e0bffd15 	stw	r2,-12(fp)
   90258:	e0fffd17 	ldw	r3,-12(fp)
   9025c:	00bfff84 	movi	r2,-2
   90260:	1884703a 	and	r2,r3,r2
   90264:	1001703a 	wrctl	status,r2
   90268:	e0bffd17 	ldw	r2,-12(fp)
   9026c:	e0bffc15 	stw	r2,-16(fp)
   90270:	e0bffc17 	ldw	r2,-16(fp)
   90274:	e0bffb15 	stw	r2,-20(fp)
   90278:	e0bff617 	ldw	r2,-40(fp)
   9027c:	10800117 	ldw	r2,4(r2)
   90280:	e0bffa15 	stw	r2,-24(fp)
   90284:	e0bffa17 	ldw	r2,-24(fp)
   90288:	1080058b 	ldhu	r2,22(r2)
   9028c:	1005003a 	cmpeq	r2,r2,zero
   90290:	10001e1e 	bne	r2,zero,9030c <OSQPend+0x174>
   90294:	e0bffa17 	ldw	r2,-24(fp)
   90298:	10c00404 	addi	r3,r2,16
   9029c:	18800017 	ldw	r2,0(r3)
   902a0:	11000017 	ldw	r4,0(r2)
   902a4:	10800104 	addi	r2,r2,4
   902a8:	18800015 	stw	r2,0(r3)
   902ac:	e13ff915 	stw	r4,-28(fp)
   902b0:	e0fffa17 	ldw	r3,-24(fp)
   902b4:	e0bffa17 	ldw	r2,-24(fp)
   902b8:	1080058b 	ldhu	r2,22(r2)
   902bc:	10bfffc4 	addi	r2,r2,-1
   902c0:	1880058d 	sth	r2,22(r3)
   902c4:	e0bffa17 	ldw	r2,-24(fp)
   902c8:	e0fffa17 	ldw	r3,-24(fp)
   902cc:	11000417 	ldw	r4,16(r2)
   902d0:	18800217 	ldw	r2,8(r3)
   902d4:	2080041e 	bne	r4,r2,902e8 <OSQPend+0x150>
   902d8:	e0bffa17 	ldw	r2,-24(fp)
   902dc:	e0fffa17 	ldw	r3,-24(fp)
   902e0:	18c00117 	ldw	r3,4(r3)
   902e4:	10c00415 	stw	r3,16(r2)
   902e8:	e0bffb17 	ldw	r2,-20(fp)
   902ec:	e0bffd15 	stw	r2,-12(fp)
   902f0:	e0bffd17 	ldw	r2,-12(fp)
   902f4:	1001703a 	wrctl	status,r2
   902f8:	e0bff817 	ldw	r2,-32(fp)
   902fc:	10000005 	stb	zero,0(r2)
   90300:	e0bff917 	ldw	r2,-28(fp)
   90304:	e0bffe15 	stw	r2,-8(fp)
   90308:	00004706 	br	90428 <OSQPend+0x290>
   9030c:	d0e70417 	ldw	r3,-25584(gp)
   90310:	d0a70417 	ldw	r2,-25584(gp)
   90314:	10800c03 	ldbu	r2,48(r2)
   90318:	10800114 	ori	r2,r2,4
   9031c:	18800c05 	stb	r2,48(r3)
   90320:	d0a70417 	ldw	r2,-25584(gp)
   90324:	10000c45 	stb	zero,49(r2)
   90328:	d0e70417 	ldw	r3,-25584(gp)
   9032c:	e0bff70b 	ldhu	r2,-36(fp)
   90330:	18800b8d 	sth	r2,46(r3)
   90334:	e13ff617 	ldw	r4,-40(fp)
   90338:	008cb880 	call	8cb88 <OS_EventTaskWait>
   9033c:	e0bffb17 	ldw	r2,-20(fp)
   90340:	e0bffd15 	stw	r2,-12(fp)
   90344:	e0bffd17 	ldw	r2,-12(fp)
   90348:	1001703a 	wrctl	status,r2
   9034c:	008d3a00 	call	8d3a0 <OS_Sched>
   90350:	0005303a 	rdctl	r2,status
   90354:	e0bffc15 	stw	r2,-16(fp)
   90358:	e0fffc17 	ldw	r3,-16(fp)
   9035c:	00bfff84 	movi	r2,-2
   90360:	1884703a 	and	r2,r3,r2
   90364:	1001703a 	wrctl	status,r2
   90368:	e0bffc17 	ldw	r2,-16(fp)
   9036c:	e0bffd15 	stw	r2,-12(fp)
   90370:	e0bffd17 	ldw	r2,-12(fp)
   90374:	e0bffb15 	stw	r2,-20(fp)
   90378:	d0a70417 	ldw	r2,-25584(gp)
   9037c:	10800c43 	ldbu	r2,49(r2)
   90380:	e0bfff15 	stw	r2,-4(fp)
   90384:	e0ffff17 	ldw	r3,-4(fp)
   90388:	1805003a 	cmpeq	r2,r3,zero
   9038c:	1000041e 	bne	r2,zero,903a0 <OSQPend+0x208>
   90390:	e0ffff17 	ldw	r3,-4(fp)
   90394:	188000a0 	cmpeqi	r2,r3,2
   90398:	1000071e 	bne	r2,zero,903b8 <OSQPend+0x220>
   9039c:	00000b06 	br	903cc <OSQPend+0x234>
   903a0:	d0a70417 	ldw	r2,-25584(gp)
   903a4:	10800917 	ldw	r2,36(r2)
   903a8:	e0bff915 	stw	r2,-28(fp)
   903ac:	e0bff817 	ldw	r2,-32(fp)
   903b0:	10000005 	stb	zero,0(r2)
   903b4:	00000c06 	br	903e8 <OSQPend+0x250>
   903b8:	e03ff915 	stw	zero,-28(fp)
   903bc:	e0fff817 	ldw	r3,-32(fp)
   903c0:	00800384 	movi	r2,14
   903c4:	18800005 	stb	r2,0(r3)
   903c8:	00000706 	br	903e8 <OSQPend+0x250>
   903cc:	d1270417 	ldw	r4,-25584(gp)
   903d0:	e17ff617 	ldw	r5,-40(fp)
   903d4:	008cda40 	call	8cda4 <OS_EventTaskRemove>
   903d8:	e03ff915 	stw	zero,-28(fp)
   903dc:	e0fff817 	ldw	r3,-32(fp)
   903e0:	00800284 	movi	r2,10
   903e4:	18800005 	stb	r2,0(r3)
   903e8:	d0a70417 	ldw	r2,-25584(gp)
   903ec:	10000c05 	stb	zero,48(r2)
   903f0:	d0a70417 	ldw	r2,-25584(gp)
   903f4:	10000c45 	stb	zero,49(r2)
   903f8:	d0a70417 	ldw	r2,-25584(gp)
   903fc:	10000715 	stw	zero,28(r2)
   90400:	d0a70417 	ldw	r2,-25584(gp)
   90404:	10000815 	stw	zero,32(r2)
   90408:	d0a70417 	ldw	r2,-25584(gp)
   9040c:	10000915 	stw	zero,36(r2)
   90410:	e0bffb17 	ldw	r2,-20(fp)
   90414:	e0bffd15 	stw	r2,-12(fp)
   90418:	e0bffd17 	ldw	r2,-12(fp)
   9041c:	1001703a 	wrctl	status,r2
   90420:	e0bff917 	ldw	r2,-28(fp)
   90424:	e0bffe15 	stw	r2,-8(fp)
   90428:	e0bffe17 	ldw	r2,-8(fp)
   9042c:	dfc00b17 	ldw	ra,44(sp)
   90430:	df000a17 	ldw	fp,40(sp)
   90434:	dec00c04 	addi	sp,sp,48
   90438:	f800283a 	ret

0009043c <OSQPendAbort>:
   9043c:	defff604 	addi	sp,sp,-40
   90440:	dfc00915 	stw	ra,36(sp)
   90444:	df000815 	stw	fp,32(sp)
   90448:	df000804 	addi	fp,sp,32
   9044c:	e13ff815 	stw	r4,-32(fp)
   90450:	e1bffa15 	stw	r6,-24(fp)
   90454:	e17ff905 	stb	r5,-28(fp)
   90458:	e03ffc15 	stw	zero,-16(fp)
   9045c:	e0bffa17 	ldw	r2,-24(fp)
   90460:	1004c03a 	cmpne	r2,r2,zero
   90464:	1000021e 	bne	r2,zero,90470 <OSQPendAbort+0x34>
   90468:	e03fff15 	stw	zero,-4(fp)
   9046c:	00004b06 	br	9059c <OSQPendAbort+0x160>
   90470:	e0bff817 	ldw	r2,-32(fp)
   90474:	1004c03a 	cmpne	r2,r2,zero
   90478:	1000051e 	bne	r2,zero,90490 <OSQPendAbort+0x54>
   9047c:	e0fffa17 	ldw	r3,-24(fp)
   90480:	00800104 	movi	r2,4
   90484:	18800005 	stb	r2,0(r3)
   90488:	e03fff15 	stw	zero,-4(fp)
   9048c:	00004306 	br	9059c <OSQPendAbort+0x160>
   90490:	e0bff817 	ldw	r2,-32(fp)
   90494:	10800003 	ldbu	r2,0(r2)
   90498:	108000a0 	cmpeqi	r2,r2,2
   9049c:	1000051e 	bne	r2,zero,904b4 <OSQPendAbort+0x78>
   904a0:	e0fffa17 	ldw	r3,-24(fp)
   904a4:	00800044 	movi	r2,1
   904a8:	18800005 	stb	r2,0(r3)
   904ac:	e03fff15 	stw	zero,-4(fp)
   904b0:	00003a06 	br	9059c <OSQPendAbort+0x160>
   904b4:	0005303a 	rdctl	r2,status
   904b8:	e0bffe15 	stw	r2,-8(fp)
   904bc:	e0fffe17 	ldw	r3,-8(fp)
   904c0:	00bfff84 	movi	r2,-2
   904c4:	1884703a 	and	r2,r3,r2
   904c8:	1001703a 	wrctl	status,r2
   904cc:	e0bffe17 	ldw	r2,-8(fp)
   904d0:	e0bffd15 	stw	r2,-12(fp)
   904d4:	e0bffd17 	ldw	r2,-12(fp)
   904d8:	e0bffc15 	stw	r2,-16(fp)
   904dc:	e0bff817 	ldw	r2,-32(fp)
   904e0:	10800283 	ldbu	r2,10(r2)
   904e4:	1005003a 	cmpeq	r2,r2,zero
   904e8:	1000251e 	bne	r2,zero,90580 <OSQPendAbort+0x144>
   904ec:	e03ffb05 	stb	zero,-20(fp)
   904f0:	e0bff903 	ldbu	r2,-28(fp)
   904f4:	10800060 	cmpeqi	r2,r2,1
   904f8:	1000011e 	bne	r2,zero,90500 <OSQPendAbort+0xc4>
   904fc:	00000d06 	br	90534 <OSQPendAbort+0xf8>
   90500:	e0bff817 	ldw	r2,-32(fp)
   90504:	10800283 	ldbu	r2,10(r2)
   90508:	1005003a 	cmpeq	r2,r2,zero
   9050c:	1000111e 	bne	r2,zero,90554 <OSQPendAbort+0x118>
   90510:	e13ff817 	ldw	r4,-32(fp)
   90514:	000b883a 	mov	r5,zero
   90518:	01800104 	movi	r6,4
   9051c:	01c00084 	movi	r7,2
   90520:	008ca140 	call	8ca14 <OS_EventTaskRdy>
   90524:	e0bffb03 	ldbu	r2,-20(fp)
   90528:	10800044 	addi	r2,r2,1
   9052c:	e0bffb05 	stb	r2,-20(fp)
   90530:	003ff306 	br	90500 <OSQPendAbort+0xc4>
   90534:	e13ff817 	ldw	r4,-32(fp)
   90538:	000b883a 	mov	r5,zero
   9053c:	01800104 	movi	r6,4
   90540:	01c00084 	movi	r7,2
   90544:	008ca140 	call	8ca14 <OS_EventTaskRdy>
   90548:	e0bffb03 	ldbu	r2,-20(fp)
   9054c:	10800044 	addi	r2,r2,1
   90550:	e0bffb05 	stb	r2,-20(fp)
   90554:	e0bffc17 	ldw	r2,-16(fp)
   90558:	e0bffe15 	stw	r2,-8(fp)
   9055c:	e0bffe17 	ldw	r2,-8(fp)
   90560:	1001703a 	wrctl	status,r2
   90564:	008d3a00 	call	8d3a0 <OS_Sched>
   90568:	e0fffa17 	ldw	r3,-24(fp)
   9056c:	00800384 	movi	r2,14
   90570:	18800005 	stb	r2,0(r3)
   90574:	e0bffb03 	ldbu	r2,-20(fp)
   90578:	e0bfff15 	stw	r2,-4(fp)
   9057c:	00000706 	br	9059c <OSQPendAbort+0x160>
   90580:	e0bffc17 	ldw	r2,-16(fp)
   90584:	e0bffe15 	stw	r2,-8(fp)
   90588:	e0bffe17 	ldw	r2,-8(fp)
   9058c:	1001703a 	wrctl	status,r2
   90590:	e0bffa17 	ldw	r2,-24(fp)
   90594:	10000005 	stb	zero,0(r2)
   90598:	e03fff15 	stw	zero,-4(fp)
   9059c:	e0bfff17 	ldw	r2,-4(fp)
   905a0:	dfc00917 	ldw	ra,36(sp)
   905a4:	df000817 	ldw	fp,32(sp)
   905a8:	dec00a04 	addi	sp,sp,40
   905ac:	f800283a 	ret

000905b0 <OSQPost>:
   905b0:	defff704 	addi	sp,sp,-36
   905b4:	dfc00815 	stw	ra,32(sp)
   905b8:	df000715 	stw	fp,28(sp)
   905bc:	df000704 	addi	fp,sp,28
   905c0:	e13ff915 	stw	r4,-28(fp)
   905c4:	e17ffa15 	stw	r5,-24(fp)
   905c8:	e03ffc15 	stw	zero,-16(fp)
   905cc:	e0bff917 	ldw	r2,-28(fp)
   905d0:	1004c03a 	cmpne	r2,r2,zero
   905d4:	1000031e 	bne	r2,zero,905e4 <OSQPost+0x34>
   905d8:	00800104 	movi	r2,4
   905dc:	e0bfff15 	stw	r2,-4(fp)
   905e0:	00004b06 	br	90710 <OSQPost+0x160>
   905e4:	e0bff917 	ldw	r2,-28(fp)
   905e8:	10800003 	ldbu	r2,0(r2)
   905ec:	108000a0 	cmpeqi	r2,r2,2
   905f0:	1000031e 	bne	r2,zero,90600 <OSQPost+0x50>
   905f4:	00800044 	movi	r2,1
   905f8:	e0bfff15 	stw	r2,-4(fp)
   905fc:	00004406 	br	90710 <OSQPost+0x160>
   90600:	0005303a 	rdctl	r2,status
   90604:	e0bffe15 	stw	r2,-8(fp)
   90608:	e0fffe17 	ldw	r3,-8(fp)
   9060c:	00bfff84 	movi	r2,-2
   90610:	1884703a 	and	r2,r3,r2
   90614:	1001703a 	wrctl	status,r2
   90618:	e0bffe17 	ldw	r2,-8(fp)
   9061c:	e0bffd15 	stw	r2,-12(fp)
   90620:	e0bffd17 	ldw	r2,-12(fp)
   90624:	e0bffc15 	stw	r2,-16(fp)
   90628:	e0bff917 	ldw	r2,-28(fp)
   9062c:	10800283 	ldbu	r2,10(r2)
   90630:	1005003a 	cmpeq	r2,r2,zero
   90634:	10000c1e 	bne	r2,zero,90668 <OSQPost+0xb8>
   90638:	e13ff917 	ldw	r4,-28(fp)
   9063c:	e17ffa17 	ldw	r5,-24(fp)
   90640:	01800104 	movi	r6,4
   90644:	000f883a 	mov	r7,zero
   90648:	008ca140 	call	8ca14 <OS_EventTaskRdy>
   9064c:	e0bffc17 	ldw	r2,-16(fp)
   90650:	e0bffe15 	stw	r2,-8(fp)
   90654:	e0bffe17 	ldw	r2,-8(fp)
   90658:	1001703a 	wrctl	status,r2
   9065c:	008d3a00 	call	8d3a0 <OS_Sched>
   90660:	e03fff15 	stw	zero,-4(fp)
   90664:	00002a06 	br	90710 <OSQPost+0x160>
   90668:	e0bff917 	ldw	r2,-28(fp)
   9066c:	10800117 	ldw	r2,4(r2)
   90670:	e0bffb15 	stw	r2,-20(fp)
   90674:	e0bffb17 	ldw	r2,-20(fp)
   90678:	e0fffb17 	ldw	r3,-20(fp)
   9067c:	1100058b 	ldhu	r4,22(r2)
   90680:	1880050b 	ldhu	r2,20(r3)
   90684:	20800736 	bltu	r4,r2,906a4 <OSQPost+0xf4>
   90688:	e0bffc17 	ldw	r2,-16(fp)
   9068c:	e0bffe15 	stw	r2,-8(fp)
   90690:	e0bffe17 	ldw	r2,-8(fp)
   90694:	1001703a 	wrctl	status,r2
   90698:	00800784 	movi	r2,30
   9069c:	e0bfff15 	stw	r2,-4(fp)
   906a0:	00001b06 	br	90710 <OSQPost+0x160>
   906a4:	e0bffb17 	ldw	r2,-20(fp)
   906a8:	11400304 	addi	r5,r2,12
   906ac:	28800017 	ldw	r2,0(r5)
   906b0:	1009883a 	mov	r4,r2
   906b4:	e0fffa17 	ldw	r3,-24(fp)
   906b8:	20c00015 	stw	r3,0(r4)
   906bc:	10800104 	addi	r2,r2,4
   906c0:	28800015 	stw	r2,0(r5)
   906c4:	e0fffb17 	ldw	r3,-20(fp)
   906c8:	e0bffb17 	ldw	r2,-20(fp)
   906cc:	1080058b 	ldhu	r2,22(r2)
   906d0:	10800044 	addi	r2,r2,1
   906d4:	1880058d 	sth	r2,22(r3)
   906d8:	e0bffb17 	ldw	r2,-20(fp)
   906dc:	e0fffb17 	ldw	r3,-20(fp)
   906e0:	11000317 	ldw	r4,12(r2)
   906e4:	18800217 	ldw	r2,8(r3)
   906e8:	2080041e 	bne	r4,r2,906fc <OSQPost+0x14c>
   906ec:	e0bffb17 	ldw	r2,-20(fp)
   906f0:	e0fffb17 	ldw	r3,-20(fp)
   906f4:	18c00117 	ldw	r3,4(r3)
   906f8:	10c00315 	stw	r3,12(r2)
   906fc:	e0bffc17 	ldw	r2,-16(fp)
   90700:	e0bffe15 	stw	r2,-8(fp)
   90704:	e0bffe17 	ldw	r2,-8(fp)
   90708:	1001703a 	wrctl	status,r2
   9070c:	e03fff15 	stw	zero,-4(fp)
   90710:	e0bfff17 	ldw	r2,-4(fp)
   90714:	dfc00817 	ldw	ra,32(sp)
   90718:	df000717 	ldw	fp,28(sp)
   9071c:	dec00904 	addi	sp,sp,36
   90720:	f800283a 	ret

00090724 <OSQPostFront>:
   90724:	defff704 	addi	sp,sp,-36
   90728:	dfc00815 	stw	ra,32(sp)
   9072c:	df000715 	stw	fp,28(sp)
   90730:	df000704 	addi	fp,sp,28
   90734:	e13ff915 	stw	r4,-28(fp)
   90738:	e17ffa15 	stw	r5,-24(fp)
   9073c:	e03ffc15 	stw	zero,-16(fp)
   90740:	e0bff917 	ldw	r2,-28(fp)
   90744:	1004c03a 	cmpne	r2,r2,zero
   90748:	1000031e 	bne	r2,zero,90758 <OSQPostFront+0x34>
   9074c:	00800104 	movi	r2,4
   90750:	e0bfff15 	stw	r2,-4(fp)
   90754:	00004c06 	br	90888 <OSQPostFront+0x164>
   90758:	e0bff917 	ldw	r2,-28(fp)
   9075c:	10800003 	ldbu	r2,0(r2)
   90760:	108000a0 	cmpeqi	r2,r2,2
   90764:	1000031e 	bne	r2,zero,90774 <OSQPostFront+0x50>
   90768:	00800044 	movi	r2,1
   9076c:	e0bfff15 	stw	r2,-4(fp)
   90770:	00004506 	br	90888 <OSQPostFront+0x164>
   90774:	0005303a 	rdctl	r2,status
   90778:	e0bffe15 	stw	r2,-8(fp)
   9077c:	e0fffe17 	ldw	r3,-8(fp)
   90780:	00bfff84 	movi	r2,-2
   90784:	1884703a 	and	r2,r3,r2
   90788:	1001703a 	wrctl	status,r2
   9078c:	e0bffe17 	ldw	r2,-8(fp)
   90790:	e0bffd15 	stw	r2,-12(fp)
   90794:	e0bffd17 	ldw	r2,-12(fp)
   90798:	e0bffc15 	stw	r2,-16(fp)
   9079c:	e0bff917 	ldw	r2,-28(fp)
   907a0:	10800283 	ldbu	r2,10(r2)
   907a4:	1005003a 	cmpeq	r2,r2,zero
   907a8:	10000c1e 	bne	r2,zero,907dc <OSQPostFront+0xb8>
   907ac:	e13ff917 	ldw	r4,-28(fp)
   907b0:	e17ffa17 	ldw	r5,-24(fp)
   907b4:	01800104 	movi	r6,4
   907b8:	000f883a 	mov	r7,zero
   907bc:	008ca140 	call	8ca14 <OS_EventTaskRdy>
   907c0:	e0bffc17 	ldw	r2,-16(fp)
   907c4:	e0bffe15 	stw	r2,-8(fp)
   907c8:	e0bffe17 	ldw	r2,-8(fp)
   907cc:	1001703a 	wrctl	status,r2
   907d0:	008d3a00 	call	8d3a0 <OS_Sched>
   907d4:	e03fff15 	stw	zero,-4(fp)
   907d8:	00002b06 	br	90888 <OSQPostFront+0x164>
   907dc:	e0bff917 	ldw	r2,-28(fp)
   907e0:	10800117 	ldw	r2,4(r2)
   907e4:	e0bffb15 	stw	r2,-20(fp)
   907e8:	e0bffb17 	ldw	r2,-20(fp)
   907ec:	e0fffb17 	ldw	r3,-20(fp)
   907f0:	1100058b 	ldhu	r4,22(r2)
   907f4:	1880050b 	ldhu	r2,20(r3)
   907f8:	20800736 	bltu	r4,r2,90818 <OSQPostFront+0xf4>
   907fc:	e0bffc17 	ldw	r2,-16(fp)
   90800:	e0bffe15 	stw	r2,-8(fp)
   90804:	e0bffe17 	ldw	r2,-8(fp)
   90808:	1001703a 	wrctl	status,r2
   9080c:	00800784 	movi	r2,30
   90810:	e0bfff15 	stw	r2,-4(fp)
   90814:	00001c06 	br	90888 <OSQPostFront+0x164>
   90818:	e0bffb17 	ldw	r2,-20(fp)
   9081c:	e0fffb17 	ldw	r3,-20(fp)
   90820:	11000417 	ldw	r4,16(r2)
   90824:	18800117 	ldw	r2,4(r3)
   90828:	2080041e 	bne	r4,r2,9083c <OSQPostFront+0x118>
   9082c:	e0bffb17 	ldw	r2,-20(fp)
   90830:	e0fffb17 	ldw	r3,-20(fp)
   90834:	18c00217 	ldw	r3,8(r3)
   90838:	10c00415 	stw	r3,16(r2)
   9083c:	e0fffb17 	ldw	r3,-20(fp)
   90840:	e0bffb17 	ldw	r2,-20(fp)
   90844:	10800417 	ldw	r2,16(r2)
   90848:	10bfff04 	addi	r2,r2,-4
   9084c:	18800415 	stw	r2,16(r3)
   90850:	e0bffb17 	ldw	r2,-20(fp)
   90854:	10c00417 	ldw	r3,16(r2)
   90858:	e0bffa17 	ldw	r2,-24(fp)
   9085c:	18800015 	stw	r2,0(r3)
   90860:	e0fffb17 	ldw	r3,-20(fp)
   90864:	e0bffb17 	ldw	r2,-20(fp)
   90868:	1080058b 	ldhu	r2,22(r2)
   9086c:	10800044 	addi	r2,r2,1
   90870:	1880058d 	sth	r2,22(r3)
   90874:	e0bffc17 	ldw	r2,-16(fp)
   90878:	e0bffe15 	stw	r2,-8(fp)
   9087c:	e0bffe17 	ldw	r2,-8(fp)
   90880:	1001703a 	wrctl	status,r2
   90884:	e03fff15 	stw	zero,-4(fp)
   90888:	e0bfff17 	ldw	r2,-4(fp)
   9088c:	dfc00817 	ldw	ra,32(sp)
   90890:	df000717 	ldw	fp,28(sp)
   90894:	dec00904 	addi	sp,sp,36
   90898:	f800283a 	ret

0009089c <OSQPostOpt>:
   9089c:	defff604 	addi	sp,sp,-40
   908a0:	dfc00915 	stw	ra,36(sp)
   908a4:	df000815 	stw	fp,32(sp)
   908a8:	df000804 	addi	fp,sp,32
   908ac:	e13ff815 	stw	r4,-32(fp)
   908b0:	e17ff915 	stw	r5,-28(fp)
   908b4:	e1bffa05 	stb	r6,-24(fp)
   908b8:	e03ffc15 	stw	zero,-16(fp)
   908bc:	e0bff817 	ldw	r2,-32(fp)
   908c0:	1004c03a 	cmpne	r2,r2,zero
   908c4:	1000031e 	bne	r2,zero,908d4 <OSQPostOpt+0x38>
   908c8:	00800104 	movi	r2,4
   908cc:	e0bfff15 	stw	r2,-4(fp)
   908d0:	00007406 	br	90aa4 <OSQPostOpt+0x208>
   908d4:	e0bff817 	ldw	r2,-32(fp)
   908d8:	10800003 	ldbu	r2,0(r2)
   908dc:	108000a0 	cmpeqi	r2,r2,2
   908e0:	1000031e 	bne	r2,zero,908f0 <OSQPostOpt+0x54>
   908e4:	00800044 	movi	r2,1
   908e8:	e0bfff15 	stw	r2,-4(fp)
   908ec:	00006d06 	br	90aa4 <OSQPostOpt+0x208>
   908f0:	0005303a 	rdctl	r2,status
   908f4:	e0bffe15 	stw	r2,-8(fp)
   908f8:	e0fffe17 	ldw	r3,-8(fp)
   908fc:	00bfff84 	movi	r2,-2
   90900:	1884703a 	and	r2,r3,r2
   90904:	1001703a 	wrctl	status,r2
   90908:	e0bffe17 	ldw	r2,-8(fp)
   9090c:	e0bffd15 	stw	r2,-12(fp)
   90910:	e0bffd17 	ldw	r2,-12(fp)
   90914:	e0bffc15 	stw	r2,-16(fp)
   90918:	e0bff817 	ldw	r2,-32(fp)
   9091c:	10800283 	ldbu	r2,10(r2)
   90920:	1005003a 	cmpeq	r2,r2,zero
   90924:	10001e1e 	bne	r2,zero,909a0 <OSQPostOpt+0x104>
   90928:	e0bffa03 	ldbu	r2,-24(fp)
   9092c:	1080004c 	andi	r2,r2,1
   90930:	1005003a 	cmpeq	r2,r2,zero
   90934:	10000a1e 	bne	r2,zero,90960 <OSQPostOpt+0xc4>
   90938:	e0bff817 	ldw	r2,-32(fp)
   9093c:	10800283 	ldbu	r2,10(r2)
   90940:	1005003a 	cmpeq	r2,r2,zero
   90944:	10000b1e 	bne	r2,zero,90974 <OSQPostOpt+0xd8>
   90948:	e13ff817 	ldw	r4,-32(fp)
   9094c:	e17ff917 	ldw	r5,-28(fp)
   90950:	01800104 	movi	r6,4
   90954:	000f883a 	mov	r7,zero
   90958:	008ca140 	call	8ca14 <OS_EventTaskRdy>
   9095c:	003ff606 	br	90938 <OSQPostOpt+0x9c>
   90960:	e13ff817 	ldw	r4,-32(fp)
   90964:	e17ff917 	ldw	r5,-28(fp)
   90968:	01800104 	movi	r6,4
   9096c:	000f883a 	mov	r7,zero
   90970:	008ca140 	call	8ca14 <OS_EventTaskRdy>
   90974:	e0bffc17 	ldw	r2,-16(fp)
   90978:	e0bffe15 	stw	r2,-8(fp)
   9097c:	e0bffe17 	ldw	r2,-8(fp)
   90980:	1001703a 	wrctl	status,r2
   90984:	e0bffa03 	ldbu	r2,-24(fp)
   90988:	1080010c 	andi	r2,r2,4
   9098c:	1004c03a 	cmpne	r2,r2,zero
   90990:	1000011e 	bne	r2,zero,90998 <OSQPostOpt+0xfc>
   90994:	008d3a00 	call	8d3a0 <OS_Sched>
   90998:	e03fff15 	stw	zero,-4(fp)
   9099c:	00004106 	br	90aa4 <OSQPostOpt+0x208>
   909a0:	e0bff817 	ldw	r2,-32(fp)
   909a4:	10800117 	ldw	r2,4(r2)
   909a8:	e0bffb15 	stw	r2,-20(fp)
   909ac:	e0bffb17 	ldw	r2,-20(fp)
   909b0:	e0fffb17 	ldw	r3,-20(fp)
   909b4:	1100058b 	ldhu	r4,22(r2)
   909b8:	1880050b 	ldhu	r2,20(r3)
   909bc:	20800736 	bltu	r4,r2,909dc <OSQPostOpt+0x140>
   909c0:	e0bffc17 	ldw	r2,-16(fp)
   909c4:	e0bffe15 	stw	r2,-8(fp)
   909c8:	e0bffe17 	ldw	r2,-8(fp)
   909cc:	1001703a 	wrctl	status,r2
   909d0:	00800784 	movi	r2,30
   909d4:	e0bfff15 	stw	r2,-4(fp)
   909d8:	00003206 	br	90aa4 <OSQPostOpt+0x208>
   909dc:	e0bffa03 	ldbu	r2,-24(fp)
   909e0:	1080008c 	andi	r2,r2,2
   909e4:	1005003a 	cmpeq	r2,r2,zero
   909e8:	1000131e 	bne	r2,zero,90a38 <OSQPostOpt+0x19c>
   909ec:	e0bffb17 	ldw	r2,-20(fp)
   909f0:	e0fffb17 	ldw	r3,-20(fp)
   909f4:	11000417 	ldw	r4,16(r2)
   909f8:	18800117 	ldw	r2,4(r3)
   909fc:	2080041e 	bne	r4,r2,90a10 <OSQPostOpt+0x174>
   90a00:	e0bffb17 	ldw	r2,-20(fp)
   90a04:	e0fffb17 	ldw	r3,-20(fp)
   90a08:	18c00217 	ldw	r3,8(r3)
   90a0c:	10c00415 	stw	r3,16(r2)
   90a10:	e0fffb17 	ldw	r3,-20(fp)
   90a14:	e0bffb17 	ldw	r2,-20(fp)
   90a18:	10800417 	ldw	r2,16(r2)
   90a1c:	10bfff04 	addi	r2,r2,-4
   90a20:	18800415 	stw	r2,16(r3)
   90a24:	e0bffb17 	ldw	r2,-20(fp)
   90a28:	10c00417 	ldw	r3,16(r2)
   90a2c:	e0bff917 	ldw	r2,-28(fp)
   90a30:	18800015 	stw	r2,0(r3)
   90a34:	00001106 	br	90a7c <OSQPostOpt+0x1e0>
   90a38:	e0bffb17 	ldw	r2,-20(fp)
   90a3c:	11400304 	addi	r5,r2,12
   90a40:	28800017 	ldw	r2,0(r5)
   90a44:	1009883a 	mov	r4,r2
   90a48:	e0fff917 	ldw	r3,-28(fp)
   90a4c:	20c00015 	stw	r3,0(r4)
   90a50:	10800104 	addi	r2,r2,4
   90a54:	28800015 	stw	r2,0(r5)
   90a58:	e0bffb17 	ldw	r2,-20(fp)
   90a5c:	e0fffb17 	ldw	r3,-20(fp)
   90a60:	11000317 	ldw	r4,12(r2)
   90a64:	18800217 	ldw	r2,8(r3)
   90a68:	2080041e 	bne	r4,r2,90a7c <OSQPostOpt+0x1e0>
   90a6c:	e0bffb17 	ldw	r2,-20(fp)
   90a70:	e0fffb17 	ldw	r3,-20(fp)
   90a74:	18c00117 	ldw	r3,4(r3)
   90a78:	10c00315 	stw	r3,12(r2)
   90a7c:	e0fffb17 	ldw	r3,-20(fp)
   90a80:	e0bffb17 	ldw	r2,-20(fp)
   90a84:	1080058b 	ldhu	r2,22(r2)
   90a88:	10800044 	addi	r2,r2,1
   90a8c:	1880058d 	sth	r2,22(r3)
   90a90:	e0bffc17 	ldw	r2,-16(fp)
   90a94:	e0bffe15 	stw	r2,-8(fp)
   90a98:	e0bffe17 	ldw	r2,-8(fp)
   90a9c:	1001703a 	wrctl	status,r2
   90aa0:	e03fff15 	stw	zero,-4(fp)
   90aa4:	e0bfff17 	ldw	r2,-4(fp)
   90aa8:	dfc00917 	ldw	ra,36(sp)
   90aac:	df000817 	ldw	fp,32(sp)
   90ab0:	dec00a04 	addi	sp,sp,40
   90ab4:	f800283a 	ret

00090ab8 <OSQQuery>:
   90ab8:	defff504 	addi	sp,sp,-44
   90abc:	df000a15 	stw	fp,40(sp)
   90ac0:	df000a04 	addi	fp,sp,40
   90ac4:	e13ff615 	stw	r4,-40(fp)
   90ac8:	e17ff715 	stw	r5,-36(fp)
   90acc:	e03ffc15 	stw	zero,-16(fp)
   90ad0:	e0bff617 	ldw	r2,-40(fp)
   90ad4:	1004c03a 	cmpne	r2,r2,zero
   90ad8:	1000031e 	bne	r2,zero,90ae8 <OSQQuery+0x30>
   90adc:	00800104 	movi	r2,4
   90ae0:	e0bfff15 	stw	r2,-4(fp)
   90ae4:	00005006 	br	90c28 <OSQQuery+0x170>
   90ae8:	e0bff717 	ldw	r2,-36(fp)
   90aec:	1004c03a 	cmpne	r2,r2,zero
   90af0:	1000031e 	bne	r2,zero,90b00 <OSQQuery+0x48>
   90af4:	00800244 	movi	r2,9
   90af8:	e0bfff15 	stw	r2,-4(fp)
   90afc:	00004a06 	br	90c28 <OSQQuery+0x170>
   90b00:	e0bff617 	ldw	r2,-40(fp)
   90b04:	10800003 	ldbu	r2,0(r2)
   90b08:	108000a0 	cmpeqi	r2,r2,2
   90b0c:	1000031e 	bne	r2,zero,90b1c <OSQQuery+0x64>
   90b10:	00800044 	movi	r2,1
   90b14:	e0bfff15 	stw	r2,-4(fp)
   90b18:	00004306 	br	90c28 <OSQQuery+0x170>
   90b1c:	0005303a 	rdctl	r2,status
   90b20:	e0bffe15 	stw	r2,-8(fp)
   90b24:	e0fffe17 	ldw	r3,-8(fp)
   90b28:	00bfff84 	movi	r2,-2
   90b2c:	1884703a 	and	r2,r3,r2
   90b30:	1001703a 	wrctl	status,r2
   90b34:	e0bffe17 	ldw	r2,-8(fp)
   90b38:	e0bffd15 	stw	r2,-12(fp)
   90b3c:	e0bffd17 	ldw	r2,-12(fp)
   90b40:	e0bffc15 	stw	r2,-16(fp)
   90b44:	e0fff717 	ldw	r3,-36(fp)
   90b48:	e0bff617 	ldw	r2,-40(fp)
   90b4c:	10800283 	ldbu	r2,10(r2)
   90b50:	188002c5 	stb	r2,11(r3)
   90b54:	e0bff617 	ldw	r2,-40(fp)
   90b58:	108002c4 	addi	r2,r2,11
   90b5c:	e0bffa15 	stw	r2,-24(fp)
   90b60:	e0bff717 	ldw	r2,-36(fp)
   90b64:	10800204 	addi	r2,r2,8
   90b68:	e0bffb15 	stw	r2,-20(fp)
   90b6c:	e03ff905 	stb	zero,-28(fp)
   90b70:	e0bff903 	ldbu	r2,-28(fp)
   90b74:	108000e8 	cmpgeui	r2,r2,3
   90b78:	10000f1e 	bne	r2,zero,90bb8 <OSQQuery+0x100>
   90b7c:	e1bffb04 	addi	r6,fp,-20
   90b80:	30c00017 	ldw	r3,0(r6)
   90b84:	e13ffa04 	addi	r4,fp,-24
   90b88:	20800017 	ldw	r2,0(r4)
   90b8c:	11400003 	ldbu	r5,0(r2)
   90b90:	10800044 	addi	r2,r2,1
   90b94:	20800015 	stw	r2,0(r4)
   90b98:	1805883a 	mov	r2,r3
   90b9c:	11400005 	stb	r5,0(r2)
   90ba0:	18c00044 	addi	r3,r3,1
   90ba4:	30c00015 	stw	r3,0(r6)
   90ba8:	e0bff903 	ldbu	r2,-28(fp)
   90bac:	10800044 	addi	r2,r2,1
   90bb0:	e0bff905 	stb	r2,-28(fp)
   90bb4:	003fee06 	br	90b70 <OSQQuery+0xb8>
   90bb8:	e0bff617 	ldw	r2,-40(fp)
   90bbc:	10800117 	ldw	r2,4(r2)
   90bc0:	e0bff815 	stw	r2,-32(fp)
   90bc4:	e0bff817 	ldw	r2,-32(fp)
   90bc8:	1080058b 	ldhu	r2,22(r2)
   90bcc:	1005003a 	cmpeq	r2,r2,zero
   90bd0:	1000061e 	bne	r2,zero,90bec <OSQQuery+0x134>
   90bd4:	e0fff717 	ldw	r3,-36(fp)
   90bd8:	e0bff817 	ldw	r2,-32(fp)
   90bdc:	10800417 	ldw	r2,16(r2)
   90be0:	10800017 	ldw	r2,0(r2)
   90be4:	18800015 	stw	r2,0(r3)
   90be8:	00000206 	br	90bf4 <OSQQuery+0x13c>
   90bec:	e0bff717 	ldw	r2,-36(fp)
   90bf0:	10000015 	stw	zero,0(r2)
   90bf4:	e0fff717 	ldw	r3,-36(fp)
   90bf8:	e0bff817 	ldw	r2,-32(fp)
   90bfc:	1080058b 	ldhu	r2,22(r2)
   90c00:	1880010d 	sth	r2,4(r3)
   90c04:	e0fff717 	ldw	r3,-36(fp)
   90c08:	e0bff817 	ldw	r2,-32(fp)
   90c0c:	1080050b 	ldhu	r2,20(r2)
   90c10:	1880018d 	sth	r2,6(r3)
   90c14:	e0bffc17 	ldw	r2,-16(fp)
   90c18:	e0bffe15 	stw	r2,-8(fp)
   90c1c:	e0bffe17 	ldw	r2,-8(fp)
   90c20:	1001703a 	wrctl	status,r2
   90c24:	e03fff15 	stw	zero,-4(fp)
   90c28:	e0bfff17 	ldw	r2,-4(fp)
   90c2c:	df000a17 	ldw	fp,40(sp)
   90c30:	dec00b04 	addi	sp,sp,44
   90c34:	f800283a 	ret

00090c38 <OS_QInit>:
   90c38:	defffb04 	addi	sp,sp,-20
   90c3c:	dfc00415 	stw	ra,16(sp)
   90c40:	df000315 	stw	fp,12(sp)
   90c44:	df000304 	addi	fp,sp,12
   90c48:	010002b4 	movhi	r4,10
   90c4c:	210fcf04 	addi	r4,r4,16188
   90c50:	01407804 	movi	r5,480
   90c54:	008d2e80 	call	8d2e8 <OS_MemClr>
   90c58:	008002b4 	movhi	r2,10
   90c5c:	108fcf04 	addi	r2,r2,16188
   90c60:	e0bffe15 	stw	r2,-8(fp)
   90c64:	008002b4 	movhi	r2,10
   90c68:	108fd504 	addi	r2,r2,16212
   90c6c:	e0bfff15 	stw	r2,-4(fp)
   90c70:	e03ffd0d 	sth	zero,-12(fp)
   90c74:	e0bffd0b 	ldhu	r2,-12(fp)
   90c78:	108004e8 	cmpgeui	r2,r2,19
   90c7c:	10000d1e 	bne	r2,zero,90cb4 <OS_QInit+0x7c>
   90c80:	e0fffe17 	ldw	r3,-8(fp)
   90c84:	e0bfff17 	ldw	r2,-4(fp)
   90c88:	18800015 	stw	r2,0(r3)
   90c8c:	e0bffe17 	ldw	r2,-8(fp)
   90c90:	10800604 	addi	r2,r2,24
   90c94:	e0bffe15 	stw	r2,-8(fp)
   90c98:	e0bfff17 	ldw	r2,-4(fp)
   90c9c:	10800604 	addi	r2,r2,24
   90ca0:	e0bfff15 	stw	r2,-4(fp)
   90ca4:	e0bffd0b 	ldhu	r2,-12(fp)
   90ca8:	10800044 	addi	r2,r2,1
   90cac:	e0bffd0d 	sth	r2,-12(fp)
   90cb0:	003ff006 	br	90c74 <OS_QInit+0x3c>
   90cb4:	e0bffe17 	ldw	r2,-8(fp)
   90cb8:	10000015 	stw	zero,0(r2)
   90cbc:	008002b4 	movhi	r2,10
   90cc0:	108fcf04 	addi	r2,r2,16188
   90cc4:	d0a70a15 	stw	r2,-25560(gp)
   90cc8:	dfc00417 	ldw	ra,16(sp)
   90ccc:	df000317 	ldw	fp,12(sp)
   90cd0:	dec00504 	addi	sp,sp,20
   90cd4:	f800283a 	ret

00090cd8 <OSSemAccept>:
   90cd8:	defff904 	addi	sp,sp,-28
   90cdc:	df000615 	stw	fp,24(sp)
   90ce0:	df000604 	addi	fp,sp,24
   90ce4:	e13ffa15 	stw	r4,-24(fp)
   90ce8:	e03ffc15 	stw	zero,-16(fp)
   90cec:	e0bffa17 	ldw	r2,-24(fp)
   90cf0:	1004c03a 	cmpne	r2,r2,zero
   90cf4:	1000021e 	bne	r2,zero,90d00 <OSSemAccept+0x28>
   90cf8:	e03fff15 	stw	zero,-4(fp)
   90cfc:	00002106 	br	90d84 <OSSemAccept+0xac>
   90d00:	e0bffa17 	ldw	r2,-24(fp)
   90d04:	10800003 	ldbu	r2,0(r2)
   90d08:	108000e0 	cmpeqi	r2,r2,3
   90d0c:	1000021e 	bne	r2,zero,90d18 <OSSemAccept+0x40>
   90d10:	e03fff15 	stw	zero,-4(fp)
   90d14:	00001b06 	br	90d84 <OSSemAccept+0xac>
   90d18:	0005303a 	rdctl	r2,status
   90d1c:	e0bffe15 	stw	r2,-8(fp)
   90d20:	e0fffe17 	ldw	r3,-8(fp)
   90d24:	00bfff84 	movi	r2,-2
   90d28:	1884703a 	and	r2,r3,r2
   90d2c:	1001703a 	wrctl	status,r2
   90d30:	e0bffe17 	ldw	r2,-8(fp)
   90d34:	e0bffd15 	stw	r2,-12(fp)
   90d38:	e0bffd17 	ldw	r2,-12(fp)
   90d3c:	e0bffc15 	stw	r2,-16(fp)
   90d40:	e0bffa17 	ldw	r2,-24(fp)
   90d44:	1080020b 	ldhu	r2,8(r2)
   90d48:	e0bffb0d 	sth	r2,-20(fp)
   90d4c:	e0bffb0b 	ldhu	r2,-20(fp)
   90d50:	1005003a 	cmpeq	r2,r2,zero
   90d54:	1000051e 	bne	r2,zero,90d6c <OSSemAccept+0x94>
   90d58:	e0fffa17 	ldw	r3,-24(fp)
   90d5c:	e0bffa17 	ldw	r2,-24(fp)
   90d60:	1080020b 	ldhu	r2,8(r2)
   90d64:	10bfffc4 	addi	r2,r2,-1
   90d68:	1880020d 	sth	r2,8(r3)
   90d6c:	e0bffc17 	ldw	r2,-16(fp)
   90d70:	e0bffe15 	stw	r2,-8(fp)
   90d74:	e0bffe17 	ldw	r2,-8(fp)
   90d78:	1001703a 	wrctl	status,r2
   90d7c:	e0bffb0b 	ldhu	r2,-20(fp)
   90d80:	e0bfff15 	stw	r2,-4(fp)
   90d84:	e0bfff17 	ldw	r2,-4(fp)
   90d88:	df000617 	ldw	fp,24(sp)
   90d8c:	dec00704 	addi	sp,sp,28
   90d90:	f800283a 	ret

00090d94 <OSSemCreate>:
   90d94:	defff804 	addi	sp,sp,-32
   90d98:	dfc00715 	stw	ra,28(sp)
   90d9c:	df000615 	stw	fp,24(sp)
   90da0:	df000604 	addi	fp,sp,24
   90da4:	e13ffa0d 	sth	r4,-24(fp)
   90da8:	e03ffc15 	stw	zero,-16(fp)
   90dac:	d0a70043 	ldbu	r2,-25599(gp)
   90db0:	1005003a 	cmpeq	r2,r2,zero
   90db4:	1000021e 	bne	r2,zero,90dc0 <OSSemCreate+0x2c>
   90db8:	e03fff15 	stw	zero,-4(fp)
   90dbc:	00002a06 	br	90e68 <OSSemCreate+0xd4>
   90dc0:	0005303a 	rdctl	r2,status
   90dc4:	e0bffe15 	stw	r2,-8(fp)
   90dc8:	e0fffe17 	ldw	r3,-8(fp)
   90dcc:	00bfff84 	movi	r2,-2
   90dd0:	1884703a 	and	r2,r3,r2
   90dd4:	1001703a 	wrctl	status,r2
   90dd8:	e0bffe17 	ldw	r2,-8(fp)
   90ddc:	e0bffd15 	stw	r2,-12(fp)
   90de0:	e0bffd17 	ldw	r2,-12(fp)
   90de4:	e0bffc15 	stw	r2,-16(fp)
   90de8:	d0a6fb17 	ldw	r2,-25620(gp)
   90dec:	e0bffb15 	stw	r2,-20(fp)
   90df0:	d0a6fb17 	ldw	r2,-25620(gp)
   90df4:	1005003a 	cmpeq	r2,r2,zero
   90df8:	1000031e 	bne	r2,zero,90e08 <OSSemCreate+0x74>
   90dfc:	d0a6fb17 	ldw	r2,-25620(gp)
   90e00:	10800117 	ldw	r2,4(r2)
   90e04:	d0a6fb15 	stw	r2,-25620(gp)
   90e08:	e0bffc17 	ldw	r2,-16(fp)
   90e0c:	e0bffe15 	stw	r2,-8(fp)
   90e10:	e0bffe17 	ldw	r2,-8(fp)
   90e14:	1001703a 	wrctl	status,r2
   90e18:	e0bffb17 	ldw	r2,-20(fp)
   90e1c:	1005003a 	cmpeq	r2,r2,zero
   90e20:	10000f1e 	bne	r2,zero,90e60 <OSSemCreate+0xcc>
   90e24:	e0fffb17 	ldw	r3,-20(fp)
   90e28:	008000c4 	movi	r2,3
   90e2c:	18800005 	stb	r2,0(r3)
   90e30:	e0fffb17 	ldw	r3,-20(fp)
   90e34:	e0bffa0b 	ldhu	r2,-24(fp)
   90e38:	1880020d 	sth	r2,8(r3)
   90e3c:	e0bffb17 	ldw	r2,-20(fp)
   90e40:	10000115 	stw	zero,4(r2)
   90e44:	e0fffb17 	ldw	r3,-20(fp)
   90e48:	00800fc4 	movi	r2,63
   90e4c:	18800385 	stb	r2,14(r3)
   90e50:	e0bffb17 	ldw	r2,-20(fp)
   90e54:	100003c5 	stb	zero,15(r2)
   90e58:	e13ffb17 	ldw	r4,-20(fp)
   90e5c:	008cf300 	call	8cf30 <OS_EventWaitListInit>
   90e60:	e0bffb17 	ldw	r2,-20(fp)
   90e64:	e0bfff15 	stw	r2,-4(fp)
   90e68:	e0bfff17 	ldw	r2,-4(fp)
   90e6c:	dfc00717 	ldw	ra,28(sp)
   90e70:	df000617 	ldw	fp,24(sp)
   90e74:	dec00804 	addi	sp,sp,32
   90e78:	f800283a 	ret

00090e7c <OSSemDel>:
   90e7c:	defff404 	addi	sp,sp,-48
   90e80:	dfc00b15 	stw	ra,44(sp)
   90e84:	df000a15 	stw	fp,40(sp)
   90e88:	df000a04 	addi	fp,sp,40
   90e8c:	e13ff615 	stw	r4,-40(fp)
   90e90:	e1bff815 	stw	r6,-32(fp)
   90e94:	e17ff705 	stb	r5,-36(fp)
   90e98:	e03ffb15 	stw	zero,-20(fp)
   90e9c:	e0bff817 	ldw	r2,-32(fp)
   90ea0:	1004c03a 	cmpne	r2,r2,zero
   90ea4:	1000031e 	bne	r2,zero,90eb4 <OSSemDel+0x38>
   90ea8:	e0bff617 	ldw	r2,-40(fp)
   90eac:	e0bffe15 	stw	r2,-8(fp)
   90eb0:	00008906 	br	910d8 <OSSemDel+0x25c>
   90eb4:	e0bff617 	ldw	r2,-40(fp)
   90eb8:	1004c03a 	cmpne	r2,r2,zero
   90ebc:	1000061e 	bne	r2,zero,90ed8 <OSSemDel+0x5c>
   90ec0:	e0bff817 	ldw	r2,-32(fp)
   90ec4:	00c00104 	movi	r3,4
   90ec8:	10c00005 	stb	r3,0(r2)
   90ecc:	e0bff617 	ldw	r2,-40(fp)
   90ed0:	e0bffe15 	stw	r2,-8(fp)
   90ed4:	00008006 	br	910d8 <OSSemDel+0x25c>
   90ed8:	e0bff617 	ldw	r2,-40(fp)
   90edc:	10800003 	ldbu	r2,0(r2)
   90ee0:	108000e0 	cmpeqi	r2,r2,3
   90ee4:	1000061e 	bne	r2,zero,90f00 <OSSemDel+0x84>
   90ee8:	e0bff817 	ldw	r2,-32(fp)
   90eec:	00c00044 	movi	r3,1
   90ef0:	10c00005 	stb	r3,0(r2)
   90ef4:	e0bff617 	ldw	r2,-40(fp)
   90ef8:	e0bffe15 	stw	r2,-8(fp)
   90efc:	00007606 	br	910d8 <OSSemDel+0x25c>
   90f00:	d0a70043 	ldbu	r2,-25599(gp)
   90f04:	1005003a 	cmpeq	r2,r2,zero
   90f08:	1000061e 	bne	r2,zero,90f24 <OSSemDel+0xa8>
   90f0c:	e0bff817 	ldw	r2,-32(fp)
   90f10:	00c003c4 	movi	r3,15
   90f14:	10c00005 	stb	r3,0(r2)
   90f18:	e0bff617 	ldw	r2,-40(fp)
   90f1c:	e0bffe15 	stw	r2,-8(fp)
   90f20:	00006d06 	br	910d8 <OSSemDel+0x25c>
   90f24:	0005303a 	rdctl	r2,status
   90f28:	e0bffd15 	stw	r2,-12(fp)
   90f2c:	e0fffd17 	ldw	r3,-12(fp)
   90f30:	00bfff84 	movi	r2,-2
   90f34:	1884703a 	and	r2,r3,r2
   90f38:	1001703a 	wrctl	status,r2
   90f3c:	e0bffd17 	ldw	r2,-12(fp)
   90f40:	e0bffc15 	stw	r2,-16(fp)
   90f44:	e0bffc17 	ldw	r2,-16(fp)
   90f48:	e0bffb15 	stw	r2,-20(fp)
   90f4c:	e0bff617 	ldw	r2,-40(fp)
   90f50:	10800283 	ldbu	r2,10(r2)
   90f54:	1005003a 	cmpeq	r2,r2,zero
   90f58:	1000031e 	bne	r2,zero,90f68 <OSSemDel+0xec>
   90f5c:	00800044 	movi	r2,1
   90f60:	e0bff905 	stb	r2,-28(fp)
   90f64:	00000106 	br	90f6c <OSSemDel+0xf0>
   90f68:	e03ff905 	stb	zero,-28(fp)
   90f6c:	e0bff703 	ldbu	r2,-36(fp)
   90f70:	e0bfff15 	stw	r2,-4(fp)
   90f74:	e0ffff17 	ldw	r3,-4(fp)
   90f78:	1805003a 	cmpeq	r2,r3,zero
   90f7c:	1000041e 	bne	r2,zero,90f90 <OSSemDel+0x114>
   90f80:	e0ffff17 	ldw	r3,-4(fp)
   90f84:	18800060 	cmpeqi	r2,r3,1
   90f88:	1000241e 	bne	r2,zero,9101c <OSSemDel+0x1a0>
   90f8c:	00004706 	br	910ac <OSSemDel+0x230>
   90f90:	e0bff903 	ldbu	r2,-28(fp)
   90f94:	1004c03a 	cmpne	r2,r2,zero
   90f98:	1000161e 	bne	r2,zero,90ff4 <OSSemDel+0x178>
   90f9c:	e0fff617 	ldw	r3,-40(fp)
   90fa0:	00800fc4 	movi	r2,63
   90fa4:	18800385 	stb	r2,14(r3)
   90fa8:	e0bff617 	ldw	r2,-40(fp)
   90fac:	100003c5 	stb	zero,15(r2)
   90fb0:	e0bff617 	ldw	r2,-40(fp)
   90fb4:	10000005 	stb	zero,0(r2)
   90fb8:	e0fff617 	ldw	r3,-40(fp)
   90fbc:	d0a6fb17 	ldw	r2,-25620(gp)
   90fc0:	18800115 	stw	r2,4(r3)
   90fc4:	e0bff617 	ldw	r2,-40(fp)
   90fc8:	1000020d 	sth	zero,8(r2)
   90fcc:	e0bff617 	ldw	r2,-40(fp)
   90fd0:	d0a6fb15 	stw	r2,-25620(gp)
   90fd4:	e0bffb17 	ldw	r2,-20(fp)
   90fd8:	e0bffd15 	stw	r2,-12(fp)
   90fdc:	e0bffd17 	ldw	r2,-12(fp)
   90fe0:	1001703a 	wrctl	status,r2
   90fe4:	e0bff817 	ldw	r2,-32(fp)
   90fe8:	10000005 	stb	zero,0(r2)
   90fec:	e03ffa15 	stw	zero,-24(fp)
   90ff0:	00003706 	br	910d0 <OSSemDel+0x254>
   90ff4:	e0bffb17 	ldw	r2,-20(fp)
   90ff8:	e0bffd15 	stw	r2,-12(fp)
   90ffc:	e0bffd17 	ldw	r2,-12(fp)
   91000:	1001703a 	wrctl	status,r2
   91004:	e0fff817 	ldw	r3,-32(fp)
   91008:	00801244 	movi	r2,73
   9100c:	18800005 	stb	r2,0(r3)
   91010:	e0bff617 	ldw	r2,-40(fp)
   91014:	e0bffa15 	stw	r2,-24(fp)
   91018:	00002d06 	br	910d0 <OSSemDel+0x254>
   9101c:	e0bff617 	ldw	r2,-40(fp)
   91020:	10800283 	ldbu	r2,10(r2)
   91024:	1005003a 	cmpeq	r2,r2,zero
   91028:	1000061e 	bne	r2,zero,91044 <OSSemDel+0x1c8>
   9102c:	e13ff617 	ldw	r4,-40(fp)
   91030:	000b883a 	mov	r5,zero
   91034:	01800044 	movi	r6,1
   91038:	000f883a 	mov	r7,zero
   9103c:	008ca140 	call	8ca14 <OS_EventTaskRdy>
   91040:	003ff606 	br	9101c <OSSemDel+0x1a0>
   91044:	e0fff617 	ldw	r3,-40(fp)
   91048:	00800fc4 	movi	r2,63
   9104c:	18800385 	stb	r2,14(r3)
   91050:	e0bff617 	ldw	r2,-40(fp)
   91054:	100003c5 	stb	zero,15(r2)
   91058:	e0bff617 	ldw	r2,-40(fp)
   9105c:	10000005 	stb	zero,0(r2)
   91060:	e0fff617 	ldw	r3,-40(fp)
   91064:	d0a6fb17 	ldw	r2,-25620(gp)
   91068:	18800115 	stw	r2,4(r3)
   9106c:	e0bff617 	ldw	r2,-40(fp)
   91070:	1000020d 	sth	zero,8(r2)
   91074:	e0bff617 	ldw	r2,-40(fp)
   91078:	d0a6fb15 	stw	r2,-25620(gp)
   9107c:	e0bffb17 	ldw	r2,-20(fp)
   91080:	e0bffd15 	stw	r2,-12(fp)
   91084:	e0bffd17 	ldw	r2,-12(fp)
   91088:	1001703a 	wrctl	status,r2
   9108c:	e0bff903 	ldbu	r2,-28(fp)
   91090:	10800058 	cmpnei	r2,r2,1
   91094:	1000011e 	bne	r2,zero,9109c <OSSemDel+0x220>
   91098:	008d3a00 	call	8d3a0 <OS_Sched>
   9109c:	e0bff817 	ldw	r2,-32(fp)
   910a0:	10000005 	stb	zero,0(r2)
   910a4:	e03ffa15 	stw	zero,-24(fp)
   910a8:	00000906 	br	910d0 <OSSemDel+0x254>
   910ac:	e0bffb17 	ldw	r2,-20(fp)
   910b0:	e0bffd15 	stw	r2,-12(fp)
   910b4:	e0bffd17 	ldw	r2,-12(fp)
   910b8:	1001703a 	wrctl	status,r2
   910bc:	e0fff817 	ldw	r3,-32(fp)
   910c0:	008001c4 	movi	r2,7
   910c4:	18800005 	stb	r2,0(r3)
   910c8:	e0bff617 	ldw	r2,-40(fp)
   910cc:	e0bffa15 	stw	r2,-24(fp)
   910d0:	e0bffa17 	ldw	r2,-24(fp)
   910d4:	e0bffe15 	stw	r2,-8(fp)
   910d8:	e0bffe17 	ldw	r2,-8(fp)
   910dc:	dfc00b17 	ldw	ra,44(sp)
   910e0:	df000a17 	ldw	fp,40(sp)
   910e4:	dec00c04 	addi	sp,sp,48
   910e8:	f800283a 	ret

000910ec <OSSemPend>:
   910ec:	defff704 	addi	sp,sp,-36
   910f0:	dfc00815 	stw	ra,32(sp)
   910f4:	df000715 	stw	fp,28(sp)
   910f8:	df000704 	addi	fp,sp,28
   910fc:	e13ff915 	stw	r4,-28(fp)
   91100:	e1bffb15 	stw	r6,-20(fp)
   91104:	e17ffa0d 	sth	r5,-24(fp)
   91108:	e03ffc15 	stw	zero,-16(fp)
   9110c:	e0bffb17 	ldw	r2,-20(fp)
   91110:	1004c03a 	cmpne	r2,r2,zero
   91114:	1000011e 	bne	r2,zero,9111c <OSSemPend+0x30>
   91118:	00007506 	br	912f0 <OSSemPend+0x204>
   9111c:	e0bff917 	ldw	r2,-28(fp)
   91120:	1004c03a 	cmpne	r2,r2,zero
   91124:	1000041e 	bne	r2,zero,91138 <OSSemPend+0x4c>
   91128:	e0fffb17 	ldw	r3,-20(fp)
   9112c:	00800104 	movi	r2,4
   91130:	18800005 	stb	r2,0(r3)
   91134:	00006e06 	br	912f0 <OSSemPend+0x204>
   91138:	e0bff917 	ldw	r2,-28(fp)
   9113c:	10800003 	ldbu	r2,0(r2)
   91140:	108000e0 	cmpeqi	r2,r2,3
   91144:	1000041e 	bne	r2,zero,91158 <OSSemPend+0x6c>
   91148:	e0fffb17 	ldw	r3,-20(fp)
   9114c:	00800044 	movi	r2,1
   91150:	18800005 	stb	r2,0(r3)
   91154:	00006606 	br	912f0 <OSSemPend+0x204>
   91158:	d0a70043 	ldbu	r2,-25599(gp)
   9115c:	1005003a 	cmpeq	r2,r2,zero
   91160:	1000041e 	bne	r2,zero,91174 <OSSemPend+0x88>
   91164:	e0fffb17 	ldw	r3,-20(fp)
   91168:	00800084 	movi	r2,2
   9116c:	18800005 	stb	r2,0(r3)
   91170:	00005f06 	br	912f0 <OSSemPend+0x204>
   91174:	d0a70083 	ldbu	r2,-25598(gp)
   91178:	1005003a 	cmpeq	r2,r2,zero
   9117c:	1000041e 	bne	r2,zero,91190 <OSSemPend+0xa4>
   91180:	e0fffb17 	ldw	r3,-20(fp)
   91184:	00800344 	movi	r2,13
   91188:	18800005 	stb	r2,0(r3)
   9118c:	00005806 	br	912f0 <OSSemPend+0x204>
   91190:	0005303a 	rdctl	r2,status
   91194:	e0bffe15 	stw	r2,-8(fp)
   91198:	e0fffe17 	ldw	r3,-8(fp)
   9119c:	00bfff84 	movi	r2,-2
   911a0:	1884703a 	and	r2,r3,r2
   911a4:	1001703a 	wrctl	status,r2
   911a8:	e0bffe17 	ldw	r2,-8(fp)
   911ac:	e0bffd15 	stw	r2,-12(fp)
   911b0:	e0bffd17 	ldw	r2,-12(fp)
   911b4:	e0bffc15 	stw	r2,-16(fp)
   911b8:	e0bff917 	ldw	r2,-28(fp)
   911bc:	1080020b 	ldhu	r2,8(r2)
   911c0:	1005003a 	cmpeq	r2,r2,zero
   911c4:	10000c1e 	bne	r2,zero,911f8 <OSSemPend+0x10c>
   911c8:	e0fff917 	ldw	r3,-28(fp)
   911cc:	e0bff917 	ldw	r2,-28(fp)
   911d0:	1080020b 	ldhu	r2,8(r2)
   911d4:	10bfffc4 	addi	r2,r2,-1
   911d8:	1880020d 	sth	r2,8(r3)
   911dc:	e0bffc17 	ldw	r2,-16(fp)
   911e0:	e0bffe15 	stw	r2,-8(fp)
   911e4:	e0bffe17 	ldw	r2,-8(fp)
   911e8:	1001703a 	wrctl	status,r2
   911ec:	e0bffb17 	ldw	r2,-20(fp)
   911f0:	10000005 	stb	zero,0(r2)
   911f4:	00003e06 	br	912f0 <OSSemPend+0x204>
   911f8:	d0e70417 	ldw	r3,-25584(gp)
   911fc:	d0a70417 	ldw	r2,-25584(gp)
   91200:	10800c03 	ldbu	r2,48(r2)
   91204:	10800054 	ori	r2,r2,1
   91208:	18800c05 	stb	r2,48(r3)
   9120c:	d0a70417 	ldw	r2,-25584(gp)
   91210:	10000c45 	stb	zero,49(r2)
   91214:	d0e70417 	ldw	r3,-25584(gp)
   91218:	e0bffa0b 	ldhu	r2,-24(fp)
   9121c:	18800b8d 	sth	r2,46(r3)
   91220:	e13ff917 	ldw	r4,-28(fp)
   91224:	008cb880 	call	8cb88 <OS_EventTaskWait>
   91228:	e0bffc17 	ldw	r2,-16(fp)
   9122c:	e0bffe15 	stw	r2,-8(fp)
   91230:	e0bffe17 	ldw	r2,-8(fp)
   91234:	1001703a 	wrctl	status,r2
   91238:	008d3a00 	call	8d3a0 <OS_Sched>
   9123c:	0005303a 	rdctl	r2,status
   91240:	e0bffd15 	stw	r2,-12(fp)
   91244:	e0fffd17 	ldw	r3,-12(fp)
   91248:	00bfff84 	movi	r2,-2
   9124c:	1884703a 	and	r2,r3,r2
   91250:	1001703a 	wrctl	status,r2
   91254:	e0bffd17 	ldw	r2,-12(fp)
   91258:	e0bffe15 	stw	r2,-8(fp)
   9125c:	e0bffe17 	ldw	r2,-8(fp)
   91260:	e0bffc15 	stw	r2,-16(fp)
   91264:	d0a70417 	ldw	r2,-25584(gp)
   91268:	10800c43 	ldbu	r2,49(r2)
   9126c:	e0bfff15 	stw	r2,-4(fp)
   91270:	e0ffff17 	ldw	r3,-4(fp)
   91274:	1805003a 	cmpeq	r2,r3,zero
   91278:	1000041e 	bne	r2,zero,9128c <OSSemPend+0x1a0>
   9127c:	e0ffff17 	ldw	r3,-4(fp)
   91280:	188000a0 	cmpeqi	r2,r3,2
   91284:	1000041e 	bne	r2,zero,91298 <OSSemPend+0x1ac>
   91288:	00000706 	br	912a8 <OSSemPend+0x1bc>
   9128c:	e0bffb17 	ldw	r2,-20(fp)
   91290:	10000005 	stb	zero,0(r2)
   91294:	00000a06 	br	912c0 <OSSemPend+0x1d4>
   91298:	e0fffb17 	ldw	r3,-20(fp)
   9129c:	00800384 	movi	r2,14
   912a0:	18800005 	stb	r2,0(r3)
   912a4:	00000606 	br	912c0 <OSSemPend+0x1d4>
   912a8:	d1270417 	ldw	r4,-25584(gp)
   912ac:	e17ff917 	ldw	r5,-28(fp)
   912b0:	008cda40 	call	8cda4 <OS_EventTaskRemove>
   912b4:	e0fffb17 	ldw	r3,-20(fp)
   912b8:	00800284 	movi	r2,10
   912bc:	18800005 	stb	r2,0(r3)
   912c0:	d0a70417 	ldw	r2,-25584(gp)
   912c4:	10000c05 	stb	zero,48(r2)
   912c8:	d0a70417 	ldw	r2,-25584(gp)
   912cc:	10000c45 	stb	zero,49(r2)
   912d0:	d0a70417 	ldw	r2,-25584(gp)
   912d4:	10000715 	stw	zero,28(r2)
   912d8:	d0a70417 	ldw	r2,-25584(gp)
   912dc:	10000815 	stw	zero,32(r2)
   912e0:	e0bffc17 	ldw	r2,-16(fp)
   912e4:	e0bffe15 	stw	r2,-8(fp)
   912e8:	e0bffe17 	ldw	r2,-8(fp)
   912ec:	1001703a 	wrctl	status,r2
   912f0:	dfc00817 	ldw	ra,32(sp)
   912f4:	df000717 	ldw	fp,28(sp)
   912f8:	dec00904 	addi	sp,sp,36
   912fc:	f800283a 	ret

00091300 <OSSemPendAbort>:
   91300:	defff604 	addi	sp,sp,-40
   91304:	dfc00915 	stw	ra,36(sp)
   91308:	df000815 	stw	fp,32(sp)
   9130c:	df000804 	addi	fp,sp,32
   91310:	e13ff815 	stw	r4,-32(fp)
   91314:	e1bffa15 	stw	r6,-24(fp)
   91318:	e17ff905 	stb	r5,-28(fp)
   9131c:	e03ffc15 	stw	zero,-16(fp)
   91320:	e0bffa17 	ldw	r2,-24(fp)
   91324:	1004c03a 	cmpne	r2,r2,zero
   91328:	1000021e 	bne	r2,zero,91334 <OSSemPendAbort+0x34>
   9132c:	e03fff15 	stw	zero,-4(fp)
   91330:	00004b06 	br	91460 <OSSemPendAbort+0x160>
   91334:	e0bff817 	ldw	r2,-32(fp)
   91338:	1004c03a 	cmpne	r2,r2,zero
   9133c:	1000051e 	bne	r2,zero,91354 <OSSemPendAbort+0x54>
   91340:	e0fffa17 	ldw	r3,-24(fp)
   91344:	00800104 	movi	r2,4
   91348:	18800005 	stb	r2,0(r3)
   9134c:	e03fff15 	stw	zero,-4(fp)
   91350:	00004306 	br	91460 <OSSemPendAbort+0x160>
   91354:	e0bff817 	ldw	r2,-32(fp)
   91358:	10800003 	ldbu	r2,0(r2)
   9135c:	108000e0 	cmpeqi	r2,r2,3
   91360:	1000051e 	bne	r2,zero,91378 <OSSemPendAbort+0x78>
   91364:	e0fffa17 	ldw	r3,-24(fp)
   91368:	00800044 	movi	r2,1
   9136c:	18800005 	stb	r2,0(r3)
   91370:	e03fff15 	stw	zero,-4(fp)
   91374:	00003a06 	br	91460 <OSSemPendAbort+0x160>
   91378:	0005303a 	rdctl	r2,status
   9137c:	e0bffe15 	stw	r2,-8(fp)
   91380:	e0fffe17 	ldw	r3,-8(fp)
   91384:	00bfff84 	movi	r2,-2
   91388:	1884703a 	and	r2,r3,r2
   9138c:	1001703a 	wrctl	status,r2
   91390:	e0bffe17 	ldw	r2,-8(fp)
   91394:	e0bffd15 	stw	r2,-12(fp)
   91398:	e0bffd17 	ldw	r2,-12(fp)
   9139c:	e0bffc15 	stw	r2,-16(fp)
   913a0:	e0bff817 	ldw	r2,-32(fp)
   913a4:	10800283 	ldbu	r2,10(r2)
   913a8:	1005003a 	cmpeq	r2,r2,zero
   913ac:	1000251e 	bne	r2,zero,91444 <OSSemPendAbort+0x144>
   913b0:	e03ffb05 	stb	zero,-20(fp)
   913b4:	e0bff903 	ldbu	r2,-28(fp)
   913b8:	10800060 	cmpeqi	r2,r2,1
   913bc:	1000011e 	bne	r2,zero,913c4 <OSSemPendAbort+0xc4>
   913c0:	00000d06 	br	913f8 <OSSemPendAbort+0xf8>
   913c4:	e0bff817 	ldw	r2,-32(fp)
   913c8:	10800283 	ldbu	r2,10(r2)
   913cc:	1005003a 	cmpeq	r2,r2,zero
   913d0:	1000111e 	bne	r2,zero,91418 <OSSemPendAbort+0x118>
   913d4:	e13ff817 	ldw	r4,-32(fp)
   913d8:	000b883a 	mov	r5,zero
   913dc:	01800044 	movi	r6,1
   913e0:	01c00084 	movi	r7,2
   913e4:	008ca140 	call	8ca14 <OS_EventTaskRdy>
   913e8:	e0bffb03 	ldbu	r2,-20(fp)
   913ec:	10800044 	addi	r2,r2,1
   913f0:	e0bffb05 	stb	r2,-20(fp)
   913f4:	003ff306 	br	913c4 <OSSemPendAbort+0xc4>
   913f8:	e13ff817 	ldw	r4,-32(fp)
   913fc:	000b883a 	mov	r5,zero
   91400:	01800044 	movi	r6,1
   91404:	01c00084 	movi	r7,2
   91408:	008ca140 	call	8ca14 <OS_EventTaskRdy>
   9140c:	e0bffb03 	ldbu	r2,-20(fp)
   91410:	10800044 	addi	r2,r2,1
   91414:	e0bffb05 	stb	r2,-20(fp)
   91418:	e0bffc17 	ldw	r2,-16(fp)
   9141c:	e0bffe15 	stw	r2,-8(fp)
   91420:	e0bffe17 	ldw	r2,-8(fp)
   91424:	1001703a 	wrctl	status,r2
   91428:	008d3a00 	call	8d3a0 <OS_Sched>
   9142c:	e0fffa17 	ldw	r3,-24(fp)
   91430:	00800384 	movi	r2,14
   91434:	18800005 	stb	r2,0(r3)
   91438:	e0bffb03 	ldbu	r2,-20(fp)
   9143c:	e0bfff15 	stw	r2,-4(fp)
   91440:	00000706 	br	91460 <OSSemPendAbort+0x160>
   91444:	e0bffc17 	ldw	r2,-16(fp)
   91448:	e0bffe15 	stw	r2,-8(fp)
   9144c:	e0bffe17 	ldw	r2,-8(fp)
   91450:	1001703a 	wrctl	status,r2
   91454:	e0bffa17 	ldw	r2,-24(fp)
   91458:	10000005 	stb	zero,0(r2)
   9145c:	e03fff15 	stw	zero,-4(fp)
   91460:	e0bfff17 	ldw	r2,-4(fp)
   91464:	dfc00917 	ldw	ra,36(sp)
   91468:	df000817 	ldw	fp,32(sp)
   9146c:	dec00a04 	addi	sp,sp,40
   91470:	f800283a 	ret

00091474 <OSSemPost>:
   91474:	defff904 	addi	sp,sp,-28
   91478:	dfc00615 	stw	ra,24(sp)
   9147c:	df000515 	stw	fp,20(sp)
   91480:	df000504 	addi	fp,sp,20
   91484:	e13ffb15 	stw	r4,-20(fp)
   91488:	e03ffc15 	stw	zero,-16(fp)
   9148c:	e0bffb17 	ldw	r2,-20(fp)
   91490:	1004c03a 	cmpne	r2,r2,zero
   91494:	1000031e 	bne	r2,zero,914a4 <OSSemPost+0x30>
   91498:	00800104 	movi	r2,4
   9149c:	e0bfff15 	stw	r2,-4(fp)
   914a0:	00003606 	br	9157c <OSSemPost+0x108>
   914a4:	e0bffb17 	ldw	r2,-20(fp)
   914a8:	10800003 	ldbu	r2,0(r2)
   914ac:	108000e0 	cmpeqi	r2,r2,3
   914b0:	1000031e 	bne	r2,zero,914c0 <OSSemPost+0x4c>
   914b4:	00800044 	movi	r2,1
   914b8:	e0bfff15 	stw	r2,-4(fp)
   914bc:	00002f06 	br	9157c <OSSemPost+0x108>
   914c0:	0005303a 	rdctl	r2,status
   914c4:	e0bffe15 	stw	r2,-8(fp)
   914c8:	e0fffe17 	ldw	r3,-8(fp)
   914cc:	00bfff84 	movi	r2,-2
   914d0:	1884703a 	and	r2,r3,r2
   914d4:	1001703a 	wrctl	status,r2
   914d8:	e0bffe17 	ldw	r2,-8(fp)
   914dc:	e0bffd15 	stw	r2,-12(fp)
   914e0:	e0bffd17 	ldw	r2,-12(fp)
   914e4:	e0bffc15 	stw	r2,-16(fp)
   914e8:	e0bffb17 	ldw	r2,-20(fp)
   914ec:	10800283 	ldbu	r2,10(r2)
   914f0:	1005003a 	cmpeq	r2,r2,zero
   914f4:	10000c1e 	bne	r2,zero,91528 <OSSemPost+0xb4>
   914f8:	e13ffb17 	ldw	r4,-20(fp)
   914fc:	000b883a 	mov	r5,zero
   91500:	01800044 	movi	r6,1
   91504:	000f883a 	mov	r7,zero
   91508:	008ca140 	call	8ca14 <OS_EventTaskRdy>
   9150c:	e0bffc17 	ldw	r2,-16(fp)
   91510:	e0bffe15 	stw	r2,-8(fp)
   91514:	e0bffe17 	ldw	r2,-8(fp)
   91518:	1001703a 	wrctl	status,r2
   9151c:	008d3a00 	call	8d3a0 <OS_Sched>
   91520:	e03fff15 	stw	zero,-4(fp)
   91524:	00001506 	br	9157c <OSSemPost+0x108>
   91528:	e0bffb17 	ldw	r2,-20(fp)
   9152c:	10c0020b 	ldhu	r3,8(r2)
   91530:	00bfffd4 	movui	r2,65535
   91534:	18800b26 	beq	r3,r2,91564 <OSSemPost+0xf0>
   91538:	e0fffb17 	ldw	r3,-20(fp)
   9153c:	e0bffb17 	ldw	r2,-20(fp)
   91540:	1080020b 	ldhu	r2,8(r2)
   91544:	10800044 	addi	r2,r2,1
   91548:	1880020d 	sth	r2,8(r3)
   9154c:	e0bffc17 	ldw	r2,-16(fp)
   91550:	e0bffe15 	stw	r2,-8(fp)
   91554:	e0bffe17 	ldw	r2,-8(fp)
   91558:	1001703a 	wrctl	status,r2
   9155c:	e03fff15 	stw	zero,-4(fp)
   91560:	00000606 	br	9157c <OSSemPost+0x108>
   91564:	e0bffc17 	ldw	r2,-16(fp)
   91568:	e0bffe15 	stw	r2,-8(fp)
   9156c:	e0bffe17 	ldw	r2,-8(fp)
   91570:	1001703a 	wrctl	status,r2
   91574:	00800c84 	movi	r2,50
   91578:	e0bfff15 	stw	r2,-4(fp)
   9157c:	e0bfff17 	ldw	r2,-4(fp)
   91580:	dfc00617 	ldw	ra,24(sp)
   91584:	df000517 	ldw	fp,20(sp)
   91588:	dec00704 	addi	sp,sp,28
   9158c:	f800283a 	ret

00091590 <OSSemQuery>:
   91590:	defff604 	addi	sp,sp,-40
   91594:	df000915 	stw	fp,36(sp)
   91598:	df000904 	addi	fp,sp,36
   9159c:	e13ff715 	stw	r4,-36(fp)
   915a0:	e17ff815 	stw	r5,-32(fp)
   915a4:	e03ffc15 	stw	zero,-16(fp)
   915a8:	e0bff717 	ldw	r2,-36(fp)
   915ac:	1004c03a 	cmpne	r2,r2,zero
   915b0:	1000031e 	bne	r2,zero,915c0 <OSSemQuery+0x30>
   915b4:	00800104 	movi	r2,4
   915b8:	e0bfff15 	stw	r2,-4(fp)
   915bc:	00003d06 	br	916b4 <OSSemQuery+0x124>
   915c0:	e0bff817 	ldw	r2,-32(fp)
   915c4:	1004c03a 	cmpne	r2,r2,zero
   915c8:	1000031e 	bne	r2,zero,915d8 <OSSemQuery+0x48>
   915cc:	00800244 	movi	r2,9
   915d0:	e0bfff15 	stw	r2,-4(fp)
   915d4:	00003706 	br	916b4 <OSSemQuery+0x124>
   915d8:	e0bff717 	ldw	r2,-36(fp)
   915dc:	10800003 	ldbu	r2,0(r2)
   915e0:	108000e0 	cmpeqi	r2,r2,3
   915e4:	1000031e 	bne	r2,zero,915f4 <OSSemQuery+0x64>
   915e8:	00800044 	movi	r2,1
   915ec:	e0bfff15 	stw	r2,-4(fp)
   915f0:	00003006 	br	916b4 <OSSemQuery+0x124>
   915f4:	0005303a 	rdctl	r2,status
   915f8:	e0bffe15 	stw	r2,-8(fp)
   915fc:	e0fffe17 	ldw	r3,-8(fp)
   91600:	00bfff84 	movi	r2,-2
   91604:	1884703a 	and	r2,r3,r2
   91608:	1001703a 	wrctl	status,r2
   9160c:	e0bffe17 	ldw	r2,-8(fp)
   91610:	e0bffd15 	stw	r2,-12(fp)
   91614:	e0bffd17 	ldw	r2,-12(fp)
   91618:	e0bffc15 	stw	r2,-16(fp)
   9161c:	e0fff817 	ldw	r3,-32(fp)
   91620:	e0bff717 	ldw	r2,-36(fp)
   91624:	10800283 	ldbu	r2,10(r2)
   91628:	18800145 	stb	r2,5(r3)
   9162c:	e0bff717 	ldw	r2,-36(fp)
   91630:	108002c4 	addi	r2,r2,11
   91634:	e0bff915 	stw	r2,-28(fp)
   91638:	e0bff817 	ldw	r2,-32(fp)
   9163c:	10800084 	addi	r2,r2,2
   91640:	e0bffa15 	stw	r2,-24(fp)
   91644:	e03ffb05 	stb	zero,-20(fp)
   91648:	e0bffb03 	ldbu	r2,-20(fp)
   9164c:	108000e8 	cmpgeui	r2,r2,3
   91650:	10000f1e 	bne	r2,zero,91690 <OSSemQuery+0x100>
   91654:	e1bffa04 	addi	r6,fp,-24
   91658:	30c00017 	ldw	r3,0(r6)
   9165c:	e13ff904 	addi	r4,fp,-28
   91660:	20800017 	ldw	r2,0(r4)
   91664:	11400003 	ldbu	r5,0(r2)
   91668:	10800044 	addi	r2,r2,1
   9166c:	20800015 	stw	r2,0(r4)
   91670:	1805883a 	mov	r2,r3
   91674:	11400005 	stb	r5,0(r2)
   91678:	18c00044 	addi	r3,r3,1
   9167c:	30c00015 	stw	r3,0(r6)
   91680:	e0bffb03 	ldbu	r2,-20(fp)
   91684:	10800044 	addi	r2,r2,1
   91688:	e0bffb05 	stb	r2,-20(fp)
   9168c:	003fee06 	br	91648 <OSSemQuery+0xb8>
   91690:	e0fff817 	ldw	r3,-32(fp)
   91694:	e0bff717 	ldw	r2,-36(fp)
   91698:	1080020b 	ldhu	r2,8(r2)
   9169c:	1880000d 	sth	r2,0(r3)
   916a0:	e0bffc17 	ldw	r2,-16(fp)
   916a4:	e0bffe15 	stw	r2,-8(fp)
   916a8:	e0bffe17 	ldw	r2,-8(fp)
   916ac:	1001703a 	wrctl	status,r2
   916b0:	e03fff15 	stw	zero,-4(fp)
   916b4:	e0bfff17 	ldw	r2,-4(fp)
   916b8:	df000917 	ldw	fp,36(sp)
   916bc:	dec00a04 	addi	sp,sp,40
   916c0:	f800283a 	ret

000916c4 <OSSemSet>:
   916c4:	defff904 	addi	sp,sp,-28
   916c8:	df000615 	stw	fp,24(sp)
   916cc:	df000604 	addi	fp,sp,24
   916d0:	e13ffa15 	stw	r4,-24(fp)
   916d4:	e1bffc15 	stw	r6,-16(fp)
   916d8:	e17ffb0d 	sth	r5,-20(fp)
   916dc:	e03ffd15 	stw	zero,-12(fp)
   916e0:	e0bffc17 	ldw	r2,-16(fp)
   916e4:	1004c03a 	cmpne	r2,r2,zero
   916e8:	1000011e 	bne	r2,zero,916f0 <OSSemSet+0x2c>
   916ec:	00003206 	br	917b8 <OSSemSet+0xf4>
   916f0:	e0bffa17 	ldw	r2,-24(fp)
   916f4:	1004c03a 	cmpne	r2,r2,zero
   916f8:	1000041e 	bne	r2,zero,9170c <OSSemSet+0x48>
   916fc:	e0fffc17 	ldw	r3,-16(fp)
   91700:	00800104 	movi	r2,4
   91704:	18800005 	stb	r2,0(r3)
   91708:	00002b06 	br	917b8 <OSSemSet+0xf4>
   9170c:	e0bffa17 	ldw	r2,-24(fp)
   91710:	10800003 	ldbu	r2,0(r2)
   91714:	108000e0 	cmpeqi	r2,r2,3
   91718:	1000041e 	bne	r2,zero,9172c <OSSemSet+0x68>
   9171c:	e0fffc17 	ldw	r3,-16(fp)
   91720:	00800044 	movi	r2,1
   91724:	18800005 	stb	r2,0(r3)
   91728:	00002306 	br	917b8 <OSSemSet+0xf4>
   9172c:	0005303a 	rdctl	r2,status
   91730:	e0bfff15 	stw	r2,-4(fp)
   91734:	e0ffff17 	ldw	r3,-4(fp)
   91738:	00bfff84 	movi	r2,-2
   9173c:	1884703a 	and	r2,r3,r2
   91740:	1001703a 	wrctl	status,r2
   91744:	e0bfff17 	ldw	r2,-4(fp)
   91748:	e0bffe15 	stw	r2,-8(fp)
   9174c:	e0bffe17 	ldw	r2,-8(fp)
   91750:	e0bffd15 	stw	r2,-12(fp)
   91754:	e0bffc17 	ldw	r2,-16(fp)
   91758:	10000005 	stb	zero,0(r2)
   9175c:	e0bffa17 	ldw	r2,-24(fp)
   91760:	1080020b 	ldhu	r2,8(r2)
   91764:	1005003a 	cmpeq	r2,r2,zero
   91768:	1000041e 	bne	r2,zero,9177c <OSSemSet+0xb8>
   9176c:	e0fffa17 	ldw	r3,-24(fp)
   91770:	e0bffb0b 	ldhu	r2,-20(fp)
   91774:	1880020d 	sth	r2,8(r3)
   91778:	00000b06 	br	917a8 <OSSemSet+0xe4>
   9177c:	e0bffa17 	ldw	r2,-24(fp)
   91780:	10800283 	ldbu	r2,10(r2)
   91784:	1004c03a 	cmpne	r2,r2,zero
   91788:	1000041e 	bne	r2,zero,9179c <OSSemSet+0xd8>
   9178c:	e0fffa17 	ldw	r3,-24(fp)
   91790:	e0bffb0b 	ldhu	r2,-20(fp)
   91794:	1880020d 	sth	r2,8(r3)
   91798:	00000306 	br	917a8 <OSSemSet+0xe4>
   9179c:	e0fffc17 	ldw	r3,-16(fp)
   917a0:	00801244 	movi	r2,73
   917a4:	18800005 	stb	r2,0(r3)
   917a8:	e0bffd17 	ldw	r2,-12(fp)
   917ac:	e0bfff15 	stw	r2,-4(fp)
   917b0:	e0bfff17 	ldw	r2,-4(fp)
   917b4:	1001703a 	wrctl	status,r2
   917b8:	df000617 	ldw	fp,24(sp)
   917bc:	dec00704 	addi	sp,sp,28
   917c0:	f800283a 	ret

000917c4 <OSTaskChangePrio>:
   917c4:	defff404 	addi	sp,sp,-48
   917c8:	dfc00b15 	stw	ra,44(sp)
   917cc:	df000a15 	stw	fp,40(sp)
   917d0:	df000a04 	addi	fp,sp,40
   917d4:	e13ff605 	stb	r4,-40(fp)
   917d8:	e17ff645 	stb	r5,-39(fp)
   917dc:	e03ffc15 	stw	zero,-16(fp)
   917e0:	e0bff603 	ldbu	r2,-40(fp)
   917e4:	10800530 	cmpltui	r2,r2,20
   917e8:	1000061e 	bne	r2,zero,91804 <OSTaskChangePrio+0x40>
   917ec:	e0bff603 	ldbu	r2,-40(fp)
   917f0:	10803fe0 	cmpeqi	r2,r2,255
   917f4:	1000031e 	bne	r2,zero,91804 <OSTaskChangePrio+0x40>
   917f8:	00800a84 	movi	r2,42
   917fc:	e0bfff15 	stw	r2,-4(fp)
   91800:	00011d06 	br	91c78 <OSTaskChangePrio+0x4b4>
   91804:	e0bff643 	ldbu	r2,-39(fp)
   91808:	10800530 	cmpltui	r2,r2,20
   9180c:	1000031e 	bne	r2,zero,9181c <OSTaskChangePrio+0x58>
   91810:	00800a84 	movi	r2,42
   91814:	e0bfff15 	stw	r2,-4(fp)
   91818:	00011706 	br	91c78 <OSTaskChangePrio+0x4b4>
   9181c:	0005303a 	rdctl	r2,status
   91820:	e0bffe15 	stw	r2,-8(fp)
   91824:	e0fffe17 	ldw	r3,-8(fp)
   91828:	00bfff84 	movi	r2,-2
   9182c:	1884703a 	and	r2,r3,r2
   91830:	1001703a 	wrctl	status,r2
   91834:	e0bffe17 	ldw	r2,-8(fp)
   91838:	e0bffd15 	stw	r2,-12(fp)
   9183c:	e0bffd17 	ldw	r2,-12(fp)
   91840:	e0bffc15 	stw	r2,-16(fp)
   91844:	00c002b4 	movhi	r3,10
   91848:	18d65b04 	addi	r3,r3,22892
   9184c:	e0bff643 	ldbu	r2,-39(fp)
   91850:	100490ba 	slli	r2,r2,2
   91854:	10c5883a 	add	r2,r2,r3
   91858:	10800017 	ldw	r2,0(r2)
   9185c:	1005003a 	cmpeq	r2,r2,zero
   91860:	1000071e 	bne	r2,zero,91880 <OSTaskChangePrio+0xbc>
   91864:	e0bffc17 	ldw	r2,-16(fp)
   91868:	e0bffe15 	stw	r2,-8(fp)
   9186c:	e0bffe17 	ldw	r2,-8(fp)
   91870:	1001703a 	wrctl	status,r2
   91874:	00800a04 	movi	r2,40
   91878:	e0bfff15 	stw	r2,-4(fp)
   9187c:	0000fe06 	br	91c78 <OSTaskChangePrio+0x4b4>
   91880:	e0bff603 	ldbu	r2,-40(fp)
   91884:	10803fd8 	cmpnei	r2,r2,255
   91888:	1000031e 	bne	r2,zero,91898 <OSTaskChangePrio+0xd4>
   9188c:	d0a70417 	ldw	r2,-25584(gp)
   91890:	10800c83 	ldbu	r2,50(r2)
   91894:	e0bff605 	stb	r2,-40(fp)
   91898:	00c002b4 	movhi	r3,10
   9189c:	18d65b04 	addi	r3,r3,22892
   918a0:	e0bff603 	ldbu	r2,-40(fp)
   918a4:	100490ba 	slli	r2,r2,2
   918a8:	10c5883a 	add	r2,r2,r3
   918ac:	10800017 	ldw	r2,0(r2)
   918b0:	e0bff915 	stw	r2,-28(fp)
   918b4:	e0bff917 	ldw	r2,-28(fp)
   918b8:	1004c03a 	cmpne	r2,r2,zero
   918bc:	1000071e 	bne	r2,zero,918dc <OSTaskChangePrio+0x118>
   918c0:	e0bffc17 	ldw	r2,-16(fp)
   918c4:	e0bffe15 	stw	r2,-8(fp)
   918c8:	e0bffe17 	ldw	r2,-8(fp)
   918cc:	1001703a 	wrctl	status,r2
   918d0:	00800a44 	movi	r2,41
   918d4:	e0bfff15 	stw	r2,-4(fp)
   918d8:	0000e706 	br	91c78 <OSTaskChangePrio+0x4b4>
   918dc:	e0bff917 	ldw	r2,-28(fp)
   918e0:	10800058 	cmpnei	r2,r2,1
   918e4:	1000071e 	bne	r2,zero,91904 <OSTaskChangePrio+0x140>
   918e8:	e0bffc17 	ldw	r2,-16(fp)
   918ec:	e0bffe15 	stw	r2,-8(fp)
   918f0:	e0bffe17 	ldw	r2,-8(fp)
   918f4:	1001703a 	wrctl	status,r2
   918f8:	008010c4 	movi	r2,67
   918fc:	e0bfff15 	stw	r2,-4(fp)
   91900:	0000dd06 	br	91c78 <OSTaskChangePrio+0x4b4>
   91904:	e0bff643 	ldbu	r2,-39(fp)
   91908:	1004d0fa 	srli	r2,r2,3
   9190c:	e0bffa05 	stb	r2,-24(fp)
   91910:	e0bff643 	ldbu	r2,-39(fp)
   91914:	108001cc 	andi	r2,r2,7
   91918:	e0bffa45 	stb	r2,-23(fp)
   9191c:	e0fffa03 	ldbu	r3,-24(fp)
   91920:	00800044 	movi	r2,1
   91924:	10c4983a 	sll	r2,r2,r3
   91928:	e0bffac5 	stb	r2,-21(fp)
   9192c:	e0fffa43 	ldbu	r3,-23(fp)
   91930:	00800044 	movi	r2,1
   91934:	10c4983a 	sll	r2,r2,r3
   91938:	e0bffb05 	stb	r2,-20(fp)
   9193c:	00c002b4 	movhi	r3,10
   91940:	18d65b04 	addi	r3,r3,22892
   91944:	e0bff603 	ldbu	r2,-40(fp)
   91948:	100490ba 	slli	r2,r2,2
   9194c:	10c5883a 	add	r2,r2,r3
   91950:	10000015 	stw	zero,0(r2)
   91954:	00c002b4 	movhi	r3,10
   91958:	18d65b04 	addi	r3,r3,22892
   9195c:	e0bff643 	ldbu	r2,-39(fp)
   91960:	100490ba 	slli	r2,r2,2
   91964:	10c7883a 	add	r3,r2,r3
   91968:	e0bff917 	ldw	r2,-28(fp)
   9196c:	18800015 	stw	r2,0(r3)
   91970:	e0bff917 	ldw	r2,-28(fp)
   91974:	10800d03 	ldbu	r2,52(r2)
   91978:	e0bffa85 	stb	r2,-22(fp)
   9197c:	e0bff917 	ldw	r2,-28(fp)
   91980:	10800d83 	ldbu	r2,54(r2)
   91984:	e0bffb45 	stb	r2,-19(fp)
   91988:	e0bff917 	ldw	r2,-28(fp)
   9198c:	10800d43 	ldbu	r2,53(r2)
   91990:	e0bffb85 	stb	r2,-18(fp)
   91994:	e0fffa83 	ldbu	r3,-22(fp)
   91998:	d0a70184 	addi	r2,gp,-25594
   9199c:	1885883a 	add	r2,r3,r2
   919a0:	10c00003 	ldbu	r3,0(r2)
   919a4:	e0bffb83 	ldbu	r2,-18(fp)
   919a8:	1884703a 	and	r2,r3,r2
   919ac:	10803fcc 	andi	r2,r2,255
   919b0:	1005003a 	cmpeq	r2,r2,zero
   919b4:	1000241e 	bne	r2,zero,91a48 <OSTaskChangePrio+0x284>
   919b8:	e0fffa83 	ldbu	r3,-22(fp)
   919bc:	d0a70184 	addi	r2,gp,-25594
   919c0:	1889883a 	add	r4,r3,r2
   919c4:	e0fffa83 	ldbu	r3,-22(fp)
   919c8:	d0a70184 	addi	r2,gp,-25594
   919cc:	1887883a 	add	r3,r3,r2
   919d0:	e0bffb83 	ldbu	r2,-18(fp)
   919d4:	0084303a 	nor	r2,zero,r2
   919d8:	18c00003 	ldbu	r3,0(r3)
   919dc:	1884703a 	and	r2,r3,r2
   919e0:	20800005 	stb	r2,0(r4)
   919e4:	e0fffa83 	ldbu	r3,-22(fp)
   919e8:	d0a70184 	addi	r2,gp,-25594
   919ec:	1885883a 	add	r2,r3,r2
   919f0:	10800003 	ldbu	r2,0(r2)
   919f4:	1004c03a 	cmpne	r2,r2,zero
   919f8:	1000051e 	bne	r2,zero,91a10 <OSTaskChangePrio+0x24c>
   919fc:	e0bffb43 	ldbu	r2,-19(fp)
   91a00:	0084303a 	nor	r2,zero,r2
   91a04:	d0e70143 	ldbu	r3,-25595(gp)
   91a08:	1884703a 	and	r2,r3,r2
   91a0c:	d0a70145 	stb	r2,-25595(gp)
   91a10:	d0e70143 	ldbu	r3,-25595(gp)
   91a14:	e0bffac3 	ldbu	r2,-21(fp)
   91a18:	1884b03a 	or	r2,r3,r2
   91a1c:	d0a70145 	stb	r2,-25595(gp)
   91a20:	e0fffa03 	ldbu	r3,-24(fp)
   91a24:	d0a70184 	addi	r2,gp,-25594
   91a28:	1889883a 	add	r4,r3,r2
   91a2c:	e0fffa03 	ldbu	r3,-24(fp)
   91a30:	d0a70184 	addi	r2,gp,-25594
   91a34:	1885883a 	add	r2,r3,r2
   91a38:	10c00003 	ldbu	r3,0(r2)
   91a3c:	e0bffb03 	ldbu	r2,-20(fp)
   91a40:	1884b03a 	or	r2,r3,r2
   91a44:	20800005 	stb	r2,0(r4)
   91a48:	e0bff917 	ldw	r2,-28(fp)
   91a4c:	10800717 	ldw	r2,28(r2)
   91a50:	e0bff715 	stw	r2,-36(fp)
   91a54:	e0bff717 	ldw	r2,-36(fp)
   91a58:	1005003a 	cmpeq	r2,r2,zero
   91a5c:	10002d1e 	bne	r2,zero,91b14 <OSTaskChangePrio+0x350>
   91a60:	e0fff717 	ldw	r3,-36(fp)
   91a64:	e0bffa83 	ldbu	r2,-22(fp)
   91a68:	10c5883a 	add	r2,r2,r3
   91a6c:	11000204 	addi	r4,r2,8
   91a70:	e0fff717 	ldw	r3,-36(fp)
   91a74:	e0bffa83 	ldbu	r2,-22(fp)
   91a78:	10c5883a 	add	r2,r2,r3
   91a7c:	10c00204 	addi	r3,r2,8
   91a80:	e0bffb83 	ldbu	r2,-18(fp)
   91a84:	0084303a 	nor	r2,zero,r2
   91a88:	18c000c3 	ldbu	r3,3(r3)
   91a8c:	1884703a 	and	r2,r3,r2
   91a90:	208000c5 	stb	r2,3(r4)
   91a94:	e0fff717 	ldw	r3,-36(fp)
   91a98:	e0bffa83 	ldbu	r2,-22(fp)
   91a9c:	10c5883a 	add	r2,r2,r3
   91aa0:	10800204 	addi	r2,r2,8
   91aa4:	108000c3 	ldbu	r2,3(r2)
   91aa8:	1004c03a 	cmpne	r2,r2,zero
   91aac:	1000071e 	bne	r2,zero,91acc <OSTaskChangePrio+0x308>
   91ab0:	e13ff717 	ldw	r4,-36(fp)
   91ab4:	e0fff717 	ldw	r3,-36(fp)
   91ab8:	e0bffb43 	ldbu	r2,-19(fp)
   91abc:	0084303a 	nor	r2,zero,r2
   91ac0:	18c00283 	ldbu	r3,10(r3)
   91ac4:	1884703a 	and	r2,r3,r2
   91ac8:	20800285 	stb	r2,10(r4)
   91acc:	e13ff717 	ldw	r4,-36(fp)
   91ad0:	e0bff717 	ldw	r2,-36(fp)
   91ad4:	10c00283 	ldbu	r3,10(r2)
   91ad8:	e0bffac3 	ldbu	r2,-21(fp)
   91adc:	1884b03a 	or	r2,r3,r2
   91ae0:	20800285 	stb	r2,10(r4)
   91ae4:	e0fff717 	ldw	r3,-36(fp)
   91ae8:	e0bffa03 	ldbu	r2,-24(fp)
   91aec:	10c5883a 	add	r2,r2,r3
   91af0:	11000204 	addi	r4,r2,8
   91af4:	e0fff717 	ldw	r3,-36(fp)
   91af8:	e0bffa03 	ldbu	r2,-24(fp)
   91afc:	10c5883a 	add	r2,r2,r3
   91b00:	10800204 	addi	r2,r2,8
   91b04:	10c000c3 	ldbu	r3,3(r2)
   91b08:	e0bffb03 	ldbu	r2,-20(fp)
   91b0c:	1884b03a 	or	r2,r3,r2
   91b10:	208000c5 	stb	r2,3(r4)
   91b14:	e0bff917 	ldw	r2,-28(fp)
   91b18:	10800817 	ldw	r2,32(r2)
   91b1c:	1005003a 	cmpeq	r2,r2,zero
   91b20:	10003d1e 	bne	r2,zero,91c18 <OSTaskChangePrio+0x454>
   91b24:	e0bff917 	ldw	r2,-28(fp)
   91b28:	10800817 	ldw	r2,32(r2)
   91b2c:	e0bff815 	stw	r2,-32(fp)
   91b30:	e0bff817 	ldw	r2,-32(fp)
   91b34:	10800017 	ldw	r2,0(r2)
   91b38:	e0bff715 	stw	r2,-36(fp)
   91b3c:	e0bff717 	ldw	r2,-36(fp)
   91b40:	1005003a 	cmpeq	r2,r2,zero
   91b44:	1000341e 	bne	r2,zero,91c18 <OSTaskChangePrio+0x454>
   91b48:	e0fff717 	ldw	r3,-36(fp)
   91b4c:	e0bffa83 	ldbu	r2,-22(fp)
   91b50:	10c5883a 	add	r2,r2,r3
   91b54:	11000204 	addi	r4,r2,8
   91b58:	e0fff717 	ldw	r3,-36(fp)
   91b5c:	e0bffa83 	ldbu	r2,-22(fp)
   91b60:	10c5883a 	add	r2,r2,r3
   91b64:	10c00204 	addi	r3,r2,8
   91b68:	e0bffb83 	ldbu	r2,-18(fp)
   91b6c:	0084303a 	nor	r2,zero,r2
   91b70:	18c000c3 	ldbu	r3,3(r3)
   91b74:	1884703a 	and	r2,r3,r2
   91b78:	208000c5 	stb	r2,3(r4)
   91b7c:	e0fff717 	ldw	r3,-36(fp)
   91b80:	e0bffa83 	ldbu	r2,-22(fp)
   91b84:	10c5883a 	add	r2,r2,r3
   91b88:	10800204 	addi	r2,r2,8
   91b8c:	108000c3 	ldbu	r2,3(r2)
   91b90:	1004c03a 	cmpne	r2,r2,zero
   91b94:	1000071e 	bne	r2,zero,91bb4 <OSTaskChangePrio+0x3f0>
   91b98:	e13ff717 	ldw	r4,-36(fp)
   91b9c:	e0fff717 	ldw	r3,-36(fp)
   91ba0:	e0bffb43 	ldbu	r2,-19(fp)
   91ba4:	0084303a 	nor	r2,zero,r2
   91ba8:	18c00283 	ldbu	r3,10(r3)
   91bac:	1884703a 	and	r2,r3,r2
   91bb0:	20800285 	stb	r2,10(r4)
   91bb4:	e13ff717 	ldw	r4,-36(fp)
   91bb8:	e0bff717 	ldw	r2,-36(fp)
   91bbc:	10c00283 	ldbu	r3,10(r2)
   91bc0:	e0bffac3 	ldbu	r2,-21(fp)
   91bc4:	1884b03a 	or	r2,r3,r2
   91bc8:	20800285 	stb	r2,10(r4)
   91bcc:	e0fff717 	ldw	r3,-36(fp)
   91bd0:	e0bffa03 	ldbu	r2,-24(fp)
   91bd4:	10c5883a 	add	r2,r2,r3
   91bd8:	11000204 	addi	r4,r2,8
   91bdc:	e0fff717 	ldw	r3,-36(fp)
   91be0:	e0bffa03 	ldbu	r2,-24(fp)
   91be4:	10c5883a 	add	r2,r2,r3
   91be8:	10800204 	addi	r2,r2,8
   91bec:	10c000c3 	ldbu	r3,3(r2)
   91bf0:	e0bffb03 	ldbu	r2,-20(fp)
   91bf4:	1884b03a 	or	r2,r3,r2
   91bf8:	208000c5 	stb	r2,3(r4)
   91bfc:	e0bff817 	ldw	r2,-32(fp)
   91c00:	10800104 	addi	r2,r2,4
   91c04:	e0bff815 	stw	r2,-32(fp)
   91c08:	e0bff817 	ldw	r2,-32(fp)
   91c0c:	10800017 	ldw	r2,0(r2)
   91c10:	e0bff715 	stw	r2,-36(fp)
   91c14:	003fc906 	br	91b3c <OSTaskChangePrio+0x378>
   91c18:	e0fff917 	ldw	r3,-28(fp)
   91c1c:	e0bff643 	ldbu	r2,-39(fp)
   91c20:	18800c85 	stb	r2,50(r3)
   91c24:	e0fff917 	ldw	r3,-28(fp)
   91c28:	e0bffa03 	ldbu	r2,-24(fp)
   91c2c:	18800d05 	stb	r2,52(r3)
   91c30:	e0fff917 	ldw	r3,-28(fp)
   91c34:	e0bffa43 	ldbu	r2,-23(fp)
   91c38:	18800cc5 	stb	r2,51(r3)
   91c3c:	e0fff917 	ldw	r3,-28(fp)
   91c40:	e0bffac3 	ldbu	r2,-21(fp)
   91c44:	18800d85 	stb	r2,54(r3)
   91c48:	e0fff917 	ldw	r3,-28(fp)
   91c4c:	e0bffb03 	ldbu	r2,-20(fp)
   91c50:	18800d45 	stb	r2,53(r3)
   91c54:	e0bffc17 	ldw	r2,-16(fp)
   91c58:	e0bffe15 	stw	r2,-8(fp)
   91c5c:	e0bffe17 	ldw	r2,-8(fp)
   91c60:	1001703a 	wrctl	status,r2
   91c64:	d0a70243 	ldbu	r2,-25591(gp)
   91c68:	10800058 	cmpnei	r2,r2,1
   91c6c:	1000011e 	bne	r2,zero,91c74 <OSTaskChangePrio+0x4b0>
   91c70:	008d3a00 	call	8d3a0 <OS_Sched>
   91c74:	e03fff15 	stw	zero,-4(fp)
   91c78:	e0bfff17 	ldw	r2,-4(fp)
   91c7c:	dfc00b17 	ldw	ra,44(sp)
   91c80:	df000a17 	ldw	fp,40(sp)
   91c84:	dec00c04 	addi	sp,sp,48
   91c88:	f800283a 	ret

00091c8c <OSTaskCreate>:
   91c8c:	defff104 	addi	sp,sp,-60
   91c90:	dfc00e15 	stw	ra,56(sp)
   91c94:	df000d15 	stw	fp,52(sp)
   91c98:	df000d04 	addi	fp,sp,52
   91c9c:	e13ff615 	stw	r4,-40(fp)
   91ca0:	e17ff715 	stw	r5,-36(fp)
   91ca4:	e1bff815 	stw	r6,-32(fp)
   91ca8:	e1fff905 	stb	r7,-28(fp)
   91cac:	e03ffc15 	stw	zero,-16(fp)
   91cb0:	e0bff903 	ldbu	r2,-28(fp)
   91cb4:	10800570 	cmpltui	r2,r2,21
   91cb8:	1000031e 	bne	r2,zero,91cc8 <OSTaskCreate+0x3c>
   91cbc:	00800a84 	movi	r2,42
   91cc0:	e0bfff15 	stw	r2,-4(fp)
   91cc4:	00005b06 	br	91e34 <OSTaskCreate+0x1a8>
   91cc8:	0005303a 	rdctl	r2,status
   91ccc:	e0bffe15 	stw	r2,-8(fp)
   91cd0:	e0fffe17 	ldw	r3,-8(fp)
   91cd4:	00bfff84 	movi	r2,-2
   91cd8:	1884703a 	and	r2,r3,r2
   91cdc:	1001703a 	wrctl	status,r2
   91ce0:	e0bffe17 	ldw	r2,-8(fp)
   91ce4:	e0bffd15 	stw	r2,-12(fp)
   91ce8:	e0bffd17 	ldw	r2,-12(fp)
   91cec:	e0bffc15 	stw	r2,-16(fp)
   91cf0:	d0a70043 	ldbu	r2,-25599(gp)
   91cf4:	1005003a 	cmpeq	r2,r2,zero
   91cf8:	1000071e 	bne	r2,zero,91d18 <OSTaskCreate+0x8c>
   91cfc:	e0bffc17 	ldw	r2,-16(fp)
   91d00:	e0bffe15 	stw	r2,-8(fp)
   91d04:	e0bffe17 	ldw	r2,-8(fp)
   91d08:	1001703a 	wrctl	status,r2
   91d0c:	00800f04 	movi	r2,60
   91d10:	e0bfff15 	stw	r2,-4(fp)
   91d14:	00004706 	br	91e34 <OSTaskCreate+0x1a8>
   91d18:	00c002b4 	movhi	r3,10
   91d1c:	18d65b04 	addi	r3,r3,22892
   91d20:	e0bff903 	ldbu	r2,-28(fp)
   91d24:	100490ba 	slli	r2,r2,2
   91d28:	10c5883a 	add	r2,r2,r3
   91d2c:	10800017 	ldw	r2,0(r2)
   91d30:	1004c03a 	cmpne	r2,r2,zero
   91d34:	1000391e 	bne	r2,zero,91e1c <OSTaskCreate+0x190>
   91d38:	00c002b4 	movhi	r3,10
   91d3c:	18d65b04 	addi	r3,r3,22892
   91d40:	e0bff903 	ldbu	r2,-28(fp)
   91d44:	100490ba 	slli	r2,r2,2
   91d48:	10c7883a 	add	r3,r2,r3
   91d4c:	00800044 	movi	r2,1
   91d50:	18800015 	stw	r2,0(r3)
   91d54:	e0bffc17 	ldw	r2,-16(fp)
   91d58:	e0bffe15 	stw	r2,-8(fp)
   91d5c:	e0bffe17 	ldw	r2,-8(fp)
   91d60:	1001703a 	wrctl	status,r2
   91d64:	e13ff617 	ldw	r4,-40(fp)
   91d68:	e17ff717 	ldw	r5,-36(fp)
   91d6c:	e1bff817 	ldw	r6,-32(fp)
   91d70:	000f883a 	mov	r7,zero
   91d74:	00955d80 	call	955d8 <OSTaskStkInit>
   91d78:	e0bffa15 	stw	r2,-24(fp)
   91d7c:	e13ff903 	ldbu	r4,-28(fp)
   91d80:	d8000015 	stw	zero,0(sp)
   91d84:	d8000115 	stw	zero,4(sp)
   91d88:	d8000215 	stw	zero,8(sp)
   91d8c:	e17ffa17 	ldw	r5,-24(fp)
   91d90:	000d883a 	mov	r6,zero
   91d94:	000f883a 	mov	r7,zero
   91d98:	008d77c0 	call	8d77c <OS_TCBInit>
   91d9c:	e0bffb05 	stb	r2,-20(fp)
   91da0:	e0bffb03 	ldbu	r2,-20(fp)
   91da4:	1004c03a 	cmpne	r2,r2,zero
   91da8:	1000051e 	bne	r2,zero,91dc0 <OSTaskCreate+0x134>
   91dac:	d0a70243 	ldbu	r2,-25591(gp)
   91db0:	10800058 	cmpnei	r2,r2,1
   91db4:	1000161e 	bne	r2,zero,91e10 <OSTaskCreate+0x184>
   91db8:	008d3a00 	call	8d3a0 <OS_Sched>
   91dbc:	00001406 	br	91e10 <OSTaskCreate+0x184>
   91dc0:	0005303a 	rdctl	r2,status
   91dc4:	e0bffd15 	stw	r2,-12(fp)
   91dc8:	e0fffd17 	ldw	r3,-12(fp)
   91dcc:	00bfff84 	movi	r2,-2
   91dd0:	1884703a 	and	r2,r3,r2
   91dd4:	1001703a 	wrctl	status,r2
   91dd8:	e0bffd17 	ldw	r2,-12(fp)
   91ddc:	e0bffe15 	stw	r2,-8(fp)
   91de0:	e0bffe17 	ldw	r2,-8(fp)
   91de4:	e0bffc15 	stw	r2,-16(fp)
   91de8:	00c002b4 	movhi	r3,10
   91dec:	18d65b04 	addi	r3,r3,22892
   91df0:	e0bff903 	ldbu	r2,-28(fp)
   91df4:	100490ba 	slli	r2,r2,2
   91df8:	10c5883a 	add	r2,r2,r3
   91dfc:	10000015 	stw	zero,0(r2)
   91e00:	e0bffc17 	ldw	r2,-16(fp)
   91e04:	e0bffe15 	stw	r2,-8(fp)
   91e08:	e0bffe17 	ldw	r2,-8(fp)
   91e0c:	1001703a 	wrctl	status,r2
   91e10:	e0bffb03 	ldbu	r2,-20(fp)
   91e14:	e0bfff15 	stw	r2,-4(fp)
   91e18:	00000606 	br	91e34 <OSTaskCreate+0x1a8>
   91e1c:	e0bffc17 	ldw	r2,-16(fp)
   91e20:	e0bffe15 	stw	r2,-8(fp)
   91e24:	e0bffe17 	ldw	r2,-8(fp)
   91e28:	1001703a 	wrctl	status,r2
   91e2c:	00800a04 	movi	r2,40
   91e30:	e0bfff15 	stw	r2,-4(fp)
   91e34:	e0bfff17 	ldw	r2,-4(fp)
   91e38:	dfc00e17 	ldw	ra,56(sp)
   91e3c:	df000d17 	ldw	fp,52(sp)
   91e40:	dec00f04 	addi	sp,sp,60
   91e44:	f800283a 	ret

00091e48 <OSTaskCreateExt>:
   91e48:	defff004 	addi	sp,sp,-64
   91e4c:	dfc00f15 	stw	ra,60(sp)
   91e50:	df000e15 	stw	fp,56(sp)
   91e54:	df000e04 	addi	fp,sp,56
   91e58:	e13ff515 	stw	r4,-44(fp)
   91e5c:	e17ff615 	stw	r5,-40(fp)
   91e60:	e1bff715 	stw	r6,-36(fp)
   91e64:	e0800217 	ldw	r2,8(fp)
   91e68:	e0c00617 	ldw	r3,24(fp)
   91e6c:	e1fff805 	stb	r7,-32(fp)
   91e70:	e0bff88d 	sth	r2,-30(fp)
   91e74:	e0fff90d 	sth	r3,-28(fp)
   91e78:	e03ffc15 	stw	zero,-16(fp)
   91e7c:	e0bff803 	ldbu	r2,-32(fp)
   91e80:	10800570 	cmpltui	r2,r2,21
   91e84:	1000031e 	bne	r2,zero,91e94 <OSTaskCreateExt+0x4c>
   91e88:	00800a84 	movi	r2,42
   91e8c:	e0bfff15 	stw	r2,-4(fp)
   91e90:	00006206 	br	9201c <OSTaskCreateExt+0x1d4>
   91e94:	0005303a 	rdctl	r2,status
   91e98:	e0bffe15 	stw	r2,-8(fp)
   91e9c:	e0fffe17 	ldw	r3,-8(fp)
   91ea0:	00bfff84 	movi	r2,-2
   91ea4:	1884703a 	and	r2,r3,r2
   91ea8:	1001703a 	wrctl	status,r2
   91eac:	e0bffe17 	ldw	r2,-8(fp)
   91eb0:	e0bffd15 	stw	r2,-12(fp)
   91eb4:	e0bffd17 	ldw	r2,-12(fp)
   91eb8:	e0bffc15 	stw	r2,-16(fp)
   91ebc:	d0a70043 	ldbu	r2,-25599(gp)
   91ec0:	1005003a 	cmpeq	r2,r2,zero
   91ec4:	1000071e 	bne	r2,zero,91ee4 <OSTaskCreateExt+0x9c>
   91ec8:	e0bffc17 	ldw	r2,-16(fp)
   91ecc:	e0bffe15 	stw	r2,-8(fp)
   91ed0:	e0bffe17 	ldw	r2,-8(fp)
   91ed4:	1001703a 	wrctl	status,r2
   91ed8:	00800f04 	movi	r2,60
   91edc:	e0bfff15 	stw	r2,-4(fp)
   91ee0:	00004e06 	br	9201c <OSTaskCreateExt+0x1d4>
   91ee4:	00c002b4 	movhi	r3,10
   91ee8:	18d65b04 	addi	r3,r3,22892
   91eec:	e0bff803 	ldbu	r2,-32(fp)
   91ef0:	100490ba 	slli	r2,r2,2
   91ef4:	10c5883a 	add	r2,r2,r3
   91ef8:	10800017 	ldw	r2,0(r2)
   91efc:	1004c03a 	cmpne	r2,r2,zero
   91f00:	1000401e 	bne	r2,zero,92004 <OSTaskCreateExt+0x1bc>
   91f04:	00c002b4 	movhi	r3,10
   91f08:	18d65b04 	addi	r3,r3,22892
   91f0c:	e0bff803 	ldbu	r2,-32(fp)
   91f10:	100490ba 	slli	r2,r2,2
   91f14:	10c7883a 	add	r3,r2,r3
   91f18:	00800044 	movi	r2,1
   91f1c:	18800015 	stw	r2,0(r3)
   91f20:	e0bffc17 	ldw	r2,-16(fp)
   91f24:	e0bffe15 	stw	r2,-8(fp)
   91f28:	e0bffe17 	ldw	r2,-8(fp)
   91f2c:	1001703a 	wrctl	status,r2
   91f30:	e1bff90b 	ldhu	r6,-28(fp)
   91f34:	e1000317 	ldw	r4,12(fp)
   91f38:	e1400417 	ldw	r5,16(fp)
   91f3c:	0092f0c0 	call	92f0c <OS_TaskStkClr>
   91f40:	e1fff90b 	ldhu	r7,-28(fp)
   91f44:	e13ff517 	ldw	r4,-44(fp)
   91f48:	e17ff617 	ldw	r5,-40(fp)
   91f4c:	e1bff717 	ldw	r6,-36(fp)
   91f50:	00955d80 	call	955d8 <OSTaskStkInit>
   91f54:	e0bffa15 	stw	r2,-24(fp)
   91f58:	e13ff803 	ldbu	r4,-32(fp)
   91f5c:	e1fff88b 	ldhu	r7,-30(fp)
   91f60:	e0800417 	ldw	r2,16(fp)
   91f64:	d8800015 	stw	r2,0(sp)
   91f68:	e0800517 	ldw	r2,20(fp)
   91f6c:	d8800115 	stw	r2,4(sp)
   91f70:	e0bff90b 	ldhu	r2,-28(fp)
   91f74:	d8800215 	stw	r2,8(sp)
   91f78:	e17ffa17 	ldw	r5,-24(fp)
   91f7c:	e1800317 	ldw	r6,12(fp)
   91f80:	008d77c0 	call	8d77c <OS_TCBInit>
   91f84:	e0bffb05 	stb	r2,-20(fp)
   91f88:	e0bffb03 	ldbu	r2,-20(fp)
   91f8c:	1004c03a 	cmpne	r2,r2,zero
   91f90:	1000051e 	bne	r2,zero,91fa8 <OSTaskCreateExt+0x160>
   91f94:	d0a70243 	ldbu	r2,-25591(gp)
   91f98:	10800058 	cmpnei	r2,r2,1
   91f9c:	1000161e 	bne	r2,zero,91ff8 <OSTaskCreateExt+0x1b0>
   91fa0:	008d3a00 	call	8d3a0 <OS_Sched>
   91fa4:	00001406 	br	91ff8 <OSTaskCreateExt+0x1b0>
   91fa8:	0005303a 	rdctl	r2,status
   91fac:	e0bffd15 	stw	r2,-12(fp)
   91fb0:	e0fffd17 	ldw	r3,-12(fp)
   91fb4:	00bfff84 	movi	r2,-2
   91fb8:	1884703a 	and	r2,r3,r2
   91fbc:	1001703a 	wrctl	status,r2
   91fc0:	e0bffd17 	ldw	r2,-12(fp)
   91fc4:	e0bffe15 	stw	r2,-8(fp)
   91fc8:	e0bffe17 	ldw	r2,-8(fp)
   91fcc:	e0bffc15 	stw	r2,-16(fp)
   91fd0:	00c002b4 	movhi	r3,10
   91fd4:	18d65b04 	addi	r3,r3,22892
   91fd8:	e0bff803 	ldbu	r2,-32(fp)
   91fdc:	100490ba 	slli	r2,r2,2
   91fe0:	10c5883a 	add	r2,r2,r3
   91fe4:	10000015 	stw	zero,0(r2)
   91fe8:	e0bffc17 	ldw	r2,-16(fp)
   91fec:	e0bffe15 	stw	r2,-8(fp)
   91ff0:	e0bffe17 	ldw	r2,-8(fp)
   91ff4:	1001703a 	wrctl	status,r2
   91ff8:	e0bffb03 	ldbu	r2,-20(fp)
   91ffc:	e0bfff15 	stw	r2,-4(fp)
   92000:	00000606 	br	9201c <OSTaskCreateExt+0x1d4>
   92004:	e0bffc17 	ldw	r2,-16(fp)
   92008:	e0bffe15 	stw	r2,-8(fp)
   9200c:	e0bffe17 	ldw	r2,-8(fp)
   92010:	1001703a 	wrctl	status,r2
   92014:	00800a04 	movi	r2,40
   92018:	e0bfff15 	stw	r2,-4(fp)
   9201c:	e0bfff17 	ldw	r2,-4(fp)
   92020:	dfc00f17 	ldw	ra,60(sp)
   92024:	df000e17 	ldw	fp,56(sp)
   92028:	dec01004 	addi	sp,sp,64
   9202c:	f800283a 	ret

00092030 <OSTaskDel>:
   92030:	defff704 	addi	sp,sp,-36
   92034:	dfc00815 	stw	ra,32(sp)
   92038:	df000715 	stw	fp,28(sp)
   9203c:	df000704 	addi	fp,sp,28
   92040:	e13ff905 	stb	r4,-28(fp)
   92044:	e03ffc15 	stw	zero,-16(fp)
   92048:	d0a70043 	ldbu	r2,-25599(gp)
   9204c:	1005003a 	cmpeq	r2,r2,zero
   92050:	1000031e 	bne	r2,zero,92060 <OSTaskDel+0x30>
   92054:	00801004 	movi	r2,64
   92058:	e0bfff15 	stw	r2,-4(fp)
   9205c:	0000c106 	br	92364 <OSTaskDel+0x334>
   92060:	e0bff903 	ldbu	r2,-28(fp)
   92064:	10800518 	cmpnei	r2,r2,20
   92068:	1000031e 	bne	r2,zero,92078 <OSTaskDel+0x48>
   9206c:	00800f84 	movi	r2,62
   92070:	e0bfff15 	stw	r2,-4(fp)
   92074:	0000bb06 	br	92364 <OSTaskDel+0x334>
   92078:	e0bff903 	ldbu	r2,-28(fp)
   9207c:	10800530 	cmpltui	r2,r2,20
   92080:	1000061e 	bne	r2,zero,9209c <OSTaskDel+0x6c>
   92084:	e0bff903 	ldbu	r2,-28(fp)
   92088:	10803fe0 	cmpeqi	r2,r2,255
   9208c:	1000031e 	bne	r2,zero,9209c <OSTaskDel+0x6c>
   92090:	00800a84 	movi	r2,42
   92094:	e0bfff15 	stw	r2,-4(fp)
   92098:	0000b206 	br	92364 <OSTaskDel+0x334>
   9209c:	0005303a 	rdctl	r2,status
   920a0:	e0bffe15 	stw	r2,-8(fp)
   920a4:	e0fffe17 	ldw	r3,-8(fp)
   920a8:	00bfff84 	movi	r2,-2
   920ac:	1884703a 	and	r2,r3,r2
   920b0:	1001703a 	wrctl	status,r2
   920b4:	e0bffe17 	ldw	r2,-8(fp)
   920b8:	e0bffd15 	stw	r2,-12(fp)
   920bc:	e0bffd17 	ldw	r2,-12(fp)
   920c0:	e0bffc15 	stw	r2,-16(fp)
   920c4:	e0bff903 	ldbu	r2,-28(fp)
   920c8:	10803fd8 	cmpnei	r2,r2,255
   920cc:	1000031e 	bne	r2,zero,920dc <OSTaskDel+0xac>
   920d0:	d0a70417 	ldw	r2,-25584(gp)
   920d4:	10800c83 	ldbu	r2,50(r2)
   920d8:	e0bff905 	stb	r2,-28(fp)
   920dc:	00c002b4 	movhi	r3,10
   920e0:	18d65b04 	addi	r3,r3,22892
   920e4:	e0bff903 	ldbu	r2,-28(fp)
   920e8:	100490ba 	slli	r2,r2,2
   920ec:	10c5883a 	add	r2,r2,r3
   920f0:	10800017 	ldw	r2,0(r2)
   920f4:	e0bffb15 	stw	r2,-20(fp)
   920f8:	e0bffb17 	ldw	r2,-20(fp)
   920fc:	1004c03a 	cmpne	r2,r2,zero
   92100:	1000071e 	bne	r2,zero,92120 <OSTaskDel+0xf0>
   92104:	e0bffc17 	ldw	r2,-16(fp)
   92108:	e0bffe15 	stw	r2,-8(fp)
   9210c:	e0bffe17 	ldw	r2,-8(fp)
   92110:	1001703a 	wrctl	status,r2
   92114:	008010c4 	movi	r2,67
   92118:	e0bfff15 	stw	r2,-4(fp)
   9211c:	00009106 	br	92364 <OSTaskDel+0x334>
   92120:	e0bffb17 	ldw	r2,-20(fp)
   92124:	10800058 	cmpnei	r2,r2,1
   92128:	1000071e 	bne	r2,zero,92148 <OSTaskDel+0x118>
   9212c:	e0bffc17 	ldw	r2,-16(fp)
   92130:	e0bffe15 	stw	r2,-8(fp)
   92134:	e0bffe17 	ldw	r2,-8(fp)
   92138:	1001703a 	wrctl	status,r2
   9213c:	00800f44 	movi	r2,61
   92140:	e0bfff15 	stw	r2,-4(fp)
   92144:	00008706 	br	92364 <OSTaskDel+0x334>
   92148:	e0bffb17 	ldw	r2,-20(fp)
   9214c:	10c00d03 	ldbu	r3,52(r2)
   92150:	d0a70184 	addi	r2,gp,-25594
   92154:	1889883a 	add	r4,r3,r2
   92158:	e0bffb17 	ldw	r2,-20(fp)
   9215c:	10c00d03 	ldbu	r3,52(r2)
   92160:	d0a70184 	addi	r2,gp,-25594
   92164:	1887883a 	add	r3,r3,r2
   92168:	e0bffb17 	ldw	r2,-20(fp)
   9216c:	10800d43 	ldbu	r2,53(r2)
   92170:	0084303a 	nor	r2,zero,r2
   92174:	18c00003 	ldbu	r3,0(r3)
   92178:	1884703a 	and	r2,r3,r2
   9217c:	20800005 	stb	r2,0(r4)
   92180:	e0bffb17 	ldw	r2,-20(fp)
   92184:	10c00d03 	ldbu	r3,52(r2)
   92188:	d0a70184 	addi	r2,gp,-25594
   9218c:	1885883a 	add	r2,r3,r2
   92190:	10800003 	ldbu	r2,0(r2)
   92194:	1004c03a 	cmpne	r2,r2,zero
   92198:	1000061e 	bne	r2,zero,921b4 <OSTaskDel+0x184>
   9219c:	e0bffb17 	ldw	r2,-20(fp)
   921a0:	10800d83 	ldbu	r2,54(r2)
   921a4:	0084303a 	nor	r2,zero,r2
   921a8:	d0e70143 	ldbu	r3,-25595(gp)
   921ac:	1884703a 	and	r2,r3,r2
   921b0:	d0a70145 	stb	r2,-25595(gp)
   921b4:	e0bffb17 	ldw	r2,-20(fp)
   921b8:	10800717 	ldw	r2,28(r2)
   921bc:	1005003a 	cmpeq	r2,r2,zero
   921c0:	1000041e 	bne	r2,zero,921d4 <OSTaskDel+0x1a4>
   921c4:	e0bffb17 	ldw	r2,-20(fp)
   921c8:	e13ffb17 	ldw	r4,-20(fp)
   921cc:	11400717 	ldw	r5,28(r2)
   921d0:	008cda40 	call	8cda4 <OS_EventTaskRemove>
   921d4:	e0bffb17 	ldw	r2,-20(fp)
   921d8:	10800817 	ldw	r2,32(r2)
   921dc:	1005003a 	cmpeq	r2,r2,zero
   921e0:	1000041e 	bne	r2,zero,921f4 <OSTaskDel+0x1c4>
   921e4:	e0bffb17 	ldw	r2,-20(fp)
   921e8:	e13ffb17 	ldw	r4,-20(fp)
   921ec:	11400817 	ldw	r5,32(r2)
   921f0:	008ce440 	call	8ce44 <OS_EventTaskRemoveMulti>
   921f4:	e0bffb17 	ldw	r2,-20(fp)
   921f8:	10800a17 	ldw	r2,40(r2)
   921fc:	e0bffa15 	stw	r2,-24(fp)
   92200:	e0bffa17 	ldw	r2,-24(fp)
   92204:	1005003a 	cmpeq	r2,r2,zero
   92208:	1000021e 	bne	r2,zero,92214 <OSTaskDel+0x1e4>
   9220c:	e13ffa17 	ldw	r4,-24(fp)
   92210:	008f28c0 	call	8f28c <OS_FlagUnlink>
   92214:	e0bffb17 	ldw	r2,-20(fp)
   92218:	10000b8d 	sth	zero,46(r2)
   9221c:	e0bffb17 	ldw	r2,-20(fp)
   92220:	10000c05 	stb	zero,48(r2)
   92224:	e0bffb17 	ldw	r2,-20(fp)
   92228:	10000c45 	stb	zero,49(r2)
   9222c:	d0a70083 	ldbu	r2,-25598(gp)
   92230:	10803fe0 	cmpeqi	r2,r2,255
   92234:	1000031e 	bne	r2,zero,92244 <OSTaskDel+0x214>
   92238:	d0a70083 	ldbu	r2,-25598(gp)
   9223c:	10800044 	addi	r2,r2,1
   92240:	d0a70085 	stb	r2,-25598(gp)
   92244:	e0bffc17 	ldw	r2,-16(fp)
   92248:	e0bffe15 	stw	r2,-8(fp)
   9224c:	e0bffe17 	ldw	r2,-8(fp)
   92250:	1001703a 	wrctl	status,r2
   92254:	008c9fc0 	call	8c9fc <OS_Dummy>
   92258:	0005303a 	rdctl	r2,status
   9225c:	e0bffd15 	stw	r2,-12(fp)
   92260:	e0fffd17 	ldw	r3,-12(fp)
   92264:	00bfff84 	movi	r2,-2
   92268:	1884703a 	and	r2,r3,r2
   9226c:	1001703a 	wrctl	status,r2
   92270:	e0bffd17 	ldw	r2,-12(fp)
   92274:	e0bffe15 	stw	r2,-8(fp)
   92278:	e0bffe17 	ldw	r2,-8(fp)
   9227c:	e0bffc15 	stw	r2,-16(fp)
   92280:	d0a70083 	ldbu	r2,-25598(gp)
   92284:	1005003a 	cmpeq	r2,r2,zero
   92288:	1000031e 	bne	r2,zero,92298 <OSTaskDel+0x268>
   9228c:	d0a70083 	ldbu	r2,-25598(gp)
   92290:	10bfffc4 	addi	r2,r2,-1
   92294:	d0a70085 	stb	r2,-25598(gp)
   92298:	e13ffb17 	ldw	r4,-20(fp)
   9229c:	00959100 	call	95910 <OSTaskDelHook>
   922a0:	d0a70283 	ldbu	r2,-25590(gp)
   922a4:	10bfffc4 	addi	r2,r2,-1
   922a8:	d0a70285 	stb	r2,-25590(gp)
   922ac:	00c002b4 	movhi	r3,10
   922b0:	18d65b04 	addi	r3,r3,22892
   922b4:	e0bff903 	ldbu	r2,-28(fp)
   922b8:	100490ba 	slli	r2,r2,2
   922bc:	10c5883a 	add	r2,r2,r3
   922c0:	10000015 	stw	zero,0(r2)
   922c4:	e0bffb17 	ldw	r2,-20(fp)
   922c8:	10800617 	ldw	r2,24(r2)
   922cc:	1004c03a 	cmpne	r2,r2,zero
   922d0:	1000071e 	bne	r2,zero,922f0 <OSTaskDel+0x2c0>
   922d4:	e0bffb17 	ldw	r2,-20(fp)
   922d8:	10800517 	ldw	r2,20(r2)
   922dc:	10000615 	stw	zero,24(r2)
   922e0:	e0bffb17 	ldw	r2,-20(fp)
   922e4:	10800517 	ldw	r2,20(r2)
   922e8:	d0a70715 	stw	r2,-25572(gp)
   922ec:	00000a06 	br	92318 <OSTaskDel+0x2e8>
   922f0:	e0bffb17 	ldw	r2,-20(fp)
   922f4:	10c00617 	ldw	r3,24(r2)
   922f8:	e0bffb17 	ldw	r2,-20(fp)
   922fc:	10800517 	ldw	r2,20(r2)
   92300:	18800515 	stw	r2,20(r3)
   92304:	e0bffb17 	ldw	r2,-20(fp)
   92308:	10c00517 	ldw	r3,20(r2)
   9230c:	e0bffb17 	ldw	r2,-20(fp)
   92310:	10800617 	ldw	r2,24(r2)
   92314:	18800615 	stw	r2,24(r3)
   92318:	e0fffb17 	ldw	r3,-20(fp)
   9231c:	d0a70517 	ldw	r2,-25580(gp)
   92320:	18800515 	stw	r2,20(r3)
   92324:	e0bffb17 	ldw	r2,-20(fp)
   92328:	d0a70515 	stw	r2,-25580(gp)
   9232c:	e0fffb17 	ldw	r3,-20(fp)
   92330:	00800fc4 	movi	r2,63
   92334:	18801305 	stb	r2,76(r3)
   92338:	e0bffb17 	ldw	r2,-20(fp)
   9233c:	10001345 	stb	zero,77(r2)
   92340:	e0bffc17 	ldw	r2,-16(fp)
   92344:	e0bffe15 	stw	r2,-8(fp)
   92348:	e0bffe17 	ldw	r2,-8(fp)
   9234c:	1001703a 	wrctl	status,r2
   92350:	d0a70243 	ldbu	r2,-25591(gp)
   92354:	10800058 	cmpnei	r2,r2,1
   92358:	1000011e 	bne	r2,zero,92360 <OSTaskDel+0x330>
   9235c:	008d3a00 	call	8d3a0 <OS_Sched>
   92360:	e03fff15 	stw	zero,-4(fp)
   92364:	e0bfff17 	ldw	r2,-4(fp)
   92368:	dfc00817 	ldw	ra,32(sp)
   9236c:	df000717 	ldw	fp,28(sp)
   92370:	dec00904 	addi	sp,sp,36
   92374:	f800283a 	ret

00092378 <OSTaskDelReq>:
   92378:	defff904 	addi	sp,sp,-28
   9237c:	df000615 	stw	fp,24(sp)
   92380:	df000604 	addi	fp,sp,24
   92384:	e13ffa05 	stb	r4,-24(fp)
   92388:	e03ffc15 	stw	zero,-16(fp)
   9238c:	e0bffa03 	ldbu	r2,-24(fp)
   92390:	10800518 	cmpnei	r2,r2,20
   92394:	1000031e 	bne	r2,zero,923a4 <OSTaskDelReq+0x2c>
   92398:	00800f84 	movi	r2,62
   9239c:	e0bfff15 	stw	r2,-4(fp)
   923a0:	00004d06 	br	924d8 <OSTaskDelReq+0x160>
   923a4:	e0bffa03 	ldbu	r2,-24(fp)
   923a8:	10800530 	cmpltui	r2,r2,20
   923ac:	1000061e 	bne	r2,zero,923c8 <OSTaskDelReq+0x50>
   923b0:	e0bffa03 	ldbu	r2,-24(fp)
   923b4:	10803fe0 	cmpeqi	r2,r2,255
   923b8:	1000031e 	bne	r2,zero,923c8 <OSTaskDelReq+0x50>
   923bc:	00800a84 	movi	r2,42
   923c0:	e0bfff15 	stw	r2,-4(fp)
   923c4:	00004406 	br	924d8 <OSTaskDelReq+0x160>
   923c8:	e0bffa03 	ldbu	r2,-24(fp)
   923cc:	10803fd8 	cmpnei	r2,r2,255
   923d0:	1000141e 	bne	r2,zero,92424 <OSTaskDelReq+0xac>
   923d4:	0005303a 	rdctl	r2,status
   923d8:	e0bffe15 	stw	r2,-8(fp)
   923dc:	e0fffe17 	ldw	r3,-8(fp)
   923e0:	00bfff84 	movi	r2,-2
   923e4:	1884703a 	and	r2,r3,r2
   923e8:	1001703a 	wrctl	status,r2
   923ec:	e0bffe17 	ldw	r2,-8(fp)
   923f0:	e0bffd15 	stw	r2,-12(fp)
   923f4:	e0bffd17 	ldw	r2,-12(fp)
   923f8:	e0bffc15 	stw	r2,-16(fp)
   923fc:	d0a70417 	ldw	r2,-25584(gp)
   92400:	10800dc3 	ldbu	r2,55(r2)
   92404:	e0bffa45 	stb	r2,-23(fp)
   92408:	e0bffc17 	ldw	r2,-16(fp)
   9240c:	e0bffe15 	stw	r2,-8(fp)
   92410:	e0bffe17 	ldw	r2,-8(fp)
   92414:	1001703a 	wrctl	status,r2
   92418:	e0bffa43 	ldbu	r2,-23(fp)
   9241c:	e0bfff15 	stw	r2,-4(fp)
   92420:	00002d06 	br	924d8 <OSTaskDelReq+0x160>
   92424:	0005303a 	rdctl	r2,status
   92428:	e0bffd15 	stw	r2,-12(fp)
   9242c:	e0fffd17 	ldw	r3,-12(fp)
   92430:	00bfff84 	movi	r2,-2
   92434:	1884703a 	and	r2,r3,r2
   92438:	1001703a 	wrctl	status,r2
   9243c:	e0bffd17 	ldw	r2,-12(fp)
   92440:	e0bffe15 	stw	r2,-8(fp)
   92444:	e0bffe17 	ldw	r2,-8(fp)
   92448:	e0bffc15 	stw	r2,-16(fp)
   9244c:	00c002b4 	movhi	r3,10
   92450:	18d65b04 	addi	r3,r3,22892
   92454:	e0bffa03 	ldbu	r2,-24(fp)
   92458:	100490ba 	slli	r2,r2,2
   9245c:	10c5883a 	add	r2,r2,r3
   92460:	10800017 	ldw	r2,0(r2)
   92464:	e0bffb15 	stw	r2,-20(fp)
   92468:	e0bffb17 	ldw	r2,-20(fp)
   9246c:	1004c03a 	cmpne	r2,r2,zero
   92470:	1000071e 	bne	r2,zero,92490 <OSTaskDelReq+0x118>
   92474:	e0bffc17 	ldw	r2,-16(fp)
   92478:	e0bffe15 	stw	r2,-8(fp)
   9247c:	e0bffe17 	ldw	r2,-8(fp)
   92480:	1001703a 	wrctl	status,r2
   92484:	008010c4 	movi	r2,67
   92488:	e0bfff15 	stw	r2,-4(fp)
   9248c:	00001206 	br	924d8 <OSTaskDelReq+0x160>
   92490:	e0bffb17 	ldw	r2,-20(fp)
   92494:	10800058 	cmpnei	r2,r2,1
   92498:	1000071e 	bne	r2,zero,924b8 <OSTaskDelReq+0x140>
   9249c:	e0bffc17 	ldw	r2,-16(fp)
   924a0:	e0bffe15 	stw	r2,-8(fp)
   924a4:	e0bffe17 	ldw	r2,-8(fp)
   924a8:	1001703a 	wrctl	status,r2
   924ac:	00800f44 	movi	r2,61
   924b0:	e0bfff15 	stw	r2,-4(fp)
   924b4:	00000806 	br	924d8 <OSTaskDelReq+0x160>
   924b8:	e0fffb17 	ldw	r3,-20(fp)
   924bc:	00800fc4 	movi	r2,63
   924c0:	18800dc5 	stb	r2,55(r3)
   924c4:	e0bffc17 	ldw	r2,-16(fp)
   924c8:	e0bffe15 	stw	r2,-8(fp)
   924cc:	e0bffe17 	ldw	r2,-8(fp)
   924d0:	1001703a 	wrctl	status,r2
   924d4:	e03fff15 	stw	zero,-4(fp)
   924d8:	e0bfff17 	ldw	r2,-4(fp)
   924dc:	df000617 	ldw	fp,24(sp)
   924e0:	dec00704 	addi	sp,sp,28
   924e4:	f800283a 	ret

000924e8 <OSTaskNameGet>:
   924e8:	defff504 	addi	sp,sp,-44
   924ec:	dfc00a15 	stw	ra,40(sp)
   924f0:	df000915 	stw	fp,36(sp)
   924f4:	df000904 	addi	fp,sp,36
   924f8:	e17ff815 	stw	r5,-32(fp)
   924fc:	e1bff915 	stw	r6,-28(fp)
   92500:	e13ff705 	stb	r4,-36(fp)
   92504:	e03ffc15 	stw	zero,-16(fp)
   92508:	e0bff917 	ldw	r2,-28(fp)
   9250c:	1004c03a 	cmpne	r2,r2,zero
   92510:	1000021e 	bne	r2,zero,9251c <OSTaskNameGet+0x34>
   92514:	e03fff15 	stw	zero,-4(fp)
   92518:	00005706 	br	92678 <OSTaskNameGet+0x190>
   9251c:	e0bff703 	ldbu	r2,-36(fp)
   92520:	10800570 	cmpltui	r2,r2,21
   92524:	1000081e 	bne	r2,zero,92548 <OSTaskNameGet+0x60>
   92528:	e0bff703 	ldbu	r2,-36(fp)
   9252c:	10803fe0 	cmpeqi	r2,r2,255
   92530:	1000051e 	bne	r2,zero,92548 <OSTaskNameGet+0x60>
   92534:	e0fff917 	ldw	r3,-28(fp)
   92538:	00800a84 	movi	r2,42
   9253c:	18800005 	stb	r2,0(r3)
   92540:	e03fff15 	stw	zero,-4(fp)
   92544:	00004c06 	br	92678 <OSTaskNameGet+0x190>
   92548:	e0bff817 	ldw	r2,-32(fp)
   9254c:	1004c03a 	cmpne	r2,r2,zero
   92550:	1000051e 	bne	r2,zero,92568 <OSTaskNameGet+0x80>
   92554:	e0fff917 	ldw	r3,-28(fp)
   92558:	00800304 	movi	r2,12
   9255c:	18800005 	stb	r2,0(r3)
   92560:	e03fff15 	stw	zero,-4(fp)
   92564:	00004406 	br	92678 <OSTaskNameGet+0x190>
   92568:	d0a70043 	ldbu	r2,-25599(gp)
   9256c:	1005003a 	cmpeq	r2,r2,zero
   92570:	1000051e 	bne	r2,zero,92588 <OSTaskNameGet+0xa0>
   92574:	e0fff917 	ldw	r3,-28(fp)
   92578:	00800444 	movi	r2,17
   9257c:	18800005 	stb	r2,0(r3)
   92580:	e03fff15 	stw	zero,-4(fp)
   92584:	00003c06 	br	92678 <OSTaskNameGet+0x190>
   92588:	0005303a 	rdctl	r2,status
   9258c:	e0bffe15 	stw	r2,-8(fp)
   92590:	e0fffe17 	ldw	r3,-8(fp)
   92594:	00bfff84 	movi	r2,-2
   92598:	1884703a 	and	r2,r3,r2
   9259c:	1001703a 	wrctl	status,r2
   925a0:	e0bffe17 	ldw	r2,-8(fp)
   925a4:	e0bffd15 	stw	r2,-12(fp)
   925a8:	e0bffd17 	ldw	r2,-12(fp)
   925ac:	e0bffc15 	stw	r2,-16(fp)
   925b0:	e0bff703 	ldbu	r2,-36(fp)
   925b4:	10803fd8 	cmpnei	r2,r2,255
   925b8:	1000031e 	bne	r2,zero,925c8 <OSTaskNameGet+0xe0>
   925bc:	d0a70417 	ldw	r2,-25584(gp)
   925c0:	10800c83 	ldbu	r2,50(r2)
   925c4:	e0bff705 	stb	r2,-36(fp)
   925c8:	00c002b4 	movhi	r3,10
   925cc:	18d65b04 	addi	r3,r3,22892
   925d0:	e0bff703 	ldbu	r2,-36(fp)
   925d4:	100490ba 	slli	r2,r2,2
   925d8:	10c5883a 	add	r2,r2,r3
   925dc:	10800017 	ldw	r2,0(r2)
   925e0:	e0bffa15 	stw	r2,-24(fp)
   925e4:	e0bffa17 	ldw	r2,-24(fp)
   925e8:	1004c03a 	cmpne	r2,r2,zero
   925ec:	1000091e 	bne	r2,zero,92614 <OSTaskNameGet+0x12c>
   925f0:	e0bffc17 	ldw	r2,-16(fp)
   925f4:	e0bffe15 	stw	r2,-8(fp)
   925f8:	e0bffe17 	ldw	r2,-8(fp)
   925fc:	1001703a 	wrctl	status,r2
   92600:	e0fff917 	ldw	r3,-28(fp)
   92604:	008010c4 	movi	r2,67
   92608:	18800005 	stb	r2,0(r3)
   9260c:	e03fff15 	stw	zero,-4(fp)
   92610:	00001906 	br	92678 <OSTaskNameGet+0x190>
   92614:	e0bffa17 	ldw	r2,-24(fp)
   92618:	10800058 	cmpnei	r2,r2,1
   9261c:	1000091e 	bne	r2,zero,92644 <OSTaskNameGet+0x15c>
   92620:	e0bffc17 	ldw	r2,-16(fp)
   92624:	e0bffe15 	stw	r2,-8(fp)
   92628:	e0bffe17 	ldw	r2,-8(fp)
   9262c:	1001703a 	wrctl	status,r2
   92630:	e0fff917 	ldw	r3,-28(fp)
   92634:	008010c4 	movi	r2,67
   92638:	18800005 	stb	r2,0(r3)
   9263c:	e03fff15 	stw	zero,-4(fp)
   92640:	00000d06 	br	92678 <OSTaskNameGet+0x190>
   92644:	e0bffa17 	ldw	r2,-24(fp)
   92648:	11401304 	addi	r5,r2,76
   9264c:	e13ff817 	ldw	r4,-32(fp)
   92650:	008d4c80 	call	8d4c8 <OS_StrCopy>
   92654:	e0bffb05 	stb	r2,-20(fp)
   92658:	e0bffc17 	ldw	r2,-16(fp)
   9265c:	e0bffe15 	stw	r2,-8(fp)
   92660:	e0bffe17 	ldw	r2,-8(fp)
   92664:	1001703a 	wrctl	status,r2
   92668:	e0bff917 	ldw	r2,-28(fp)
   9266c:	10000005 	stb	zero,0(r2)
   92670:	e0bffb03 	ldbu	r2,-20(fp)
   92674:	e0bfff15 	stw	r2,-4(fp)
   92678:	e0bfff17 	ldw	r2,-4(fp)
   9267c:	dfc00a17 	ldw	ra,40(sp)
   92680:	df000917 	ldw	fp,36(sp)
   92684:	dec00b04 	addi	sp,sp,44
   92688:	f800283a 	ret

0009268c <OSTaskNameSet>:
   9268c:	defff604 	addi	sp,sp,-40
   92690:	dfc00915 	stw	ra,36(sp)
   92694:	df000815 	stw	fp,32(sp)
   92698:	df000804 	addi	fp,sp,32
   9269c:	e17ff915 	stw	r5,-28(fp)
   926a0:	e1bffa15 	stw	r6,-24(fp)
   926a4:	e13ff805 	stb	r4,-32(fp)
   926a8:	e03ffd15 	stw	zero,-12(fp)
   926ac:	e0bffa17 	ldw	r2,-24(fp)
   926b0:	1004c03a 	cmpne	r2,r2,zero
   926b4:	1000011e 	bne	r2,zero,926bc <OSTaskNameSet+0x30>
   926b8:	00005d06 	br	92830 <OSTaskNameSet+0x1a4>
   926bc:	e0bff803 	ldbu	r2,-32(fp)
   926c0:	10800570 	cmpltui	r2,r2,21
   926c4:	1000071e 	bne	r2,zero,926e4 <OSTaskNameSet+0x58>
   926c8:	e0bff803 	ldbu	r2,-32(fp)
   926cc:	10803fe0 	cmpeqi	r2,r2,255
   926d0:	1000041e 	bne	r2,zero,926e4 <OSTaskNameSet+0x58>
   926d4:	e0fffa17 	ldw	r3,-24(fp)
   926d8:	00800a84 	movi	r2,42
   926dc:	18800005 	stb	r2,0(r3)
   926e0:	00005306 	br	92830 <OSTaskNameSet+0x1a4>
   926e4:	e0bff917 	ldw	r2,-28(fp)
   926e8:	1004c03a 	cmpne	r2,r2,zero
   926ec:	1000041e 	bne	r2,zero,92700 <OSTaskNameSet+0x74>
   926f0:	e0fffa17 	ldw	r3,-24(fp)
   926f4:	00800304 	movi	r2,12
   926f8:	18800005 	stb	r2,0(r3)
   926fc:	00004c06 	br	92830 <OSTaskNameSet+0x1a4>
   92700:	d0a70043 	ldbu	r2,-25599(gp)
   92704:	1005003a 	cmpeq	r2,r2,zero
   92708:	1000041e 	bne	r2,zero,9271c <OSTaskNameSet+0x90>
   9270c:	e0fffa17 	ldw	r3,-24(fp)
   92710:	00800484 	movi	r2,18
   92714:	18800005 	stb	r2,0(r3)
   92718:	00004506 	br	92830 <OSTaskNameSet+0x1a4>
   9271c:	0005303a 	rdctl	r2,status
   92720:	e0bfff15 	stw	r2,-4(fp)
   92724:	e0ffff17 	ldw	r3,-4(fp)
   92728:	00bfff84 	movi	r2,-2
   9272c:	1884703a 	and	r2,r3,r2
   92730:	1001703a 	wrctl	status,r2
   92734:	e0bfff17 	ldw	r2,-4(fp)
   92738:	e0bffe15 	stw	r2,-8(fp)
   9273c:	e0bffe17 	ldw	r2,-8(fp)
   92740:	e0bffd15 	stw	r2,-12(fp)
   92744:	e0bff803 	ldbu	r2,-32(fp)
   92748:	10803fd8 	cmpnei	r2,r2,255
   9274c:	1000031e 	bne	r2,zero,9275c <OSTaskNameSet+0xd0>
   92750:	d0a70417 	ldw	r2,-25584(gp)
   92754:	10800c83 	ldbu	r2,50(r2)
   92758:	e0bff805 	stb	r2,-32(fp)
   9275c:	00c002b4 	movhi	r3,10
   92760:	18d65b04 	addi	r3,r3,22892
   92764:	e0bff803 	ldbu	r2,-32(fp)
   92768:	100490ba 	slli	r2,r2,2
   9276c:	10c5883a 	add	r2,r2,r3
   92770:	10800017 	ldw	r2,0(r2)
   92774:	e0bffc15 	stw	r2,-16(fp)
   92778:	e0bffc17 	ldw	r2,-16(fp)
   9277c:	1004c03a 	cmpne	r2,r2,zero
   92780:	1000081e 	bne	r2,zero,927a4 <OSTaskNameSet+0x118>
   92784:	e0bffd17 	ldw	r2,-12(fp)
   92788:	e0bfff15 	stw	r2,-4(fp)
   9278c:	e0bfff17 	ldw	r2,-4(fp)
   92790:	1001703a 	wrctl	status,r2
   92794:	e0fffa17 	ldw	r3,-24(fp)
   92798:	008010c4 	movi	r2,67
   9279c:	18800005 	stb	r2,0(r3)
   927a0:	00002306 	br	92830 <OSTaskNameSet+0x1a4>
   927a4:	e0bffc17 	ldw	r2,-16(fp)
   927a8:	10800058 	cmpnei	r2,r2,1
   927ac:	1000081e 	bne	r2,zero,927d0 <OSTaskNameSet+0x144>
   927b0:	e0bffd17 	ldw	r2,-12(fp)
   927b4:	e0bfff15 	stw	r2,-4(fp)
   927b8:	e0bfff17 	ldw	r2,-4(fp)
   927bc:	1001703a 	wrctl	status,r2
   927c0:	e0fffa17 	ldw	r3,-24(fp)
   927c4:	008010c4 	movi	r2,67
   927c8:	18800005 	stb	r2,0(r3)
   927cc:	00001806 	br	92830 <OSTaskNameSet+0x1a4>
   927d0:	e13ff917 	ldw	r4,-28(fp)
   927d4:	008d5400 	call	8d540 <OS_StrLen>
   927d8:	e0bffb05 	stb	r2,-20(fp)
   927dc:	e0bffb03 	ldbu	r2,-20(fp)
   927e0:	10800830 	cmpltui	r2,r2,32
   927e4:	1000081e 	bne	r2,zero,92808 <OSTaskNameSet+0x17c>
   927e8:	e0bffd17 	ldw	r2,-12(fp)
   927ec:	e0bfff15 	stw	r2,-4(fp)
   927f0:	e0bfff17 	ldw	r2,-4(fp)
   927f4:	1001703a 	wrctl	status,r2
   927f8:	e0fffa17 	ldw	r3,-24(fp)
   927fc:	00801044 	movi	r2,65
   92800:	18800005 	stb	r2,0(r3)
   92804:	00000a06 	br	92830 <OSTaskNameSet+0x1a4>
   92808:	e0bffc17 	ldw	r2,-16(fp)
   9280c:	11001304 	addi	r4,r2,76
   92810:	e17ff917 	ldw	r5,-28(fp)
   92814:	008d4c80 	call	8d4c8 <OS_StrCopy>
   92818:	e0bffd17 	ldw	r2,-12(fp)
   9281c:	e0bfff15 	stw	r2,-4(fp)
   92820:	e0bfff17 	ldw	r2,-4(fp)
   92824:	1001703a 	wrctl	status,r2
   92828:	e0bffa17 	ldw	r2,-24(fp)
   9282c:	10000005 	stb	zero,0(r2)
   92830:	dfc00917 	ldw	ra,36(sp)
   92834:	df000817 	ldw	fp,32(sp)
   92838:	dec00a04 	addi	sp,sp,40
   9283c:	f800283a 	ret

00092840 <OSTaskResume>:
   92840:	defff804 	addi	sp,sp,-32
   92844:	dfc00715 	stw	ra,28(sp)
   92848:	df000615 	stw	fp,24(sp)
   9284c:	df000604 	addi	fp,sp,24
   92850:	e13ffa05 	stb	r4,-24(fp)
   92854:	e03ffc15 	stw	zero,-16(fp)
   92858:	e0bffa03 	ldbu	r2,-24(fp)
   9285c:	10800530 	cmpltui	r2,r2,20
   92860:	1000031e 	bne	r2,zero,92870 <OSTaskResume+0x30>
   92864:	00800a84 	movi	r2,42
   92868:	e0bfff15 	stw	r2,-4(fp)
   9286c:	00006406 	br	92a00 <OSTaskResume+0x1c0>
   92870:	0005303a 	rdctl	r2,status
   92874:	e0bffe15 	stw	r2,-8(fp)
   92878:	e0fffe17 	ldw	r3,-8(fp)
   9287c:	00bfff84 	movi	r2,-2
   92880:	1884703a 	and	r2,r3,r2
   92884:	1001703a 	wrctl	status,r2
   92888:	e0bffe17 	ldw	r2,-8(fp)
   9288c:	e0bffd15 	stw	r2,-12(fp)
   92890:	e0bffd17 	ldw	r2,-12(fp)
   92894:	e0bffc15 	stw	r2,-16(fp)
   92898:	00c002b4 	movhi	r3,10
   9289c:	18d65b04 	addi	r3,r3,22892
   928a0:	e0bffa03 	ldbu	r2,-24(fp)
   928a4:	100490ba 	slli	r2,r2,2
   928a8:	10c5883a 	add	r2,r2,r3
   928ac:	10800017 	ldw	r2,0(r2)
   928b0:	e0bffb15 	stw	r2,-20(fp)
   928b4:	e0bffb17 	ldw	r2,-20(fp)
   928b8:	1004c03a 	cmpne	r2,r2,zero
   928bc:	1000071e 	bne	r2,zero,928dc <OSTaskResume+0x9c>
   928c0:	e0bffc17 	ldw	r2,-16(fp)
   928c4:	e0bffe15 	stw	r2,-8(fp)
   928c8:	e0bffe17 	ldw	r2,-8(fp)
   928cc:	1001703a 	wrctl	status,r2
   928d0:	00801184 	movi	r2,70
   928d4:	e0bfff15 	stw	r2,-4(fp)
   928d8:	00004906 	br	92a00 <OSTaskResume+0x1c0>
   928dc:	e0bffb17 	ldw	r2,-20(fp)
   928e0:	10800058 	cmpnei	r2,r2,1
   928e4:	1000071e 	bne	r2,zero,92904 <OSTaskResume+0xc4>
   928e8:	e0bffc17 	ldw	r2,-16(fp)
   928ec:	e0bffe15 	stw	r2,-8(fp)
   928f0:	e0bffe17 	ldw	r2,-8(fp)
   928f4:	1001703a 	wrctl	status,r2
   928f8:	008010c4 	movi	r2,67
   928fc:	e0bfff15 	stw	r2,-4(fp)
   92900:	00003f06 	br	92a00 <OSTaskResume+0x1c0>
   92904:	e0bffb17 	ldw	r2,-20(fp)
   92908:	10800c03 	ldbu	r2,48(r2)
   9290c:	1080020c 	andi	r2,r2,8
   92910:	1005003a 	cmpeq	r2,r2,zero
   92914:	1000341e 	bne	r2,zero,929e8 <OSTaskResume+0x1a8>
   92918:	e13ffb17 	ldw	r4,-20(fp)
   9291c:	e0bffb17 	ldw	r2,-20(fp)
   92920:	10c00c03 	ldbu	r3,48(r2)
   92924:	00bffdc4 	movi	r2,-9
   92928:	1884703a 	and	r2,r3,r2
   9292c:	20800c05 	stb	r2,48(r4)
   92930:	e0bffb17 	ldw	r2,-20(fp)
   92934:	10800c03 	ldbu	r2,48(r2)
   92938:	1004c03a 	cmpne	r2,r2,zero
   9293c:	1000241e 	bne	r2,zero,929d0 <OSTaskResume+0x190>
   92940:	e0bffb17 	ldw	r2,-20(fp)
   92944:	10800b8b 	ldhu	r2,46(r2)
   92948:	1004c03a 	cmpne	r2,r2,zero
   9294c:	10001b1e 	bne	r2,zero,929bc <OSTaskResume+0x17c>
   92950:	e0bffb17 	ldw	r2,-20(fp)
   92954:	d0e70143 	ldbu	r3,-25595(gp)
   92958:	10800d83 	ldbu	r2,54(r2)
   9295c:	1884b03a 	or	r2,r3,r2
   92960:	d0a70145 	stb	r2,-25595(gp)
   92964:	e0bffb17 	ldw	r2,-20(fp)
   92968:	10c00d03 	ldbu	r3,52(r2)
   9296c:	d0a70184 	addi	r2,gp,-25594
   92970:	188b883a 	add	r5,r3,r2
   92974:	e0bffb17 	ldw	r2,-20(fp)
   92978:	10c00d03 	ldbu	r3,52(r2)
   9297c:	d0a70184 	addi	r2,gp,-25594
   92980:	1885883a 	add	r2,r3,r2
   92984:	e0fffb17 	ldw	r3,-20(fp)
   92988:	11000003 	ldbu	r4,0(r2)
   9298c:	18800d43 	ldbu	r2,53(r3)
   92990:	2084b03a 	or	r2,r4,r2
   92994:	28800005 	stb	r2,0(r5)
   92998:	e0bffc17 	ldw	r2,-16(fp)
   9299c:	e0bffe15 	stw	r2,-8(fp)
   929a0:	e0bffe17 	ldw	r2,-8(fp)
   929a4:	1001703a 	wrctl	status,r2
   929a8:	d0a70243 	ldbu	r2,-25591(gp)
   929ac:	10800058 	cmpnei	r2,r2,1
   929b0:	10000b1e 	bne	r2,zero,929e0 <OSTaskResume+0x1a0>
   929b4:	008d3a00 	call	8d3a0 <OS_Sched>
   929b8:	00000906 	br	929e0 <OSTaskResume+0x1a0>
   929bc:	e0bffc17 	ldw	r2,-16(fp)
   929c0:	e0bffe15 	stw	r2,-8(fp)
   929c4:	e0bffe17 	ldw	r2,-8(fp)
   929c8:	1001703a 	wrctl	status,r2
   929cc:	00000406 	br	929e0 <OSTaskResume+0x1a0>
   929d0:	e0bffc17 	ldw	r2,-16(fp)
   929d4:	e0bffe15 	stw	r2,-8(fp)
   929d8:	e0bffe17 	ldw	r2,-8(fp)
   929dc:	1001703a 	wrctl	status,r2
   929e0:	e03fff15 	stw	zero,-4(fp)
   929e4:	00000606 	br	92a00 <OSTaskResume+0x1c0>
   929e8:	e0bffc17 	ldw	r2,-16(fp)
   929ec:	e0bffe15 	stw	r2,-8(fp)
   929f0:	e0bffe17 	ldw	r2,-8(fp)
   929f4:	1001703a 	wrctl	status,r2
   929f8:	00801104 	movi	r2,68
   929fc:	e0bfff15 	stw	r2,-4(fp)
   92a00:	e0bfff17 	ldw	r2,-4(fp)
   92a04:	dfc00717 	ldw	ra,28(sp)
   92a08:	df000617 	ldw	fp,24(sp)
   92a0c:	dec00804 	addi	sp,sp,32
   92a10:	f800283a 	ret

00092a14 <OSTaskStkChk>:
   92a14:	defff504 	addi	sp,sp,-44
   92a18:	df000a15 	stw	fp,40(sp)
   92a1c:	df000a04 	addi	fp,sp,40
   92a20:	e17ff715 	stw	r5,-36(fp)
   92a24:	e13ff605 	stb	r4,-40(fp)
   92a28:	e03ffc15 	stw	zero,-16(fp)
   92a2c:	e0bff603 	ldbu	r2,-40(fp)
   92a30:	10800570 	cmpltui	r2,r2,21
   92a34:	1000061e 	bne	r2,zero,92a50 <OSTaskStkChk+0x3c>
   92a38:	e0bff603 	ldbu	r2,-40(fp)
   92a3c:	10803fe0 	cmpeqi	r2,r2,255
   92a40:	1000031e 	bne	r2,zero,92a50 <OSTaskStkChk+0x3c>
   92a44:	00800a84 	movi	r2,42
   92a48:	e0bfff15 	stw	r2,-4(fp)
   92a4c:	00006306 	br	92bdc <OSTaskStkChk+0x1c8>
   92a50:	e0bff717 	ldw	r2,-36(fp)
   92a54:	1004c03a 	cmpne	r2,r2,zero
   92a58:	1000031e 	bne	r2,zero,92a68 <OSTaskStkChk+0x54>
   92a5c:	00800244 	movi	r2,9
   92a60:	e0bfff15 	stw	r2,-4(fp)
   92a64:	00005d06 	br	92bdc <OSTaskStkChk+0x1c8>
   92a68:	e0bff717 	ldw	r2,-36(fp)
   92a6c:	10000015 	stw	zero,0(r2)
   92a70:	e0bff717 	ldw	r2,-36(fp)
   92a74:	10000115 	stw	zero,4(r2)
   92a78:	0005303a 	rdctl	r2,status
   92a7c:	e0bffe15 	stw	r2,-8(fp)
   92a80:	e0fffe17 	ldw	r3,-8(fp)
   92a84:	00bfff84 	movi	r2,-2
   92a88:	1884703a 	and	r2,r3,r2
   92a8c:	1001703a 	wrctl	status,r2
   92a90:	e0bffe17 	ldw	r2,-8(fp)
   92a94:	e0bffd15 	stw	r2,-12(fp)
   92a98:	e0bffd17 	ldw	r2,-12(fp)
   92a9c:	e0bffc15 	stw	r2,-16(fp)
   92aa0:	e0bff603 	ldbu	r2,-40(fp)
   92aa4:	10803fd8 	cmpnei	r2,r2,255
   92aa8:	1000031e 	bne	r2,zero,92ab8 <OSTaskStkChk+0xa4>
   92aac:	d0a70417 	ldw	r2,-25584(gp)
   92ab0:	10800c83 	ldbu	r2,50(r2)
   92ab4:	e0bff605 	stb	r2,-40(fp)
   92ab8:	00c002b4 	movhi	r3,10
   92abc:	18d65b04 	addi	r3,r3,22892
   92ac0:	e0bff603 	ldbu	r2,-40(fp)
   92ac4:	100490ba 	slli	r2,r2,2
   92ac8:	10c5883a 	add	r2,r2,r3
   92acc:	10800017 	ldw	r2,0(r2)
   92ad0:	e0bff815 	stw	r2,-32(fp)
   92ad4:	e0bff817 	ldw	r2,-32(fp)
   92ad8:	1004c03a 	cmpne	r2,r2,zero
   92adc:	1000071e 	bne	r2,zero,92afc <OSTaskStkChk+0xe8>
   92ae0:	e0bffc17 	ldw	r2,-16(fp)
   92ae4:	e0bffe15 	stw	r2,-8(fp)
   92ae8:	e0bffe17 	ldw	r2,-8(fp)
   92aec:	1001703a 	wrctl	status,r2
   92af0:	008010c4 	movi	r2,67
   92af4:	e0bfff15 	stw	r2,-4(fp)
   92af8:	00003806 	br	92bdc <OSTaskStkChk+0x1c8>
   92afc:	e0bff817 	ldw	r2,-32(fp)
   92b00:	10800058 	cmpnei	r2,r2,1
   92b04:	1000071e 	bne	r2,zero,92b24 <OSTaskStkChk+0x110>
   92b08:	e0bffc17 	ldw	r2,-16(fp)
   92b0c:	e0bffe15 	stw	r2,-8(fp)
   92b10:	e0bffe17 	ldw	r2,-8(fp)
   92b14:	1001703a 	wrctl	status,r2
   92b18:	008010c4 	movi	r2,67
   92b1c:	e0bfff15 	stw	r2,-4(fp)
   92b20:	00002e06 	br	92bdc <OSTaskStkChk+0x1c8>
   92b24:	e0bff817 	ldw	r2,-32(fp)
   92b28:	1080040b 	ldhu	r2,16(r2)
   92b2c:	1080005c 	xori	r2,r2,1
   92b30:	1080004c 	andi	r2,r2,1
   92b34:	1005003a 	cmpeq	r2,r2,zero
   92b38:	1000071e 	bne	r2,zero,92b58 <OSTaskStkChk+0x144>
   92b3c:	e0bffc17 	ldw	r2,-16(fp)
   92b40:	e0bffe15 	stw	r2,-8(fp)
   92b44:	e0bffe17 	ldw	r2,-8(fp)
   92b48:	1001703a 	wrctl	status,r2
   92b4c:	00801144 	movi	r2,69
   92b50:	e0bfff15 	stw	r2,-4(fp)
   92b54:	00002106 	br	92bdc <OSTaskStkChk+0x1c8>
   92b58:	e03ffa15 	stw	zero,-24(fp)
   92b5c:	e0bff817 	ldw	r2,-32(fp)
   92b60:	10800317 	ldw	r2,12(r2)
   92b64:	e0bffb15 	stw	r2,-20(fp)
   92b68:	e0bff817 	ldw	r2,-32(fp)
   92b6c:	10800217 	ldw	r2,8(r2)
   92b70:	e0bff915 	stw	r2,-28(fp)
   92b74:	e0bffc17 	ldw	r2,-16(fp)
   92b78:	e0bffe15 	stw	r2,-8(fp)
   92b7c:	e0bffe17 	ldw	r2,-8(fp)
   92b80:	1001703a 	wrctl	status,r2
   92b84:	e0fff904 	addi	r3,fp,-28
   92b88:	18800017 	ldw	r2,0(r3)
   92b8c:	11000017 	ldw	r4,0(r2)
   92b90:	10800104 	addi	r2,r2,4
   92b94:	18800015 	stw	r2,0(r3)
   92b98:	2004c03a 	cmpne	r2,r4,zero
   92b9c:	1000041e 	bne	r2,zero,92bb0 <OSTaskStkChk+0x19c>
   92ba0:	e0bffa17 	ldw	r2,-24(fp)
   92ba4:	10800044 	addi	r2,r2,1
   92ba8:	e0bffa15 	stw	r2,-24(fp)
   92bac:	003ff506 	br	92b84 <OSTaskStkChk+0x170>
   92bb0:	e0fff717 	ldw	r3,-36(fp)
   92bb4:	e0bffa17 	ldw	r2,-24(fp)
   92bb8:	100490ba 	slli	r2,r2,2
   92bbc:	18800015 	stw	r2,0(r3)
   92bc0:	e13ff717 	ldw	r4,-36(fp)
   92bc4:	e0fffb17 	ldw	r3,-20(fp)
   92bc8:	e0bffa17 	ldw	r2,-24(fp)
   92bcc:	1885c83a 	sub	r2,r3,r2
   92bd0:	100490ba 	slli	r2,r2,2
   92bd4:	20800115 	stw	r2,4(r4)
   92bd8:	e03fff15 	stw	zero,-4(fp)
   92bdc:	e0bfff17 	ldw	r2,-4(fp)
   92be0:	df000a17 	ldw	fp,40(sp)
   92be4:	dec00b04 	addi	sp,sp,44
   92be8:	f800283a 	ret

00092bec <OSTaskSuspend>:
   92bec:	defff704 	addi	sp,sp,-36
   92bf0:	dfc00815 	stw	ra,32(sp)
   92bf4:	df000715 	stw	fp,28(sp)
   92bf8:	df000704 	addi	fp,sp,28
   92bfc:	e13ff905 	stb	r4,-28(fp)
   92c00:	e03ffc15 	stw	zero,-16(fp)
   92c04:	e0bff903 	ldbu	r2,-28(fp)
   92c08:	10800518 	cmpnei	r2,r2,20
   92c0c:	1000031e 	bne	r2,zero,92c1c <OSTaskSuspend+0x30>
   92c10:	008011c4 	movi	r2,71
   92c14:	e0bfff15 	stw	r2,-4(fp)
   92c18:	00006806 	br	92dbc <OSTaskSuspend+0x1d0>
   92c1c:	e0bff903 	ldbu	r2,-28(fp)
   92c20:	10800530 	cmpltui	r2,r2,20
   92c24:	1000061e 	bne	r2,zero,92c40 <OSTaskSuspend+0x54>
   92c28:	e0bff903 	ldbu	r2,-28(fp)
   92c2c:	10803fe0 	cmpeqi	r2,r2,255
   92c30:	1000031e 	bne	r2,zero,92c40 <OSTaskSuspend+0x54>
   92c34:	00800a84 	movi	r2,42
   92c38:	e0bfff15 	stw	r2,-4(fp)
   92c3c:	00005f06 	br	92dbc <OSTaskSuspend+0x1d0>
   92c40:	0005303a 	rdctl	r2,status
   92c44:	e0bffe15 	stw	r2,-8(fp)
   92c48:	e0fffe17 	ldw	r3,-8(fp)
   92c4c:	00bfff84 	movi	r2,-2
   92c50:	1884703a 	and	r2,r3,r2
   92c54:	1001703a 	wrctl	status,r2
   92c58:	e0bffe17 	ldw	r2,-8(fp)
   92c5c:	e0bffd15 	stw	r2,-12(fp)
   92c60:	e0bffd17 	ldw	r2,-12(fp)
   92c64:	e0bffc15 	stw	r2,-16(fp)
   92c68:	e0bff903 	ldbu	r2,-28(fp)
   92c6c:	10803fd8 	cmpnei	r2,r2,255
   92c70:	1000061e 	bne	r2,zero,92c8c <OSTaskSuspend+0xa0>
   92c74:	d0a70417 	ldw	r2,-25584(gp)
   92c78:	10800c83 	ldbu	r2,50(r2)
   92c7c:	e0bff905 	stb	r2,-28(fp)
   92c80:	00800044 	movi	r2,1
   92c84:	e0bff945 	stb	r2,-27(fp)
   92c88:	00000806 	br	92cac <OSTaskSuspend+0xc0>
   92c8c:	d0a70417 	ldw	r2,-25584(gp)
   92c90:	10c00c83 	ldbu	r3,50(r2)
   92c94:	e0bff903 	ldbu	r2,-28(fp)
   92c98:	1880031e 	bne	r3,r2,92ca8 <OSTaskSuspend+0xbc>
   92c9c:	00800044 	movi	r2,1
   92ca0:	e0bff945 	stb	r2,-27(fp)
   92ca4:	00000106 	br	92cac <OSTaskSuspend+0xc0>
   92ca8:	e03ff945 	stb	zero,-27(fp)
   92cac:	00c002b4 	movhi	r3,10
   92cb0:	18d65b04 	addi	r3,r3,22892
   92cb4:	e0bff903 	ldbu	r2,-28(fp)
   92cb8:	100490ba 	slli	r2,r2,2
   92cbc:	10c5883a 	add	r2,r2,r3
   92cc0:	10800017 	ldw	r2,0(r2)
   92cc4:	e0bffa15 	stw	r2,-24(fp)
   92cc8:	e0bffa17 	ldw	r2,-24(fp)
   92ccc:	1004c03a 	cmpne	r2,r2,zero
   92cd0:	1000071e 	bne	r2,zero,92cf0 <OSTaskSuspend+0x104>
   92cd4:	e0bffc17 	ldw	r2,-16(fp)
   92cd8:	e0bffe15 	stw	r2,-8(fp)
   92cdc:	e0bffe17 	ldw	r2,-8(fp)
   92ce0:	1001703a 	wrctl	status,r2
   92ce4:	00801204 	movi	r2,72
   92ce8:	e0bfff15 	stw	r2,-4(fp)
   92cec:	00003306 	br	92dbc <OSTaskSuspend+0x1d0>
   92cf0:	e0bffa17 	ldw	r2,-24(fp)
   92cf4:	10800058 	cmpnei	r2,r2,1
   92cf8:	1000071e 	bne	r2,zero,92d18 <OSTaskSuspend+0x12c>
   92cfc:	e0bffc17 	ldw	r2,-16(fp)
   92d00:	e0bffe15 	stw	r2,-8(fp)
   92d04:	e0bffe17 	ldw	r2,-8(fp)
   92d08:	1001703a 	wrctl	status,r2
   92d0c:	008010c4 	movi	r2,67
   92d10:	e0bfff15 	stw	r2,-4(fp)
   92d14:	00002906 	br	92dbc <OSTaskSuspend+0x1d0>
   92d18:	e0bffa17 	ldw	r2,-24(fp)
   92d1c:	10800d03 	ldbu	r2,52(r2)
   92d20:	e0bffb05 	stb	r2,-20(fp)
   92d24:	e0fffb03 	ldbu	r3,-20(fp)
   92d28:	d0a70184 	addi	r2,gp,-25594
   92d2c:	1889883a 	add	r4,r3,r2
   92d30:	e0fffb03 	ldbu	r3,-20(fp)
   92d34:	d0a70184 	addi	r2,gp,-25594
   92d38:	1887883a 	add	r3,r3,r2
   92d3c:	e0bffa17 	ldw	r2,-24(fp)
   92d40:	10800d43 	ldbu	r2,53(r2)
   92d44:	0084303a 	nor	r2,zero,r2
   92d48:	18c00003 	ldbu	r3,0(r3)
   92d4c:	1884703a 	and	r2,r3,r2
   92d50:	20800005 	stb	r2,0(r4)
   92d54:	e0fffb03 	ldbu	r3,-20(fp)
   92d58:	d0a70184 	addi	r2,gp,-25594
   92d5c:	1885883a 	add	r2,r3,r2
   92d60:	10800003 	ldbu	r2,0(r2)
   92d64:	1004c03a 	cmpne	r2,r2,zero
   92d68:	1000061e 	bne	r2,zero,92d84 <OSTaskSuspend+0x198>
   92d6c:	e0bffa17 	ldw	r2,-24(fp)
   92d70:	10800d83 	ldbu	r2,54(r2)
   92d74:	0084303a 	nor	r2,zero,r2
   92d78:	d0e70143 	ldbu	r3,-25595(gp)
   92d7c:	1884703a 	and	r2,r3,r2
   92d80:	d0a70145 	stb	r2,-25595(gp)
   92d84:	e0fffa17 	ldw	r3,-24(fp)
   92d88:	e0bffa17 	ldw	r2,-24(fp)
   92d8c:	10800c03 	ldbu	r2,48(r2)
   92d90:	10800214 	ori	r2,r2,8
   92d94:	18800c05 	stb	r2,48(r3)
   92d98:	e0bffc17 	ldw	r2,-16(fp)
   92d9c:	e0bffe15 	stw	r2,-8(fp)
   92da0:	e0bffe17 	ldw	r2,-8(fp)
   92da4:	1001703a 	wrctl	status,r2
   92da8:	e0bff943 	ldbu	r2,-27(fp)
   92dac:	10800058 	cmpnei	r2,r2,1
   92db0:	1000011e 	bne	r2,zero,92db8 <OSTaskSuspend+0x1cc>
   92db4:	008d3a00 	call	8d3a0 <OS_Sched>
   92db8:	e03fff15 	stw	zero,-4(fp)
   92dbc:	e0bfff17 	ldw	r2,-4(fp)
   92dc0:	dfc00817 	ldw	ra,32(sp)
   92dc4:	df000717 	ldw	fp,28(sp)
   92dc8:	dec00904 	addi	sp,sp,36
   92dcc:	f800283a 	ret

00092dd0 <OSTaskQuery>:
   92dd0:	defff704 	addi	sp,sp,-36
   92dd4:	dfc00815 	stw	ra,32(sp)
   92dd8:	df000715 	stw	fp,28(sp)
   92ddc:	df000704 	addi	fp,sp,28
   92de0:	e17ffa15 	stw	r5,-24(fp)
   92de4:	e13ff905 	stb	r4,-28(fp)
   92de8:	e03ffc15 	stw	zero,-16(fp)
   92dec:	e0bff903 	ldbu	r2,-28(fp)
   92df0:	10800570 	cmpltui	r2,r2,21
   92df4:	1000061e 	bne	r2,zero,92e10 <OSTaskQuery+0x40>
   92df8:	e0bff903 	ldbu	r2,-28(fp)
   92dfc:	10803fe0 	cmpeqi	r2,r2,255
   92e00:	1000031e 	bne	r2,zero,92e10 <OSTaskQuery+0x40>
   92e04:	00800a84 	movi	r2,42
   92e08:	e0bfff15 	stw	r2,-4(fp)
   92e0c:	00003a06 	br	92ef8 <OSTaskQuery+0x128>
   92e10:	e0bffa17 	ldw	r2,-24(fp)
   92e14:	1004c03a 	cmpne	r2,r2,zero
   92e18:	1000031e 	bne	r2,zero,92e28 <OSTaskQuery+0x58>
   92e1c:	00800244 	movi	r2,9
   92e20:	e0bfff15 	stw	r2,-4(fp)
   92e24:	00003406 	br	92ef8 <OSTaskQuery+0x128>
   92e28:	0005303a 	rdctl	r2,status
   92e2c:	e0bffe15 	stw	r2,-8(fp)
   92e30:	e0fffe17 	ldw	r3,-8(fp)
   92e34:	00bfff84 	movi	r2,-2
   92e38:	1884703a 	and	r2,r3,r2
   92e3c:	1001703a 	wrctl	status,r2
   92e40:	e0bffe17 	ldw	r2,-8(fp)
   92e44:	e0bffd15 	stw	r2,-12(fp)
   92e48:	e0bffd17 	ldw	r2,-12(fp)
   92e4c:	e0bffc15 	stw	r2,-16(fp)
   92e50:	e0bff903 	ldbu	r2,-28(fp)
   92e54:	10803fd8 	cmpnei	r2,r2,255
   92e58:	1000031e 	bne	r2,zero,92e68 <OSTaskQuery+0x98>
   92e5c:	d0a70417 	ldw	r2,-25584(gp)
   92e60:	10800c83 	ldbu	r2,50(r2)
   92e64:	e0bff905 	stb	r2,-28(fp)
   92e68:	00c002b4 	movhi	r3,10
   92e6c:	18d65b04 	addi	r3,r3,22892
   92e70:	e0bff903 	ldbu	r2,-28(fp)
   92e74:	100490ba 	slli	r2,r2,2
   92e78:	10c5883a 	add	r2,r2,r3
   92e7c:	10800017 	ldw	r2,0(r2)
   92e80:	e0bffb15 	stw	r2,-20(fp)
   92e84:	e0bffb17 	ldw	r2,-20(fp)
   92e88:	1004c03a 	cmpne	r2,r2,zero
   92e8c:	1000071e 	bne	r2,zero,92eac <OSTaskQuery+0xdc>
   92e90:	e0bffc17 	ldw	r2,-16(fp)
   92e94:	e0bffe15 	stw	r2,-8(fp)
   92e98:	e0bffe17 	ldw	r2,-8(fp)
   92e9c:	1001703a 	wrctl	status,r2
   92ea0:	00800a44 	movi	r2,41
   92ea4:	e0bfff15 	stw	r2,-4(fp)
   92ea8:	00001306 	br	92ef8 <OSTaskQuery+0x128>
   92eac:	e0bffb17 	ldw	r2,-20(fp)
   92eb0:	10800058 	cmpnei	r2,r2,1
   92eb4:	1000071e 	bne	r2,zero,92ed4 <OSTaskQuery+0x104>
   92eb8:	e0bffc17 	ldw	r2,-16(fp)
   92ebc:	e0bffe15 	stw	r2,-8(fp)
   92ec0:	e0bffe17 	ldw	r2,-8(fp)
   92ec4:	1001703a 	wrctl	status,r2
   92ec8:	008010c4 	movi	r2,67
   92ecc:	e0bfff15 	stw	r2,-4(fp)
   92ed0:	00000906 	br	92ef8 <OSTaskQuery+0x128>
   92ed4:	e13ffa17 	ldw	r4,-24(fp)
   92ed8:	e17ffb17 	ldw	r5,-20(fp)
   92edc:	01801b04 	movi	r6,108
   92ee0:	008d3380 	call	8d338 <OS_MemCopy>
   92ee4:	e0bffc17 	ldw	r2,-16(fp)
   92ee8:	e0bffe15 	stw	r2,-8(fp)
   92eec:	e0bffe17 	ldw	r2,-8(fp)
   92ef0:	1001703a 	wrctl	status,r2
   92ef4:	e03fff15 	stw	zero,-4(fp)
   92ef8:	e0bfff17 	ldw	r2,-4(fp)
   92efc:	dfc00817 	ldw	ra,32(sp)
   92f00:	df000717 	ldw	fp,28(sp)
   92f04:	dec00904 	addi	sp,sp,36
   92f08:	f800283a 	ret

00092f0c <OS_TaskStkClr>:
   92f0c:	defffc04 	addi	sp,sp,-16
   92f10:	df000315 	stw	fp,12(sp)
   92f14:	df000304 	addi	fp,sp,12
   92f18:	e13ffd15 	stw	r4,-12(fp)
   92f1c:	e17ffe15 	stw	r5,-8(fp)
   92f20:	e1bfff0d 	sth	r6,-4(fp)
   92f24:	e0bfff0b 	ldhu	r2,-4(fp)
   92f28:	1080004c 	andi	r2,r2,1
   92f2c:	1005003a 	cmpeq	r2,r2,zero
   92f30:	1000101e 	bne	r2,zero,92f74 <OS_TaskStkClr+0x68>
   92f34:	e0bfff0b 	ldhu	r2,-4(fp)
   92f38:	1080008c 	andi	r2,r2,2
   92f3c:	1005003a 	cmpeq	r2,r2,zero
   92f40:	10000c1e 	bne	r2,zero,92f74 <OS_TaskStkClr+0x68>
   92f44:	e0bffe17 	ldw	r2,-8(fp)
   92f48:	1005003a 	cmpeq	r2,r2,zero
   92f4c:	1000091e 	bne	r2,zero,92f74 <OS_TaskStkClr+0x68>
   92f50:	e0bffe17 	ldw	r2,-8(fp)
   92f54:	10bfffc4 	addi	r2,r2,-1
   92f58:	e0bffe15 	stw	r2,-8(fp)
   92f5c:	e0bffd17 	ldw	r2,-12(fp)
   92f60:	1007883a 	mov	r3,r2
   92f64:	18000015 	stw	zero,0(r3)
   92f68:	10800104 	addi	r2,r2,4
   92f6c:	e0bffd15 	stw	r2,-12(fp)
   92f70:	003ff406 	br	92f44 <OS_TaskStkClr+0x38>
   92f74:	df000317 	ldw	fp,12(sp)
   92f78:	dec00404 	addi	sp,sp,16
   92f7c:	f800283a 	ret

00092f80 <OSTimeDly>:
   92f80:	defffa04 	addi	sp,sp,-24
   92f84:	dfc00515 	stw	ra,20(sp)
   92f88:	df000415 	stw	fp,16(sp)
   92f8c:	df000404 	addi	fp,sp,16
   92f90:	e13ffc0d 	sth	r4,-16(fp)
   92f94:	e03ffd15 	stw	zero,-12(fp)
   92f98:	d0a70043 	ldbu	r2,-25599(gp)
   92f9c:	1005003a 	cmpeq	r2,r2,zero
   92fa0:	1000011e 	bne	r2,zero,92fa8 <OSTimeDly+0x28>
   92fa4:	00003006 	br	93068 <OSTimeDly+0xe8>
   92fa8:	e0bffc0b 	ldhu	r2,-16(fp)
   92fac:	1005003a 	cmpeq	r2,r2,zero
   92fb0:	10002d1e 	bne	r2,zero,93068 <OSTimeDly+0xe8>
   92fb4:	0005303a 	rdctl	r2,status
   92fb8:	e0bfff15 	stw	r2,-4(fp)
   92fbc:	e0ffff17 	ldw	r3,-4(fp)
   92fc0:	00bfff84 	movi	r2,-2
   92fc4:	1884703a 	and	r2,r3,r2
   92fc8:	1001703a 	wrctl	status,r2
   92fcc:	e0bfff17 	ldw	r2,-4(fp)
   92fd0:	e0bffe15 	stw	r2,-8(fp)
   92fd4:	e0bffe17 	ldw	r2,-8(fp)
   92fd8:	e0bffd15 	stw	r2,-12(fp)
   92fdc:	d0a70417 	ldw	r2,-25584(gp)
   92fe0:	10800d03 	ldbu	r2,52(r2)
   92fe4:	e0bffc85 	stb	r2,-14(fp)
   92fe8:	e0fffc83 	ldbu	r3,-14(fp)
   92fec:	d0a70184 	addi	r2,gp,-25594
   92ff0:	1889883a 	add	r4,r3,r2
   92ff4:	e0fffc83 	ldbu	r3,-14(fp)
   92ff8:	d0a70184 	addi	r2,gp,-25594
   92ffc:	1887883a 	add	r3,r3,r2
   93000:	d0a70417 	ldw	r2,-25584(gp)
   93004:	10800d43 	ldbu	r2,53(r2)
   93008:	0084303a 	nor	r2,zero,r2
   9300c:	18c00003 	ldbu	r3,0(r3)
   93010:	1884703a 	and	r2,r3,r2
   93014:	20800005 	stb	r2,0(r4)
   93018:	e0fffc83 	ldbu	r3,-14(fp)
   9301c:	d0a70184 	addi	r2,gp,-25594
   93020:	1885883a 	add	r2,r3,r2
   93024:	10800003 	ldbu	r2,0(r2)
   93028:	1004c03a 	cmpne	r2,r2,zero
   9302c:	1000061e 	bne	r2,zero,93048 <OSTimeDly+0xc8>
   93030:	d0a70417 	ldw	r2,-25584(gp)
   93034:	10800d83 	ldbu	r2,54(r2)
   93038:	0084303a 	nor	r2,zero,r2
   9303c:	d0e70143 	ldbu	r3,-25595(gp)
   93040:	1884703a 	and	r2,r3,r2
   93044:	d0a70145 	stb	r2,-25595(gp)
   93048:	d0e70417 	ldw	r3,-25584(gp)
   9304c:	e0bffc0b 	ldhu	r2,-16(fp)
   93050:	18800b8d 	sth	r2,46(r3)
   93054:	e0bffd17 	ldw	r2,-12(fp)
   93058:	e0bfff15 	stw	r2,-4(fp)
   9305c:	e0bfff17 	ldw	r2,-4(fp)
   93060:	1001703a 	wrctl	status,r2
   93064:	008d3a00 	call	8d3a0 <OS_Sched>
   93068:	dfc00517 	ldw	ra,20(sp)
   9306c:	df000417 	ldw	fp,16(sp)
   93070:	dec00604 	addi	sp,sp,24
   93074:	f800283a 	ret

00093078 <OSTimeDlyHMSM>:
   93078:	defff804 	addi	sp,sp,-32
   9307c:	dfc00715 	stw	ra,28(sp)
   93080:	df000615 	stw	fp,24(sp)
   93084:	dc000515 	stw	r16,20(sp)
   93088:	df000604 	addi	fp,sp,24
   9308c:	e13ffa05 	stb	r4,-24(fp)
   93090:	e17ffa45 	stb	r5,-23(fp)
   93094:	e1bffa85 	stb	r6,-22(fp)
   93098:	e1fffb0d 	sth	r7,-20(fp)
   9309c:	d0a70043 	ldbu	r2,-25599(gp)
   930a0:	1005003a 	cmpeq	r2,r2,zero
   930a4:	1000031e 	bne	r2,zero,930b4 <OSTimeDlyHMSM+0x3c>
   930a8:	00801544 	movi	r2,85
   930ac:	e0bffe15 	stw	r2,-8(fp)
   930b0:	00004b06 	br	931e0 <OSTimeDlyHMSM+0x168>
   930b4:	e0bffa03 	ldbu	r2,-24(fp)
   930b8:	1004c03a 	cmpne	r2,r2,zero
   930bc:	10000c1e 	bne	r2,zero,930f0 <OSTimeDlyHMSM+0x78>
   930c0:	e0bffa43 	ldbu	r2,-23(fp)
   930c4:	1004c03a 	cmpne	r2,r2,zero
   930c8:	1000091e 	bne	r2,zero,930f0 <OSTimeDlyHMSM+0x78>
   930cc:	e0bffa83 	ldbu	r2,-22(fp)
   930d0:	1004c03a 	cmpne	r2,r2,zero
   930d4:	1000061e 	bne	r2,zero,930f0 <OSTimeDlyHMSM+0x78>
   930d8:	e0bffb0b 	ldhu	r2,-20(fp)
   930dc:	1004c03a 	cmpne	r2,r2,zero
   930e0:	1000031e 	bne	r2,zero,930f0 <OSTimeDlyHMSM+0x78>
   930e4:	00801504 	movi	r2,84
   930e8:	e0bffe15 	stw	r2,-8(fp)
   930ec:	00003c06 	br	931e0 <OSTimeDlyHMSM+0x168>
   930f0:	e0bffa43 	ldbu	r2,-23(fp)
   930f4:	10800f30 	cmpltui	r2,r2,60
   930f8:	1000031e 	bne	r2,zero,93108 <OSTimeDlyHMSM+0x90>
   930fc:	00801444 	movi	r2,81
   93100:	e0bffe15 	stw	r2,-8(fp)
   93104:	00003606 	br	931e0 <OSTimeDlyHMSM+0x168>
   93108:	e0bffa83 	ldbu	r2,-22(fp)
   9310c:	10800f30 	cmpltui	r2,r2,60
   93110:	1000031e 	bne	r2,zero,93120 <OSTimeDlyHMSM+0xa8>
   93114:	00801484 	movi	r2,82
   93118:	e0bffe15 	stw	r2,-8(fp)
   9311c:	00003006 	br	931e0 <OSTimeDlyHMSM+0x168>
   93120:	e0bffb0b 	ldhu	r2,-20(fp)
   93124:	1080fa30 	cmpltui	r2,r2,1000
   93128:	1000031e 	bne	r2,zero,93138 <OSTimeDlyHMSM+0xc0>
   9312c:	008014c4 	movi	r2,83
   93130:	e0bffe15 	stw	r2,-8(fp)
   93134:	00002a06 	br	931e0 <OSTimeDlyHMSM+0x168>
   93138:	e13ffa03 	ldbu	r4,-24(fp)
   9313c:	01438404 	movi	r5,3600
   93140:	0081aec0 	call	81aec <__mulsi3>
   93144:	1021883a 	mov	r16,r2
   93148:	e13ffa43 	ldbu	r4,-23(fp)
   9314c:	01400f04 	movi	r5,60
   93150:	0081aec0 	call	81aec <__mulsi3>
   93154:	8087883a 	add	r3,r16,r2
   93158:	e0bffa83 	ldbu	r2,-22(fp)
   9315c:	1889883a 	add	r4,r3,r2
   93160:	0140fa04 	movi	r5,1000
   93164:	0081aec0 	call	81aec <__mulsi3>
   93168:	1021883a 	mov	r16,r2
   9316c:	e13ffb0b 	ldhu	r4,-20(fp)
   93170:	0140fa04 	movi	r5,1000
   93174:	0081aec0 	call	81aec <__mulsi3>
   93178:	1009883a 	mov	r4,r2
   9317c:	0140fa04 	movi	r5,1000
   93180:	0081acc0 	call	81acc <__udivsi3>
   93184:	8085883a 	add	r2,r16,r2
   93188:	e0bffc15 	stw	r2,-16(fp)
   9318c:	e0bffc17 	ldw	r2,-16(fp)
   93190:	1004d43a 	srli	r2,r2,16
   93194:	e0bffd0d 	sth	r2,-12(fp)
   93198:	e0bffc17 	ldw	r2,-16(fp)
   9319c:	10bfffcc 	andi	r2,r2,65535
   931a0:	e0bffc15 	stw	r2,-16(fp)
   931a4:	e0bffc17 	ldw	r2,-16(fp)
   931a8:	113fffcc 	andi	r4,r2,65535
   931ac:	0092f800 	call	92f80 <OSTimeDly>
   931b0:	e0bffd0b 	ldhu	r2,-12(fp)
   931b4:	1005003a 	cmpeq	r2,r2,zero
   931b8:	1000081e 	bne	r2,zero,931dc <OSTimeDlyHMSM+0x164>
   931bc:	01200014 	movui	r4,32768
   931c0:	0092f800 	call	92f80 <OSTimeDly>
   931c4:	01200014 	movui	r4,32768
   931c8:	0092f800 	call	92f80 <OSTimeDly>
   931cc:	e0bffd0b 	ldhu	r2,-12(fp)
   931d0:	10bfffc4 	addi	r2,r2,-1
   931d4:	e0bffd0d 	sth	r2,-12(fp)
   931d8:	003ff506 	br	931b0 <OSTimeDlyHMSM+0x138>
   931dc:	e03ffe15 	stw	zero,-8(fp)
   931e0:	e0bffe17 	ldw	r2,-8(fp)
   931e4:	dfc00717 	ldw	ra,28(sp)
   931e8:	df000617 	ldw	fp,24(sp)
   931ec:	dc000517 	ldw	r16,20(sp)
   931f0:	dec00804 	addi	sp,sp,32
   931f4:	f800283a 	ret

000931f8 <OSTimeDlyResume>:
   931f8:	defff804 	addi	sp,sp,-32
   931fc:	dfc00715 	stw	ra,28(sp)
   93200:	df000615 	stw	fp,24(sp)
   93204:	df000604 	addi	fp,sp,24
   93208:	e13ffa05 	stb	r4,-24(fp)
   9320c:	e03ffc15 	stw	zero,-16(fp)
   93210:	e0bffa03 	ldbu	r2,-24(fp)
   93214:	10800530 	cmpltui	r2,r2,20
   93218:	1000031e 	bne	r2,zero,93228 <OSTimeDlyResume+0x30>
   9321c:	00800a84 	movi	r2,42
   93220:	e0bfff15 	stw	r2,-4(fp)
   93224:	00006506 	br	933bc <OSTimeDlyResume+0x1c4>
   93228:	0005303a 	rdctl	r2,status
   9322c:	e0bffe15 	stw	r2,-8(fp)
   93230:	e0fffe17 	ldw	r3,-8(fp)
   93234:	00bfff84 	movi	r2,-2
   93238:	1884703a 	and	r2,r3,r2
   9323c:	1001703a 	wrctl	status,r2
   93240:	e0bffe17 	ldw	r2,-8(fp)
   93244:	e0bffd15 	stw	r2,-12(fp)
   93248:	e0bffd17 	ldw	r2,-12(fp)
   9324c:	e0bffc15 	stw	r2,-16(fp)
   93250:	00c002b4 	movhi	r3,10
   93254:	18d65b04 	addi	r3,r3,22892
   93258:	e0bffa03 	ldbu	r2,-24(fp)
   9325c:	100490ba 	slli	r2,r2,2
   93260:	10c5883a 	add	r2,r2,r3
   93264:	10800017 	ldw	r2,0(r2)
   93268:	e0bffb15 	stw	r2,-20(fp)
   9326c:	e0bffb17 	ldw	r2,-20(fp)
   93270:	1004c03a 	cmpne	r2,r2,zero
   93274:	1000071e 	bne	r2,zero,93294 <OSTimeDlyResume+0x9c>
   93278:	e0bffc17 	ldw	r2,-16(fp)
   9327c:	e0bffe15 	stw	r2,-8(fp)
   93280:	e0bffe17 	ldw	r2,-8(fp)
   93284:	1001703a 	wrctl	status,r2
   93288:	008010c4 	movi	r2,67
   9328c:	e0bfff15 	stw	r2,-4(fp)
   93290:	00004a06 	br	933bc <OSTimeDlyResume+0x1c4>
   93294:	e0bffb17 	ldw	r2,-20(fp)
   93298:	10800058 	cmpnei	r2,r2,1
   9329c:	1000071e 	bne	r2,zero,932bc <OSTimeDlyResume+0xc4>
   932a0:	e0bffc17 	ldw	r2,-16(fp)
   932a4:	e0bffe15 	stw	r2,-8(fp)
   932a8:	e0bffe17 	ldw	r2,-8(fp)
   932ac:	1001703a 	wrctl	status,r2
   932b0:	008010c4 	movi	r2,67
   932b4:	e0bfff15 	stw	r2,-4(fp)
   932b8:	00004006 	br	933bc <OSTimeDlyResume+0x1c4>
   932bc:	e0bffb17 	ldw	r2,-20(fp)
   932c0:	10800b8b 	ldhu	r2,46(r2)
   932c4:	1004c03a 	cmpne	r2,r2,zero
   932c8:	1000071e 	bne	r2,zero,932e8 <OSTimeDlyResume+0xf0>
   932cc:	e0bffc17 	ldw	r2,-16(fp)
   932d0:	e0bffe15 	stw	r2,-8(fp)
   932d4:	e0bffe17 	ldw	r2,-8(fp)
   932d8:	1001703a 	wrctl	status,r2
   932dc:	00801404 	movi	r2,80
   932e0:	e0bfff15 	stw	r2,-4(fp)
   932e4:	00003506 	br	933bc <OSTimeDlyResume+0x1c4>
   932e8:	e0bffb17 	ldw	r2,-20(fp)
   932ec:	10000b8d 	sth	zero,46(r2)
   932f0:	e0bffb17 	ldw	r2,-20(fp)
   932f4:	10800c03 	ldbu	r2,48(r2)
   932f8:	10800dcc 	andi	r2,r2,55
   932fc:	1005003a 	cmpeq	r2,r2,zero
   93300:	10000a1e 	bne	r2,zero,9332c <OSTimeDlyResume+0x134>
   93304:	e13ffb17 	ldw	r4,-20(fp)
   93308:	e0bffb17 	ldw	r2,-20(fp)
   9330c:	10c00c03 	ldbu	r3,48(r2)
   93310:	00bff204 	movi	r2,-56
   93314:	1884703a 	and	r2,r3,r2
   93318:	20800c05 	stb	r2,48(r4)
   9331c:	e0fffb17 	ldw	r3,-20(fp)
   93320:	00800044 	movi	r2,1
   93324:	18800c45 	stb	r2,49(r3)
   93328:	00000206 	br	93334 <OSTimeDlyResume+0x13c>
   9332c:	e0bffb17 	ldw	r2,-20(fp)
   93330:	10000c45 	stb	zero,49(r2)
   93334:	e0bffb17 	ldw	r2,-20(fp)
   93338:	10800c03 	ldbu	r2,48(r2)
   9333c:	1080020c 	andi	r2,r2,8
   93340:	1004c03a 	cmpne	r2,r2,zero
   93344:	1000181e 	bne	r2,zero,933a8 <OSTimeDlyResume+0x1b0>
   93348:	e0bffb17 	ldw	r2,-20(fp)
   9334c:	d0e70143 	ldbu	r3,-25595(gp)
   93350:	10800d83 	ldbu	r2,54(r2)
   93354:	1884b03a 	or	r2,r3,r2
   93358:	d0a70145 	stb	r2,-25595(gp)
   9335c:	e0bffb17 	ldw	r2,-20(fp)
   93360:	10c00d03 	ldbu	r3,52(r2)
   93364:	d0a70184 	addi	r2,gp,-25594
   93368:	188b883a 	add	r5,r3,r2
   9336c:	e0bffb17 	ldw	r2,-20(fp)
   93370:	10c00d03 	ldbu	r3,52(r2)
   93374:	d0a70184 	addi	r2,gp,-25594
   93378:	1885883a 	add	r2,r3,r2
   9337c:	e0fffb17 	ldw	r3,-20(fp)
   93380:	11000003 	ldbu	r4,0(r2)
   93384:	18800d43 	ldbu	r2,53(r3)
   93388:	2084b03a 	or	r2,r4,r2
   9338c:	28800005 	stb	r2,0(r5)
   93390:	e0bffc17 	ldw	r2,-16(fp)
   93394:	e0bffe15 	stw	r2,-8(fp)
   93398:	e0bffe17 	ldw	r2,-8(fp)
   9339c:	1001703a 	wrctl	status,r2
   933a0:	008d3a00 	call	8d3a0 <OS_Sched>
   933a4:	00000406 	br	933b8 <OSTimeDlyResume+0x1c0>
   933a8:	e0bffc17 	ldw	r2,-16(fp)
   933ac:	e0bffe15 	stw	r2,-8(fp)
   933b0:	e0bffe17 	ldw	r2,-8(fp)
   933b4:	1001703a 	wrctl	status,r2
   933b8:	e03fff15 	stw	zero,-4(fp)
   933bc:	e0bfff17 	ldw	r2,-4(fp)
   933c0:	dfc00717 	ldw	ra,28(sp)
   933c4:	df000617 	ldw	fp,24(sp)
   933c8:	dec00804 	addi	sp,sp,32
   933cc:	f800283a 	ret

000933d0 <OSTimeGet>:
   933d0:	defffb04 	addi	sp,sp,-20
   933d4:	df000415 	stw	fp,16(sp)
   933d8:	df000404 	addi	fp,sp,16
   933dc:	e03ffd15 	stw	zero,-12(fp)
   933e0:	0005303a 	rdctl	r2,status
   933e4:	e0bfff15 	stw	r2,-4(fp)
   933e8:	e0ffff17 	ldw	r3,-4(fp)
   933ec:	00bfff84 	movi	r2,-2
   933f0:	1884703a 	and	r2,r3,r2
   933f4:	1001703a 	wrctl	status,r2
   933f8:	e0bfff17 	ldw	r2,-4(fp)
   933fc:	e0bffe15 	stw	r2,-8(fp)
   93400:	e0bffe17 	ldw	r2,-8(fp)
   93404:	e0bffd15 	stw	r2,-12(fp)
   93408:	d0a70b17 	ldw	r2,-25556(gp)
   9340c:	e0bffc15 	stw	r2,-16(fp)
   93410:	e0bffd17 	ldw	r2,-12(fp)
   93414:	e0bfff15 	stw	r2,-4(fp)
   93418:	e0bfff17 	ldw	r2,-4(fp)
   9341c:	1001703a 	wrctl	status,r2
   93420:	e0bffc17 	ldw	r2,-16(fp)
   93424:	df000417 	ldw	fp,16(sp)
   93428:	dec00504 	addi	sp,sp,20
   9342c:	f800283a 	ret

00093430 <OSTimeSet>:
   93430:	defffb04 	addi	sp,sp,-20
   93434:	df000415 	stw	fp,16(sp)
   93438:	df000404 	addi	fp,sp,16
   9343c:	e13ffc15 	stw	r4,-16(fp)
   93440:	e03ffd15 	stw	zero,-12(fp)
   93444:	0005303a 	rdctl	r2,status
   93448:	e0bfff15 	stw	r2,-4(fp)
   9344c:	e0ffff17 	ldw	r3,-4(fp)
   93450:	00bfff84 	movi	r2,-2
   93454:	1884703a 	and	r2,r3,r2
   93458:	1001703a 	wrctl	status,r2
   9345c:	e0bfff17 	ldw	r2,-4(fp)
   93460:	e0bffe15 	stw	r2,-8(fp)
   93464:	e0bffe17 	ldw	r2,-8(fp)
   93468:	e0bffd15 	stw	r2,-12(fp)
   9346c:	e0bffc17 	ldw	r2,-16(fp)
   93470:	d0a70b15 	stw	r2,-25556(gp)
   93474:	e0bffd17 	ldw	r2,-12(fp)
   93478:	e0bfff15 	stw	r2,-4(fp)
   9347c:	e0bfff17 	ldw	r2,-4(fp)
   93480:	1001703a 	wrctl	status,r2
   93484:	df000417 	ldw	fp,16(sp)
   93488:	dec00504 	addi	sp,sp,20
   9348c:	f800283a 	ret

00093490 <alt_irq_init>:
 * present for backwards-compatibility.
 */

void alt_irq_init ( const void* base )
{
   93490:	defffd04 	addi	sp,sp,-12
   93494:	dfc00215 	stw	ra,8(sp)
   93498:	df000115 	stw	fp,4(sp)
   9349c:	df000104 	addi	fp,sp,4
   934a0:	e13fff15 	stw	r4,-4(fp)
    ALTERA_NIOS2_QSYS_IRQ_INIT ( CPU_0, cpu_0);
   934a4:	00954ec0 	call	954ec <altera_nios2_qsys_irq_init>
   934a8:	00800044 	movi	r2,1
   934ac:	1001703a 	wrctl	status,r2
    alt_irq_cpu_enable_interrupts();
}
   934b0:	dfc00217 	ldw	ra,8(sp)
   934b4:	df000117 	ldw	fp,4(sp)
   934b8:	dec00304 	addi	sp,sp,12
   934bc:	f800283a 	ret

000934c0 <alt_sys_init>:

/*
 * Initialize the non-interrupt controller devices.
 * Called after alt_irq_init().
 */

void alt_sys_init( void )
{
   934c0:	defffe04 	addi	sp,sp,-8
   934c4:	dfc00115 	stw	ra,4(sp)
   934c8:	df000015 	stw	fp,0(sp)
   934cc:	d839883a 	mov	fp,sp
    ALTERA_AVALON_TIMER_INIT ( TIMER, timer);
   934d0:	01000434 	movhi	r4,16
   934d4:	21041004 	addi	r4,r4,4160
   934d8:	000b883a 	mov	r5,zero
   934dc:	000d883a 	mov	r6,zero
   934e0:	01c0fa04 	movi	r7,1000
   934e4:	009438c0 	call	9438c <alt_avalon_timer_sc_init>
    ALTERA_AVALON_JTAG_UART_INIT ( JTAG_UART_0, jtag_uart_0);
   934e8:	01000274 	movhi	r4,9
   934ec:	211e6904 	addi	r4,r4,31140
   934f0:	000b883a 	mov	r5,zero
   934f4:	01800044 	movi	r6,1
   934f8:	00936a80 	call	936a8 <altera_avalon_jtag_uart_init>
   934fc:	01000274 	movhi	r4,9
   93500:	211e5f04 	addi	r4,r4,31100
   93504:	00935400 	call	93540 <alt_dev_reg>
    ALTERA_AVALON_PERFORMANCE_COUNTER_INIT ( PERFORMANCE_COUNTER_0, performance_counter_0);
   93508:	00c00434 	movhi	r3,16
   9350c:	18c40004 	addi	r3,r3,4096
   93510:	00800044 	movi	r2,1
   93514:	18800035 	stwio	r2,0(r3)
    ALTERA_UP_AVALON_CHARACTER_LCD_INIT ( CHARACTER_LCD_0, character_lcd_0);
   93518:	010002b4 	movhi	r4,10
   9351c:	21227a04 	addi	r4,r4,-30232
   93520:	00944b80 	call	944b8 <alt_up_character_lcd_init>
   93524:	010002b4 	movhi	r4,10
   93528:	21227a04 	addi	r4,r4,-30232
   9352c:	00935400 	call	93540 <alt_dev_reg>
}
   93530:	dfc00117 	ldw	ra,4(sp)
   93534:	df000017 	ldw	fp,0(sp)
   93538:	dec00204 	addi	sp,sp,8
   9353c:	f800283a 	ret

00093540 <alt_dev_reg>:
   93540:	defffd04 	addi	sp,sp,-12
   93544:	dfc00215 	stw	ra,8(sp)
   93548:	df000115 	stw	fp,4(sp)
   9354c:	df000104 	addi	fp,sp,4
   93550:	e13fff15 	stw	r4,-4(fp)
   93554:	e13fff17 	ldw	r4,-4(fp)
   93558:	d1600e04 	addi	r5,gp,-32712
   9355c:	0094a580 	call	94a58 <alt_dev_llist_insert>
   93560:	dfc00217 	ldw	ra,8(sp)
   93564:	df000117 	ldw	fp,4(sp)
   93568:	dec00304 	addi	sp,sp,12
   9356c:	f800283a 	ret

00093570 <altera_avalon_jtag_uart_read_fd>:
   93570:	defffa04 	addi	sp,sp,-24
   93574:	dfc00515 	stw	ra,20(sp)
   93578:	df000415 	stw	fp,16(sp)
   9357c:	df000404 	addi	fp,sp,16
   93580:	e13ffc15 	stw	r4,-16(fp)
   93584:	e17ffd15 	stw	r5,-12(fp)
   93588:	e1bffe15 	stw	r6,-8(fp)
   9358c:	e0bffc17 	ldw	r2,-16(fp)
   93590:	10800017 	ldw	r2,0(r2)
   93594:	e0bfff15 	stw	r2,-4(fp)
   93598:	e0bfff17 	ldw	r2,-4(fp)
   9359c:	11000a04 	addi	r4,r2,40
   935a0:	e0bffc17 	ldw	r2,-16(fp)
   935a4:	e17ffd17 	ldw	r5,-12(fp)
   935a8:	e1bffe17 	ldw	r6,-8(fp)
   935ac:	11c00217 	ldw	r7,8(r2)
   935b0:	0093d600 	call	93d60 <altera_avalon_jtag_uart_read>
   935b4:	dfc00517 	ldw	ra,20(sp)
   935b8:	df000417 	ldw	fp,16(sp)
   935bc:	dec00604 	addi	sp,sp,24
   935c0:	f800283a 	ret

000935c4 <altera_avalon_jtag_uart_write_fd>:
   935c4:	defffa04 	addi	sp,sp,-24
   935c8:	dfc00515 	stw	ra,20(sp)
   935cc:	df000415 	stw	fp,16(sp)
   935d0:	df000404 	addi	fp,sp,16
   935d4:	e13ffc15 	stw	r4,-16(fp)
   935d8:	e17ffd15 	stw	r5,-12(fp)
   935dc:	e1bffe15 	stw	r6,-8(fp)
   935e0:	e0bffc17 	ldw	r2,-16(fp)
   935e4:	10800017 	ldw	r2,0(r2)
   935e8:	e0bfff15 	stw	r2,-4(fp)
   935ec:	e0bfff17 	ldw	r2,-4(fp)
   935f0:	11000a04 	addi	r4,r2,40
   935f4:	e0bffc17 	ldw	r2,-16(fp)
   935f8:	e17ffd17 	ldw	r5,-12(fp)
   935fc:	e1bffe17 	ldw	r6,-8(fp)
   93600:	11c00217 	ldw	r7,8(r2)
   93604:	009402c0 	call	9402c <altera_avalon_jtag_uart_write>
   93608:	dfc00517 	ldw	ra,20(sp)
   9360c:	df000417 	ldw	fp,16(sp)
   93610:	dec00604 	addi	sp,sp,24
   93614:	f800283a 	ret

00093618 <altera_avalon_jtag_uart_close_fd>:
   93618:	defffc04 	addi	sp,sp,-16
   9361c:	dfc00315 	stw	ra,12(sp)
   93620:	df000215 	stw	fp,8(sp)
   93624:	df000204 	addi	fp,sp,8
   93628:	e13ffe15 	stw	r4,-8(fp)
   9362c:	e0bffe17 	ldw	r2,-8(fp)
   93630:	10800017 	ldw	r2,0(r2)
   93634:	e0bfff15 	stw	r2,-4(fp)
   93638:	e0bfff17 	ldw	r2,-4(fp)
   9363c:	11000a04 	addi	r4,r2,40
   93640:	e0bffe17 	ldw	r2,-8(fp)
   93644:	11400217 	ldw	r5,8(r2)
   93648:	0093bfc0 	call	93bfc <altera_avalon_jtag_uart_close>
   9364c:	dfc00317 	ldw	ra,12(sp)
   93650:	df000217 	ldw	fp,8(sp)
   93654:	dec00404 	addi	sp,sp,16
   93658:	f800283a 	ret

0009365c <altera_avalon_jtag_uart_ioctl_fd>:
   9365c:	defffa04 	addi	sp,sp,-24
   93660:	dfc00515 	stw	ra,20(sp)
   93664:	df000415 	stw	fp,16(sp)
   93668:	df000404 	addi	fp,sp,16
   9366c:	e13ffc15 	stw	r4,-16(fp)
   93670:	e17ffd15 	stw	r5,-12(fp)
   93674:	e1bffe15 	stw	r6,-8(fp)
   93678:	e0bffc17 	ldw	r2,-16(fp)
   9367c:	10800017 	ldw	r2,0(r2)
   93680:	e0bfff15 	stw	r2,-4(fp)
   93684:	e0bfff17 	ldw	r2,-4(fp)
   93688:	11000a04 	addi	r4,r2,40
   9368c:	e17ffd17 	ldw	r5,-12(fp)
   93690:	e1bffe17 	ldw	r6,-8(fp)
   93694:	0093c680 	call	93c68 <altera_avalon_jtag_uart_ioctl>
   93698:	dfc00517 	ldw	ra,20(sp)
   9369c:	df000417 	ldw	fp,16(sp)
   936a0:	dec00604 	addi	sp,sp,24
   936a4:	f800283a 	ret

000936a8 <altera_avalon_jtag_uart_init>:
   936a8:	defff204 	addi	sp,sp,-56
   936ac:	dfc00d15 	stw	ra,52(sp)
   936b0:	df000c15 	stw	fp,48(sp)
   936b4:	df000c04 	addi	fp,sp,48
   936b8:	e13ff515 	stw	r4,-44(fp)
   936bc:	e17ff615 	stw	r5,-40(fp)
   936c0:	e1bff715 	stw	r6,-36(fp)
   936c4:	e0bff517 	ldw	r2,-44(fp)
   936c8:	10800c04 	addi	r2,r2,48
   936cc:	e0bff815 	stw	r2,-32(fp)
   936d0:	e03ff90d 	sth	zero,-28(fp)
   936d4:	e13ff90b 	ldhu	r4,-28(fp)
   936d8:	e17ffb04 	addi	r5,fp,-20
   936dc:	008dee40 	call	8dee4 <OSFlagCreate>
   936e0:	1007883a 	mov	r3,r2
   936e4:	e0bff817 	ldw	r2,-32(fp)
   936e8:	10c00015 	stw	r3,0(r2)
   936ec:	e0bffb03 	ldbu	r2,-20(fp)
   936f0:	e0bffa15 	stw	r2,-24(fp)
   936f4:	e0bff517 	ldw	r2,-44(fp)
   936f8:	10800a04 	addi	r2,r2,40
   936fc:	e0bff815 	stw	r2,-32(fp)
   93700:	00800044 	movi	r2,1
   93704:	e0bff90d 	sth	r2,-28(fp)
   93708:	e13ff90b 	ldhu	r4,-28(fp)
   9370c:	0090d940 	call	90d94 <OSSemCreate>
   93710:	1007883a 	mov	r3,r2
   93714:	e0bff817 	ldw	r2,-32(fp)
   93718:	10c00015 	stw	r3,0(r2)
   9371c:	e0bff817 	ldw	r2,-32(fp)
   93720:	10800017 	ldw	r2,0(r2)
   93724:	1005003a 	cmpeq	r2,r2,zero
   93728:	1000021e 	bne	r2,zero,93734 <altera_avalon_jtag_uart_init+0x8c>
   9372c:	e03ffe15 	stw	zero,-8(fp)
   93730:	00000206 	br	9373c <altera_avalon_jtag_uart_init+0x94>
   93734:	00bfffc4 	movi	r2,-1
   93738:	e0bffe15 	stw	r2,-8(fp)
   9373c:	e0bffe17 	ldw	r2,-8(fp)
   93740:	e0bffc15 	stw	r2,-16(fp)
   93744:	e0bff517 	ldw	r2,-44(fp)
   93748:	10800b04 	addi	r2,r2,44
   9374c:	e0bff815 	stw	r2,-32(fp)
   93750:	00800044 	movi	r2,1
   93754:	e0bff90d 	sth	r2,-28(fp)
   93758:	e13ff90b 	ldhu	r4,-28(fp)
   9375c:	0090d940 	call	90d94 <OSSemCreate>
   93760:	1007883a 	mov	r3,r2
   93764:	e0bff817 	ldw	r2,-32(fp)
   93768:	10c00015 	stw	r3,0(r2)
   9376c:	e0bff817 	ldw	r2,-32(fp)
   93770:	10800017 	ldw	r2,0(r2)
   93774:	1005003a 	cmpeq	r2,r2,zero
   93778:	1000021e 	bne	r2,zero,93784 <altera_avalon_jtag_uart_init+0xdc>
   9377c:	e03fff15 	stw	zero,-4(fp)
   93780:	00000206 	br	9378c <altera_avalon_jtag_uart_init+0xe4>
   93784:	00bfffc4 	movi	r2,-1
   93788:	e0bfff15 	stw	r2,-4(fp)
   9378c:	e0bfff17 	ldw	r2,-4(fp)
   93790:	e0bffd15 	stw	r2,-12(fp)
   93794:	e0fff517 	ldw	r3,-44(fp)
   93798:	00800044 	movi	r2,1
   9379c:	18800815 	stw	r2,32(r3)
   937a0:	e0bff517 	ldw	r2,-44(fp)
   937a4:	10800017 	ldw	r2,0(r2)
   937a8:	10800104 	addi	r2,r2,4
   937ac:	1007883a 	mov	r3,r2
   937b0:	e0bff517 	ldw	r2,-44(fp)
   937b4:	10800817 	ldw	r2,32(r2)
   937b8:	18800035 	stwio	r2,0(r3)
   937bc:	d8000015 	stw	zero,0(sp)
   937c0:	e13ff617 	ldw	r4,-40(fp)
   937c4:	e17ff717 	ldw	r5,-36(fp)
   937c8:	01800274 	movhi	r6,9
   937cc:	318e0b04 	addi	r6,r6,14380
   937d0:	e1fff517 	ldw	r7,-44(fp)
   937d4:	0094ca80 	call	94ca8 <alt_ic_isr_register>
   937d8:	e0bff517 	ldw	r2,-44(fp)
   937dc:	10000915 	stw	zero,36(r2)
   937e0:	d0a03717 	ldw	r2,-32548(gp)
   937e4:	e0bff815 	stw	r2,-32(fp)
   937e8:	e17ff817 	ldw	r5,-32(fp)
   937ec:	e0bff517 	ldw	r2,-44(fp)
   937f0:	11000204 	addi	r4,r2,8
   937f4:	01800274 	movhi	r6,9
   937f8:	318eba04 	addi	r6,r6,15080
   937fc:	e1fff517 	ldw	r7,-44(fp)
   93800:	00948ec0 	call	948ec <alt_alarm_start>
   93804:	1004403a 	cmpge	r2,r2,zero
   93808:	1000041e 	bne	r2,zero,9381c <altera_avalon_jtag_uart_init+0x174>
   9380c:	e0fff517 	ldw	r3,-44(fp)
   93810:	00a00034 	movhi	r2,32768
   93814:	10bfffc4 	addi	r2,r2,-1
   93818:	18800115 	stw	r2,4(r3)
   9381c:	dfc00d17 	ldw	ra,52(sp)
   93820:	df000c17 	ldw	fp,48(sp)
   93824:	dec00e04 	addi	sp,sp,56
   93828:	f800283a 	ret

0009382c <altera_avalon_jtag_uart_irq>:
   9382c:	defff404 	addi	sp,sp,-48
   93830:	dfc00b15 	stw	ra,44(sp)
   93834:	df000a15 	stw	fp,40(sp)
   93838:	df000a04 	addi	fp,sp,40
   9383c:	e13ff615 	stw	r4,-40(fp)
   93840:	e0bff617 	ldw	r2,-40(fp)
   93844:	e0bff715 	stw	r2,-36(fp)
   93848:	e0bff717 	ldw	r2,-36(fp)
   9384c:	10800017 	ldw	r2,0(r2)
   93850:	e0bff815 	stw	r2,-32(fp)
   93854:	e0bff817 	ldw	r2,-32(fp)
   93858:	10800104 	addi	r2,r2,4
   9385c:	10800037 	ldwio	r2,0(r2)
   93860:	e0bff915 	stw	r2,-28(fp)
   93864:	e0bff917 	ldw	r2,-28(fp)
   93868:	1080c00c 	andi	r2,r2,768
   9386c:	1004c03a 	cmpne	r2,r2,zero
   93870:	1000011e 	bne	r2,zero,93878 <altera_avalon_jtag_uart_irq+0x4c>
   93874:	00009806 	br	93ad8 <altera_avalon_jtag_uart_irq+0x2ac>
   93878:	e0bff917 	ldw	r2,-28(fp)
   9387c:	1080400c 	andi	r2,r2,256
   93880:	1005003a 	cmpeq	r2,r2,zero
   93884:	10004a1e 	bne	r2,zero,939b0 <altera_avalon_jtag_uart_irq+0x184>
   93888:	00800074 	movhi	r2,1
   9388c:	10800004 	addi	r2,r2,0
   93890:	e0bffa15 	stw	r2,-24(fp)
   93894:	e0bff717 	ldw	r2,-36(fp)
   93898:	10800d17 	ldw	r2,52(r2)
   9389c:	10800044 	addi	r2,r2,1
   938a0:	1081ffcc 	andi	r2,r2,2047
   938a4:	e0bffb15 	stw	r2,-20(fp)
   938a8:	e0bff717 	ldw	r2,-36(fp)
   938ac:	10c00e17 	ldw	r3,56(r2)
   938b0:	e0bffb17 	ldw	r2,-20(fp)
   938b4:	1880011e 	bne	r3,r2,938bc <altera_avalon_jtag_uart_irq+0x90>
   938b8:	00002a06 	br	93964 <altera_avalon_jtag_uart_irq+0x138>
   938bc:	e0bff817 	ldw	r2,-32(fp)
   938c0:	10800037 	ldwio	r2,0(r2)
   938c4:	e0bffa15 	stw	r2,-24(fp)
   938c8:	e0bffa17 	ldw	r2,-24(fp)
   938cc:	10a0000c 	andi	r2,r2,32768
   938d0:	1004c03a 	cmpne	r2,r2,zero
   938d4:	1000011e 	bne	r2,zero,938dc <altera_avalon_jtag_uart_irq+0xb0>
   938d8:	00002206 	br	93964 <altera_avalon_jtag_uart_irq+0x138>
   938dc:	e0fff717 	ldw	r3,-36(fp)
   938e0:	e0bff717 	ldw	r2,-36(fp)
   938e4:	10800d17 	ldw	r2,52(r2)
   938e8:	1885883a 	add	r2,r3,r2
   938ec:	10c01104 	addi	r3,r2,68
   938f0:	e0bffa17 	ldw	r2,-24(fp)
   938f4:	18800005 	stb	r2,0(r3)
   938f8:	e0fff717 	ldw	r3,-36(fp)
   938fc:	e0bff717 	ldw	r2,-36(fp)
   93900:	10800d17 	ldw	r2,52(r2)
   93904:	10800044 	addi	r2,r2,1
   93908:	1081ffcc 	andi	r2,r2,2047
   9390c:	18800d15 	stw	r2,52(r3)
   93910:	e0bff717 	ldw	r2,-36(fp)
   93914:	10800c17 	ldw	r2,48(r2)
   93918:	e0bffc15 	stw	r2,-16(fp)
   9391c:	00800044 	movi	r2,1
   93920:	e0bffd0d 	sth	r2,-12(fp)
   93924:	00800044 	movi	r2,1
   93928:	e0bffd85 	stb	r2,-10(fp)
   9392c:	d0a70243 	ldbu	r2,-25591(gp)
   93930:	1005003a 	cmpeq	r2,r2,zero
   93934:	1000081e 	bne	r2,zero,93958 <altera_avalon_jtag_uart_irq+0x12c>
   93938:	e17ffd0b 	ldhu	r5,-12(fp)
   9393c:	e1bffd83 	ldbu	r6,-10(fp)
   93940:	e1ffff04 	addi	r7,fp,-4
   93944:	e13ffc17 	ldw	r4,-16(fp)
   93948:	008eb240 	call	8eb24 <OSFlagPost>
   9394c:	e0bfff03 	ldbu	r2,-4(fp)
   93950:	e0bffe15 	stw	r2,-8(fp)
   93954:	003fcf06 	br	93894 <altera_avalon_jtag_uart_irq+0x68>
   93958:	00800084 	movi	r2,2
   9395c:	e0bffe15 	stw	r2,-8(fp)
   93960:	003fcc06 	br	93894 <altera_avalon_jtag_uart_irq+0x68>
   93964:	e0bffa17 	ldw	r2,-24(fp)
   93968:	10bfffec 	andhi	r2,r2,65535
   9396c:	1005003a 	cmpeq	r2,r2,zero
   93970:	10000f1e 	bne	r2,zero,939b0 <altera_avalon_jtag_uart_irq+0x184>
   93974:	e13ff717 	ldw	r4,-36(fp)
   93978:	e0bff717 	ldw	r2,-36(fp)
   9397c:	10c00817 	ldw	r3,32(r2)
   93980:	00bfff84 	movi	r2,-2
   93984:	1884703a 	and	r2,r3,r2
   93988:	20800815 	stw	r2,32(r4)
   9398c:	e0bff817 	ldw	r2,-32(fp)
   93990:	10800104 	addi	r2,r2,4
   93994:	1007883a 	mov	r3,r2
   93998:	e0bff717 	ldw	r2,-36(fp)
   9399c:	10800817 	ldw	r2,32(r2)
   939a0:	18800035 	stwio	r2,0(r3)
   939a4:	e0bff817 	ldw	r2,-32(fp)
   939a8:	10800104 	addi	r2,r2,4
   939ac:	10800037 	ldwio	r2,0(r2)
   939b0:	e0bff917 	ldw	r2,-28(fp)
   939b4:	1080800c 	andi	r2,r2,512
   939b8:	1005003a 	cmpeq	r2,r2,zero
   939bc:	103fa51e 	bne	r2,zero,93854 <altera_avalon_jtag_uart_irq+0x28>
   939c0:	e0bff917 	ldw	r2,-28(fp)
   939c4:	10bfffec 	andhi	r2,r2,65535
   939c8:	1004d43a 	srli	r2,r2,16
   939cc:	e0bffe15 	stw	r2,-8(fp)
   939d0:	e0bffe17 	ldw	r2,-8(fp)
   939d4:	1005003a 	cmpeq	r2,r2,zero
   939d8:	10002b1e 	bne	r2,zero,93a88 <altera_avalon_jtag_uart_irq+0x25c>
   939dc:	e0bff717 	ldw	r2,-36(fp)
   939e0:	e0fff717 	ldw	r3,-36(fp)
   939e4:	11001017 	ldw	r4,64(r2)
   939e8:	18800f17 	ldw	r2,60(r3)
   939ec:	20802626 	beq	r4,r2,93a88 <altera_avalon_jtag_uart_irq+0x25c>
   939f0:	e13ff817 	ldw	r4,-32(fp)
   939f4:	e0fff717 	ldw	r3,-36(fp)
   939f8:	e0bff717 	ldw	r2,-36(fp)
   939fc:	10801017 	ldw	r2,64(r2)
   93a00:	1885883a 	add	r2,r3,r2
   93a04:	10821104 	addi	r2,r2,2116
   93a08:	10800007 	ldb	r2,0(r2)
   93a0c:	20800035 	stwio	r2,0(r4)
   93a10:	e0fff717 	ldw	r3,-36(fp)
   93a14:	e0bff717 	ldw	r2,-36(fp)
   93a18:	10801017 	ldw	r2,64(r2)
   93a1c:	10800044 	addi	r2,r2,1
   93a20:	1081ffcc 	andi	r2,r2,2047
   93a24:	18801015 	stw	r2,64(r3)
   93a28:	e0bff717 	ldw	r2,-36(fp)
   93a2c:	10800c17 	ldw	r2,48(r2)
   93a30:	e0bffc15 	stw	r2,-16(fp)
   93a34:	00800084 	movi	r2,2
   93a38:	e0bffd0d 	sth	r2,-12(fp)
   93a3c:	00800044 	movi	r2,1
   93a40:	e0bfff05 	stb	r2,-4(fp)
   93a44:	d0a70243 	ldbu	r2,-25591(gp)
   93a48:	1005003a 	cmpeq	r2,r2,zero
   93a4c:	1000081e 	bne	r2,zero,93a70 <altera_avalon_jtag_uart_irq+0x244>
   93a50:	e17ffd0b 	ldhu	r5,-12(fp)
   93a54:	e1bfff03 	ldbu	r6,-4(fp)
   93a58:	e1fffd84 	addi	r7,fp,-10
   93a5c:	e13ffc17 	ldw	r4,-16(fp)
   93a60:	008eb240 	call	8eb24 <OSFlagPost>
   93a64:	e0bffd83 	ldbu	r2,-10(fp)
   93a68:	e0bffb15 	stw	r2,-20(fp)
   93a6c:	00000206 	br	93a78 <altera_avalon_jtag_uart_irq+0x24c>
   93a70:	00800084 	movi	r2,2
   93a74:	e0bffb15 	stw	r2,-20(fp)
   93a78:	e0bffe17 	ldw	r2,-8(fp)
   93a7c:	10bfffc4 	addi	r2,r2,-1
   93a80:	e0bffe15 	stw	r2,-8(fp)
   93a84:	003fd206 	br	939d0 <altera_avalon_jtag_uart_irq+0x1a4>
   93a88:	e0bffe17 	ldw	r2,-8(fp)
   93a8c:	1005003a 	cmpeq	r2,r2,zero
   93a90:	103f701e 	bne	r2,zero,93854 <altera_avalon_jtag_uart_irq+0x28>
   93a94:	e13ff717 	ldw	r4,-36(fp)
   93a98:	e0bff717 	ldw	r2,-36(fp)
   93a9c:	10c00817 	ldw	r3,32(r2)
   93aa0:	00bfff44 	movi	r2,-3
   93aa4:	1884703a 	and	r2,r3,r2
   93aa8:	20800815 	stw	r2,32(r4)
   93aac:	e0bff717 	ldw	r2,-36(fp)
   93ab0:	10800017 	ldw	r2,0(r2)
   93ab4:	10800104 	addi	r2,r2,4
   93ab8:	1007883a 	mov	r3,r2
   93abc:	e0bff717 	ldw	r2,-36(fp)
   93ac0:	10800817 	ldw	r2,32(r2)
   93ac4:	18800035 	stwio	r2,0(r3)
   93ac8:	e0bff817 	ldw	r2,-32(fp)
   93acc:	10800104 	addi	r2,r2,4
   93ad0:	10800037 	ldwio	r2,0(r2)
   93ad4:	003f5f06 	br	93854 <altera_avalon_jtag_uart_irq+0x28>
   93ad8:	dfc00b17 	ldw	ra,44(sp)
   93adc:	df000a17 	ldw	fp,40(sp)
   93ae0:	dec00c04 	addi	sp,sp,48
   93ae4:	f800283a 	ret

00093ae8 <altera_avalon_jtag_uart_timeout>:
   93ae8:	defff704 	addi	sp,sp,-36
   93aec:	dfc00815 	stw	ra,32(sp)
   93af0:	df000715 	stw	fp,28(sp)
   93af4:	df000704 	addi	fp,sp,28
   93af8:	e13ff915 	stw	r4,-28(fp)
   93afc:	e0bff917 	ldw	r2,-28(fp)
   93b00:	e0bffa15 	stw	r2,-24(fp)
   93b04:	e0bffa17 	ldw	r2,-24(fp)
   93b08:	10800017 	ldw	r2,0(r2)
   93b0c:	10800104 	addi	r2,r2,4
   93b10:	10800037 	ldwio	r2,0(r2)
   93b14:	e0bffb15 	stw	r2,-20(fp)
   93b18:	e0bffb17 	ldw	r2,-20(fp)
   93b1c:	1081000c 	andi	r2,r2,1024
   93b20:	1005003a 	cmpeq	r2,r2,zero
   93b24:	10000b1e 	bne	r2,zero,93b54 <altera_avalon_jtag_uart_timeout+0x6c>
   93b28:	e0bffa17 	ldw	r2,-24(fp)
   93b2c:	10800017 	ldw	r2,0(r2)
   93b30:	10800104 	addi	r2,r2,4
   93b34:	1007883a 	mov	r3,r2
   93b38:	e0bffa17 	ldw	r2,-24(fp)
   93b3c:	10800817 	ldw	r2,32(r2)
   93b40:	10810014 	ori	r2,r2,1024
   93b44:	18800035 	stwio	r2,0(r3)
   93b48:	e0bffa17 	ldw	r2,-24(fp)
   93b4c:	10000915 	stw	zero,36(r2)
   93b50:	00002306 	br	93be0 <altera_avalon_jtag_uart_timeout+0xf8>
   93b54:	e0bffa17 	ldw	r2,-24(fp)
   93b58:	10c00917 	ldw	r3,36(r2)
   93b5c:	00a00034 	movhi	r2,32768
   93b60:	10bfff04 	addi	r2,r2,-4
   93b64:	10c01e36 	bltu	r2,r3,93be0 <altera_avalon_jtag_uart_timeout+0xf8>
   93b68:	e0fffa17 	ldw	r3,-24(fp)
   93b6c:	e0bffa17 	ldw	r2,-24(fp)
   93b70:	10800917 	ldw	r2,36(r2)
   93b74:	10800044 	addi	r2,r2,1
   93b78:	18800915 	stw	r2,36(r3)
   93b7c:	e0bffa17 	ldw	r2,-24(fp)
   93b80:	e0fffa17 	ldw	r3,-24(fp)
   93b84:	11000917 	ldw	r4,36(r2)
   93b88:	18800117 	ldw	r2,4(r3)
   93b8c:	20801436 	bltu	r4,r2,93be0 <altera_avalon_jtag_uart_timeout+0xf8>
   93b90:	e0bffa17 	ldw	r2,-24(fp)
   93b94:	10800c17 	ldw	r2,48(r2)
   93b98:	e0bffc15 	stw	r2,-16(fp)
   93b9c:	00800104 	movi	r2,4
   93ba0:	e0bffd0d 	sth	r2,-12(fp)
   93ba4:	00800044 	movi	r2,1
   93ba8:	e0bffd85 	stb	r2,-10(fp)
   93bac:	d0a70243 	ldbu	r2,-25591(gp)
   93bb0:	1005003a 	cmpeq	r2,r2,zero
   93bb4:	1000081e 	bne	r2,zero,93bd8 <altera_avalon_jtag_uart_timeout+0xf0>
   93bb8:	e17ffd0b 	ldhu	r5,-12(fp)
   93bbc:	e1bffd83 	ldbu	r6,-10(fp)
   93bc0:	e1ffff04 	addi	r7,fp,-4
   93bc4:	e13ffc17 	ldw	r4,-16(fp)
   93bc8:	008eb240 	call	8eb24 <OSFlagPost>
   93bcc:	e0bfff03 	ldbu	r2,-4(fp)
   93bd0:	e0bffe15 	stw	r2,-8(fp)
   93bd4:	00000206 	br	93be0 <altera_avalon_jtag_uart_timeout+0xf8>
   93bd8:	00800084 	movi	r2,2
   93bdc:	e0bffe15 	stw	r2,-8(fp)
   93be0:	d0a03717 	ldw	r2,-32548(gp)
   93be4:	e0bffe15 	stw	r2,-8(fp)
   93be8:	e0bffe17 	ldw	r2,-8(fp)
   93bec:	dfc00817 	ldw	ra,32(sp)
   93bf0:	df000717 	ldw	fp,28(sp)
   93bf4:	dec00904 	addi	sp,sp,36
   93bf8:	f800283a 	ret

00093bfc <altera_avalon_jtag_uart_close>:
   93bfc:	defffc04 	addi	sp,sp,-16
   93c00:	df000315 	stw	fp,12(sp)
   93c04:	df000304 	addi	fp,sp,12
   93c08:	e13ffd15 	stw	r4,-12(fp)
   93c0c:	e17ffe15 	stw	r5,-8(fp)
   93c10:	e0bffd17 	ldw	r2,-12(fp)
   93c14:	e0fffd17 	ldw	r3,-12(fp)
   93c18:	11001017 	ldw	r4,64(r2)
   93c1c:	18800f17 	ldw	r2,60(r3)
   93c20:	20800c26 	beq	r4,r2,93c54 <altera_avalon_jtag_uart_close+0x58>
   93c24:	e0bffd17 	ldw	r2,-12(fp)
   93c28:	e0fffd17 	ldw	r3,-12(fp)
   93c2c:	11000917 	ldw	r4,36(r2)
   93c30:	18800117 	ldw	r2,4(r3)
   93c34:	2080072e 	bgeu	r4,r2,93c54 <altera_avalon_jtag_uart_close+0x58>
   93c38:	e0bffe17 	ldw	r2,-8(fp)
   93c3c:	1090000c 	andi	r2,r2,16384
   93c40:	1005003a 	cmpeq	r2,r2,zero
   93c44:	103ff21e 	bne	r2,zero,93c10 <altera_avalon_jtag_uart_close+0x14>
   93c48:	00bffd44 	movi	r2,-11
   93c4c:	e0bfff15 	stw	r2,-4(fp)
   93c50:	00000106 	br	93c58 <altera_avalon_jtag_uart_close+0x5c>
   93c54:	e03fff15 	stw	zero,-4(fp)
   93c58:	e0bfff17 	ldw	r2,-4(fp)
   93c5c:	df000317 	ldw	fp,12(sp)
   93c60:	dec00404 	addi	sp,sp,16
   93c64:	f800283a 	ret

00093c68 <altera_avalon_jtag_uart_ioctl>:
   93c68:	defff704 	addi	sp,sp,-36
   93c6c:	df000815 	stw	fp,32(sp)
   93c70:	df000804 	addi	fp,sp,32
   93c74:	e13ff815 	stw	r4,-32(fp)
   93c78:	e17ff915 	stw	r5,-28(fp)
   93c7c:	e1bffa15 	stw	r6,-24(fp)
   93c80:	00bff9c4 	movi	r2,-25
   93c84:	e0bffb15 	stw	r2,-20(fp)
   93c88:	e0bff917 	ldw	r2,-28(fp)
   93c8c:	e0bfff15 	stw	r2,-4(fp)
   93c90:	e0ffff17 	ldw	r3,-4(fp)
   93c94:	189a8060 	cmpeqi	r2,r3,27137
   93c98:	1000041e 	bne	r2,zero,93cac <altera_avalon_jtag_uart_ioctl+0x44>
   93c9c:	e0ffff17 	ldw	r3,-4(fp)
   93ca0:	189a80a0 	cmpeqi	r2,r3,27138
   93ca4:	10001d1e 	bne	r2,zero,93d1c <altera_avalon_jtag_uart_ioctl+0xb4>
   93ca8:	00002906 	br	93d50 <altera_avalon_jtag_uart_ioctl+0xe8>
   93cac:	e0bff817 	ldw	r2,-32(fp)
   93cb0:	10c00117 	ldw	r3,4(r2)
   93cb4:	00a00034 	movhi	r2,32768
   93cb8:	10bfffc4 	addi	r2,r2,-1
   93cbc:	18802426 	beq	r3,r2,93d50 <altera_avalon_jtag_uart_ioctl+0xe8>
   93cc0:	e0bffa17 	ldw	r2,-24(fp)
   93cc4:	10800017 	ldw	r2,0(r2)
   93cc8:	e0bffc15 	stw	r2,-16(fp)
   93ccc:	e0bff817 	ldw	r2,-32(fp)
   93cd0:	e0bffd15 	stw	r2,-12(fp)
   93cd4:	e0bffc17 	ldw	r2,-16(fp)
   93cd8:	10800090 	cmplti	r2,r2,2
   93cdc:	1000071e 	bne	r2,zero,93cfc <altera_avalon_jtag_uart_ioctl+0x94>
   93ce0:	e0fffc17 	ldw	r3,-16(fp)
   93ce4:	00a00034 	movhi	r2,32768
   93ce8:	10bfffc4 	addi	r2,r2,-1
   93cec:	18800326 	beq	r3,r2,93cfc <altera_avalon_jtag_uart_ioctl+0x94>
   93cf0:	e0fffc17 	ldw	r3,-16(fp)
   93cf4:	e0fffe15 	stw	r3,-8(fp)
   93cf8:	00000306 	br	93d08 <altera_avalon_jtag_uart_ioctl+0xa0>
   93cfc:	00a00034 	movhi	r2,32768
   93d00:	10bfff84 	addi	r2,r2,-2
   93d04:	e0bffe15 	stw	r2,-8(fp)
   93d08:	e0fffe17 	ldw	r3,-8(fp)
   93d0c:	e0bffd17 	ldw	r2,-12(fp)
   93d10:	10c00115 	stw	r3,4(r2)
   93d14:	e03ffb15 	stw	zero,-20(fp)
   93d18:	00000d06 	br	93d50 <altera_avalon_jtag_uart_ioctl+0xe8>
   93d1c:	e0bff817 	ldw	r2,-32(fp)
   93d20:	10c00117 	ldw	r3,4(r2)
   93d24:	00a00034 	movhi	r2,32768
   93d28:	10bfffc4 	addi	r2,r2,-1
   93d2c:	18800826 	beq	r3,r2,93d50 <altera_avalon_jtag_uart_ioctl+0xe8>
   93d30:	e17ffa17 	ldw	r5,-24(fp)
   93d34:	e0bff817 	ldw	r2,-32(fp)
   93d38:	e0fff817 	ldw	r3,-32(fp)
   93d3c:	11000917 	ldw	r4,36(r2)
   93d40:	18800117 	ldw	r2,4(r3)
   93d44:	2085803a 	cmpltu	r2,r4,r2
   93d48:	28800015 	stw	r2,0(r5)
   93d4c:	e03ffb15 	stw	zero,-20(fp)
   93d50:	e0bffb17 	ldw	r2,-20(fp)
   93d54:	df000817 	ldw	fp,32(sp)
   93d58:	dec00904 	addi	sp,sp,36
   93d5c:	f800283a 	ret

00093d60 <altera_avalon_jtag_uart_read>:
   93d60:	deffec04 	addi	sp,sp,-80
   93d64:	dfc01315 	stw	ra,76(sp)
   93d68:	df001215 	stw	fp,72(sp)
   93d6c:	df001204 	addi	fp,sp,72
   93d70:	e13fef15 	stw	r4,-68(fp)
   93d74:	e17ff015 	stw	r5,-64(fp)
   93d78:	e1bff115 	stw	r6,-60(fp)
   93d7c:	e1fff215 	stw	r7,-56(fp)
   93d80:	e0bff017 	ldw	r2,-64(fp)
   93d84:	e0bff315 	stw	r2,-52(fp)
   93d88:	e0bfef17 	ldw	r2,-68(fp)
   93d8c:	10800a17 	ldw	r2,40(r2)
   93d90:	e0bff615 	stw	r2,-40(fp)
   93d94:	e03ff70d 	sth	zero,-36(fp)
   93d98:	e17ff70b 	ldhu	r5,-36(fp)
   93d9c:	e1bff904 	addi	r6,fp,-28
   93da0:	e13ff617 	ldw	r4,-40(fp)
   93da4:	00910ec0 	call	910ec <OSSemPend>
   93da8:	e0bff903 	ldbu	r2,-28(fp)
   93dac:	e0bff815 	stw	r2,-32(fp)
   93db0:	e0bff117 	ldw	r2,-60(fp)
   93db4:	10800050 	cmplti	r2,r2,1
   93db8:	1000661e 	bne	r2,zero,93f54 <altera_avalon_jtag_uart_read+0x1f4>
   93dbc:	e0bfef17 	ldw	r2,-68(fp)
   93dc0:	10800d17 	ldw	r2,52(r2)
   93dc4:	e0bff615 	stw	r2,-40(fp)
   93dc8:	e0bfef17 	ldw	r2,-68(fp)
   93dcc:	10800e17 	ldw	r2,56(r2)
   93dd0:	e0bffa15 	stw	r2,-24(fp)
   93dd4:	e0fff617 	ldw	r3,-40(fp)
   93dd8:	e0bffa17 	ldw	r2,-24(fp)
   93ddc:	18800536 	bltu	r3,r2,93df4 <altera_avalon_jtag_uart_read+0x94>
   93de0:	e0bff617 	ldw	r2,-40(fp)
   93de4:	e0fffa17 	ldw	r3,-24(fp)
   93de8:	10c5c83a 	sub	r2,r2,r3
   93dec:	e0bff515 	stw	r2,-44(fp)
   93df0:	00000406 	br	93e04 <altera_avalon_jtag_uart_read+0xa4>
   93df4:	00820004 	movi	r2,2048
   93df8:	e0fffa17 	ldw	r3,-24(fp)
   93dfc:	10c5c83a 	sub	r2,r2,r3
   93e00:	e0bff515 	stw	r2,-44(fp)
   93e04:	e0bff517 	ldw	r2,-44(fp)
   93e08:	1004c03a 	cmpne	r2,r2,zero
   93e0c:	1000011e 	bne	r2,zero,93e14 <altera_avalon_jtag_uart_read+0xb4>
   93e10:	00001e06 	br	93e8c <altera_avalon_jtag_uart_read+0x12c>
   93e14:	e0fff117 	ldw	r3,-60(fp)
   93e18:	e0bff517 	ldw	r2,-44(fp)
   93e1c:	1880022e 	bgeu	r3,r2,93e28 <altera_avalon_jtag_uart_read+0xc8>
   93e20:	e0bff117 	ldw	r2,-60(fp)
   93e24:	e0bff515 	stw	r2,-44(fp)
   93e28:	e0ffef17 	ldw	r3,-68(fp)
   93e2c:	e0bffa17 	ldw	r2,-24(fp)
   93e30:	1885883a 	add	r2,r3,r2
   93e34:	11401104 	addi	r5,r2,68
   93e38:	e13ff317 	ldw	r4,-52(fp)
   93e3c:	e1bff517 	ldw	r6,-44(fp)
   93e40:	0086a980 	call	86a98 <memcpy>
   93e44:	e0fff317 	ldw	r3,-52(fp)
   93e48:	e0bff517 	ldw	r2,-44(fp)
   93e4c:	1885883a 	add	r2,r3,r2
   93e50:	e0bff315 	stw	r2,-52(fp)
   93e54:	e0fff117 	ldw	r3,-60(fp)
   93e58:	e0bff517 	ldw	r2,-44(fp)
   93e5c:	1885c83a 	sub	r2,r3,r2
   93e60:	e0bff115 	stw	r2,-60(fp)
   93e64:	e13fef17 	ldw	r4,-68(fp)
   93e68:	e0fffa17 	ldw	r3,-24(fp)
   93e6c:	e0bff517 	ldw	r2,-44(fp)
   93e70:	1885883a 	add	r2,r3,r2
   93e74:	1081ffcc 	andi	r2,r2,2047
   93e78:	20800e15 	stw	r2,56(r4)
   93e7c:	e0bff117 	ldw	r2,-60(fp)
   93e80:	10800050 	cmplti	r2,r2,1
   93e84:	1000011e 	bne	r2,zero,93e8c <altera_avalon_jtag_uart_read+0x12c>
   93e88:	003fcc06 	br	93dbc <altera_avalon_jtag_uart_read+0x5c>
   93e8c:	e0fff317 	ldw	r3,-52(fp)
   93e90:	e0bff017 	ldw	r2,-64(fp)
   93e94:	18800126 	beq	r3,r2,93e9c <altera_avalon_jtag_uart_read+0x13c>
   93e98:	00002e06 	br	93f54 <altera_avalon_jtag_uart_read+0x1f4>
   93e9c:	e0bff217 	ldw	r2,-56(fp)
   93ea0:	1090000c 	andi	r2,r2,16384
   93ea4:	1005003a 	cmpeq	r2,r2,zero
   93ea8:	1000011e 	bne	r2,zero,93eb0 <altera_avalon_jtag_uart_read+0x150>
   93eac:	00002906 	br	93f54 <altera_avalon_jtag_uart_read+0x1f4>
   93eb0:	d0a70243 	ldbu	r2,-25591(gp)
   93eb4:	10800058 	cmpnei	r2,r2,1
   93eb8:	1000181e 	bne	r2,zero,93f1c <altera_avalon_jtag_uart_read+0x1bc>
   93ebc:	e0bfef17 	ldw	r2,-68(fp)
   93ec0:	10800c17 	ldw	r2,48(r2)
   93ec4:	e0bffb15 	stw	r2,-20(fp)
   93ec8:	00800144 	movi	r2,5
   93ecc:	e0bff70d 	sth	r2,-36(fp)
   93ed0:	00bfe0c4 	movi	r2,-125
   93ed4:	e0bffc05 	stb	r2,-16(fp)
   93ed8:	e03ffc8d 	sth	zero,-14(fp)
   93edc:	d0a70243 	ldbu	r2,-25591(gp)
   93ee0:	1005003a 	cmpeq	r2,r2,zero
   93ee4:	10000a1e 	bne	r2,zero,93f10 <altera_avalon_jtag_uart_read+0x1b0>
   93ee8:	e17ff70b 	ldhu	r5,-36(fp)
   93eec:	e1bffc03 	ldbu	r6,-16(fp)
   93ef0:	e1fffc8b 	ldhu	r7,-14(fp)
   93ef4:	e0bffe04 	addi	r2,fp,-8
   93ef8:	d8800015 	stw	r2,0(sp)
   93efc:	e13ffb17 	ldw	r4,-20(fp)
   93f00:	008e4fc0 	call	8e4fc <OSFlagPend>
   93f04:	e0bffe03 	ldbu	r2,-8(fp)
   93f08:	e0bffd15 	stw	r2,-12(fp)
   93f0c:	00000d06 	br	93f44 <altera_avalon_jtag_uart_read+0x1e4>
   93f10:	00800084 	movi	r2,2
   93f14:	e0bffd15 	stw	r2,-12(fp)
   93f18:	00000a06 	br	93f44 <altera_avalon_jtag_uart_read+0x1e4>
   93f1c:	e0bfef17 	ldw	r2,-68(fp)
   93f20:	10c00d17 	ldw	r3,52(r2)
   93f24:	e0bff617 	ldw	r2,-40(fp)
   93f28:	1880061e 	bne	r3,r2,93f44 <altera_avalon_jtag_uart_read+0x1e4>
   93f2c:	e0bfef17 	ldw	r2,-68(fp)
   93f30:	e0ffef17 	ldw	r3,-68(fp)
   93f34:	11000917 	ldw	r4,36(r2)
   93f38:	18800117 	ldw	r2,4(r3)
   93f3c:	2080012e 	bgeu	r4,r2,93f44 <altera_avalon_jtag_uart_read+0x1e4>
   93f40:	003ff606 	br	93f1c <altera_avalon_jtag_uart_read+0x1bc>
   93f44:	e0bfef17 	ldw	r2,-68(fp)
   93f48:	10c00d17 	ldw	r3,52(r2)
   93f4c:	e0bff617 	ldw	r2,-40(fp)
   93f50:	18bf971e 	bne	r3,r2,93db0 <altera_avalon_jtag_uart_read+0x50>
   93f54:	e0bfef17 	ldw	r2,-68(fp)
   93f58:	11000a17 	ldw	r4,40(r2)
   93f5c:	00914740 	call	91474 <OSSemPost>
   93f60:	e0fff317 	ldw	r3,-52(fp)
   93f64:	e0bff017 	ldw	r2,-64(fp)
   93f68:	18801a26 	beq	r3,r2,93fd4 <altera_avalon_jtag_uart_read+0x274>
   93f6c:	0005303a 	rdctl	r2,status
   93f70:	e0bffb15 	stw	r2,-20(fp)
   93f74:	e0fffb17 	ldw	r3,-20(fp)
   93f78:	00bfff84 	movi	r2,-2
   93f7c:	1884703a 	and	r2,r3,r2
   93f80:	1001703a 	wrctl	status,r2
   93f84:	e0bffb17 	ldw	r2,-20(fp)
   93f88:	e0bffd15 	stw	r2,-12(fp)
   93f8c:	e0bffd17 	ldw	r2,-12(fp)
   93f90:	e0bff415 	stw	r2,-48(fp)
   93f94:	e0ffef17 	ldw	r3,-68(fp)
   93f98:	e0bfef17 	ldw	r2,-68(fp)
   93f9c:	10800817 	ldw	r2,32(r2)
   93fa0:	10800054 	ori	r2,r2,1
   93fa4:	18800815 	stw	r2,32(r3)
   93fa8:	e0bfef17 	ldw	r2,-68(fp)
   93fac:	10800017 	ldw	r2,0(r2)
   93fb0:	10800104 	addi	r2,r2,4
   93fb4:	1007883a 	mov	r3,r2
   93fb8:	e0bfef17 	ldw	r2,-68(fp)
   93fbc:	10800817 	ldw	r2,32(r2)
   93fc0:	18800035 	stwio	r2,0(r3)
   93fc4:	e0bff417 	ldw	r2,-48(fp)
   93fc8:	e0bffd15 	stw	r2,-12(fp)
   93fcc:	e0bffd17 	ldw	r2,-12(fp)
   93fd0:	1001703a 	wrctl	status,r2
   93fd4:	e0fff317 	ldw	r3,-52(fp)
   93fd8:	e0bff017 	ldw	r2,-64(fp)
   93fdc:	18800526 	beq	r3,r2,93ff4 <altera_avalon_jtag_uart_read+0x294>
   93fe0:	e0bff317 	ldw	r2,-52(fp)
   93fe4:	e0fff017 	ldw	r3,-64(fp)
   93fe8:	10c5c83a 	sub	r2,r2,r3
   93fec:	e0bfff15 	stw	r2,-4(fp)
   93ff0:	00000906 	br	94018 <altera_avalon_jtag_uart_read+0x2b8>
   93ff4:	e0bff217 	ldw	r2,-56(fp)
   93ff8:	1090000c 	andi	r2,r2,16384
   93ffc:	1005003a 	cmpeq	r2,r2,zero
   94000:	1000031e 	bne	r2,zero,94010 <altera_avalon_jtag_uart_read+0x2b0>
   94004:	00bffd44 	movi	r2,-11
   94008:	e0bfff15 	stw	r2,-4(fp)
   9400c:	00000206 	br	94018 <altera_avalon_jtag_uart_read+0x2b8>
   94010:	00bffec4 	movi	r2,-5
   94014:	e0bfff15 	stw	r2,-4(fp)
   94018:	e0bfff17 	ldw	r2,-4(fp)
   9401c:	dfc01317 	ldw	ra,76(sp)
   94020:	df001217 	ldw	fp,72(sp)
   94024:	dec01404 	addi	sp,sp,80
   94028:	f800283a 	ret

0009402c <altera_avalon_jtag_uart_write>:
   9402c:	deffec04 	addi	sp,sp,-80
   94030:	dfc01315 	stw	ra,76(sp)
   94034:	df001215 	stw	fp,72(sp)
   94038:	df001204 	addi	fp,sp,72
   9403c:	e13fef15 	stw	r4,-68(fp)
   94040:	e17ff015 	stw	r5,-64(fp)
   94044:	e1bff115 	stw	r6,-60(fp)
   94048:	e1fff215 	stw	r7,-56(fp)
   9404c:	e03ff415 	stw	zero,-48(fp)
   94050:	e0bff017 	ldw	r2,-64(fp)
   94054:	e0bff715 	stw	r2,-36(fp)
   94058:	e0bfef17 	ldw	r2,-68(fp)
   9405c:	10800b17 	ldw	r2,44(r2)
   94060:	e0bff815 	stw	r2,-32(fp)
   94064:	e03ff90d 	sth	zero,-28(fp)
   94068:	e17ff90b 	ldhu	r5,-28(fp)
   9406c:	e1bffb04 	addi	r6,fp,-20
   94070:	e13ff817 	ldw	r4,-32(fp)
   94074:	00910ec0 	call	910ec <OSSemPend>
   94078:	e0bffb03 	ldbu	r2,-20(fp)
   9407c:	e0bffa15 	stw	r2,-24(fp)
   94080:	e0bff117 	ldw	r2,-60(fp)
   94084:	10800050 	cmplti	r2,r2,1
   94088:	10003a1e 	bne	r2,zero,94174 <altera_avalon_jtag_uart_write+0x148>
   9408c:	e0bfef17 	ldw	r2,-68(fp)
   94090:	10800f17 	ldw	r2,60(r2)
   94094:	e0bff315 	stw	r2,-52(fp)
   94098:	e0bfef17 	ldw	r2,-68(fp)
   9409c:	10801017 	ldw	r2,64(r2)
   940a0:	e0bff415 	stw	r2,-48(fp)
   940a4:	e0fff317 	ldw	r3,-52(fp)
   940a8:	e0bff417 	ldw	r2,-48(fp)
   940ac:	1880062e 	bgeu	r3,r2,940c8 <altera_avalon_jtag_uart_write+0x9c>
   940b0:	e0fff417 	ldw	r3,-48(fp)
   940b4:	e0bff317 	ldw	r2,-52(fp)
   940b8:	1885c83a 	sub	r2,r3,r2
   940bc:	10bfffc4 	addi	r2,r2,-1
   940c0:	e0bff515 	stw	r2,-44(fp)
   940c4:	00000c06 	br	940f8 <altera_avalon_jtag_uart_write+0xcc>
   940c8:	e0bff417 	ldw	r2,-48(fp)
   940cc:	1005003a 	cmpeq	r2,r2,zero
   940d0:	1000051e 	bne	r2,zero,940e8 <altera_avalon_jtag_uart_write+0xbc>
   940d4:	00820004 	movi	r2,2048
   940d8:	e0fff317 	ldw	r3,-52(fp)
   940dc:	10c5c83a 	sub	r2,r2,r3
   940e0:	e0bff515 	stw	r2,-44(fp)
   940e4:	00000406 	br	940f8 <altera_avalon_jtag_uart_write+0xcc>
   940e8:	0081ffc4 	movi	r2,2047
   940ec:	e0fff317 	ldw	r3,-52(fp)
   940f0:	10c5c83a 	sub	r2,r2,r3
   940f4:	e0bff515 	stw	r2,-44(fp)
   940f8:	e0bff517 	ldw	r2,-44(fp)
   940fc:	1004c03a 	cmpne	r2,r2,zero
   94100:	1000011e 	bne	r2,zero,94108 <altera_avalon_jtag_uart_write+0xdc>
   94104:	00001b06 	br	94174 <altera_avalon_jtag_uart_write+0x148>
   94108:	e0fff117 	ldw	r3,-60(fp)
   9410c:	e0bff517 	ldw	r2,-44(fp)
   94110:	1880022e 	bgeu	r3,r2,9411c <altera_avalon_jtag_uart_write+0xf0>
   94114:	e0bff117 	ldw	r2,-60(fp)
   94118:	e0bff515 	stw	r2,-44(fp)
   9411c:	e0ffef17 	ldw	r3,-68(fp)
   94120:	e0bff317 	ldw	r2,-52(fp)
   94124:	1885883a 	add	r2,r3,r2
   94128:	11021104 	addi	r4,r2,2116
   9412c:	e17ff017 	ldw	r5,-64(fp)
   94130:	e1bff517 	ldw	r6,-44(fp)
   94134:	0086a980 	call	86a98 <memcpy>
   94138:	e0fff017 	ldw	r3,-64(fp)
   9413c:	e0bff517 	ldw	r2,-44(fp)
   94140:	1885883a 	add	r2,r3,r2
   94144:	e0bff015 	stw	r2,-64(fp)
   94148:	e0fff117 	ldw	r3,-60(fp)
   9414c:	e0bff517 	ldw	r2,-44(fp)
   94150:	1885c83a 	sub	r2,r3,r2
   94154:	e0bff115 	stw	r2,-60(fp)
   94158:	e13fef17 	ldw	r4,-68(fp)
   9415c:	e0fff317 	ldw	r3,-52(fp)
   94160:	e0bff517 	ldw	r2,-44(fp)
   94164:	1885883a 	add	r2,r3,r2
   94168:	1081ffcc 	andi	r2,r2,2047
   9416c:	20800f15 	stw	r2,60(r4)
   94170:	003fc306 	br	94080 <altera_avalon_jtag_uart_write+0x54>
   94174:	0005303a 	rdctl	r2,status
   94178:	e0bffc15 	stw	r2,-16(fp)
   9417c:	e0fffc17 	ldw	r3,-16(fp)
   94180:	00bfff84 	movi	r2,-2
   94184:	1884703a 	and	r2,r3,r2
   94188:	1001703a 	wrctl	status,r2
   9418c:	e0bffc17 	ldw	r2,-16(fp)
   94190:	e0bff815 	stw	r2,-32(fp)
   94194:	e0bff817 	ldw	r2,-32(fp)
   94198:	e0bff615 	stw	r2,-40(fp)
   9419c:	e0ffef17 	ldw	r3,-68(fp)
   941a0:	e0bfef17 	ldw	r2,-68(fp)
   941a4:	10800817 	ldw	r2,32(r2)
   941a8:	10800094 	ori	r2,r2,2
   941ac:	18800815 	stw	r2,32(r3)
   941b0:	e0bfef17 	ldw	r2,-68(fp)
   941b4:	10800017 	ldw	r2,0(r2)
   941b8:	10800104 	addi	r2,r2,4
   941bc:	1007883a 	mov	r3,r2
   941c0:	e0bfef17 	ldw	r2,-68(fp)
   941c4:	10800817 	ldw	r2,32(r2)
   941c8:	18800035 	stwio	r2,0(r3)
   941cc:	e0bff617 	ldw	r2,-40(fp)
   941d0:	e0bffc15 	stw	r2,-16(fp)
   941d4:	e0bffc17 	ldw	r2,-16(fp)
   941d8:	1001703a 	wrctl	status,r2
   941dc:	e0bff117 	ldw	r2,-60(fp)
   941e0:	10800050 	cmplti	r2,r2,1
   941e4:	10002f1e 	bne	r2,zero,942a4 <altera_avalon_jtag_uart_write+0x278>
   941e8:	e0bff217 	ldw	r2,-56(fp)
   941ec:	1090000c 	andi	r2,r2,16384
   941f0:	1005003a 	cmpeq	r2,r2,zero
   941f4:	1000011e 	bne	r2,zero,941fc <altera_avalon_jtag_uart_write+0x1d0>
   941f8:	00002e06 	br	942b4 <altera_avalon_jtag_uart_write+0x288>
   941fc:	d0a70243 	ldbu	r2,-25591(gp)
   94200:	10800058 	cmpnei	r2,r2,1
   94204:	1000181e 	bne	r2,zero,94268 <altera_avalon_jtag_uart_write+0x23c>
   94208:	e0bfef17 	ldw	r2,-68(fp)
   9420c:	10800c17 	ldw	r2,48(r2)
   94210:	e0bffc15 	stw	r2,-16(fp)
   94214:	00800184 	movi	r2,6
   94218:	e0bff90d 	sth	r2,-28(fp)
   9421c:	00bfe0c4 	movi	r2,-125
   94220:	e0bffd05 	stb	r2,-12(fp)
   94224:	e03ffd8d 	sth	zero,-10(fp)
   94228:	d0a70243 	ldbu	r2,-25591(gp)
   9422c:	1005003a 	cmpeq	r2,r2,zero
   94230:	10000a1e 	bne	r2,zero,9425c <altera_avalon_jtag_uart_write+0x230>
   94234:	e17ff90b 	ldhu	r5,-28(fp)
   94238:	e1bffd03 	ldbu	r6,-12(fp)
   9423c:	e1fffd8b 	ldhu	r7,-10(fp)
   94240:	e0bffe04 	addi	r2,fp,-8
   94244:	d8800015 	stw	r2,0(sp)
   94248:	e13ffc17 	ldw	r4,-16(fp)
   9424c:	008e4fc0 	call	8e4fc <OSFlagPend>
   94250:	e0bffe03 	ldbu	r2,-8(fp)
   94254:	e0bff815 	stw	r2,-32(fp)
   94258:	00000d06 	br	94290 <altera_avalon_jtag_uart_write+0x264>
   9425c:	00800084 	movi	r2,2
   94260:	e0bff815 	stw	r2,-32(fp)
   94264:	00000a06 	br	94290 <altera_avalon_jtag_uart_write+0x264>
   94268:	e0bfef17 	ldw	r2,-68(fp)
   9426c:	10c01017 	ldw	r3,64(r2)
   94270:	e0bff417 	ldw	r2,-48(fp)
   94274:	1880061e 	bne	r3,r2,94290 <altera_avalon_jtag_uart_write+0x264>
   94278:	e0bfef17 	ldw	r2,-68(fp)
   9427c:	e0ffef17 	ldw	r3,-68(fp)
   94280:	11000917 	ldw	r4,36(r2)
   94284:	18800117 	ldw	r2,4(r3)
   94288:	2080012e 	bgeu	r4,r2,94290 <altera_avalon_jtag_uart_write+0x264>
   9428c:	003ff606 	br	94268 <altera_avalon_jtag_uart_write+0x23c>
   94290:	e0bfef17 	ldw	r2,-68(fp)
   94294:	10c01017 	ldw	r3,64(r2)
   94298:	e0bff417 	ldw	r2,-48(fp)
   9429c:	1880011e 	bne	r3,r2,942a4 <altera_avalon_jtag_uart_write+0x278>
   942a0:	00000406 	br	942b4 <altera_avalon_jtag_uart_write+0x288>
   942a4:	e0bff117 	ldw	r2,-60(fp)
   942a8:	10800050 	cmplti	r2,r2,1
   942ac:	1000011e 	bne	r2,zero,942b4 <altera_avalon_jtag_uart_write+0x288>
   942b0:	003f7306 	br	94080 <altera_avalon_jtag_uart_write+0x54>
   942b4:	e0bfef17 	ldw	r2,-68(fp)
   942b8:	11000b17 	ldw	r4,44(r2)
   942bc:	00914740 	call	91474 <OSSemPost>
   942c0:	e0fff017 	ldw	r3,-64(fp)
   942c4:	e0bff717 	ldw	r2,-36(fp)
   942c8:	18800526 	beq	r3,r2,942e0 <altera_avalon_jtag_uart_write+0x2b4>
   942cc:	e0bff017 	ldw	r2,-64(fp)
   942d0:	e0fff717 	ldw	r3,-36(fp)
   942d4:	10c5c83a 	sub	r2,r2,r3
   942d8:	e0bfff15 	stw	r2,-4(fp)
   942dc:	00000906 	br	94304 <altera_avalon_jtag_uart_write+0x2d8>
   942e0:	e0bff217 	ldw	r2,-56(fp)
   942e4:	1090000c 	andi	r2,r2,16384
   942e8:	1005003a 	cmpeq	r2,r2,zero
   942ec:	1000031e 	bne	r2,zero,942fc <altera_avalon_jtag_uart_write+0x2d0>
   942f0:	00bffd44 	movi	r2,-11
   942f4:	e0bfff15 	stw	r2,-4(fp)
   942f8:	00000206 	br	94304 <altera_avalon_jtag_uart_write+0x2d8>
   942fc:	00bffec4 	movi	r2,-5
   94300:	e0bfff15 	stw	r2,-4(fp)
   94304:	e0bfff17 	ldw	r2,-4(fp)
   94308:	dfc01317 	ldw	ra,76(sp)
   9430c:	df001217 	ldw	fp,72(sp)
   94310:	dec01404 	addi	sp,sp,80
   94314:	f800283a 	ret

00094318 <alt_avalon_timer_sc_irq>:
   94318:	defffa04 	addi	sp,sp,-24
   9431c:	dfc00515 	stw	ra,20(sp)
   94320:	df000415 	stw	fp,16(sp)
   94324:	df000404 	addi	fp,sp,16
   94328:	e13ffc15 	stw	r4,-16(fp)
   9432c:	e0bffc17 	ldw	r2,-16(fp)
   94330:	10000035 	stwio	zero,0(r2)
   94334:	e0bffc17 	ldw	r2,-16(fp)
   94338:	10800104 	addi	r2,r2,4
   9433c:	10800037 	ldwio	r2,0(r2)
   94340:	0005303a 	rdctl	r2,status
   94344:	e0bfff15 	stw	r2,-4(fp)
   94348:	e0ffff17 	ldw	r3,-4(fp)
   9434c:	00bfff84 	movi	r2,-2
   94350:	1884703a 	and	r2,r3,r2
   94354:	1001703a 	wrctl	status,r2
   94358:	e0bfff17 	ldw	r2,-4(fp)
   9435c:	e0bffe15 	stw	r2,-8(fp)
   94360:	e0bffe17 	ldw	r2,-8(fp)
   94364:	e0bffd15 	stw	r2,-12(fp)
   94368:	00953e80 	call	953e8 <alt_tick>
   9436c:	e0bffd17 	ldw	r2,-12(fp)
   94370:	e0bfff15 	stw	r2,-4(fp)
   94374:	e0bfff17 	ldw	r2,-4(fp)
   94378:	1001703a 	wrctl	status,r2
   9437c:	dfc00517 	ldw	ra,20(sp)
   94380:	df000417 	ldw	fp,16(sp)
   94384:	dec00604 	addi	sp,sp,24
   94388:	f800283a 	ret

0009438c <alt_avalon_timer_sc_init>:
   9438c:	defff704 	addi	sp,sp,-36
   94390:	dfc00815 	stw	ra,32(sp)
   94394:	df000715 	stw	fp,28(sp)
   94398:	df000704 	addi	fp,sp,28
   9439c:	e13ffa15 	stw	r4,-24(fp)
   943a0:	e17ffb15 	stw	r5,-20(fp)
   943a4:	e1bffc15 	stw	r6,-16(fp)
   943a8:	e1fffd15 	stw	r7,-12(fp)
   943ac:	e0bffd17 	ldw	r2,-12(fp)
   943b0:	e0bffe15 	stw	r2,-8(fp)
   943b4:	d0a03717 	ldw	r2,-32548(gp)
   943b8:	1004c03a 	cmpne	r2,r2,zero
   943bc:	1000041e 	bne	r2,zero,943d0 <alt_avalon_timer_sc_init+0x44>
   943c0:	e0bffe17 	ldw	r2,-8(fp)
   943c4:	d0a03715 	stw	r2,-32548(gp)
   943c8:	e03fff15 	stw	zero,-4(fp)
   943cc:	00000206 	br	943d8 <alt_avalon_timer_sc_init+0x4c>
   943d0:	00bfffc4 	movi	r2,-1
   943d4:	e0bfff15 	stw	r2,-4(fp)
   943d8:	e0bffa17 	ldw	r2,-24(fp)
   943dc:	10800104 	addi	r2,r2,4
   943e0:	1007883a 	mov	r3,r2
   943e4:	008001c4 	movi	r2,7
   943e8:	18800035 	stwio	r2,0(r3)
   943ec:	d8000015 	stw	zero,0(sp)
   943f0:	e13ffb17 	ldw	r4,-20(fp)
   943f4:	e17ffc17 	ldw	r5,-16(fp)
   943f8:	01800274 	movhi	r6,9
   943fc:	3190c604 	addi	r6,r6,17176
   94400:	e1fffa17 	ldw	r7,-24(fp)
   94404:	0094ca80 	call	94ca8 <alt_ic_isr_register>
   94408:	dfc00817 	ldw	ra,32(sp)
   9440c:	df000717 	ldw	fp,28(sp)
   94410:	dec00904 	addi	sp,sp,36
   94414:	f800283a 	ret

00094418 <get_DDRAM_addr>:
   94418:	defffc04 	addi	sp,sp,-16
   9441c:	df000315 	stw	fp,12(sp)
   94420:	df000304 	addi	fp,sp,12
   94424:	e13ffd15 	stw	r4,-12(fp)
   94428:	e17ffe15 	stw	r5,-8(fp)
   9442c:	e03fff05 	stb	zero,-4(fp)
   94430:	e0bffe17 	ldw	r2,-8(fp)
   94434:	1004c03a 	cmpne	r2,r2,zero
   94438:	1000051e 	bne	r2,zero,94450 <get_DDRAM_addr+0x38>
   9443c:	e0bffd17 	ldw	r2,-12(fp)
   94440:	e0ffff03 	ldbu	r3,-4(fp)
   94444:	1884b03a 	or	r2,r3,r2
   94448:	e0bfff05 	stb	r2,-4(fp)
   9444c:	00000706 	br	9446c <get_DDRAM_addr+0x54>
   94450:	e0bffd17 	ldw	r2,-12(fp)
   94454:	e0ffff03 	ldbu	r3,-4(fp)
   94458:	1884b03a 	or	r2,r3,r2
   9445c:	e0bfff05 	stb	r2,-4(fp)
   94460:	e0bfff03 	ldbu	r2,-4(fp)
   94464:	10801014 	ori	r2,r2,64
   94468:	e0bfff05 	stb	r2,-4(fp)
   9446c:	e0ffff03 	ldbu	r3,-4(fp)
   94470:	00bfe004 	movi	r2,-128
   94474:	1884b03a 	or	r2,r3,r2
   94478:	10803fcc 	andi	r2,r2,255
   9447c:	df000317 	ldw	fp,12(sp)
   94480:	dec00404 	addi	sp,sp,16
   94484:	f800283a 	ret

00094488 <alt_up_character_lcd_send_cmd>:
   94488:	defffd04 	addi	sp,sp,-12
   9448c:	df000215 	stw	fp,8(sp)
   94490:	df000204 	addi	fp,sp,8
   94494:	e13ffe15 	stw	r4,-8(fp)
   94498:	e17fff05 	stb	r5,-4(fp)
   9449c:	e0bffe17 	ldw	r2,-8(fp)
   944a0:	10c00a17 	ldw	r3,40(r2)
   944a4:	e0bfff03 	ldbu	r2,-4(fp)
   944a8:	18800025 	stbio	r2,0(r3)
   944ac:	df000217 	ldw	fp,8(sp)
   944b0:	dec00304 	addi	sp,sp,12
   944b4:	f800283a 	ret

000944b8 <alt_up_character_lcd_init>:
   944b8:	defffe04 	addi	sp,sp,-8
   944bc:	df000115 	stw	fp,4(sp)
   944c0:	df000104 	addi	fp,sp,4
   944c4:	e13fff15 	stw	r4,-4(fp)
   944c8:	e0bfff17 	ldw	r2,-4(fp)
   944cc:	10c00a17 	ldw	r3,40(r2)
   944d0:	00800044 	movi	r2,1
   944d4:	18800025 	stbio	r2,0(r3)
   944d8:	df000117 	ldw	fp,4(sp)
   944dc:	dec00204 	addi	sp,sp,8
   944e0:	f800283a 	ret

000944e4 <alt_up_character_lcd_open_dev>:
   944e4:	defffc04 	addi	sp,sp,-16
   944e8:	dfc00315 	stw	ra,12(sp)
   944ec:	df000215 	stw	fp,8(sp)
   944f0:	df000204 	addi	fp,sp,8
   944f4:	e13ffe15 	stw	r4,-8(fp)
   944f8:	e13ffe17 	ldw	r4,-8(fp)
   944fc:	d1600e04 	addi	r5,gp,-32712
   94500:	0094c000 	call	94c00 <alt_find_dev>
   94504:	e0bfff15 	stw	r2,-4(fp)
   94508:	e0bfff17 	ldw	r2,-4(fp)
   9450c:	dfc00317 	ldw	ra,12(sp)
   94510:	df000217 	ldw	fp,8(sp)
   94514:	dec00404 	addi	sp,sp,16
   94518:	f800283a 	ret

0009451c <alt_up_character_lcd_write>:
   9451c:	defffb04 	addi	sp,sp,-20
   94520:	df000415 	stw	fp,16(sp)
   94524:	df000404 	addi	fp,sp,16
   94528:	e13ffc15 	stw	r4,-16(fp)
   9452c:	e17ffd15 	stw	r5,-12(fp)
   94530:	e1bffe15 	stw	r6,-8(fp)
   94534:	e03fff15 	stw	zero,-4(fp)
   94538:	e0ffff17 	ldw	r3,-4(fp)
   9453c:	e0bffe17 	ldw	r2,-8(fp)
   94540:	18800d2e 	bgeu	r3,r2,94578 <alt_up_character_lcd_write+0x5c>
   94544:	e0bffc17 	ldw	r2,-16(fp)
   94548:	10800a17 	ldw	r2,40(r2)
   9454c:	10800044 	addi	r2,r2,1
   94550:	1009883a 	mov	r4,r2
   94554:	e0fffd17 	ldw	r3,-12(fp)
   94558:	e0bfff17 	ldw	r2,-4(fp)
   9455c:	1885883a 	add	r2,r3,r2
   94560:	10800007 	ldb	r2,0(r2)
   94564:	20800025 	stbio	r2,0(r4)
   94568:	e0bfff17 	ldw	r2,-4(fp)
   9456c:	10800044 	addi	r2,r2,1
   94570:	e0bfff15 	stw	r2,-4(fp)
   94574:	003ff006 	br	94538 <alt_up_character_lcd_write+0x1c>
   94578:	df000417 	ldw	fp,16(sp)
   9457c:	dec00504 	addi	sp,sp,20
   94580:	f800283a 	ret

00094584 <alt_up_character_lcd_string>:
   94584:	defffd04 	addi	sp,sp,-12
   94588:	df000215 	stw	fp,8(sp)
   9458c:	df000204 	addi	fp,sp,8
   94590:	e13ffe15 	stw	r4,-8(fp)
   94594:	e17fff15 	stw	r5,-4(fp)
   94598:	e0bfff17 	ldw	r2,-4(fp)
   9459c:	10800007 	ldb	r2,0(r2)
   945a0:	1005003a 	cmpeq	r2,r2,zero
   945a4:	10000b1e 	bne	r2,zero,945d4 <alt_up_character_lcd_string+0x50>
   945a8:	e0bffe17 	ldw	r2,-8(fp)
   945ac:	10800a17 	ldw	r2,40(r2)
   945b0:	10800044 	addi	r2,r2,1
   945b4:	1007883a 	mov	r3,r2
   945b8:	e0bfff17 	ldw	r2,-4(fp)
   945bc:	10800007 	ldb	r2,0(r2)
   945c0:	18800025 	stbio	r2,0(r3)
   945c4:	e0bfff17 	ldw	r2,-4(fp)
   945c8:	10800044 	addi	r2,r2,1
   945cc:	e0bfff15 	stw	r2,-4(fp)
   945d0:	003ff106 	br	94598 <alt_up_character_lcd_string+0x14>
   945d4:	df000217 	ldw	fp,8(sp)
   945d8:	dec00304 	addi	sp,sp,12
   945dc:	f800283a 	ret

000945e0 <alt_up_character_lcd_write_fd>:
   945e0:	defffb04 	addi	sp,sp,-20
   945e4:	dfc00415 	stw	ra,16(sp)
   945e8:	df000315 	stw	fp,12(sp)
   945ec:	df000304 	addi	fp,sp,12
   945f0:	e13ffd15 	stw	r4,-12(fp)
   945f4:	e17ffe15 	stw	r5,-8(fp)
   945f8:	e1bfff15 	stw	r6,-4(fp)
   945fc:	e0bffd17 	ldw	r2,-12(fp)
   94600:	11000017 	ldw	r4,0(r2)
   94604:	e17ffe17 	ldw	r5,-8(fp)
   94608:	e1bfff17 	ldw	r6,-4(fp)
   9460c:	009451c0 	call	9451c <alt_up_character_lcd_write>
   94610:	0005883a 	mov	r2,zero
   94614:	dfc00417 	ldw	ra,16(sp)
   94618:	df000317 	ldw	fp,12(sp)
   9461c:	dec00504 	addi	sp,sp,20
   94620:	f800283a 	ret

00094624 <alt_up_character_lcd_set_cursor_pos>:
   94624:	defff904 	addi	sp,sp,-28
   94628:	dfc00615 	stw	ra,24(sp)
   9462c:	df000515 	stw	fp,20(sp)
   94630:	df000504 	addi	fp,sp,20
   94634:	e13ffb15 	stw	r4,-20(fp)
   94638:	e17ffc15 	stw	r5,-16(fp)
   9463c:	e1bffd15 	stw	r6,-12(fp)
   94640:	e0bffc17 	ldw	r2,-16(fp)
   94644:	10800a28 	cmpgeui	r2,r2,40
   94648:	1000041e 	bne	r2,zero,9465c <alt_up_character_lcd_set_cursor_pos+0x38>
   9464c:	e0bffd17 	ldw	r2,-12(fp)
   94650:	108000a8 	cmpgeui	r2,r2,2
   94654:	1000011e 	bne	r2,zero,9465c <alt_up_character_lcd_set_cursor_pos+0x38>
   94658:	00000306 	br	94668 <alt_up_character_lcd_set_cursor_pos+0x44>
   9465c:	00bfffc4 	movi	r2,-1
   94660:	e0bfff15 	stw	r2,-4(fp)
   94664:	00000806 	br	94688 <alt_up_character_lcd_set_cursor_pos+0x64>
   94668:	e13ffc17 	ldw	r4,-16(fp)
   9466c:	e17ffd17 	ldw	r5,-12(fp)
   94670:	00944180 	call	94418 <get_DDRAM_addr>
   94674:	e0bffe05 	stb	r2,-8(fp)
   94678:	e17ffe03 	ldbu	r5,-8(fp)
   9467c:	e13ffb17 	ldw	r4,-20(fp)
   94680:	00944880 	call	94488 <alt_up_character_lcd_send_cmd>
   94684:	e03fff15 	stw	zero,-4(fp)
   94688:	e0bfff17 	ldw	r2,-4(fp)
   9468c:	dfc00617 	ldw	ra,24(sp)
   94690:	df000517 	ldw	fp,20(sp)
   94694:	dec00704 	addi	sp,sp,28
   94698:	f800283a 	ret

0009469c <alt_up_character_lcd_shift_cursor>:
   9469c:	defffa04 	addi	sp,sp,-24
   946a0:	dfc00515 	stw	ra,20(sp)
   946a4:	df000415 	stw	fp,16(sp)
   946a8:	df000404 	addi	fp,sp,16
   946ac:	e13ffc15 	stw	r4,-16(fp)
   946b0:	e17ffd15 	stw	r5,-12(fp)
   946b4:	e0bffd17 	ldw	r2,-12(fp)
   946b8:	1004c03a 	cmpne	r2,r2,zero
   946bc:	1000011e 	bne	r2,zero,946c4 <alt_up_character_lcd_shift_cursor+0x28>
   946c0:	00001e06 	br	9473c <alt_up_character_lcd_shift_cursor+0xa0>
   946c4:	e0bffd17 	ldw	r2,-12(fp)
   946c8:	10800050 	cmplti	r2,r2,1
   946cc:	1000031e 	bne	r2,zero,946dc <alt_up_character_lcd_shift_cursor+0x40>
   946d0:	00800504 	movi	r2,20
   946d4:	e0bffe85 	stb	r2,-6(fp)
   946d8:	00000206 	br	946e4 <alt_up_character_lcd_shift_cursor+0x48>
   946dc:	00c00404 	movi	r3,16
   946e0:	e0fffe85 	stb	r3,-6(fp)
   946e4:	e0bffe83 	ldbu	r2,-6(fp)
   946e8:	e0bffe05 	stb	r2,-8(fp)
   946ec:	e0fffd17 	ldw	r3,-12(fp)
   946f0:	e0ffff15 	stw	r3,-4(fp)
   946f4:	e0ffff17 	ldw	r3,-4(fp)
   946f8:	1804403a 	cmpge	r2,r3,zero
   946fc:	1000031e 	bne	r2,zero,9470c <alt_up_character_lcd_shift_cursor+0x70>
   94700:	e0bfff17 	ldw	r2,-4(fp)
   94704:	0085c83a 	sub	r2,zero,r2
   94708:	e0bfff15 	stw	r2,-4(fp)
   9470c:	e0ffff17 	ldw	r3,-4(fp)
   94710:	e0fffe45 	stb	r3,-7(fp)
   94714:	e0bffe43 	ldbu	r2,-7(fp)
   94718:	10bfffc4 	addi	r2,r2,-1
   9471c:	e0bffe45 	stb	r2,-7(fp)
   94720:	10803fcc 	andi	r2,r2,255
   94724:	10803fe0 	cmpeqi	r2,r2,255
   94728:	1000041e 	bne	r2,zero,9473c <alt_up_character_lcd_shift_cursor+0xa0>
   9472c:	e17ffe03 	ldbu	r5,-8(fp)
   94730:	e13ffc17 	ldw	r4,-16(fp)
   94734:	00944880 	call	94488 <alt_up_character_lcd_send_cmd>
   94738:	003ff606 	br	94714 <alt_up_character_lcd_shift_cursor+0x78>
   9473c:	dfc00517 	ldw	ra,20(sp)
   94740:	df000417 	ldw	fp,16(sp)
   94744:	dec00604 	addi	sp,sp,24
   94748:	f800283a 	ret

0009474c <alt_up_character_lcd_shift_display>:
   9474c:	defffa04 	addi	sp,sp,-24
   94750:	dfc00515 	stw	ra,20(sp)
   94754:	df000415 	stw	fp,16(sp)
   94758:	df000404 	addi	fp,sp,16
   9475c:	e13ffc15 	stw	r4,-16(fp)
   94760:	e17ffd15 	stw	r5,-12(fp)
   94764:	e0bffd17 	ldw	r2,-12(fp)
   94768:	1004c03a 	cmpne	r2,r2,zero
   9476c:	1000011e 	bne	r2,zero,94774 <alt_up_character_lcd_shift_display+0x28>
   94770:	00001e06 	br	947ec <alt_up_character_lcd_shift_display+0xa0>
   94774:	e0bffd17 	ldw	r2,-12(fp)
   94778:	10800050 	cmplti	r2,r2,1
   9477c:	1000031e 	bne	r2,zero,9478c <alt_up_character_lcd_shift_display+0x40>
   94780:	00800704 	movi	r2,28
   94784:	e0bffe85 	stb	r2,-6(fp)
   94788:	00000206 	br	94794 <alt_up_character_lcd_shift_display+0x48>
   9478c:	00c00604 	movi	r3,24
   94790:	e0fffe85 	stb	r3,-6(fp)
   94794:	e0bffe83 	ldbu	r2,-6(fp)
   94798:	e0bffe05 	stb	r2,-8(fp)
   9479c:	e0fffd17 	ldw	r3,-12(fp)
   947a0:	e0ffff15 	stw	r3,-4(fp)
   947a4:	e0ffff17 	ldw	r3,-4(fp)
   947a8:	1804403a 	cmpge	r2,r3,zero
   947ac:	1000031e 	bne	r2,zero,947bc <alt_up_character_lcd_shift_display+0x70>
   947b0:	e0bfff17 	ldw	r2,-4(fp)
   947b4:	0085c83a 	sub	r2,zero,r2
   947b8:	e0bfff15 	stw	r2,-4(fp)
   947bc:	e0ffff17 	ldw	r3,-4(fp)
   947c0:	e0fffe45 	stb	r3,-7(fp)
   947c4:	e0bffe43 	ldbu	r2,-7(fp)
   947c8:	10bfffc4 	addi	r2,r2,-1
   947cc:	e0bffe45 	stb	r2,-7(fp)
   947d0:	10803fcc 	andi	r2,r2,255
   947d4:	10803fe0 	cmpeqi	r2,r2,255
   947d8:	1000041e 	bne	r2,zero,947ec <alt_up_character_lcd_shift_display+0xa0>
   947dc:	e17ffe03 	ldbu	r5,-8(fp)
   947e0:	e13ffc17 	ldw	r4,-16(fp)
   947e4:	00944880 	call	94488 <alt_up_character_lcd_send_cmd>
   947e8:	003ff606 	br	947c4 <alt_up_character_lcd_shift_display+0x78>
   947ec:	dfc00517 	ldw	ra,20(sp)
   947f0:	df000417 	ldw	fp,16(sp)
   947f4:	dec00604 	addi	sp,sp,24
   947f8:	f800283a 	ret

000947fc <alt_up_character_lcd_erase_pos>:
   947fc:	defff904 	addi	sp,sp,-28
   94800:	dfc00615 	stw	ra,24(sp)
   94804:	df000515 	stw	fp,20(sp)
   94808:	df000504 	addi	fp,sp,20
   9480c:	e13ffb15 	stw	r4,-20(fp)
   94810:	e17ffc15 	stw	r5,-16(fp)
   94814:	e1bffd15 	stw	r6,-12(fp)
   94818:	e0bffc17 	ldw	r2,-16(fp)
   9481c:	10800a28 	cmpgeui	r2,r2,40
   94820:	1000041e 	bne	r2,zero,94834 <alt_up_character_lcd_erase_pos+0x38>
   94824:	e0bffd17 	ldw	r2,-12(fp)
   94828:	108000a8 	cmpgeui	r2,r2,2
   9482c:	1000011e 	bne	r2,zero,94834 <alt_up_character_lcd_erase_pos+0x38>
   94830:	00000306 	br	94840 <alt_up_character_lcd_erase_pos+0x44>
   94834:	00bfffc4 	movi	r2,-1
   94838:	e0bfff15 	stw	r2,-4(fp)
   9483c:	00000e06 	br	94878 <alt_up_character_lcd_erase_pos+0x7c>
   94840:	e13ffc17 	ldw	r4,-16(fp)
   94844:	e17ffd17 	ldw	r5,-12(fp)
   94848:	00944180 	call	94418 <get_DDRAM_addr>
   9484c:	e0bffe05 	stb	r2,-8(fp)
   94850:	e17ffe03 	ldbu	r5,-8(fp)
   94854:	e13ffb17 	ldw	r4,-20(fp)
   94858:	00944880 	call	94488 <alt_up_character_lcd_send_cmd>
   9485c:	e0bffb17 	ldw	r2,-20(fp)
   94860:	10800a17 	ldw	r2,40(r2)
   94864:	10800044 	addi	r2,r2,1
   94868:	1007883a 	mov	r3,r2
   9486c:	00800084 	movi	r2,2
   94870:	18800025 	stbio	r2,0(r3)
   94874:	e03fff15 	stw	zero,-4(fp)
   94878:	e0bfff17 	ldw	r2,-4(fp)
   9487c:	dfc00617 	ldw	ra,24(sp)
   94880:	df000517 	ldw	fp,20(sp)
   94884:	dec00704 	addi	sp,sp,28
   94888:	f800283a 	ret

0009488c <alt_up_character_lcd_cursor_off>:
   9488c:	defffd04 	addi	sp,sp,-12
   94890:	dfc00215 	stw	ra,8(sp)
   94894:	df000115 	stw	fp,4(sp)
   94898:	df000104 	addi	fp,sp,4
   9489c:	e13fff15 	stw	r4,-4(fp)
   948a0:	e13fff17 	ldw	r4,-4(fp)
   948a4:	01400304 	movi	r5,12
   948a8:	00944880 	call	94488 <alt_up_character_lcd_send_cmd>
   948ac:	dfc00217 	ldw	ra,8(sp)
   948b0:	df000117 	ldw	fp,4(sp)
   948b4:	dec00304 	addi	sp,sp,12
   948b8:	f800283a 	ret

000948bc <alt_up_character_lcd_cursor_blink_on>:
   948bc:	defffd04 	addi	sp,sp,-12
   948c0:	dfc00215 	stw	ra,8(sp)
   948c4:	df000115 	stw	fp,4(sp)
   948c8:	df000104 	addi	fp,sp,4
   948cc:	e13fff15 	stw	r4,-4(fp)
   948d0:	e13fff17 	ldw	r4,-4(fp)
   948d4:	014003c4 	movi	r5,15
   948d8:	00944880 	call	94488 <alt_up_character_lcd_send_cmd>
   948dc:	dfc00217 	ldw	ra,8(sp)
   948e0:	df000117 	ldw	fp,4(sp)
   948e4:	dec00304 	addi	sp,sp,12
   948e8:	f800283a 	ret

000948ec <alt_alarm_start>:
   948ec:	defff504 	addi	sp,sp,-44
   948f0:	df000a15 	stw	fp,40(sp)
   948f4:	df000a04 	addi	fp,sp,40
   948f8:	e13ff615 	stw	r4,-40(fp)
   948fc:	e17ff715 	stw	r5,-36(fp)
   94900:	e1bff815 	stw	r6,-32(fp)
   94904:	e1fff915 	stw	r7,-28(fp)
   94908:	e03ffb15 	stw	zero,-20(fp)
   9490c:	d0a03717 	ldw	r2,-32548(gp)
   94910:	e0bffc15 	stw	r2,-16(fp)
   94914:	e0bffc17 	ldw	r2,-16(fp)
   94918:	1005003a 	cmpeq	r2,r2,zero
   9491c:	1000421e 	bne	r2,zero,94a28 <alt_alarm_start+0x13c>
   94920:	e0bff617 	ldw	r2,-40(fp)
   94924:	1005003a 	cmpeq	r2,r2,zero
   94928:	10003c1e 	bne	r2,zero,94a1c <alt_alarm_start+0x130>
   9492c:	e0fff617 	ldw	r3,-40(fp)
   94930:	e0bff817 	ldw	r2,-32(fp)
   94934:	18800315 	stw	r2,12(r3)
   94938:	e0fff617 	ldw	r3,-40(fp)
   9493c:	e0bff917 	ldw	r2,-28(fp)
   94940:	18800515 	stw	r2,20(r3)
   94944:	0005303a 	rdctl	r2,status
   94948:	e0bffe15 	stw	r2,-8(fp)
   9494c:	e0fffe17 	ldw	r3,-8(fp)
   94950:	00bfff84 	movi	r2,-2
   94954:	1884703a 	and	r2,r3,r2
   94958:	1001703a 	wrctl	status,r2
   9495c:	e0bffe17 	ldw	r2,-8(fp)
   94960:	e0bffd15 	stw	r2,-12(fp)
   94964:	e0bffd17 	ldw	r2,-12(fp)
   94968:	e0bffa15 	stw	r2,-24(fp)
   9496c:	d0a03817 	ldw	r2,-32544(gp)
   94970:	e0bffe15 	stw	r2,-8(fp)
   94974:	e0bffe17 	ldw	r2,-8(fp)
   94978:	e0bffb15 	stw	r2,-20(fp)
   9497c:	e13ff617 	ldw	r4,-40(fp)
   94980:	e0fff717 	ldw	r3,-36(fp)
   94984:	e0bffb17 	ldw	r2,-20(fp)
   94988:	1885883a 	add	r2,r3,r2
   9498c:	10800044 	addi	r2,r2,1
   94990:	20800215 	stw	r2,8(r4)
   94994:	e0bff617 	ldw	r2,-40(fp)
   94998:	10c00217 	ldw	r3,8(r2)
   9499c:	e0bffb17 	ldw	r2,-20(fp)
   949a0:	1880042e 	bgeu	r3,r2,949b4 <alt_alarm_start+0xc8>
   949a4:	e0fff617 	ldw	r3,-40(fp)
   949a8:	00800044 	movi	r2,1
   949ac:	18800405 	stb	r2,16(r3)
   949b0:	00000206 	br	949bc <alt_alarm_start+0xd0>
   949b4:	e0bff617 	ldw	r2,-40(fp)
   949b8:	10000405 	stb	zero,16(r2)
   949bc:	d0a03904 	addi	r2,gp,-32540
   949c0:	e0bffe15 	stw	r2,-8(fp)
   949c4:	e0bff617 	ldw	r2,-40(fp)
   949c8:	e0bffd15 	stw	r2,-12(fp)
   949cc:	e0fffd17 	ldw	r3,-12(fp)
   949d0:	e0bffe17 	ldw	r2,-8(fp)
   949d4:	18800115 	stw	r2,4(r3)
   949d8:	e0fffd17 	ldw	r3,-12(fp)
   949dc:	e0bffe17 	ldw	r2,-8(fp)
   949e0:	10800017 	ldw	r2,0(r2)
   949e4:	18800015 	stw	r2,0(r3)
   949e8:	e0bffe17 	ldw	r2,-8(fp)
   949ec:	10c00017 	ldw	r3,0(r2)
   949f0:	e0bffd17 	ldw	r2,-12(fp)
   949f4:	18800115 	stw	r2,4(r3)
   949f8:	e0fffe17 	ldw	r3,-8(fp)
   949fc:	e0bffd17 	ldw	r2,-12(fp)
   94a00:	18800015 	stw	r2,0(r3)
   94a04:	e0bffa17 	ldw	r2,-24(fp)
   94a08:	e0bffe15 	stw	r2,-8(fp)
   94a0c:	e0bffe17 	ldw	r2,-8(fp)
   94a10:	1001703a 	wrctl	status,r2
   94a14:	e03fff15 	stw	zero,-4(fp)
   94a18:	00000506 	br	94a30 <alt_alarm_start+0x144>
   94a1c:	00bffa84 	movi	r2,-22
   94a20:	e0bfff15 	stw	r2,-4(fp)
   94a24:	00000206 	br	94a30 <alt_alarm_start+0x144>
   94a28:	00bfde84 	movi	r2,-134
   94a2c:	e0bfff15 	stw	r2,-4(fp)
   94a30:	e0bfff17 	ldw	r2,-4(fp)
   94a34:	df000a17 	ldw	fp,40(sp)
   94a38:	dec00b04 	addi	sp,sp,44
   94a3c:	f800283a 	ret

00094a40 <alt_dcache_flush_all>:
   94a40:	deffff04 	addi	sp,sp,-4
   94a44:	df000015 	stw	fp,0(sp)
   94a48:	d839883a 	mov	fp,sp
   94a4c:	df000017 	ldw	fp,0(sp)
   94a50:	dec00104 	addi	sp,sp,4
   94a54:	f800283a 	ret

00094a58 <alt_dev_llist_insert>:
   94a58:	defff904 	addi	sp,sp,-28
   94a5c:	dfc00615 	stw	ra,24(sp)
   94a60:	df000515 	stw	fp,20(sp)
   94a64:	df000504 	addi	fp,sp,20
   94a68:	e13ffb15 	stw	r4,-20(fp)
   94a6c:	e17ffc15 	stw	r5,-16(fp)
   94a70:	e0bffb17 	ldw	r2,-20(fp)
   94a74:	1005003a 	cmpeq	r2,r2,zero
   94a78:	1000041e 	bne	r2,zero,94a8c <alt_dev_llist_insert+0x34>
   94a7c:	e0bffb17 	ldw	r2,-20(fp)
   94a80:	10800217 	ldw	r2,8(r2)
   94a84:	1004c03a 	cmpne	r2,r2,zero
   94a88:	1000071e 	bne	r2,zero,94aa8 <alt_dev_llist_insert+0x50>
   94a8c:	0094b080 	call	94b08 <alt_get_errno>
   94a90:	1007883a 	mov	r3,r2
   94a94:	00800584 	movi	r2,22
   94a98:	18800015 	stw	r2,0(r3)
   94a9c:	00bffa84 	movi	r2,-22
   94aa0:	e0bfff15 	stw	r2,-4(fp)
   94aa4:	00001306 	br	94af4 <alt_dev_llist_insert+0x9c>
   94aa8:	e0bffc17 	ldw	r2,-16(fp)
   94aac:	e0bffd15 	stw	r2,-12(fp)
   94ab0:	e0bffb17 	ldw	r2,-20(fp)
   94ab4:	e0bffe15 	stw	r2,-8(fp)
   94ab8:	e0fffe17 	ldw	r3,-8(fp)
   94abc:	e0bffd17 	ldw	r2,-12(fp)
   94ac0:	18800115 	stw	r2,4(r3)
   94ac4:	e0fffe17 	ldw	r3,-8(fp)
   94ac8:	e0bffd17 	ldw	r2,-12(fp)
   94acc:	10800017 	ldw	r2,0(r2)
   94ad0:	18800015 	stw	r2,0(r3)
   94ad4:	e0bffd17 	ldw	r2,-12(fp)
   94ad8:	10c00017 	ldw	r3,0(r2)
   94adc:	e0bffe17 	ldw	r2,-8(fp)
   94ae0:	18800115 	stw	r2,4(r3)
   94ae4:	e0fffd17 	ldw	r3,-12(fp)
   94ae8:	e0bffe17 	ldw	r2,-8(fp)
   94aec:	18800015 	stw	r2,0(r3)
   94af0:	e03fff15 	stw	zero,-4(fp)
   94af4:	e0bfff17 	ldw	r2,-4(fp)
   94af8:	dfc00617 	ldw	ra,24(sp)
   94afc:	df000517 	ldw	fp,20(sp)
   94b00:	dec00704 	addi	sp,sp,28
   94b04:	f800283a 	ret

00094b08 <alt_get_errno>:
   94b08:	defffd04 	addi	sp,sp,-12
   94b0c:	dfc00215 	stw	ra,8(sp)
   94b10:	df000115 	stw	fp,4(sp)
   94b14:	df000104 	addi	fp,sp,4
   94b18:	d0a01117 	ldw	r2,-32700(gp)
   94b1c:	1005003a 	cmpeq	r2,r2,zero
   94b20:	1000041e 	bne	r2,zero,94b34 <alt_get_errno+0x2c>
   94b24:	d0a01117 	ldw	r2,-32700(gp)
   94b28:	103ee83a 	callr	r2
   94b2c:	e0bfff15 	stw	r2,-4(fp)
   94b30:	00000206 	br	94b3c <alt_get_errno+0x34>
   94b34:	d0a6f404 	addi	r2,gp,-25648
   94b38:	e0bfff15 	stw	r2,-4(fp)
   94b3c:	e0bfff17 	ldw	r2,-4(fp)
   94b40:	dfc00217 	ldw	ra,8(sp)
   94b44:	df000117 	ldw	fp,4(sp)
   94b48:	dec00304 	addi	sp,sp,12
   94b4c:	f800283a 	ret

00094b50 <_do_ctors>:
   94b50:	defffd04 	addi	sp,sp,-12
   94b54:	dfc00215 	stw	ra,8(sp)
   94b58:	df000115 	stw	fp,4(sp)
   94b5c:	df000104 	addi	fp,sp,4
   94b60:	00800274 	movhi	r2,9
   94b64:	1097e504 	addi	r2,r2,24468
   94b68:	e0bfff15 	stw	r2,-4(fp)
   94b6c:	e0ffff17 	ldw	r3,-4(fp)
   94b70:	00800274 	movhi	r2,9
   94b74:	1097e604 	addi	r2,r2,24472
   94b78:	18800736 	bltu	r3,r2,94b98 <_do_ctors+0x48>
   94b7c:	e0bfff17 	ldw	r2,-4(fp)
   94b80:	10800017 	ldw	r2,0(r2)
   94b84:	103ee83a 	callr	r2
   94b88:	e0bfff17 	ldw	r2,-4(fp)
   94b8c:	10bfff04 	addi	r2,r2,-4
   94b90:	e0bfff15 	stw	r2,-4(fp)
   94b94:	003ff506 	br	94b6c <_do_ctors+0x1c>
   94b98:	dfc00217 	ldw	ra,8(sp)
   94b9c:	df000117 	ldw	fp,4(sp)
   94ba0:	dec00304 	addi	sp,sp,12
   94ba4:	f800283a 	ret

00094ba8 <_do_dtors>:
   94ba8:	defffd04 	addi	sp,sp,-12
   94bac:	dfc00215 	stw	ra,8(sp)
   94bb0:	df000115 	stw	fp,4(sp)
   94bb4:	df000104 	addi	fp,sp,4
   94bb8:	00800274 	movhi	r2,9
   94bbc:	1097e504 	addi	r2,r2,24468
   94bc0:	e0bfff15 	stw	r2,-4(fp)
   94bc4:	e0ffff17 	ldw	r3,-4(fp)
   94bc8:	00800274 	movhi	r2,9
   94bcc:	1097e604 	addi	r2,r2,24472
   94bd0:	18800736 	bltu	r3,r2,94bf0 <_do_dtors+0x48>
   94bd4:	e0bfff17 	ldw	r2,-4(fp)
   94bd8:	10800017 	ldw	r2,0(r2)
   94bdc:	103ee83a 	callr	r2
   94be0:	e0bfff17 	ldw	r2,-4(fp)
   94be4:	10bfff04 	addi	r2,r2,-4
   94be8:	e0bfff15 	stw	r2,-4(fp)
   94bec:	003ff506 	br	94bc4 <_do_dtors+0x1c>
   94bf0:	dfc00217 	ldw	ra,8(sp)
   94bf4:	df000117 	ldw	fp,4(sp)
   94bf8:	dec00304 	addi	sp,sp,12
   94bfc:	f800283a 	ret

00094c00 <alt_find_dev>:
   94c00:	defff904 	addi	sp,sp,-28
   94c04:	dfc00615 	stw	ra,24(sp)
   94c08:	df000515 	stw	fp,20(sp)
   94c0c:	df000504 	addi	fp,sp,20
   94c10:	e13ffb15 	stw	r4,-20(fp)
   94c14:	e17ffc15 	stw	r5,-16(fp)
   94c18:	e0bffc17 	ldw	r2,-16(fp)
   94c1c:	10800017 	ldw	r2,0(r2)
   94c20:	e0bffd15 	stw	r2,-12(fp)
   94c24:	e13ffb17 	ldw	r4,-20(fp)
   94c28:	00884ac0 	call	884ac <strlen>
   94c2c:	10800044 	addi	r2,r2,1
   94c30:	e0bffe15 	stw	r2,-8(fp)
   94c34:	e0fffd17 	ldw	r3,-12(fp)
   94c38:	e0bffc17 	ldw	r2,-16(fp)
   94c3c:	18800e26 	beq	r3,r2,94c78 <alt_find_dev+0x78>
   94c40:	e0bffd17 	ldw	r2,-12(fp)
   94c44:	11000217 	ldw	r4,8(r2)
   94c48:	e17ffb17 	ldw	r5,-20(fp)
   94c4c:	e1bffe17 	ldw	r6,-8(fp)
   94c50:	0095d240 	call	95d24 <memcmp>
   94c54:	1004c03a 	cmpne	r2,r2,zero
   94c58:	1000031e 	bne	r2,zero,94c68 <alt_find_dev+0x68>
   94c5c:	e0bffd17 	ldw	r2,-12(fp)
   94c60:	e0bfff15 	stw	r2,-4(fp)
   94c64:	00000506 	br	94c7c <alt_find_dev+0x7c>
   94c68:	e0bffd17 	ldw	r2,-12(fp)
   94c6c:	10800017 	ldw	r2,0(r2)
   94c70:	e0bffd15 	stw	r2,-12(fp)
   94c74:	003fef06 	br	94c34 <alt_find_dev+0x34>
   94c78:	e03fff15 	stw	zero,-4(fp)
   94c7c:	e0bfff17 	ldw	r2,-4(fp)
   94c80:	dfc00617 	ldw	ra,24(sp)
   94c84:	df000517 	ldw	fp,20(sp)
   94c88:	dec00704 	addi	sp,sp,28
   94c8c:	f800283a 	ret

00094c90 <alt_icache_flush_all>:
   94c90:	deffff04 	addi	sp,sp,-4
   94c94:	df000015 	stw	fp,0(sp)
   94c98:	d839883a 	mov	fp,sp
   94c9c:	df000017 	ldw	fp,0(sp)
   94ca0:	dec00104 	addi	sp,sp,4
   94ca4:	f800283a 	ret

00094ca8 <alt_ic_isr_register>:
   94ca8:	defff904 	addi	sp,sp,-28
   94cac:	dfc00615 	stw	ra,24(sp)
   94cb0:	df000515 	stw	fp,20(sp)
   94cb4:	df000504 	addi	fp,sp,20
   94cb8:	e13ffc15 	stw	r4,-16(fp)
   94cbc:	e17ffd15 	stw	r5,-12(fp)
   94cc0:	e1bffe15 	stw	r6,-8(fp)
   94cc4:	e1ffff15 	stw	r7,-4(fp)
   94cc8:	e0800217 	ldw	r2,8(fp)
   94ccc:	d8800015 	stw	r2,0(sp)
   94cd0:	e13ffc17 	ldw	r4,-16(fp)
   94cd4:	e17ffd17 	ldw	r5,-12(fp)
   94cd8:	e1bffe17 	ldw	r6,-8(fp)
   94cdc:	e1ffff17 	ldw	r7,-4(fp)
   94ce0:	0094e480 	call	94e48 <alt_iic_isr_register>
   94ce4:	dfc00617 	ldw	ra,24(sp)
   94ce8:	df000517 	ldw	fp,20(sp)
   94cec:	dec00704 	addi	sp,sp,28
   94cf0:	f800283a 	ret

00094cf4 <alt_ic_irq_enable>:
   94cf4:	defff804 	addi	sp,sp,-32
   94cf8:	df000715 	stw	fp,28(sp)
   94cfc:	df000704 	addi	fp,sp,28
   94d00:	e13ff915 	stw	r4,-28(fp)
   94d04:	e17ffa15 	stw	r5,-24(fp)
   94d08:	e0bffa17 	ldw	r2,-24(fp)
   94d0c:	e0bffb15 	stw	r2,-20(fp)
   94d10:	0005303a 	rdctl	r2,status
   94d14:	e0bfff15 	stw	r2,-4(fp)
   94d18:	e0ffff17 	ldw	r3,-4(fp)
   94d1c:	00bfff84 	movi	r2,-2
   94d20:	1884703a 	and	r2,r3,r2
   94d24:	1001703a 	wrctl	status,r2
   94d28:	e0bfff17 	ldw	r2,-4(fp)
   94d2c:	e0bffe15 	stw	r2,-8(fp)
   94d30:	e0bffe17 	ldw	r2,-8(fp)
   94d34:	e0bffd15 	stw	r2,-12(fp)
   94d38:	00c00044 	movi	r3,1
   94d3c:	e0bffb17 	ldw	r2,-20(fp)
   94d40:	1886983a 	sll	r3,r3,r2
   94d44:	d0a01217 	ldw	r2,-32696(gp)
   94d48:	10c4b03a 	or	r2,r2,r3
   94d4c:	d0a01215 	stw	r2,-32696(gp)
   94d50:	d0a01217 	ldw	r2,-32696(gp)
   94d54:	100170fa 	wrctl	ienable,r2
   94d58:	e0bffd17 	ldw	r2,-12(fp)
   94d5c:	e0bfff15 	stw	r2,-4(fp)
   94d60:	e0bfff17 	ldw	r2,-4(fp)
   94d64:	1001703a 	wrctl	status,r2
   94d68:	e03ffc15 	stw	zero,-16(fp)
   94d6c:	e0bffc17 	ldw	r2,-16(fp)
   94d70:	df000717 	ldw	fp,28(sp)
   94d74:	dec00804 	addi	sp,sp,32
   94d78:	f800283a 	ret

00094d7c <alt_ic_irq_disable>:
   94d7c:	defff804 	addi	sp,sp,-32
   94d80:	df000715 	stw	fp,28(sp)
   94d84:	df000704 	addi	fp,sp,28
   94d88:	e13ff915 	stw	r4,-28(fp)
   94d8c:	e17ffa15 	stw	r5,-24(fp)
   94d90:	e0bffa17 	ldw	r2,-24(fp)
   94d94:	e0bffb15 	stw	r2,-20(fp)
   94d98:	0005303a 	rdctl	r2,status
   94d9c:	e0bfff15 	stw	r2,-4(fp)
   94da0:	e0ffff17 	ldw	r3,-4(fp)
   94da4:	00bfff84 	movi	r2,-2
   94da8:	1884703a 	and	r2,r3,r2
   94dac:	1001703a 	wrctl	status,r2
   94db0:	e0bfff17 	ldw	r2,-4(fp)
   94db4:	e0bffe15 	stw	r2,-8(fp)
   94db8:	e0bffe17 	ldw	r2,-8(fp)
   94dbc:	e0bffd15 	stw	r2,-12(fp)
   94dc0:	00c00044 	movi	r3,1
   94dc4:	e0bffb17 	ldw	r2,-20(fp)
   94dc8:	1884983a 	sll	r2,r3,r2
   94dcc:	0086303a 	nor	r3,zero,r2
   94dd0:	d0a01217 	ldw	r2,-32696(gp)
   94dd4:	10c4703a 	and	r2,r2,r3
   94dd8:	d0a01215 	stw	r2,-32696(gp)
   94ddc:	d0a01217 	ldw	r2,-32696(gp)
   94de0:	100170fa 	wrctl	ienable,r2
   94de4:	e0bffd17 	ldw	r2,-12(fp)
   94de8:	e0bfff15 	stw	r2,-4(fp)
   94dec:	e0bfff17 	ldw	r2,-4(fp)
   94df0:	1001703a 	wrctl	status,r2
   94df4:	e03ffc15 	stw	zero,-16(fp)
   94df8:	e0bffc17 	ldw	r2,-16(fp)
   94dfc:	df000717 	ldw	fp,28(sp)
   94e00:	dec00804 	addi	sp,sp,32
   94e04:	f800283a 	ret

00094e08 <alt_ic_irq_enabled>:
   94e08:	defffc04 	addi	sp,sp,-16
   94e0c:	df000315 	stw	fp,12(sp)
   94e10:	df000304 	addi	fp,sp,12
   94e14:	e13ffd15 	stw	r4,-12(fp)
   94e18:	e17ffe15 	stw	r5,-8(fp)
   94e1c:	000530fa 	rdctl	r2,ienable
   94e20:	e0bfff15 	stw	r2,-4(fp)
   94e24:	00c00044 	movi	r3,1
   94e28:	e0bffe17 	ldw	r2,-8(fp)
   94e2c:	1884983a 	sll	r2,r3,r2
   94e30:	e0ffff17 	ldw	r3,-4(fp)
   94e34:	10c4703a 	and	r2,r2,r3
   94e38:	1004c03a 	cmpne	r2,r2,zero
   94e3c:	df000317 	ldw	fp,12(sp)
   94e40:	dec00404 	addi	sp,sp,16
   94e44:	f800283a 	ret

00094e48 <alt_iic_isr_register>:
   94e48:	defff404 	addi	sp,sp,-48
   94e4c:	dfc00b15 	stw	ra,44(sp)
   94e50:	df000a15 	stw	fp,40(sp)
   94e54:	df000a04 	addi	fp,sp,40
   94e58:	e13ff615 	stw	r4,-40(fp)
   94e5c:	e17ff715 	stw	r5,-36(fp)
   94e60:	e1bff815 	stw	r6,-32(fp)
   94e64:	e1fff915 	stw	r7,-28(fp)
   94e68:	00bffa84 	movi	r2,-22
   94e6c:	e0bffa15 	stw	r2,-24(fp)
   94e70:	e0bff717 	ldw	r2,-36(fp)
   94e74:	e0bffb15 	stw	r2,-20(fp)
   94e78:	e0bffb17 	ldw	r2,-20(fp)
   94e7c:	10800808 	cmpgei	r2,r2,32
   94e80:	10002b1e 	bne	r2,zero,94f30 <alt_iic_isr_register+0xe8>
   94e84:	0005303a 	rdctl	r2,status
   94e88:	e0bffe15 	stw	r2,-8(fp)
   94e8c:	e0fffe17 	ldw	r3,-8(fp)
   94e90:	00bfff84 	movi	r2,-2
   94e94:	1884703a 	and	r2,r3,r2
   94e98:	1001703a 	wrctl	status,r2
   94e9c:	e0bffe17 	ldw	r2,-8(fp)
   94ea0:	e0bffd15 	stw	r2,-12(fp)
   94ea4:	e0bffd17 	ldw	r2,-12(fp)
   94ea8:	e0bffc15 	stw	r2,-16(fp)
   94eac:	00c002b4 	movhi	r3,10
   94eb0:	18d67004 	addi	r3,r3,22976
   94eb4:	e0bffb17 	ldw	r2,-20(fp)
   94eb8:	100490fa 	slli	r2,r2,3
   94ebc:	10c7883a 	add	r3,r2,r3
   94ec0:	e0bff817 	ldw	r2,-32(fp)
   94ec4:	18800015 	stw	r2,0(r3)
   94ec8:	00c002b4 	movhi	r3,10
   94ecc:	18d67004 	addi	r3,r3,22976
   94ed0:	e0bffb17 	ldw	r2,-20(fp)
   94ed4:	100490fa 	slli	r2,r2,3
   94ed8:	10c5883a 	add	r2,r2,r3
   94edc:	10c00104 	addi	r3,r2,4
   94ee0:	e0bff917 	ldw	r2,-28(fp)
   94ee4:	18800015 	stw	r2,0(r3)
   94ee8:	e0bff817 	ldw	r2,-32(fp)
   94eec:	1005003a 	cmpeq	r2,r2,zero
   94ef0:	1000051e 	bne	r2,zero,94f08 <alt_iic_isr_register+0xc0>
   94ef4:	e13ff617 	ldw	r4,-40(fp)
   94ef8:	e17ffb17 	ldw	r5,-20(fp)
   94efc:	0094cf40 	call	94cf4 <alt_ic_irq_enable>
   94f00:	e0bfff15 	stw	r2,-4(fp)
   94f04:	00000406 	br	94f18 <alt_iic_isr_register+0xd0>
   94f08:	e13ff617 	ldw	r4,-40(fp)
   94f0c:	e17ffb17 	ldw	r5,-20(fp)
   94f10:	0094d7c0 	call	94d7c <alt_ic_irq_disable>
   94f14:	e0bfff15 	stw	r2,-4(fp)
   94f18:	e0bfff17 	ldw	r2,-4(fp)
   94f1c:	e0bffa15 	stw	r2,-24(fp)
   94f20:	e0bffc17 	ldw	r2,-16(fp)
   94f24:	e0bffe15 	stw	r2,-8(fp)
   94f28:	e0bffe17 	ldw	r2,-8(fp)
   94f2c:	1001703a 	wrctl	status,r2
   94f30:	e0bffa17 	ldw	r2,-24(fp)
   94f34:	dfc00b17 	ldw	ra,44(sp)
   94f38:	df000a17 	ldw	fp,40(sp)
   94f3c:	dec00c04 	addi	sp,sp,48
   94f40:	f800283a 	ret

00094f44 <alt_open_fd>:
   94f44:	defff704 	addi	sp,sp,-36
   94f48:	dfc00815 	stw	ra,32(sp)
   94f4c:	df000715 	stw	fp,28(sp)
   94f50:	dc000615 	stw	r16,24(sp)
   94f54:	dc400515 	stw	r17,20(sp)
   94f58:	df000704 	addi	fp,sp,28
   94f5c:	e13ff915 	stw	r4,-28(fp)
   94f60:	e17ffa15 	stw	r5,-24(fp)
   94f64:	e1bffb15 	stw	r6,-20(fp)
   94f68:	e1fffc15 	stw	r7,-16(fp)
   94f6c:	e13ffa17 	ldw	r4,-24(fp)
   94f70:	e17ffb17 	ldw	r5,-20(fp)
   94f74:	e1bffc17 	ldw	r6,-16(fp)
   94f78:	009517c0 	call	9517c <open>
   94f7c:	e0bffd15 	stw	r2,-12(fp)
   94f80:	e0bffd17 	ldw	r2,-12(fp)
   94f84:	1004803a 	cmplt	r2,r2,zero
   94f88:	10001f1e 	bne	r2,zero,95008 <alt_open_fd+0xc4>
   94f8c:	e43ff917 	ldw	r16,-28(fp)
   94f90:	04400274 	movhi	r17,9
   94f94:	8c5dff04 	addi	r17,r17,30716
   94f98:	e13ffd17 	ldw	r4,-12(fp)
   94f9c:	01400304 	movi	r5,12
   94fa0:	0081aec0 	call	81aec <__mulsi3>
   94fa4:	1445883a 	add	r2,r2,r17
   94fa8:	10800017 	ldw	r2,0(r2)
   94fac:	80800015 	stw	r2,0(r16)
   94fb0:	e43ff917 	ldw	r16,-28(fp)
   94fb4:	04400274 	movhi	r17,9
   94fb8:	8c5dff04 	addi	r17,r17,30716
   94fbc:	e13ffd17 	ldw	r4,-12(fp)
   94fc0:	01400304 	movi	r5,12
   94fc4:	0081aec0 	call	81aec <__mulsi3>
   94fc8:	1445883a 	add	r2,r2,r17
   94fcc:	10800104 	addi	r2,r2,4
   94fd0:	10800017 	ldw	r2,0(r2)
   94fd4:	80800115 	stw	r2,4(r16)
   94fd8:	e43ff917 	ldw	r16,-28(fp)
   94fdc:	04400274 	movhi	r17,9
   94fe0:	8c5dff04 	addi	r17,r17,30716
   94fe4:	e13ffd17 	ldw	r4,-12(fp)
   94fe8:	01400304 	movi	r5,12
   94fec:	0081aec0 	call	81aec <__mulsi3>
   94ff0:	1445883a 	add	r2,r2,r17
   94ff4:	10800204 	addi	r2,r2,8
   94ff8:	10800017 	ldw	r2,0(r2)
   94ffc:	80800215 	stw	r2,8(r16)
   95000:	e13ffd17 	ldw	r4,-12(fp)
   95004:	008b50c0 	call	8b50c <alt_release_fd>
   95008:	dfc00817 	ldw	ra,32(sp)
   9500c:	df000717 	ldw	fp,28(sp)
   95010:	dc000617 	ldw	r16,24(sp)
   95014:	dc400517 	ldw	r17,20(sp)
   95018:	dec00904 	addi	sp,sp,36
   9501c:	f800283a 	ret

00095020 <alt_io_redirect>:
   95020:	defffb04 	addi	sp,sp,-20
   95024:	dfc00415 	stw	ra,16(sp)
   95028:	df000315 	stw	fp,12(sp)
   9502c:	df000304 	addi	fp,sp,12
   95030:	e13ffd15 	stw	r4,-12(fp)
   95034:	e17ffe15 	stw	r5,-8(fp)
   95038:	e1bfff15 	stw	r6,-4(fp)
   9503c:	01000274 	movhi	r4,9
   95040:	211e0204 	addi	r4,r4,30728
   95044:	e17ffd17 	ldw	r5,-12(fp)
   95048:	01800044 	movi	r6,1
   9504c:	01c07fc4 	movi	r7,511
   95050:	0094f440 	call	94f44 <alt_open_fd>
   95054:	01000274 	movhi	r4,9
   95058:	211dff04 	addi	r4,r4,30716
   9505c:	e17ffe17 	ldw	r5,-8(fp)
   95060:	000d883a 	mov	r6,zero
   95064:	01c07fc4 	movi	r7,511
   95068:	0094f440 	call	94f44 <alt_open_fd>
   9506c:	01000274 	movhi	r4,9
   95070:	211e0504 	addi	r4,r4,30740
   95074:	e17fff17 	ldw	r5,-4(fp)
   95078:	01800044 	movi	r6,1
   9507c:	01c07fc4 	movi	r7,511
   95080:	0094f440 	call	94f44 <alt_open_fd>
   95084:	dfc00417 	ldw	ra,16(sp)
   95088:	df000317 	ldw	fp,12(sp)
   9508c:	dec00504 	addi	sp,sp,20
   95090:	f800283a 	ret

00095094 <alt_file_locked>:
   95094:	defffa04 	addi	sp,sp,-24
   95098:	dfc00515 	stw	ra,20(sp)
   9509c:	df000415 	stw	fp,16(sp)
   950a0:	dc000315 	stw	r16,12(sp)
   950a4:	df000404 	addi	fp,sp,16
   950a8:	e13ffc15 	stw	r4,-16(fp)
   950ac:	e0fffc17 	ldw	r3,-16(fp)
   950b0:	e0bffc17 	ldw	r2,-16(fp)
   950b4:	10800217 	ldw	r2,8(r2)
   950b8:	10900034 	orhi	r2,r2,16384
   950bc:	18800215 	stw	r2,8(r3)
   950c0:	e03ffd15 	stw	zero,-12(fp)
   950c4:	d0e01017 	ldw	r3,-32704(gp)
   950c8:	e0bffd17 	ldw	r2,-12(fp)
   950cc:	18802436 	bltu	r3,r2,95160 <alt_file_locked+0xcc>
   950d0:	04000274 	movhi	r16,9
   950d4:	841dff04 	addi	r16,r16,30716
   950d8:	e13ffd17 	ldw	r4,-12(fp)
   950dc:	01400304 	movi	r5,12
   950e0:	0081aec0 	call	81aec <__mulsi3>
   950e4:	1405883a 	add	r2,r2,r16
   950e8:	e0fffc17 	ldw	r3,-16(fp)
   950ec:	11000017 	ldw	r4,0(r2)
   950f0:	18800017 	ldw	r2,0(r3)
   950f4:	2080161e 	bne	r4,r2,95150 <alt_file_locked+0xbc>
   950f8:	04000274 	movhi	r16,9
   950fc:	841dff04 	addi	r16,r16,30716
   95100:	e13ffd17 	ldw	r4,-12(fp)
   95104:	01400304 	movi	r5,12
   95108:	0081aec0 	call	81aec <__mulsi3>
   9510c:	1405883a 	add	r2,r2,r16
   95110:	10800204 	addi	r2,r2,8
   95114:	10800017 	ldw	r2,0(r2)
   95118:	1004403a 	cmpge	r2,r2,zero
   9511c:	10000c1e 	bne	r2,zero,95150 <alt_file_locked+0xbc>
   95120:	e13ffd17 	ldw	r4,-12(fp)
   95124:	01400304 	movi	r5,12
   95128:	0081aec0 	call	81aec <__mulsi3>
   9512c:	1007883a 	mov	r3,r2
   95130:	00800274 	movhi	r2,9
   95134:	109dff04 	addi	r2,r2,30716
   95138:	1887883a 	add	r3,r3,r2
   9513c:	e0bffc17 	ldw	r2,-16(fp)
   95140:	18800326 	beq	r3,r2,95150 <alt_file_locked+0xbc>
   95144:	00bffcc4 	movi	r2,-13
   95148:	e0bffe15 	stw	r2,-8(fp)
   9514c:	00000506 	br	95164 <alt_file_locked+0xd0>
   95150:	e0bffd17 	ldw	r2,-12(fp)
   95154:	10800044 	addi	r2,r2,1
   95158:	e0bffd15 	stw	r2,-12(fp)
   9515c:	003fd906 	br	950c4 <alt_file_locked+0x30>
   95160:	e03ffe15 	stw	zero,-8(fp)
   95164:	e0bffe17 	ldw	r2,-8(fp)
   95168:	dfc00517 	ldw	ra,20(sp)
   9516c:	df000417 	ldw	fp,16(sp)
   95170:	dc000317 	ldw	r16,12(sp)
   95174:	dec00604 	addi	sp,sp,24
   95178:	f800283a 	ret

0009517c <open>:
   9517c:	defff404 	addi	sp,sp,-48
   95180:	dfc00b15 	stw	ra,44(sp)
   95184:	df000a15 	stw	fp,40(sp)
   95188:	df000a04 	addi	fp,sp,40
   9518c:	e13ff615 	stw	r4,-40(fp)
   95190:	e17ff715 	stw	r5,-36(fp)
   95194:	e1bff815 	stw	r6,-32(fp)
   95198:	00bfffc4 	movi	r2,-1
   9519c:	e0bffb15 	stw	r2,-20(fp)
   951a0:	00bffb44 	movi	r2,-19
   951a4:	e0bffc15 	stw	r2,-16(fp)
   951a8:	e03ffd15 	stw	zero,-12(fp)
   951ac:	e13ff617 	ldw	r4,-40(fp)
   951b0:	d1600e04 	addi	r5,gp,-32712
   951b4:	0094c000 	call	94c00 <alt_find_dev>
   951b8:	e0bff915 	stw	r2,-28(fp)
   951bc:	e0bff917 	ldw	r2,-28(fp)
   951c0:	1004c03a 	cmpne	r2,r2,zero
   951c4:	1000051e 	bne	r2,zero,951dc <open+0x60>
   951c8:	e13ff617 	ldw	r4,-40(fp)
   951cc:	00959d80 	call	959d8 <alt_find_file>
   951d0:	e0bff915 	stw	r2,-28(fp)
   951d4:	00800044 	movi	r2,1
   951d8:	e0bffd15 	stw	r2,-12(fp)
   951dc:	e0bff917 	ldw	r2,-28(fp)
   951e0:	1005003a 	cmpeq	r2,r2,zero
   951e4:	1000321e 	bne	r2,zero,952b0 <open+0x134>
   951e8:	e13ff917 	ldw	r4,-28(fp)
   951ec:	0095abc0 	call	95abc <alt_get_fd>
   951f0:	e0bffb15 	stw	r2,-20(fp)
   951f4:	e0bffb17 	ldw	r2,-20(fp)
   951f8:	1004403a 	cmpge	r2,r2,zero
   951fc:	1000031e 	bne	r2,zero,9520c <open+0x90>
   95200:	e0bffb17 	ldw	r2,-20(fp)
   95204:	e0bffc15 	stw	r2,-16(fp)
   95208:	00002b06 	br	952b8 <open+0x13c>
   9520c:	e13ffb17 	ldw	r4,-20(fp)
   95210:	01400304 	movi	r5,12
   95214:	0081aec0 	call	81aec <__mulsi3>
   95218:	1007883a 	mov	r3,r2
   9521c:	00800274 	movhi	r2,9
   95220:	109dff04 	addi	r2,r2,30716
   95224:	1885883a 	add	r2,r3,r2
   95228:	e0bffa15 	stw	r2,-24(fp)
   9522c:	e13ffa17 	ldw	r4,-24(fp)
   95230:	e0fff717 	ldw	r3,-36(fp)
   95234:	00900034 	movhi	r2,16384
   95238:	10bfffc4 	addi	r2,r2,-1
   9523c:	1884703a 	and	r2,r3,r2
   95240:	20800215 	stw	r2,8(r4)
   95244:	e0bffd17 	ldw	r2,-12(fp)
   95248:	1004c03a 	cmpne	r2,r2,zero
   9524c:	1000071e 	bne	r2,zero,9526c <open+0xf0>
   95250:	e13ffa17 	ldw	r4,-24(fp)
   95254:	00950940 	call	95094 <alt_file_locked>
   95258:	e0bffc15 	stw	r2,-16(fp)
   9525c:	e0bffc17 	ldw	r2,-16(fp)
   95260:	1004403a 	cmpge	r2,r2,zero
   95264:	1000011e 	bne	r2,zero,9526c <open+0xf0>
   95268:	00001306 	br	952b8 <open+0x13c>
   9526c:	e0bff917 	ldw	r2,-28(fp)
   95270:	10800317 	ldw	r2,12(r2)
   95274:	1005003a 	cmpeq	r2,r2,zero
   95278:	1000091e 	bne	r2,zero,952a0 <open+0x124>
   9527c:	e0bff917 	ldw	r2,-28(fp)
   95280:	10800317 	ldw	r2,12(r2)
   95284:	e13ffa17 	ldw	r4,-24(fp)
   95288:	e17ff617 	ldw	r5,-40(fp)
   9528c:	e1bff717 	ldw	r6,-36(fp)
   95290:	e1fff817 	ldw	r7,-32(fp)
   95294:	103ee83a 	callr	r2
   95298:	e0bfff15 	stw	r2,-4(fp)
   9529c:	00000106 	br	952a4 <open+0x128>
   952a0:	e03fff15 	stw	zero,-4(fp)
   952a4:	e0bfff17 	ldw	r2,-4(fp)
   952a8:	e0bffc15 	stw	r2,-16(fp)
   952ac:	00000206 	br	952b8 <open+0x13c>
   952b0:	00bffb44 	movi	r2,-19
   952b4:	e0bffc15 	stw	r2,-16(fp)
   952b8:	e0bffc17 	ldw	r2,-16(fp)
   952bc:	1004403a 	cmpge	r2,r2,zero
   952c0:	1000091e 	bne	r2,zero,952e8 <open+0x16c>
   952c4:	e13ffb17 	ldw	r4,-20(fp)
   952c8:	008b50c0 	call	8b50c <alt_release_fd>
   952cc:	00953040 	call	95304 <alt_get_errno>
   952d0:	e0fffc17 	ldw	r3,-16(fp)
   952d4:	00c7c83a 	sub	r3,zero,r3
   952d8:	10c00015 	stw	r3,0(r2)
   952dc:	00bfffc4 	movi	r2,-1
   952e0:	e0bffe15 	stw	r2,-8(fp)
   952e4:	00000206 	br	952f0 <open+0x174>
   952e8:	e0bffb17 	ldw	r2,-20(fp)
   952ec:	e0bffe15 	stw	r2,-8(fp)
   952f0:	e0bffe17 	ldw	r2,-8(fp)
   952f4:	dfc00b17 	ldw	ra,44(sp)
   952f8:	df000a17 	ldw	fp,40(sp)
   952fc:	dec00c04 	addi	sp,sp,48
   95300:	f800283a 	ret

00095304 <alt_get_errno>:
   95304:	defffd04 	addi	sp,sp,-12
   95308:	dfc00215 	stw	ra,8(sp)
   9530c:	df000115 	stw	fp,4(sp)
   95310:	df000104 	addi	fp,sp,4
   95314:	d0a01117 	ldw	r2,-32700(gp)
   95318:	1005003a 	cmpeq	r2,r2,zero
   9531c:	1000041e 	bne	r2,zero,95330 <alt_get_errno+0x2c>
   95320:	d0a01117 	ldw	r2,-32700(gp)
   95324:	103ee83a 	callr	r2
   95328:	e0bfff15 	stw	r2,-4(fp)
   9532c:	00000206 	br	95338 <alt_get_errno+0x34>
   95330:	d0a6f404 	addi	r2,gp,-25648
   95334:	e0bfff15 	stw	r2,-4(fp)
   95338:	e0bfff17 	ldw	r2,-4(fp)
   9533c:	dfc00217 	ldw	ra,8(sp)
   95340:	df000117 	ldw	fp,4(sp)
   95344:	dec00304 	addi	sp,sp,12
   95348:	f800283a 	ret

0009534c <alt_alarm_stop>:
   9534c:	defffb04 	addi	sp,sp,-20
   95350:	df000415 	stw	fp,16(sp)
   95354:	df000404 	addi	fp,sp,16
   95358:	e13ffc15 	stw	r4,-16(fp)
   9535c:	0005303a 	rdctl	r2,status
   95360:	e0bfff15 	stw	r2,-4(fp)
   95364:	e0ffff17 	ldw	r3,-4(fp)
   95368:	00bfff84 	movi	r2,-2
   9536c:	1884703a 	and	r2,r3,r2
   95370:	1001703a 	wrctl	status,r2
   95374:	e0bfff17 	ldw	r2,-4(fp)
   95378:	e0bffe15 	stw	r2,-8(fp)
   9537c:	e0bffe17 	ldw	r2,-8(fp)
   95380:	e0bffd15 	stw	r2,-12(fp)
   95384:	e0bffc17 	ldw	r2,-16(fp)
   95388:	e0bfff15 	stw	r2,-4(fp)
   9538c:	e0bfff17 	ldw	r2,-4(fp)
   95390:	10c00017 	ldw	r3,0(r2)
   95394:	e0bfff17 	ldw	r2,-4(fp)
   95398:	10800117 	ldw	r2,4(r2)
   9539c:	18800115 	stw	r2,4(r3)
   953a0:	e0bfff17 	ldw	r2,-4(fp)
   953a4:	10c00117 	ldw	r3,4(r2)
   953a8:	e0bfff17 	ldw	r2,-4(fp)
   953ac:	10800017 	ldw	r2,0(r2)
   953b0:	18800015 	stw	r2,0(r3)
   953b4:	e0ffff17 	ldw	r3,-4(fp)
   953b8:	e0bfff17 	ldw	r2,-4(fp)
   953bc:	18800115 	stw	r2,4(r3)
   953c0:	e0ffff17 	ldw	r3,-4(fp)
   953c4:	e0bfff17 	ldw	r2,-4(fp)
   953c8:	18800015 	stw	r2,0(r3)
   953cc:	e0bffd17 	ldw	r2,-12(fp)
   953d0:	e0bfff15 	stw	r2,-4(fp)
   953d4:	e0bfff17 	ldw	r2,-4(fp)
   953d8:	1001703a 	wrctl	status,r2
   953dc:	df000417 	ldw	fp,16(sp)
   953e0:	dec00504 	addi	sp,sp,20
   953e4:	f800283a 	ret

000953e8 <alt_tick>:
   953e8:	defffb04 	addi	sp,sp,-20
   953ec:	dfc00415 	stw	ra,16(sp)
   953f0:	df000315 	stw	fp,12(sp)
   953f4:	df000304 	addi	fp,sp,12
   953f8:	d0a03917 	ldw	r2,-32540(gp)
   953fc:	e0bffe15 	stw	r2,-8(fp)
   95400:	d0a03817 	ldw	r2,-32544(gp)
   95404:	10800044 	addi	r2,r2,1
   95408:	d0a03815 	stw	r2,-32544(gp)
   9540c:	e0fffe17 	ldw	r3,-8(fp)
   95410:	d0a03904 	addi	r2,gp,-32540
   95414:	18803026 	beq	r3,r2,954d8 <alt_tick+0xf0>
   95418:	e0bffe17 	ldw	r2,-8(fp)
   9541c:	10800017 	ldw	r2,0(r2)
   95420:	e0bffd15 	stw	r2,-12(fp)
   95424:	e0bffe17 	ldw	r2,-8(fp)
   95428:	10800403 	ldbu	r2,16(r2)
   9542c:	1005003a 	cmpeq	r2,r2,zero
   95430:	1000051e 	bne	r2,zero,95448 <alt_tick+0x60>
   95434:	d0a03817 	ldw	r2,-32544(gp)
   95438:	1004c03a 	cmpne	r2,r2,zero
   9543c:	1000021e 	bne	r2,zero,95448 <alt_tick+0x60>
   95440:	e0bffe17 	ldw	r2,-8(fp)
   95444:	10000405 	stb	zero,16(r2)
   95448:	e0bffe17 	ldw	r2,-8(fp)
   9544c:	10c00217 	ldw	r3,8(r2)
   95450:	d0a03817 	ldw	r2,-32544(gp)
   95454:	10c01d36 	bltu	r2,r3,954cc <alt_tick+0xe4>
   95458:	e0bffe17 	ldw	r2,-8(fp)
   9545c:	10800403 	ldbu	r2,16(r2)
   95460:	1004c03a 	cmpne	r2,r2,zero
   95464:	1000191e 	bne	r2,zero,954cc <alt_tick+0xe4>
   95468:	e0bffe17 	ldw	r2,-8(fp)
   9546c:	e0fffe17 	ldw	r3,-8(fp)
   95470:	10800317 	ldw	r2,12(r2)
   95474:	19000517 	ldw	r4,20(r3)
   95478:	103ee83a 	callr	r2
   9547c:	e0bfff15 	stw	r2,-4(fp)
   95480:	e0bfff17 	ldw	r2,-4(fp)
   95484:	1004c03a 	cmpne	r2,r2,zero
   95488:	1000031e 	bne	r2,zero,95498 <alt_tick+0xb0>
   9548c:	e13ffe17 	ldw	r4,-8(fp)
   95490:	009534c0 	call	9534c <alt_alarm_stop>
   95494:	00000d06 	br	954cc <alt_tick+0xe4>
   95498:	e13ffe17 	ldw	r4,-8(fp)
   9549c:	e0bffe17 	ldw	r2,-8(fp)
   954a0:	10c00217 	ldw	r3,8(r2)
   954a4:	e0bfff17 	ldw	r2,-4(fp)
   954a8:	1885883a 	add	r2,r3,r2
   954ac:	20800215 	stw	r2,8(r4)
   954b0:	e0bffe17 	ldw	r2,-8(fp)
   954b4:	10c00217 	ldw	r3,8(r2)
   954b8:	d0a03817 	ldw	r2,-32544(gp)
   954bc:	1880032e 	bgeu	r3,r2,954cc <alt_tick+0xe4>
   954c0:	e0fffe17 	ldw	r3,-8(fp)
   954c4:	00800044 	movi	r2,1
   954c8:	18800405 	stb	r2,16(r3)
   954cc:	e0bffd17 	ldw	r2,-12(fp)
   954d0:	e0bffe15 	stw	r2,-8(fp)
   954d4:	003fcd06 	br	9540c <alt_tick+0x24>
   954d8:	008c7b40 	call	8c7b4 <OSTimeTick>
   954dc:	dfc00417 	ldw	ra,16(sp)
   954e0:	df000317 	ldw	fp,12(sp)
   954e4:	dec00504 	addi	sp,sp,20
   954e8:	f800283a 	ret

000954ec <altera_nios2_qsys_irq_init>:
   954ec:	deffff04 	addi	sp,sp,-4
   954f0:	df000015 	stw	fp,0(sp)
   954f4:	d839883a 	mov	fp,sp
   954f8:	000170fa 	wrctl	ienable,zero
   954fc:	df000017 	ldw	fp,0(sp)
   95500:	dec00104 	addi	sp,sp,4
   95504:	f800283a 	ret

00095508 <OSCtxSw>:
   95508:	defff504 	addi	sp,sp,-44
   9550c:	d0e00117 	ldw	r3,-32764(gp)
   95510:	d1270417 	ldw	r4,-25584(gp)
   95514:	dfc00015 	stw	ra,0(sp)
   95518:	df000115 	stw	fp,4(sp)
   9551c:	ddc00215 	stw	r23,8(sp)
   95520:	dd800315 	stw	r22,12(sp)
   95524:	dd400415 	stw	r21,16(sp)
   95528:	dd000515 	stw	r20,20(sp)
   9552c:	dcc00615 	stw	r19,24(sp)
   95530:	dc800715 	stw	r18,28(sp)
   95534:	dc400815 	stw	r17,32(sp)
   95538:	dc000915 	stw	r16,36(sp)
   9553c:	d8c00a15 	stw	r3,40(sp)
   95540:	26c00015 	stw	sp,0(r4)
   95544:	009592c0 	call	9592c <OSTaskSwHook>
   95548:	d1270617 	ldw	r4,-25576(gp)
   9554c:	d1670107 	ldb	r5,-25596(gp)
   95550:	d1270415 	stw	r4,-25584(gp)
   95554:	d16700c5 	stb	r5,-25597(gp)
   95558:	26c00017 	ldw	sp,0(r4)
   9555c:	d8c00a17 	ldw	r3,40(sp)
   95560:	dfc00017 	ldw	ra,0(sp)
   95564:	df000117 	ldw	fp,4(sp)
   95568:	ddc00217 	ldw	r23,8(sp)
   9556c:	dd800317 	ldw	r22,12(sp)
   95570:	dd400417 	ldw	r21,16(sp)
   95574:	dd000517 	ldw	r20,20(sp)
   95578:	dcc00617 	ldw	r19,24(sp)
   9557c:	dc800717 	ldw	r18,28(sp)
   95580:	dc400817 	ldw	r17,32(sp)
   95584:	dc000917 	ldw	r16,36(sp)
   95588:	d0e00115 	stw	r3,-32764(gp)
   9558c:	dec00b04 	addi	sp,sp,44
   95590:	f800283a 	ret

00095594 <OSStartHighRdy>:
   95594:	0025303a 	rdctl	r18,status
   95598:	047fff84 	movi	r17,-2
   9559c:	9464703a 	and	r18,r18,r17
   955a0:	9001703a 	wrctl	status,r18
   955a4:	009592c0 	call	9592c <OSTaskSwHook>
   955a8:	04800044 	movi	r18,1
   955ac:	d4a70245 	stb	r18,-25591(gp)
   955b0:	003fe506 	br	95548 <OSCtxSw+0x40>

000955b4 <OSStartTsk>:
   955b4:	06c00004 	movi	sp,0
   955b8:	0005303a 	rdctl	r2,status
   955bc:	10800054 	ori	r2,r2,1
   955c0:	1001703a 	wrctl	status,r2
   955c4:	d8800117 	ldw	r2,4(sp)
   955c8:	d9000017 	ldw	r4,0(sp)
   955cc:	dec00204 	addi	sp,sp,8
   955d0:	103ee83a 	callr	r2
   955d4:	0001883a 	nop

000955d8 <OSTaskStkInit>:
   955d8:	defff504 	addi	sp,sp,-44
   955dc:	dfc00a15 	stw	ra,40(sp)
   955e0:	df000915 	stw	fp,36(sp)
   955e4:	df000904 	addi	fp,sp,36
   955e8:	e13ff715 	stw	r4,-36(fp)
   955ec:	e17ff815 	stw	r5,-32(fp)
   955f0:	e1bff915 	stw	r6,-28(fp)
   955f4:	e1fffa0d 	sth	r7,-24(fp)
   955f8:	e0fff917 	ldw	r3,-28(fp)
   955fc:	00bfff04 	movi	r2,-4
   95600:	1884703a 	and	r2,r3,r2
   95604:	10bf2104 	addi	r2,r2,-892
   95608:	e0bffd15 	stw	r2,-12(fp)
   9560c:	e0bffd17 	ldw	r2,-12(fp)
   95610:	10000015 	stw	zero,0(r2)
   95614:	e0fffd17 	ldw	r3,-12(fp)
   95618:	e0bffd17 	ldw	r2,-12(fp)
   9561c:	10809a04 	addi	r2,r2,616
   95620:	18800115 	stw	r2,4(r3)
   95624:	e0fffd17 	ldw	r3,-12(fp)
   95628:	e0bffd17 	ldw	r2,-12(fp)
   9562c:	1080b104 	addi	r2,r2,708
   95630:	18800215 	stw	r2,8(r3)
   95634:	e0fffd17 	ldw	r3,-12(fp)
   95638:	e0bffd17 	ldw	r2,-12(fp)
   9563c:	1080c804 	addi	r2,r2,800
   95640:	18800315 	stw	r2,12(r3)
   95644:	e0bffd17 	ldw	r2,-12(fp)
   95648:	10000415 	stw	zero,16(r2)
   9564c:	e03ffe15 	stw	zero,-8(fp)
   95650:	e0bffe17 	ldw	r2,-8(fp)
   95654:	10800648 	cmpgei	r2,r2,25
   95658:	1000091e 	bne	r2,zero,95680 <OSTaskStkInit+0xa8>
   9565c:	e0fffd17 	ldw	r3,-12(fp)
   95660:	e0bffe17 	ldw	r2,-8(fp)
   95664:	1885883a 	add	r2,r3,r2
   95668:	10800504 	addi	r2,r2,20
   9566c:	10000005 	stb	zero,0(r2)
   95670:	e0bffe17 	ldw	r2,-8(fp)
   95674:	10800044 	addi	r2,r2,1
   95678:	e0bffe15 	stw	r2,-8(fp)
   9567c:	003ff406 	br	95650 <OSTaskStkInit+0x78>
   95680:	e0bffd17 	ldw	r2,-12(fp)
   95684:	10000c15 	stw	zero,48(r2)
   95688:	e0fffd17 	ldw	r3,-12(fp)
   9568c:	00800274 	movhi	r2,9
   95690:	109c0604 	addi	r2,r2,28696
   95694:	18800d15 	stw	r2,52(r3)
   95698:	e0bffd17 	ldw	r2,-12(fp)
   9569c:	10000e15 	stw	zero,56(r2)
   956a0:	e0bffd17 	ldw	r2,-12(fp)
   956a4:	10000f15 	stw	zero,60(r2)
   956a8:	e0bffd17 	ldw	r2,-12(fp)
   956ac:	10001015 	stw	zero,64(r2)
   956b0:	e0bffd17 	ldw	r2,-12(fp)
   956b4:	10001115 	stw	zero,68(r2)
   956b8:	e0bffd17 	ldw	r2,-12(fp)
   956bc:	10001215 	stw	zero,72(r2)
   956c0:	e0bffd17 	ldw	r2,-12(fp)
   956c4:	10001315 	stw	zero,76(r2)
   956c8:	e0bffd17 	ldw	r2,-12(fp)
   956cc:	10001415 	stw	zero,80(r2)
   956d0:	e0bffd17 	ldw	r2,-12(fp)
   956d4:	10001515 	stw	zero,84(r2)
   956d8:	e0bffd17 	ldw	r2,-12(fp)
   956dc:	10001615 	stw	zero,88(r2)
   956e0:	e0bffd17 	ldw	r2,-12(fp)
   956e4:	10001715 	stw	zero,92(r2)
   956e8:	e0bffd17 	ldw	r2,-12(fp)
   956ec:	10001805 	stb	zero,96(r2)
   956f0:	e0bffd17 	ldw	r2,-12(fp)
   956f4:	10801f04 	addi	r2,r2,124
   956f8:	e0bfff15 	stw	r2,-4(fp)
   956fc:	e03ffe15 	stw	zero,-8(fp)
   95700:	e0bffe17 	ldw	r2,-8(fp)
   95704:	10800928 	cmpgeui	r2,r2,36
   95708:	1000081e 	bne	r2,zero,9572c <OSTaskStkInit+0x154>
   9570c:	e0ffff17 	ldw	r3,-4(fp)
   95710:	e0bffe17 	ldw	r2,-8(fp)
   95714:	1885883a 	add	r2,r3,r2
   95718:	10000005 	stb	zero,0(r2)
   9571c:	e0bffe17 	ldw	r2,-8(fp)
   95720:	10800044 	addi	r2,r2,1
   95724:	e0bffe15 	stw	r2,-8(fp)
   95728:	003ff506 	br	95700 <OSTaskStkInit+0x128>
   9572c:	e0bffd17 	ldw	r2,-12(fp)
   95730:	10002815 	stw	zero,160(r2)
   95734:	e0fffd17 	ldw	r3,-12(fp)
   95738:	00800044 	movi	r2,1
   9573c:	18802915 	stw	r2,164(r3)
   95740:	18002a15 	stw	zero,168(r3)
   95744:	e0fffd17 	ldw	r3,-12(fp)
   95748:	008cc384 	movi	r2,13070
   9574c:	18802b0d 	sth	r2,172(r3)
   95750:	e0fffd17 	ldw	r3,-12(fp)
   95754:	00aaf344 	movi	r2,-21555
   95758:	18802b8d 	sth	r2,174(r3)
   9575c:	e0fffd17 	ldw	r3,-12(fp)
   95760:	00848d04 	movi	r2,4660
   95764:	18802c0d 	sth	r2,176(r3)
   95768:	e0fffd17 	ldw	r3,-12(fp)
   9576c:	00b99b44 	movi	r2,-6547
   95770:	18802c8d 	sth	r2,178(r3)
   95774:	e0fffd17 	ldw	r3,-12(fp)
   95778:	00b7bb04 	movi	r2,-8468
   9577c:	18802d0d 	sth	r2,180(r3)
   95780:	e0fffd17 	ldw	r3,-12(fp)
   95784:	00800144 	movi	r2,5
   95788:	18802d8d 	sth	r2,182(r3)
   9578c:	e0fffd17 	ldw	r3,-12(fp)
   95790:	008002c4 	movi	r2,11
   95794:	18802e0d 	sth	r2,184(r3)
   95798:	e0bffd17 	ldw	r2,-12(fp)
   9579c:	10002f15 	stw	zero,188(r2)
   957a0:	e0bffd17 	ldw	r2,-12(fp)
   957a4:	10003015 	stw	zero,192(r2)
   957a8:	e0bffd17 	ldw	r2,-12(fp)
   957ac:	10003115 	stw	zero,196(r2)
   957b0:	e0bffd17 	ldw	r2,-12(fp)
   957b4:	10003215 	stw	zero,200(r2)
   957b8:	e0bffd17 	ldw	r2,-12(fp)
   957bc:	10003315 	stw	zero,204(r2)
   957c0:	e0bffd17 	ldw	r2,-12(fp)
   957c4:	10003415 	stw	zero,208(r2)
   957c8:	e0bffd17 	ldw	r2,-12(fp)
   957cc:	10003e15 	stw	zero,248(r2)
   957d0:	e0bffd17 	ldw	r2,-12(fp)
   957d4:	10003f15 	stw	zero,252(r2)
   957d8:	e0bffd17 	ldw	r2,-12(fp)
   957dc:	10004015 	stw	zero,256(r2)
   957e0:	e0bffd17 	ldw	r2,-12(fp)
   957e4:	10004115 	stw	zero,260(r2)
   957e8:	e0bffd17 	ldw	r2,-12(fp)
   957ec:	10004215 	stw	zero,264(r2)
   957f0:	e0bffd17 	ldw	r2,-12(fp)
   957f4:	10004315 	stw	zero,268(r2)
   957f8:	e0bffd17 	ldw	r2,-12(fp)
   957fc:	10004415 	stw	zero,272(r2)
   95800:	e0bffd17 	ldw	r2,-12(fp)
   95804:	10004515 	stw	zero,276(r2)
   95808:	e0bffd17 	ldw	r2,-12(fp)
   9580c:	10004615 	stw	zero,280(r2)
   95810:	e0bffd17 	ldw	r2,-12(fp)
   95814:	10004715 	stw	zero,284(r2)
   95818:	e0bffd17 	ldw	r2,-12(fp)
   9581c:	10003505 	stb	zero,212(r2)
   95820:	e0bffd17 	ldw	r2,-12(fp)
   95824:	10003705 	stb	zero,220(r2)
   95828:	e0bffd17 	ldw	r2,-12(fp)
   9582c:	10003d15 	stw	zero,244(r2)
   95830:	e0bffd17 	ldw	r2,-12(fp)
   95834:	10005215 	stw	zero,328(r2)
   95838:	e0bffd17 	ldw	r2,-12(fp)
   9583c:	10005415 	stw	zero,336(r2)
   95840:	e0bffd17 	ldw	r2,-12(fp)
   95844:	10005515 	stw	zero,340(r2)
   95848:	e0bffd17 	ldw	r2,-12(fp)
   9584c:	10009515 	stw	zero,596(r2)
   95850:	e0bffd17 	ldw	r2,-12(fp)
   95854:	10007515 	stw	zero,468(r2)
   95858:	e0bffd17 	ldw	r2,-12(fp)
   9585c:	10009615 	stw	zero,600(r2)
   95860:	e0bffd17 	ldw	r2,-12(fp)
   95864:	10009715 	stw	zero,604(r2)
   95868:	e0bffd17 	ldw	r2,-12(fp)
   9586c:	10009815 	stw	zero,608(r2)
   95870:	e0bffd17 	ldw	r2,-12(fp)
   95874:	10009915 	stw	zero,612(r2)
   95878:	e0bffd17 	ldw	r2,-12(fp)
   9587c:	11009a04 	addi	r4,r2,616
   95880:	000b883a 	mov	r5,zero
   95884:	01804504 	movi	r6,276
   95888:	0086c5c0 	call	86c5c <memset>
   9588c:	e0bffd17 	ldw	r2,-12(fp)
   95890:	e0bffb15 	stw	r2,-20(fp)
   95894:	e0bffb17 	ldw	r2,-20(fp)
   95898:	10bff304 	addi	r2,r2,-52
   9589c:	e0bffc15 	stw	r2,-16(fp)
   958a0:	e0bffc17 	ldw	r2,-16(fp)
   958a4:	10c00c04 	addi	r3,r2,48
   958a8:	e0bff717 	ldw	r2,-36(fp)
   958ac:	18800015 	stw	r2,0(r3)
   958b0:	e0bffc17 	ldw	r2,-16(fp)
   958b4:	10c00b04 	addi	r3,r2,44
   958b8:	e0bff817 	ldw	r2,-32(fp)
   958bc:	18800015 	stw	r2,0(r3)
   958c0:	e0bffc17 	ldw	r2,-16(fp)
   958c4:	10c00a04 	addi	r3,r2,40
   958c8:	e0bffd17 	ldw	r2,-12(fp)
   958cc:	18800015 	stw	r2,0(r3)
   958d0:	e0fffc17 	ldw	r3,-16(fp)
   958d4:	00800274 	movhi	r2,9
   958d8:	10956e04 	addi	r2,r2,21944
   958dc:	18800015 	stw	r2,0(r3)
   958e0:	e0bffc17 	ldw	r2,-16(fp)
   958e4:	dfc00a17 	ldw	ra,40(sp)
   958e8:	df000917 	ldw	fp,36(sp)
   958ec:	dec00b04 	addi	sp,sp,44
   958f0:	f800283a 	ret

000958f4 <OSTaskCreateHook>:
   958f4:	defffe04 	addi	sp,sp,-8
   958f8:	df000115 	stw	fp,4(sp)
   958fc:	df000104 	addi	fp,sp,4
   95900:	e13fff15 	stw	r4,-4(fp)
   95904:	df000117 	ldw	fp,4(sp)
   95908:	dec00204 	addi	sp,sp,8
   9590c:	f800283a 	ret

00095910 <OSTaskDelHook>:
   95910:	defffe04 	addi	sp,sp,-8
   95914:	df000115 	stw	fp,4(sp)
   95918:	df000104 	addi	fp,sp,4
   9591c:	e13fff15 	stw	r4,-4(fp)
   95920:	df000117 	ldw	fp,4(sp)
   95924:	dec00204 	addi	sp,sp,8
   95928:	f800283a 	ret

0009592c <OSTaskSwHook>:
   9592c:	deffff04 	addi	sp,sp,-4
   95930:	df000015 	stw	fp,0(sp)
   95934:	d839883a 	mov	fp,sp
   95938:	df000017 	ldw	fp,0(sp)
   9593c:	dec00104 	addi	sp,sp,4
   95940:	f800283a 	ret

00095944 <OSTaskStatHook>:
   95944:	deffff04 	addi	sp,sp,-4
   95948:	df000015 	stw	fp,0(sp)
   9594c:	d839883a 	mov	fp,sp
   95950:	df000017 	ldw	fp,0(sp)
   95954:	dec00104 	addi	sp,sp,4
   95958:	f800283a 	ret

0009595c <OSTimeTickHook>:
   9595c:	deffff04 	addi	sp,sp,-4
   95960:	df000015 	stw	fp,0(sp)
   95964:	d839883a 	mov	fp,sp
   95968:	df000017 	ldw	fp,0(sp)
   9596c:	dec00104 	addi	sp,sp,4
   95970:	f800283a 	ret

00095974 <OSInitHookBegin>:
   95974:	deffff04 	addi	sp,sp,-4
   95978:	df000015 	stw	fp,0(sp)
   9597c:	d839883a 	mov	fp,sp
   95980:	df000017 	ldw	fp,0(sp)
   95984:	dec00104 	addi	sp,sp,4
   95988:	f800283a 	ret

0009598c <OSInitHookEnd>:
   9598c:	deffff04 	addi	sp,sp,-4
   95990:	df000015 	stw	fp,0(sp)
   95994:	d839883a 	mov	fp,sp
   95998:	df000017 	ldw	fp,0(sp)
   9599c:	dec00104 	addi	sp,sp,4
   959a0:	f800283a 	ret

000959a4 <OSTaskIdleHook>:
   959a4:	deffff04 	addi	sp,sp,-4
   959a8:	df000015 	stw	fp,0(sp)
   959ac:	d839883a 	mov	fp,sp
   959b0:	df000017 	ldw	fp,0(sp)
   959b4:	dec00104 	addi	sp,sp,4
   959b8:	f800283a 	ret

000959bc <OSTCBInitHook>:
   959bc:	defffe04 	addi	sp,sp,-8
   959c0:	df000115 	stw	fp,4(sp)
   959c4:	df000104 	addi	fp,sp,4
   959c8:	e13fff15 	stw	r4,-4(fp)
   959cc:	df000117 	ldw	fp,4(sp)
   959d0:	dec00204 	addi	sp,sp,8
   959d4:	f800283a 	ret

000959d8 <alt_find_file>:
   959d8:	defffa04 	addi	sp,sp,-24
   959dc:	dfc00515 	stw	ra,20(sp)
   959e0:	df000415 	stw	fp,16(sp)
   959e4:	df000404 	addi	fp,sp,16
   959e8:	e13ffc15 	stw	r4,-16(fp)
   959ec:	d0a00c17 	ldw	r2,-32720(gp)
   959f0:	e0bffd15 	stw	r2,-12(fp)
   959f4:	e0fffd17 	ldw	r3,-12(fp)
   959f8:	d0a00c04 	addi	r2,gp,-32720
   959fc:	18802926 	beq	r3,r2,95aa4 <alt_find_file+0xcc>
   95a00:	e0bffd17 	ldw	r2,-12(fp)
   95a04:	11000217 	ldw	r4,8(r2)
   95a08:	00884ac0 	call	884ac <strlen>
   95a0c:	e0bffe15 	stw	r2,-8(fp)
   95a10:	e0bffd17 	ldw	r2,-12(fp)
   95a14:	10c00217 	ldw	r3,8(r2)
   95a18:	e0bffe17 	ldw	r2,-8(fp)
   95a1c:	1885883a 	add	r2,r3,r2
   95a20:	10bfffc4 	addi	r2,r2,-1
   95a24:	10800007 	ldb	r2,0(r2)
   95a28:	10800bd8 	cmpnei	r2,r2,47
   95a2c:	1000031e 	bne	r2,zero,95a3c <alt_find_file+0x64>
   95a30:	e0bffe17 	ldw	r2,-8(fp)
   95a34:	10bfffc4 	addi	r2,r2,-1
   95a38:	e0bffe15 	stw	r2,-8(fp)
   95a3c:	e0fffc17 	ldw	r3,-16(fp)
   95a40:	e0bffe17 	ldw	r2,-8(fp)
   95a44:	1885883a 	add	r2,r3,r2
   95a48:	10800007 	ldb	r2,0(r2)
   95a4c:	10800be0 	cmpeqi	r2,r2,47
   95a50:	1000061e 	bne	r2,zero,95a6c <alt_find_file+0x94>
   95a54:	e0fffc17 	ldw	r3,-16(fp)
   95a58:	e0bffe17 	ldw	r2,-8(fp)
   95a5c:	1885883a 	add	r2,r3,r2
   95a60:	10800007 	ldb	r2,0(r2)
   95a64:	1004c03a 	cmpne	r2,r2,zero
   95a68:	10000a1e 	bne	r2,zero,95a94 <alt_find_file+0xbc>
   95a6c:	e0bffd17 	ldw	r2,-12(fp)
   95a70:	11000217 	ldw	r4,8(r2)
   95a74:	e17ffc17 	ldw	r5,-16(fp)
   95a78:	e1bffe17 	ldw	r6,-8(fp)
   95a7c:	0095d240 	call	95d24 <memcmp>
   95a80:	1004c03a 	cmpne	r2,r2,zero
   95a84:	1000031e 	bne	r2,zero,95a94 <alt_find_file+0xbc>
   95a88:	e0bffd17 	ldw	r2,-12(fp)
   95a8c:	e0bfff15 	stw	r2,-4(fp)
   95a90:	00000506 	br	95aa8 <alt_find_file+0xd0>
   95a94:	e0bffd17 	ldw	r2,-12(fp)
   95a98:	10800017 	ldw	r2,0(r2)
   95a9c:	e0bffd15 	stw	r2,-12(fp)
   95aa0:	003fd406 	br	959f4 <alt_find_file+0x1c>
   95aa4:	e03fff15 	stw	zero,-4(fp)
   95aa8:	e0bfff17 	ldw	r2,-4(fp)
   95aac:	dfc00517 	ldw	ra,20(sp)
   95ab0:	df000417 	ldw	fp,16(sp)
   95ab4:	dec00604 	addi	sp,sp,24
   95ab8:	f800283a 	ret

00095abc <alt_get_fd>:
   95abc:	defff604 	addi	sp,sp,-40
   95ac0:	dfc00915 	stw	ra,36(sp)
   95ac4:	df000815 	stw	fp,32(sp)
   95ac8:	dc000715 	stw	r16,28(sp)
   95acc:	df000804 	addi	fp,sp,32
   95ad0:	e13ff815 	stw	r4,-32(fp)
   95ad4:	00bffa04 	movi	r2,-24
   95ad8:	e0bffa15 	stw	r2,-24(fp)
   95adc:	d0a6f517 	ldw	r2,-25644(gp)
   95ae0:	e0bffb15 	stw	r2,-20(fp)
   95ae4:	e03ffc0d 	sth	zero,-16(fp)
   95ae8:	e17ffc0b 	ldhu	r5,-16(fp)
   95aec:	e1bffe04 	addi	r6,fp,-8
   95af0:	e13ffb17 	ldw	r4,-20(fp)
   95af4:	00910ec0 	call	910ec <OSSemPend>
   95af8:	e0bffe03 	ldbu	r2,-8(fp)
   95afc:	e0bffd15 	stw	r2,-12(fp)
   95b00:	e03ff915 	stw	zero,-28(fp)
   95b04:	e0bff917 	ldw	r2,-28(fp)
   95b08:	10800808 	cmpgei	r2,r2,32
   95b0c:	10001d1e 	bne	r2,zero,95b84 <alt_get_fd+0xc8>
   95b10:	04000274 	movhi	r16,9
   95b14:	841dff04 	addi	r16,r16,30716
   95b18:	e13ff917 	ldw	r4,-28(fp)
   95b1c:	01400304 	movi	r5,12
   95b20:	0081aec0 	call	81aec <__mulsi3>
   95b24:	1405883a 	add	r2,r2,r16
   95b28:	10800017 	ldw	r2,0(r2)
   95b2c:	1004c03a 	cmpne	r2,r2,zero
   95b30:	1000101e 	bne	r2,zero,95b74 <alt_get_fd+0xb8>
   95b34:	04000274 	movhi	r16,9
   95b38:	841dff04 	addi	r16,r16,30716
   95b3c:	e13ff917 	ldw	r4,-28(fp)
   95b40:	01400304 	movi	r5,12
   95b44:	0081aec0 	call	81aec <__mulsi3>
   95b48:	1407883a 	add	r3,r2,r16
   95b4c:	e0bff817 	ldw	r2,-32(fp)
   95b50:	18800015 	stw	r2,0(r3)
   95b54:	e0fff917 	ldw	r3,-28(fp)
   95b58:	d0a01017 	ldw	r2,-32704(gp)
   95b5c:	10c0020e 	bge	r2,r3,95b68 <alt_get_fd+0xac>
   95b60:	e0bff917 	ldw	r2,-28(fp)
   95b64:	d0a01015 	stw	r2,-32704(gp)
   95b68:	e0bff917 	ldw	r2,-28(fp)
   95b6c:	e0bffa15 	stw	r2,-24(fp)
   95b70:	00000406 	br	95b84 <alt_get_fd+0xc8>
   95b74:	e0bff917 	ldw	r2,-28(fp)
   95b78:	10800044 	addi	r2,r2,1
   95b7c:	e0bff915 	stw	r2,-28(fp)
   95b80:	003fe006 	br	95b04 <alt_get_fd+0x48>
   95b84:	d126f517 	ldw	r4,-25644(gp)
   95b88:	00914740 	call	91474 <OSSemPost>
   95b8c:	e0bffa17 	ldw	r2,-24(fp)
   95b90:	dfc00917 	ldw	ra,36(sp)
   95b94:	df000817 	ldw	fp,32(sp)
   95b98:	dc000717 	ldw	r16,28(sp)
   95b9c:	dec00a04 	addi	sp,sp,40
   95ba0:	f800283a 	ret

00095ba4 <atexit>:
   95ba4:	d0a00117 	ldw	r2,-32764(gp)
   95ba8:	defffe04 	addi	sp,sp,-8
   95bac:	dc000015 	stw	r16,0(sp)
   95bb0:	dfc00115 	stw	ra,4(sp)
   95bb4:	11405217 	ldw	r5,328(r2)
   95bb8:	2021883a 	mov	r16,r4
   95bbc:	01004304 	movi	r4,268
   95bc0:	28001b26 	beq	r5,zero,95c30 <atexit+0x8c>
   95bc4:	28c00117 	ldw	r3,4(r5)
   95bc8:	008007c4 	movi	r2,31
   95bcc:	10c00d16 	blt	r2,r3,95c04 <atexit+0x60>
   95bd0:	28800104 	addi	r2,r5,4
   95bd4:	10c00017 	ldw	r3,0(r2)
   95bd8:	000d883a 	mov	r6,zero
   95bdc:	180890ba 	slli	r4,r3,2
   95be0:	18c00044 	addi	r3,r3,1
   95be4:	10c00015 	stw	r3,0(r2)
   95be8:	2149883a 	add	r4,r4,r5
   95bec:	24000215 	stw	r16,8(r4)
   95bf0:	3005883a 	mov	r2,r6
   95bf4:	dfc00117 	ldw	ra,4(sp)
   95bf8:	dc000017 	ldw	r16,0(sp)
   95bfc:	dec00204 	addi	sp,sp,8
   95c00:	f800283a 	ret
   95c04:	00862ec0 	call	862ec <malloc>
   95c08:	100b883a 	mov	r5,r2
   95c0c:	01bfffc4 	movi	r6,-1
   95c10:	103ff726 	beq	r2,zero,95bf0 <atexit+0x4c>
   95c14:	d0e00117 	ldw	r3,-32764(gp)
   95c18:	10004215 	stw	zero,264(r2)
   95c1c:	10000115 	stw	zero,4(r2)
   95c20:	18805217 	ldw	r2,328(r3)
   95c24:	28800015 	stw	r2,0(r5)
   95c28:	19405215 	stw	r5,328(r3)
   95c2c:	003fe806 	br	95bd0 <atexit+0x2c>
   95c30:	014002b4 	movhi	r5,10
   95c34:	2956b004 	addi	r5,r5,23232
   95c38:	11405215 	stw	r5,328(r2)
   95c3c:	003fe106 	br	95bc4 <atexit+0x20>

00095c40 <exit>:
   95c40:	d0a00117 	ldw	r2,-32764(gp)
   95c44:	defff804 	addi	sp,sp,-32
   95c48:	dd800015 	stw	r22,0(sp)
   95c4c:	dfc00715 	stw	ra,28(sp)
   95c50:	dc000615 	stw	r16,24(sp)
   95c54:	dc400515 	stw	r17,20(sp)
   95c58:	dc800415 	stw	r18,16(sp)
   95c5c:	dcc00315 	stw	r19,12(sp)
   95c60:	dd000215 	stw	r20,8(sp)
   95c64:	dd400115 	stw	r21,4(sp)
   95c68:	15005217 	ldw	r20,328(r2)
   95c6c:	202d883a 	mov	r22,r4
   95c70:	a0002526 	beq	r20,zero,95d08 <exit+0xc8>
   95c74:	a0800117 	ldw	r2,4(r20)
   95c78:	a5402204 	addi	r21,r20,136
   95c7c:	0027883a 	mov	r19,zero
   95c80:	14bfffc4 	addi	r18,r2,-1
   95c84:	9006803a 	cmplt	r3,r18,zero
   95c88:	1800021e 	bne	r3,zero,95c94 <exit+0x54>
   95c8c:	00800044 	movi	r2,1
   95c90:	14a6983a 	sll	r19,r2,r18
   95c94:	1800191e 	bne	r3,zero,95cfc <exit+0xbc>
   95c98:	900690ba 	slli	r3,r18,2
   95c9c:	1d05883a 	add	r2,r3,r20
   95ca0:	14400204 	addi	r17,r2,8
   95ca4:	1821883a 	mov	r16,r3
   95ca8:	00000806 	br	95ccc <exit+0x8c>
   95cac:	88800017 	ldw	r2,0(r17)
   95cb0:	29400017 	ldw	r5,0(r5)
   95cb4:	94bfffc4 	addi	r18,r18,-1
   95cb8:	843fff04 	addi	r16,r16,-4
   95cbc:	103ee83a 	callr	r2
   95cc0:	8c7fff04 	addi	r17,r17,-4
   95cc4:	9827d07a 	srai	r19,r19,1
   95cc8:	90000c16 	blt	r18,zero,95cfc <exit+0xbc>
   95ccc:	a8802017 	ldw	r2,128(r21)
   95cd0:	854b883a 	add	r5,r16,r21
   95cd4:	b009883a 	mov	r4,r22
   95cd8:	14c4703a 	and	r2,r2,r19
   95cdc:	103ff31e 	bne	r2,zero,95cac <exit+0x6c>
   95ce0:	88800017 	ldw	r2,0(r17)
   95ce4:	94bfffc4 	addi	r18,r18,-1
   95ce8:	843fff04 	addi	r16,r16,-4
   95cec:	103ee83a 	callr	r2
   95cf0:	8c7fff04 	addi	r17,r17,-4
   95cf4:	9827d07a 	srai	r19,r19,1
   95cf8:	903ff40e 	bge	r18,zero,95ccc <exit+0x8c>
   95cfc:	a5000017 	ldw	r20,0(r20)
   95d00:	a03fdc1e 	bne	r20,zero,95c74 <exit+0x34>
   95d04:	d0a00117 	ldw	r2,-32764(gp)
   95d08:	10c00f17 	ldw	r3,60(r2)
   95d0c:	1800021e 	bne	r3,zero,95d18 <exit+0xd8>
   95d10:	b009883a 	mov	r4,r22
   95d14:	0095f740 	call	95f74 <_exit>
   95d18:	1009883a 	mov	r4,r2
   95d1c:	183ee83a 	callr	r3
   95d20:	003ffb06 	br	95d10 <exit+0xd0>

00095d24 <memcmp>:
   95d24:	01c000c4 	movi	r7,3
   95d28:	3980032e 	bgeu	r7,r6,95d38 <memcmp+0x14>
   95d2c:	2144b03a 	or	r2,r4,r5
   95d30:	11c4703a 	and	r2,r2,r7
   95d34:	10000d26 	beq	r2,zero,95d6c <memcmp+0x48>
   95d38:	31bfffc4 	addi	r6,r6,-1
   95d3c:	00bfffc4 	movi	r2,-1
   95d40:	30800826 	beq	r6,r2,95d64 <memcmp+0x40>
   95d44:	100f883a 	mov	r7,r2
   95d48:	20c00003 	ldbu	r3,0(r4)
   95d4c:	28800003 	ldbu	r2,0(r5)
   95d50:	31bfffc4 	addi	r6,r6,-1
   95d54:	21000044 	addi	r4,r4,1
   95d58:	29400044 	addi	r5,r5,1
   95d5c:	18800b1e 	bne	r3,r2,95d8c <memcmp+0x68>
   95d60:	31fff91e 	bne	r6,r7,95d48 <memcmp+0x24>
   95d64:	0005883a 	mov	r2,zero
   95d68:	f800283a 	ret
   95d6c:	20c00017 	ldw	r3,0(r4)
   95d70:	28800017 	ldw	r2,0(r5)
   95d74:	18bff01e 	bne	r3,r2,95d38 <memcmp+0x14>
   95d78:	31bfff04 	addi	r6,r6,-4
   95d7c:	21000104 	addi	r4,r4,4
   95d80:	29400104 	addi	r5,r5,4
   95d84:	39bff936 	bltu	r7,r6,95d6c <memcmp+0x48>
   95d88:	003feb06 	br	95d38 <memcmp+0x14>
   95d8c:	1885c83a 	sub	r2,r3,r2
   95d90:	f800283a 	ret

00095d94 <putc>:
   95d94:	deffff04 	addi	sp,sp,-4
   95d98:	dfc00015 	stw	ra,0(sp)
   95d9c:	28800217 	ldw	r2,8(r5)
   95da0:	10ffffc4 	addi	r3,r2,-1
   95da4:	28c00215 	stw	r3,8(r5)
   95da8:	18000a16 	blt	r3,zero,95dd4 <putc+0x40>
   95dac:	28c00017 	ldw	r3,0(r5)
   95db0:	19000005 	stb	r4,0(r3)
   95db4:	28800017 	ldw	r2,0(r5)
   95db8:	11c00003 	ldbu	r7,0(r2)
   95dbc:	10800044 	addi	r2,r2,1
   95dc0:	28800015 	stw	r2,0(r5)
   95dc4:	3805883a 	mov	r2,r7
   95dc8:	dfc00017 	ldw	ra,0(sp)
   95dcc:	dec00104 	addi	sp,sp,4
   95dd0:	f800283a 	ret
   95dd4:	28800617 	ldw	r2,24(r5)
   95dd8:	18800e16 	blt	r3,r2,95e14 <putc+0x80>
   95ddc:	28800017 	ldw	r2,0(r5)
   95de0:	11000005 	stb	r4,0(r2)
   95de4:	29000017 	ldw	r4,0(r5)
   95de8:	00800284 	movi	r2,10
   95dec:	20c00003 	ldbu	r3,0(r4)
   95df0:	22000044 	addi	r8,r4,1
   95df4:	180f883a 	mov	r7,r3
   95df8:	1809883a 	mov	r4,r3
   95dfc:	18800526 	beq	r3,r2,95e14 <putc+0x80>
   95e00:	3805883a 	mov	r2,r7
   95e04:	2a000015 	stw	r8,0(r5)
   95e08:	dfc00017 	ldw	ra,0(sp)
   95e0c:	dec00104 	addi	sp,sp,4
   95e10:	f800283a 	ret
   95e14:	0095e200 	call	95e20 <__swbuf>
   95e18:	100f883a 	mov	r7,r2
   95e1c:	003fe906 	br	95dc4 <putc+0x30>

00095e20 <__swbuf>:
   95e20:	d0e00117 	ldw	r3,-32764(gp)
   95e24:	defffd04 	addi	sp,sp,-12
   95e28:	dc000115 	stw	r16,4(sp)
   95e2c:	dfc00215 	stw	ra,8(sp)
   95e30:	18800e17 	ldw	r2,56(r3)
   95e34:	2021883a 	mov	r16,r4
   95e38:	10003526 	beq	r2,zero,95f10 <__swbuf+0xf0>
   95e3c:	2880030b 	ldhu	r2,12(r5)
   95e40:	28c00617 	ldw	r3,24(r5)
   95e44:	1080020c 	andi	r2,r2,8
   95e48:	28c00215 	stw	r3,8(r5)
   95e4c:	10001b26 	beq	r2,zero,95ebc <__swbuf+0x9c>
   95e50:	28c00417 	ldw	r3,16(r5)
   95e54:	18001926 	beq	r3,zero,95ebc <__swbuf+0x9c>
   95e58:	29800017 	ldw	r6,0(r5)
   95e5c:	28800517 	ldw	r2,20(r5)
   95e60:	84003fcc 	andi	r16,r16,255
   95e64:	30c9c83a 	sub	r4,r6,r3
   95e68:	2080200e 	bge	r4,r2,95eec <__swbuf+0xcc>
   95e6c:	28800217 	ldw	r2,8(r5)
   95e70:	30c00044 	addi	r3,r6,1
   95e74:	21000044 	addi	r4,r4,1
   95e78:	10bfffc4 	addi	r2,r2,-1
   95e7c:	28800215 	stw	r2,8(r5)
   95e80:	34000005 	stb	r16,0(r6)
   95e84:	28800517 	ldw	r2,20(r5)
   95e88:	28c00015 	stw	r3,0(r5)
   95e8c:	20802526 	beq	r4,r2,95f24 <__swbuf+0x104>
   95e90:	2880030b 	ldhu	r2,12(r5)
   95e94:	1080004c 	andi	r2,r2,1
   95e98:	10000226 	beq	r2,zero,95ea4 <__swbuf+0x84>
   95e9c:	00800284 	movi	r2,10
   95ea0:	80802026 	beq	r16,r2,95f24 <__swbuf+0x104>
   95ea4:	8007883a 	mov	r3,r16
   95ea8:	1805883a 	mov	r2,r3
   95eac:	dfc00217 	ldw	ra,8(sp)
   95eb0:	dc000117 	ldw	r16,4(sp)
   95eb4:	dec00304 	addi	sp,sp,12
   95eb8:	f800283a 	ret
   95ebc:	2809883a 	mov	r4,r5
   95ec0:	d9400015 	stw	r5,0(sp)
   95ec4:	0083f840 	call	83f84 <__swsetup>
   95ec8:	00ffffc4 	movi	r3,-1
   95ecc:	d9400017 	ldw	r5,0(sp)
   95ed0:	103ff51e 	bne	r2,zero,95ea8 <__swbuf+0x88>
   95ed4:	28c00417 	ldw	r3,16(r5)
   95ed8:	29800017 	ldw	r6,0(r5)
   95edc:	28800517 	ldw	r2,20(r5)
   95ee0:	84003fcc 	andi	r16,r16,255
   95ee4:	30c9c83a 	sub	r4,r6,r3
   95ee8:	20bfe016 	blt	r4,r2,95e6c <__swbuf+0x4c>
   95eec:	2809883a 	mov	r4,r5
   95ef0:	d9400015 	stw	r5,0(sp)
   95ef4:	00856a80 	call	856a8 <fflush>
   95ef8:	00ffffc4 	movi	r3,-1
   95efc:	d9400017 	ldw	r5,0(sp)
   95f00:	103fe91e 	bne	r2,zero,95ea8 <__swbuf+0x88>
   95f04:	29800017 	ldw	r6,0(r5)
   95f08:	0009883a 	mov	r4,zero
   95f0c:	003fd706 	br	95e6c <__swbuf+0x4c>
   95f10:	1809883a 	mov	r4,r3
   95f14:	d9400015 	stw	r5,0(sp)
   95f18:	008580c0 	call	8580c <__sinit>
   95f1c:	d9400017 	ldw	r5,0(sp)
   95f20:	003fc606 	br	95e3c <__swbuf+0x1c>
   95f24:	2809883a 	mov	r4,r5
   95f28:	00856a80 	call	856a8 <fflush>
   95f2c:	00ffffc4 	movi	r3,-1
   95f30:	103fdc26 	beq	r2,zero,95ea4 <__swbuf+0x84>
   95f34:	003fdc06 	br	95ea8 <__swbuf+0x88>

00095f38 <alt_sim_halt>:
   95f38:	defffd04 	addi	sp,sp,-12
   95f3c:	df000215 	stw	fp,8(sp)
   95f40:	df000204 	addi	fp,sp,8
   95f44:	e13ffe15 	stw	r4,-8(fp)
   95f48:	e0bffe17 	ldw	r2,-8(fp)
   95f4c:	e0bfff15 	stw	r2,-4(fp)
   95f50:	e0bfff17 	ldw	r2,-4(fp)
   95f54:	1005003a 	cmpeq	r2,r2,zero
   95f58:	1000021e 	bne	r2,zero,95f64 <alt_sim_halt+0x2c>
   95f5c:	002af070 	cmpltui	zero,zero,43969
   95f60:	00000106 	br	95f68 <alt_sim_halt+0x30>
   95f64:	002af0b0 	cmpltui	zero,zero,43970
   95f68:	df000217 	ldw	fp,8(sp)
   95f6c:	dec00304 	addi	sp,sp,12
   95f70:	f800283a 	ret

00095f74 <_exit>:
   95f74:	defffd04 	addi	sp,sp,-12
   95f78:	dfc00215 	stw	ra,8(sp)
   95f7c:	df000115 	stw	fp,4(sp)
   95f80:	df000104 	addi	fp,sp,4
   95f84:	e13fff15 	stw	r4,-4(fp)
   95f88:	d0270245 	stb	zero,-25591(gp)
   95f8c:	e13fff17 	ldw	r4,-4(fp)
   95f90:	0095f380 	call	95f38 <alt_sim_halt>
   95f94:	003fff06 	br	95f94 <_exit+0x20>
